
setAdressI2C.elf:     file format elf32-littlearm
architecture: arm, flags 0x00000112:
EXEC_P, HAS_SYMS, D_PAGED
start address 0x00000421


Disassembly of section .text:

00000000 <__isr_vector>:
       0:	10008000 	.word	0x10008000
       4:	00000421 	.word	0x00000421
       8:	00000455 	.word	0x00000455
       c:	00000457 	.word	0x00000457
      10:	00000459 	.word	0x00000459
      14:	0000045b 	.word	0x0000045b
      18:	0000045d 	.word	0x0000045d
	...
      2c:	0000045f 	.word	0x0000045f
      30:	00000461 	.word	0x00000461
      34:	00000000 	.word	0x00000000
      38:	00000463 	.word	0x00000463
      3c:	00000465 	.word	0x00000465
      40:	00000469 	.word	0x00000469
      44:	0000046b 	.word	0x0000046b
      48:	0000046d 	.word	0x0000046d
      4c:	0000046f 	.word	0x0000046f
      50:	00000471 	.word	0x00000471
      54:	00000473 	.word	0x00000473
      58:	00000475 	.word	0x00000475
      5c:	00000477 	.word	0x00000477
      60:	00000479 	.word	0x00000479
      64:	0000047b 	.word	0x0000047b
      68:	0000047d 	.word	0x0000047d
      6c:	0000047f 	.word	0x0000047f
      70:	00000481 	.word	0x00000481
      74:	00000483 	.word	0x00000483
      78:	00000485 	.word	0x00000485
      7c:	00000487 	.word	0x00000487
      80:	00000489 	.word	0x00000489
      84:	0000048b 	.word	0x0000048b
      88:	0000048d 	.word	0x0000048d
      8c:	0000048f 	.word	0x0000048f
      90:	00000491 	.word	0x00000491
      94:	00000493 	.word	0x00000493
      98:	00000495 	.word	0x00000495
      9c:	00000497 	.word	0x00000497
      a0:	00000499 	.word	0x00000499
      a4:	0000049b 	.word	0x0000049b
      a8:	0000049d 	.word	0x0000049d
      ac:	0000049f 	.word	0x0000049f
      b0:	000004a1 	.word	0x000004a1
      b4:	000004a3 	.word	0x000004a3
      b8:	000004a5 	.word	0x000004a5
      bc:	000004a7 	.word	0x000004a7
      c0:	000004a9 	.word	0x000004a9
      c4:	000004ab 	.word	0x000004ab
      c8:	000004ad 	.word	0x000004ad

000000cc <__do_global_dtors_aux>:
      cc:	b510      	push	{r4, lr}
      ce:	4c05      	ldr	r4, [pc, #20]	; (e4 <__do_global_dtors_aux+0x18>)
      d0:	7823      	ldrb	r3, [r4, #0]
      d2:	b933      	cbnz	r3, e2 <__do_global_dtors_aux+0x16>
      d4:	4804      	ldr	r0, [pc, #16]	; (e8 <__do_global_dtors_aux+0x1c>)
      d6:	b110      	cbz	r0, de <__do_global_dtors_aux+0x12>
      d8:	4804      	ldr	r0, [pc, #16]	; (ec <__do_global_dtors_aux+0x20>)
      da:	f3af 8000 	nop.w
      de:	2101      	movs	r1, #1
      e0:	7021      	strb	r1, [r4, #0]
      e2:	bd10      	pop	{r4, pc}
      e4:	100001a8 	.word	0x100001a8
      e8:	00000000 	.word	0x00000000
      ec:	00008d64 	.word	0x00008d64

000000f0 <frame_dummy>:
      f0:	b508      	push	{r3, lr}
      f2:	4b06      	ldr	r3, [pc, #24]	; (10c <frame_dummy+0x1c>)
      f4:	b11b      	cbz	r3, fe <frame_dummy+0xe>
      f6:	4806      	ldr	r0, [pc, #24]	; (110 <frame_dummy+0x20>)
      f8:	4906      	ldr	r1, [pc, #24]	; (114 <frame_dummy+0x24>)
      fa:	f3af 8000 	nop.w
      fe:	4806      	ldr	r0, [pc, #24]	; (118 <frame_dummy+0x28>)
     100:	6801      	ldr	r1, [r0, #0]
     102:	b111      	cbz	r1, 10a <frame_dummy+0x1a>
     104:	4a05      	ldr	r2, [pc, #20]	; (11c <frame_dummy+0x2c>)
     106:	b102      	cbz	r2, 10a <frame_dummy+0x1a>
     108:	4790      	blx	r2
     10a:	bd08      	pop	{r3, pc}
     10c:	00000000 	.word	0x00000000
     110:	00008d64 	.word	0x00008d64
     114:	100001ac 	.word	0x100001ac
     118:	100001a8 	.word	0x100001a8
     11c:	00000000 	.word	0x00000000

00000120 <_ZN4mbed6SerialD1Ev>:
     120:	4b05      	ldr	r3, [pc, #20]	; (138 <_ZN4mbed6SerialD1Ev+0x18>)
     122:	b510      	push	{r4, lr}
     124:	f103 0234 	add.w	r2, r3, #52	; 0x34
     128:	4604      	mov	r4, r0
     12a:	6003      	str	r3, [r0, #0]
     12c:	6042      	str	r2, [r0, #4]
     12e:	f000 fd45 	bl	bbc <_ZN4mbed6StreamD1Ev>
     132:	4620      	mov	r0, r4
     134:	bd10      	pop	{r4, pc}
     136:	bf00      	nop
     138:	00008410 	.word	0x00008410

0000013c <_ZThn4_N4mbed6SerialD1Ev>:
     13c:	f1a0 0004 	sub.w	r0, r0, #4
     140:	f7ff bfee 	b.w	120 <_ZN4mbed6SerialD1Ev>

00000144 <_ZN5SRF08D1Ev>:
     144:	4a04      	ldr	r2, [pc, #16]	; (158 <_ZN5SRF08D1Ev+0x14>)
     146:	b510      	push	{r4, lr}
     148:	4604      	mov	r4, r0
     14a:	f840 2f0c 	str.w	r2, [r0, #12]!
     14e:	f000 fe01 	bl	d54 <_ZN4mbed10TimerEventD1Ev>
     152:	4620      	mov	r0, r4
     154:	bd10      	pop	{r4, pc}
     156:	bf00      	nop
     158:	00008560 	.word	0x00008560

0000015c <main>:
     15c:	b538      	push	{r3, r4, r5, lr}
     15e:	4819      	ldr	r0, [pc, #100]	; (1c4 <main+0x68>)
     160:	4919      	ldr	r1, [pc, #100]	; (1c8 <main+0x6c>)
     162:	f000 fd75 	bl	c50 <_ZN4mbed6Stream6printfEPKcz>
     166:	4819      	ldr	r0, [pc, #100]	; (1cc <main+0x70>)
     168:	f000 f8ca 	bl	300 <_ZN5SRF0812startRangingEv>
     16c:	e005      	b.n	17a <main+0x1e>
     16e:	f24d 700a 	movw	r0, #55050	; 0xd70a
     172:	f6c3 4023 	movt	r0, #15395	; 0x3c23
     176:	f000 fa63 	bl	640 <wait>
     17a:	4814      	ldr	r0, [pc, #80]	; (1cc <main+0x70>)
     17c:	f000 f8ea 	bl	354 <_ZN5SRF0815rangingFinishedEv>
     180:	2800      	cmp	r0, #0
     182:	d0f4      	beq.n	16e <main+0x12>
     184:	4811      	ldr	r0, [pc, #68]	; (1cc <main+0x70>)
     186:	f000 f8eb 	bl	360 <_ZN5SRF088getRangeEv>
     18a:	4605      	mov	r5, r0
     18c:	480f      	ldr	r0, [pc, #60]	; (1cc <main+0x70>)
     18e:	f000 f909 	bl	3a4 <_ZN5SRF0817getLightIntensityEv>
     192:	490f      	ldr	r1, [pc, #60]	; (1d0 <main+0x74>)
     194:	4604      	mov	r4, r0
     196:	480b      	ldr	r0, [pc, #44]	; (1c4 <main+0x68>)
     198:	f000 fd5a 	bl	c50 <_ZN4mbed6Stream6printfEPKcz>
     19c:	462a      	mov	r2, r5
     19e:	490d      	ldr	r1, [pc, #52]	; (1d4 <main+0x78>)
     1a0:	4808      	ldr	r0, [pc, #32]	; (1c4 <main+0x68>)
     1a2:	f000 fd55 	bl	c50 <_ZN4mbed6Stream6printfEPKcz>
     1a6:	4622      	mov	r2, r4
     1a8:	490b      	ldr	r1, [pc, #44]	; (1d8 <main+0x7c>)
     1aa:	4806      	ldr	r0, [pc, #24]	; (1c4 <main+0x68>)
     1ac:	f000 fd50 	bl	c50 <_ZN4mbed6Stream6printfEPKcz>
     1b0:	490a      	ldr	r1, [pc, #40]	; (1dc <main+0x80>)
     1b2:	4804      	ldr	r0, [pc, #16]	; (1c4 <main+0x68>)
     1b4:	f000 fd4c 	bl	c50 <_ZN4mbed6Stream6printfEPKcz>
     1b8:	f04f 507e 	mov.w	r0, #1065353216	; 0x3f800000
     1bc:	f000 fa40 	bl	640 <wait>
     1c0:	e7d1      	b.n	166 <main+0xa>
     1c2:	bf00      	nop
     1c4:	100001c4 	.word	0x100001c4
     1c8:	000083b4 	.word	0x000083b4
     1cc:	1000021c 	.word	0x1000021c
     1d0:	000083cc 	.word	0x000083cc
     1d4:	000083d0 	.word	0x000083d0
     1d8:	000083e0 	.word	0x000083e0
     1dc:	000083f0 	.word	0x000083f0

000001e0 <_ZN4mbed6SerialD0Ev>:
     1e0:	4b06      	ldr	r3, [pc, #24]	; (1fc <_ZN4mbed6SerialD0Ev+0x1c>)
     1e2:	b510      	push	{r4, lr}
     1e4:	f103 0234 	add.w	r2, r3, #52	; 0x34
     1e8:	4604      	mov	r4, r0
     1ea:	6003      	str	r3, [r0, #0]
     1ec:	6042      	str	r2, [r0, #4]
     1ee:	f000 fce5 	bl	bbc <_ZN4mbed6StreamD1Ev>
     1f2:	4620      	mov	r0, r4
     1f4:	f001 fdde 	bl	1db4 <_ZdlPv>
     1f8:	4620      	mov	r0, r4
     1fa:	bd10      	pop	{r4, pc}
     1fc:	00008410 	.word	0x00008410

00000200 <_ZThn4_N4mbed6SerialD0Ev>:
     200:	f1a0 0004 	sub.w	r0, r0, #4
     204:	e7ec      	b.n	1e0 <_ZN4mbed6SerialD0Ev>
     206:	bf00      	nop

00000208 <_GLOBAL__sub_I_rangeMod1>:
     208:	b538      	push	{r3, r4, r5, lr}
     20a:	f240 251c 	movw	r5, #540	; 0x21c
     20e:	f2c1 0500 	movt	r5, #4096	; 0x1000
     212:	f44f 4140 	mov.w	r1, #49152	; 0xc000
     216:	f24c 0201 	movw	r2, #49153	; 0xc001
     21a:	23e0      	movs	r3, #224	; 0xe0
     21c:	f2c2 0109 	movt	r1, #8201	; 0x2009
     220:	f2c2 0209 	movt	r2, #8201	; 0x2009
     224:	4628      	mov	r0, r5
     226:	f240 04c8 	movw	r4, #200	; 0xc8
     22a:	f000 f841 	bl	2b0 <_ZN5SRF08C1E7PinNameS0_i>
     22e:	f2c1 0400 	movt	r4, #4096	; 0x1000
     232:	f240 1145 	movw	r1, #325	; 0x145
     236:	4622      	mov	r2, r4
     238:	f2c0 0100 	movt	r1, #0
     23c:	4628      	mov	r0, r5
     23e:	f240 15c4 	movw	r5, #452	; 0x1c4
     242:	f001 fe2b 	bl	1e9c <__aeabi_atexit>
     246:	f2c1 0500 	movt	r5, #4096	; 0x1000
     24a:	f24c 0102 	movw	r1, #49154	; 0xc002
     24e:	f24c 0203 	movw	r2, #49155	; 0xc003
     252:	f2c2 0109 	movt	r1, #8201	; 0x2009
     256:	f2c2 0209 	movt	r2, #8201	; 0x2009
     25a:	4628      	mov	r0, r5
     25c:	2300      	movs	r3, #0
     25e:	f000 fa71 	bl	744 <_ZN4mbed6SerialC1E7PinNameS1_PKc>
     262:	f240 1121 	movw	r1, #289	; 0x121
     266:	4628      	mov	r0, r5
     268:	f2c0 0100 	movt	r1, #0
     26c:	4622      	mov	r2, r4
     26e:	e8bd 4038 	ldmia.w	sp!, {r3, r4, r5, lr}
     272:	f001 be13 	b.w	1e9c <__aeabi_atexit>
     276:	bf00      	nop

00000278 <_ZN5SRF0818setRangingFinishedEv>:
     278:	2300      	movs	r3, #0
     27a:	f880 303c 	strb.w	r3, [r0, #60]	; 0x3c
     27e:	4770      	bx	lr

00000280 <_ZN4mbed15FunctionPointer12membercallerI5SRF08EEvPvPc>:
     280:	b500      	push	{lr}
     282:	460b      	mov	r3, r1
     284:	b083      	sub	sp, #12
     286:	6849      	ldr	r1, [r1, #4]
     288:	4602      	mov	r2, r0
     28a:	6818      	ldr	r0, [r3, #0]
     28c:	466b      	mov	r3, sp
     28e:	c303      	stmia	r3!, {r0, r1}
     290:	460b      	mov	r3, r1
     292:	07d9      	lsls	r1, r3, #31
     294:	d507      	bpl.n	2a6 <_ZN4mbed15FunctionPointer12membercallerI5SRF08EEvPvPc+0x26>
     296:	1058      	asrs	r0, r3, #1
     298:	5811      	ldr	r1, [r2, r0]
     29a:	1810      	adds	r0, r2, r0
     29c:	9a00      	ldr	r2, [sp, #0]
     29e:	5889      	ldr	r1, [r1, r2]
     2a0:	4788      	blx	r1
     2a2:	b003      	add	sp, #12
     2a4:	bd00      	pop	{pc}
     2a6:	4601      	mov	r1, r0
     2a8:	eb02 0063 	add.w	r0, r2, r3, asr #1
     2ac:	e7f8      	b.n	2a0 <_ZN4mbed15FunctionPointer12membercallerI5SRF08EEvPvPc+0x20>
     2ae:	bf00      	nop

000002b0 <_ZN5SRF08C1E7PinNameS0_i>:
     2b0:	b570      	push	{r4, r5, r6, lr}
     2b2:	4604      	mov	r4, r0
     2b4:	2500      	movs	r5, #0
     2b6:	461e      	mov	r6, r3
     2b8:	f000 f9e6 	bl	688 <_ZN4mbed3I2CC1E7PinNameS1_>
     2bc:	7226      	strb	r6, [r4, #8]
     2be:	60e5      	str	r5, [r4, #12]
     2c0:	6125      	str	r5, [r4, #16]
     2c2:	6165      	str	r5, [r4, #20]
     2c4:	61a5      	str	r5, [r4, #24]
     2c6:	61e5      	str	r5, [r4, #28]
     2c8:	6225      	str	r5, [r4, #32]
     2ca:	6265      	str	r5, [r4, #36]	; 0x24
     2cc:	62a5      	str	r5, [r4, #40]	; 0x28
     2ce:	62e5      	str	r5, [r4, #44]	; 0x2c
     2d0:	6325      	str	r5, [r4, #48]	; 0x30
     2d2:	6365      	str	r5, [r4, #52]	; 0x34
     2d4:	63a5      	str	r5, [r4, #56]	; 0x38
     2d6:	f104 000c 	add.w	r0, r4, #12
     2da:	f000 fd25 	bl	d28 <_ZN4mbed10TimerEventC1Ev>
     2de:	4b06      	ldr	r3, [pc, #24]	; (2f8 <_ZN5SRF08C1E7PinNameS0_i+0x48>)
     2e0:	f104 0020 	add.w	r0, r4, #32
     2e4:	60e3      	str	r3, [r4, #12]
     2e6:	4629      	mov	r1, r5
     2e8:	f000 f9be 	bl	668 <_ZN4mbed15FunctionPointerC1EPFvvE>
     2ec:	4803      	ldr	r0, [pc, #12]	; (2fc <_ZN5SRF08C1E7PinNameS0_i+0x4c>)
     2ee:	f884 503c 	strb.w	r5, [r4, #60]	; 0x3c
     2f2:	60e0      	str	r0, [r4, #12]
     2f4:	4620      	mov	r0, r4
     2f6:	bd70      	pop	{r4, r5, r6, pc}
     2f8:	00008560 	.word	0x00008560
     2fc:	00008588 	.word	0x00008588

00000300 <_ZN5SRF0812startRangingEv>:
     300:	b570      	push	{r4, r5, r6, lr}
     302:	2500      	movs	r5, #0
     304:	b084      	sub	sp, #16
     306:	7a01      	ldrb	r1, [r0, #8]
     308:	aa03      	add	r2, sp, #12
     30a:	2302      	movs	r3, #2
     30c:	9500      	str	r5, [sp, #0]
     30e:	2651      	movs	r6, #81	; 0x51
     310:	4604      	mov	r4, r0
     312:	f88d 500c 	strb.w	r5, [sp, #12]
     316:	f88d 600d 	strb.w	r6, [sp, #13]
     31a:	f000 f9d3 	bl	6c4 <_ZN4mbed3I2C5writeEiPKcib>
     31e:	2301      	movs	r3, #1
     320:	0419      	lsls	r1, r3, #16
     322:	f884 303c 	strb.w	r3, [r4, #60]	; 0x3c
     326:	f240 2079 	movw	r0, #633	; 0x279
     32a:	f240 2381 	movw	r3, #641	; 0x281
     32e:	f441 528b 	orr.w	r2, r1, #4448	; 0x1160
     332:	f2c0 0000 	movt	r0, #0
     336:	f2c0 0300 	movt	r3, #0
     33a:	62a0      	str	r0, [r4, #40]	; 0x28
     33c:	6264      	str	r4, [r4, #36]	; 0x24
     33e:	62e5      	str	r5, [r4, #44]	; 0x2c
     340:	63a3      	str	r3, [r4, #56]	; 0x38
     342:	6225      	str	r5, [r4, #32]
     344:	f104 000c 	add.w	r0, r4, #12
     348:	f042 0110 	orr.w	r1, r2, #16
     34c:	f000 fcbc 	bl	cc8 <_ZN4mbed6Ticker5setupEj>
     350:	b004      	add	sp, #16
     352:	bd70      	pop	{r4, r5, r6, pc}

00000354 <_ZN5SRF0815rangingFinishedEv>:
     354:	f890 003c 	ldrb.w	r0, [r0, #60]	; 0x3c
     358:	f080 0001 	eor.w	r0, r0, #1
     35c:	4770      	bx	lr
     35e:	bf00      	nop

00000360 <_ZN5SRF088getRangeEv>:
     360:	b5f0      	push	{r4, r5, r6, r7, lr}
     362:	2701      	movs	r7, #1
     364:	b085      	sub	sp, #20
     366:	4604      	mov	r4, r0
     368:	2500      	movs	r5, #0
     36a:	7a01      	ldrb	r1, [r0, #8]
     36c:	2602      	movs	r6, #2
     36e:	aa02      	add	r2, sp, #8
     370:	463b      	mov	r3, r7
     372:	9700      	str	r7, [sp, #0]
     374:	f88d 6008 	strb.w	r6, [sp, #8]
     378:	f88d 500c 	strb.w	r5, [sp, #12]
     37c:	f88d 500d 	strb.w	r5, [sp, #13]
     380:	f000 f9a0 	bl	6c4 <_ZN4mbed3I2C5writeEiPKcib>
     384:	7a21      	ldrb	r1, [r4, #8]
     386:	4633      	mov	r3, r6
     388:	9500      	str	r5, [sp, #0]
     38a:	4620      	mov	r0, r4
     38c:	aa03      	add	r2, sp, #12
     38e:	f000 f9af 	bl	6f0 <_ZN4mbed3I2C4readEiPcib>
     392:	f89d 000c 	ldrb.w	r0, [sp, #12]
     396:	f89d 300d 	ldrb.w	r3, [sp, #13]
     39a:	eb03 2000 	add.w	r0, r3, r0, lsl #8
     39e:	b005      	add	sp, #20
     3a0:	bdf0      	pop	{r4, r5, r6, r7, pc}
     3a2:	bf00      	nop

000003a4 <_ZN5SRF0817getLightIntensityEv>:
     3a4:	b570      	push	{r4, r5, r6, lr}
     3a6:	2401      	movs	r4, #1
     3a8:	b084      	sub	sp, #16
     3aa:	4605      	mov	r5, r0
     3ac:	7a01      	ldrb	r1, [r0, #8]
     3ae:	2600      	movs	r6, #0
     3b0:	aa02      	add	r2, sp, #8
     3b2:	4623      	mov	r3, r4
     3b4:	9400      	str	r4, [sp, #0]
     3b6:	f88d 4008 	strb.w	r4, [sp, #8]
     3ba:	f88d 600c 	strb.w	r6, [sp, #12]
     3be:	f000 f981 	bl	6c4 <_ZN4mbed3I2C5writeEiPKcib>
     3c2:	7a29      	ldrb	r1, [r5, #8]
     3c4:	4628      	mov	r0, r5
     3c6:	9600      	str	r6, [sp, #0]
     3c8:	aa03      	add	r2, sp, #12
     3ca:	4623      	mov	r3, r4
     3cc:	f000 f990 	bl	6f0 <_ZN4mbed3I2C4readEiPcib>
     3d0:	f89d 000c 	ldrb.w	r0, [sp, #12]
     3d4:	b004      	add	sp, #16
     3d6:	bd70      	pop	{r4, r5, r6, pc}

000003d8 <_start>:
     3d8:	f240 10a8 	movw	r0, #424	; 0x1a8
     3dc:	f240 42a0 	movw	r2, #1184	; 0x4a0
     3e0:	f2c1 0000 	movt	r0, #4096	; 0x1000
     3e4:	f2c1 0200 	movt	r2, #4096	; 0x1000
     3e8:	b508      	push	{r3, lr}
     3ea:	2100      	movs	r1, #0
     3ec:	1a12      	subs	r2, r2, r0
     3ee:	f003 fb7c 	bl	3aea <memset>
     3f2:	f3af 8000 	nop.w
     3f6:	f003 fa8d 	bl	3914 <__libc_init_array>
     3fa:	f7ff feaf 	bl	15c <main>
     3fe:	f000 f8f1 	bl	5e4 <exit>
     402:	bf00      	nop

00000404 <__wrap__isatty>:
     404:	2802      	cmp	r0, #2
     406:	dc01      	bgt.n	40c <__wrap__isatty+0x8>
     408:	2001      	movs	r0, #1
     40a:	4770      	bx	lr
     40c:	f007 bfaa 	b.w	8364 <_isatty>

00000410 <abort>:
     410:	b508      	push	{r3, lr}
     412:	2001      	movs	r0, #1
     414:	f000 f8e6 	bl	5e4 <exit>

00000418 <__cxa_pure_virtual>:
     418:	b508      	push	{r3, lr}
     41a:	f7ff fff9 	bl	410 <abort>
     41e:	bf00      	nop

00000420 <Reset_Handler>:
     420:	4907      	ldr	r1, [pc, #28]	; (440 <.flash_to_ram_loop+0x1a>)
     422:	4a08      	ldr	r2, [pc, #32]	; (444 <.flash_to_ram_loop+0x1e>)
     424:	4b08      	ldr	r3, [pc, #32]	; (448 <.flash_to_ram_loop+0x22>)

00000426 <.flash_to_ram_loop>:
     426:	429a      	cmp	r2, r3
     428:	bfbe      	ittt	lt
     42a:	f851 0b04 	ldrlt.w	r0, [r1], #4
     42e:	f842 0b04 	strlt.w	r0, [r2], #4
     432:	f7ff bff8 	blt.w	426 <.flash_to_ram_loop>
     436:	4805      	ldr	r0, [pc, #20]	; (44c <.flash_to_ram_loop+0x26>)
     438:	4780      	blx	r0
     43a:	4805      	ldr	r0, [pc, #20]	; (450 <.flash_to_ram_loop+0x2a>)
     43c:	4700      	bx	r0
     43e:	0000      	.short	0x0000
     440:	00008d68 	.word	0x00008d68
     444:	100000c8 	.word	0x100000c8
     448:	100001a8 	.word	0x100001a8
     44c:	00000509 	.word	0x00000509
     450:	000003d9 	.word	0x000003d9

00000454 <NMI_Handler>:
     454:	e7fe      	b.n	454 <NMI_Handler>

00000456 <HardFault_Handler>:
     456:	e7fe      	b.n	456 <HardFault_Handler>

00000458 <MemManage_Handler>:
     458:	e7fe      	b.n	458 <MemManage_Handler>

0000045a <BusFault_Handler>:
     45a:	e7fe      	b.n	45a <BusFault_Handler>

0000045c <UsageFault_Handler>:
     45c:	e7fe      	b.n	45c <UsageFault_Handler>

0000045e <SVC_Handler>:
     45e:	e7fe      	b.n	45e <SVC_Handler>

00000460 <DebugMon_Handler>:
     460:	e7fe      	b.n	460 <DebugMon_Handler>

00000462 <PendSV_Handler>:
     462:	e7fe      	b.n	462 <PendSV_Handler>

00000464 <SysTick_Handler>:
     464:	e7fe      	b.n	464 <SysTick_Handler>

00000466 <DEF_IRQHandler>:
     466:	e7fe      	b.n	466 <DEF_IRQHandler>

00000468 <WDT_IRQHandler>:
     468:	e7fe      	b.n	468 <WDT_IRQHandler>

0000046a <TIMER0_IRQHandler>:
     46a:	e7fe      	b.n	46a <TIMER0_IRQHandler>

0000046c <TIMER1_IRQHandler>:
     46c:	e7fe      	b.n	46c <TIMER1_IRQHandler>

0000046e <TIMER2_IRQHandler>:
     46e:	e7fe      	b.n	46e <TIMER2_IRQHandler>

00000470 <TIMER3_IRQHandler>:
     470:	e7fe      	b.n	470 <TIMER3_IRQHandler>

00000472 <UART0_IRQHandler>:
     472:	e7fe      	b.n	472 <UART0_IRQHandler>

00000474 <UART1_IRQHandler>:
     474:	e7fe      	b.n	474 <UART1_IRQHandler>

00000476 <UART2_IRQHandler>:
     476:	e7fe      	b.n	476 <UART2_IRQHandler>

00000478 <UART3_IRQHandler>:
     478:	e7fe      	b.n	478 <UART3_IRQHandler>

0000047a <PWM1_IRQHandler>:
     47a:	e7fe      	b.n	47a <PWM1_IRQHandler>

0000047c <I2C0_IRQHandler>:
     47c:	e7fe      	b.n	47c <I2C0_IRQHandler>

0000047e <I2C1_IRQHandler>:
     47e:	e7fe      	b.n	47e <I2C1_IRQHandler>

00000480 <I2C2_IRQHandler>:
     480:	e7fe      	b.n	480 <I2C2_IRQHandler>

00000482 <SPI_IRQHandler>:
     482:	e7fe      	b.n	482 <SPI_IRQHandler>

00000484 <SSP0_IRQHandler>:
     484:	e7fe      	b.n	484 <SSP0_IRQHandler>

00000486 <SSP1_IRQHandler>:
     486:	e7fe      	b.n	486 <SSP1_IRQHandler>

00000488 <PLL0_IRQHandler>:
     488:	e7fe      	b.n	488 <PLL0_IRQHandler>

0000048a <RTC_IRQHandler>:
     48a:	e7fe      	b.n	48a <RTC_IRQHandler>

0000048c <EINT0_IRQHandler>:
     48c:	e7fe      	b.n	48c <EINT0_IRQHandler>

0000048e <EINT1_IRQHandler>:
     48e:	e7fe      	b.n	48e <EINT1_IRQHandler>

00000490 <EINT2_IRQHandler>:
     490:	e7fe      	b.n	490 <EINT2_IRQHandler>

00000492 <EINT3_IRQHandler>:
     492:	e7fe      	b.n	492 <EINT3_IRQHandler>

00000494 <ADC_IRQHandler>:
     494:	e7fe      	b.n	494 <ADC_IRQHandler>

00000496 <BOD_IRQHandler>:
     496:	e7fe      	b.n	496 <BOD_IRQHandler>

00000498 <USB_IRQHandler>:
     498:	e7fe      	b.n	498 <USB_IRQHandler>

0000049a <CAN_IRQHandler>:
     49a:	e7fe      	b.n	49a <CAN_IRQHandler>

0000049c <DMA_IRQHandler>:
     49c:	e7fe      	b.n	49c <DMA_IRQHandler>

0000049e <I2S_IRQHandler>:
     49e:	e7fe      	b.n	49e <I2S_IRQHandler>

000004a0 <ENET_IRQHandler>:
     4a0:	e7fe      	b.n	4a0 <ENET_IRQHandler>

000004a2 <RIT_IRQHandler>:
     4a2:	e7fe      	b.n	4a2 <RIT_IRQHandler>

000004a4 <MCPWM_IRQHandler>:
     4a4:	e7fe      	b.n	4a4 <MCPWM_IRQHandler>

000004a6 <QEI_IRQHandler>:
     4a6:	e7fe      	b.n	4a6 <QEI_IRQHandler>

000004a8 <PLL1_IRQHandler>:
     4a8:	e7fe      	b.n	4a8 <PLL1_IRQHandler>

000004aa <USBActivity_IRQHandler>:
     4aa:	e7fe      	b.n	4aa <USBActivity_IRQHandler>

000004ac <CANActivity_IRQHandler>:
     4ac:	e7fe      	b.n	4ac <CANActivity_IRQHandler>
     4ae:	bf00      	nop

000004b0 <NVIC_SetVector>:
     4b0:	f44f 436d 	mov.w	r3, #60672	; 0xed00
     4b4:	f2ce 0300 	movt	r3, #57344	; 0xe000
     4b8:	689a      	ldr	r2, [r3, #8]
     4ba:	b470      	push	{r4, r5, r6}
     4bc:	f1b2 5f80 	cmp.w	r2, #268435456	; 0x10000000
     4c0:	d019      	beq.n	4f6 <NVIC_SetVector+0x46>
     4c2:	689e      	ldr	r6, [r3, #8]
     4c4:	f04f 5580 	mov.w	r5, #268435456	; 0x10000000
     4c8:	6832      	ldr	r2, [r6, #0]
     4ca:	f1c6 5480 	rsb	r4, r6, #268435456	; 0x10000000
     4ce:	4633      	mov	r3, r6
     4d0:	3404      	adds	r4, #4
     4d2:	36c0      	adds	r6, #192	; 0xc0
     4d4:	602a      	str	r2, [r5, #0]
     4d6:	685d      	ldr	r5, [r3, #4]
     4d8:	1d1a      	adds	r2, r3, #4
     4da:	50e5      	str	r5, [r4, r3]
     4dc:	689d      	ldr	r5, [r3, #8]
     4de:	3308      	adds	r3, #8
     4e0:	42b3      	cmp	r3, r6
     4e2:	50a5      	str	r5, [r4, r2]
     4e4:	d1f7      	bne.n	4d6 <NVIC_SetVector+0x26>
     4e6:	f44f 4c6d 	mov.w	r12, #60672	; 0xed00
     4ea:	f2ce 0c00 	movt	r12, #57344	; 0xe000
     4ee:	f04f 5380 	mov.w	r3, #268435456	; 0x10000000
     4f2:	f8cc 3008 	str.w	r3, [r12, #8]
     4f6:	f100 0010 	add.w	r0, r0, #16
     4fa:	0082      	lsls	r2, r0, #2
     4fc:	f102 5c80 	add.w	r12, r2, #268435456	; 0x10000000
     500:	f8cc 1000 	str.w	r1, [r12]
     504:	bc70      	pop	{r4, r5, r6}
     506:	4770      	bx	lr

00000508 <SystemInit>:
     508:	f44f 4240 	mov.w	r2, #49152	; 0xc000
     50c:	f2c4 020f 	movt	r2, #16399	; 0x400f
     510:	2320      	movs	r3, #32
     512:	b430      	push	{r4, r5}
     514:	f8c2 31a0 	str.w	r3, [r2, #416]	; 0x1a0
     518:	f8d2 01a0 	ldr.w	r0, [r2, #416]	; 0x1a0
     51c:	0680      	lsls	r0, r0, #26
     51e:	d456      	bmi.n	5ce <SystemInit+0xc6>
     520:	f44f 4c40 	mov.w	r12, #49152	; 0xc000
     524:	f2c4 0c0f 	movt	r12, #16399	; 0x400f
     528:	2500      	movs	r5, #0
     52a:	2002      	movs	r0, #2
     52c:	f8cc 0104 	str.w	r0, [r12, #260]	; 0x104
     530:	2401      	movs	r4, #1
     532:	f8cc 51a8 	str.w	r5, [r12, #424]	; 0x1a8
     536:	23aa      	movs	r3, #170	; 0xaa
     538:	f8cc 51ac 	str.w	r5, [r12, #428]	; 0x1ac
     53c:	2255      	movs	r2, #85	; 0x55
     53e:	250b      	movs	r5, #11
     540:	f8cc 410c 	str.w	r4, [r12, #268]	; 0x10c
     544:	4661      	mov	r1, r12
     546:	f8cc 5084 	str.w	r5, [r12, #132]	; 0x84
     54a:	f8cc 308c 	str.w	r3, [r12, #140]	; 0x8c
     54e:	f8cc 208c 	str.w	r2, [r12, #140]	; 0x8c
     552:	f8cc 4080 	str.w	r4, [r12, #128]	; 0x80
     556:	f8cc 308c 	str.w	r3, [r12, #140]	; 0x8c
     55a:	f8cc 208c 	str.w	r2, [r12, #140]	; 0x8c
     55e:	f8d1 2088 	ldr.w	r2, [r1, #136]	; 0x88
     562:	f44f 4c40 	mov.w	r12, #49152	; 0xc000
     566:	0152      	lsls	r2, r2, #5
     568:	f2c4 0c0f 	movt	r12, #16399	; 0x400f
     56c:	d5f7      	bpl.n	55e <SystemInit+0x56>
     56e:	2303      	movs	r3, #3
     570:	21aa      	movs	r1, #170	; 0xaa
     572:	2255      	movs	r2, #85	; 0x55
     574:	f8cc 3080 	str.w	r3, [r12, #128]	; 0x80
     578:	4660      	mov	r0, r12
     57a:	f8cc 108c 	str.w	r1, [r12, #140]	; 0x8c
     57e:	f8cc 208c 	str.w	r2, [r12, #140]	; 0x8c
     582:	f8d0 1088 	ldr.w	r1, [r0, #136]	; 0x88
     586:	f44f 4c40 	mov.w	r12, #49152	; 0xc000
     58a:	f011 7f40 	tst.w	r1, #50331648	; 0x3000000
     58e:	f2c4 0c0f 	movt	r12, #16399	; 0x400f
     592:	d0f6      	beq.n	582 <SystemInit+0x7a>
     594:	f248 73de 	movw	r3, #34782	; 0x87de
     598:	f2c0 4328 	movt	r3, #1064	; 0x428
     59c:	2005      	movs	r0, #5
     59e:	2200      	movs	r2, #0
     5a0:	f8cc 0108 	str.w	r0, [r12, #264]	; 0x108
     5a4:	f8cc 30c4 	str.w	r3, [r12, #196]	; 0xc4
     5a8:	f8cc 21c8 	str.w	r2, [r12, #456]	; 0x1c8
     5ac:	f8dc 1000 	ldr.w	r1, [r12]
     5b0:	f421 4370 	bic.w	r3, r1, #61440	; 0xf000
     5b4:	f023 003a 	bic.w	r0, r3, #58	; 0x3a
     5b8:	f440 5240 	orr.w	r2, r0, #12288	; 0x3000
     5bc:	4b08      	ldr	r3, [pc, #32]	; (5e0 <SystemInit+0xd8>)
     5be:	f042 013a 	orr.w	r1, r2, #58	; 0x3a
     5c2:	2001      	movs	r0, #1
     5c4:	f8cc 1000 	str.w	r1, [r12]
     5c8:	6018      	str	r0, [r3, #0]
     5ca:	bc30      	pop	{r4, r5}
     5cc:	4770      	bx	lr
     5ce:	f8d2 11a0 	ldr.w	r1, [r2, #416]	; 0x1a0
     5d2:	0649      	lsls	r1, r1, #25
     5d4:	d4a4      	bmi.n	520 <SystemInit+0x18>
     5d6:	f8d2 11a0 	ldr.w	r1, [r2, #416]	; 0x1a0
     5da:	0649      	lsls	r1, r1, #25
     5dc:	d5f7      	bpl.n	5ce <SystemInit+0xc6>
     5de:	e79f      	b.n	520 <SystemInit+0x18>
     5e0:	10000260 	.word	0x10000260

000005e4 <exit>:
     5e4:	b510      	push	{r4, lr}
     5e6:	4604      	mov	r4, r0
     5e8:	f000 f80a 	bl	600 <mbed_interface_connected>
     5ec:	b920      	cbnz	r0, 5f8 <exit+0x14>
     5ee:	b904      	cbnz	r4, 5f2 <exit+0xe>
     5f0:	e7fe      	b.n	5f0 <exit+0xc>
     5f2:	f000 fbc3 	bl	d7c <mbed_die>
     5f6:	e7fb      	b.n	5f0 <exit+0xc>
     5f8:	f000 f804 	bl	604 <semihost_exit>
     5fc:	e7f7      	b.n	5ee <exit+0xa>
     5fe:	bf00      	nop

00000600 <mbed_interface_connected>:
     600:	f000 be6a 	b.w	12d8 <semihost_connected>

00000604 <semihost_exit>:
     604:	b530      	push	{r4, r5, lr}
     606:	b085      	sub	sp, #20
     608:	466d      	mov	r5, sp
     60a:	2418      	movs	r4, #24
     60c:	4620      	mov	r0, r4
     60e:	4629      	mov	r1, r5
     610:	beab      	bkpt	0x00ab
     612:	4604      	mov	r4, r0
     614:	4620      	mov	r0, r4
     616:	b005      	add	sp, #20
     618:	bd30      	pop	{r4, r5, pc}
     61a:	bf00      	nop

0000061c <wait_us>:
     61c:	b538      	push	{r3, r4, r5, lr}
     61e:	4605      	mov	r5, r0
     620:	f001 f926 	bl	1870 <us_ticker_read>
     624:	4604      	mov	r4, r0
     626:	f001 f923 	bl	1870 <us_ticker_read>
     62a:	1b00      	subs	r0, r0, r4
     62c:	42a8      	cmp	r0, r5
     62e:	d3fa      	bcc.n	626 <wait_us+0xa>
     630:	bd38      	pop	{r3, r4, r5, pc}
     632:	bf00      	nop

00000634 <wait_ms>:
     634:	f44f 737a 	mov.w	r3, #1000	; 0x3e8
     638:	fb03 f000 	mul.w	r0, r3, r0
     63c:	f7ff bfee 	b.w	61c <wait_us>

00000640 <wait>:
     640:	b508      	push	{r3, lr}
     642:	f001 ffef 	bl	2624 <__aeabi_f2d>
     646:	a306      	add	r3, pc, #24	; (adr r3, 660 <wait+0x20>)
     648:	e9d3 2300 	ldrd	r2, r3, [r3]
     64c:	f002 f83e 	bl	26cc <__aeabi_dmul>
     650:	f002 fad6 	bl	2c00 <__aeabi_d2iz>
     654:	e8bd 4008 	ldmia.w	sp!, {r3, lr}
     658:	f7ff bfe0 	b.w	61c <wait_us>
     65c:	f3af 8000 	nop.w
     660:	00000000 	.word	0x00000000
     664:	412e8480 	.word	0x412e8480

00000668 <_ZN4mbed15FunctionPointerC1EPFvvE>:
     668:	2200      	movs	r2, #0
     66a:	6001      	str	r1, [r0, #0]
     66c:	6042      	str	r2, [r0, #4]
     66e:	4770      	bx	lr

00000670 <_ZN4mbed15FunctionPointer4callEv>:
     670:	b508      	push	{r3, lr}
     672:	6803      	ldr	r3, [r0, #0]
     674:	4601      	mov	r1, r0
     676:	b10b      	cbz	r3, 67c <_ZN4mbed15FunctionPointer4callEv+0xc>
     678:	4798      	blx	r3
     67a:	bd08      	pop	{r3, pc}
     67c:	6840      	ldr	r0, [r0, #4]
     67e:	b110      	cbz	r0, 686 <_ZN4mbed15FunctionPointer4callEv+0x16>
     680:	698a      	ldr	r2, [r1, #24]
     682:	3108      	adds	r1, #8
     684:	4790      	blx	r2
     686:	bd08      	pop	{r3, pc}

00000688 <_ZN4mbed3I2CC1E7PinNameS1_>:
     688:	b510      	push	{r4, lr}
     68a:	4604      	mov	r4, r0
     68c:	f000 fc48 	bl	f20 <i2c_init>
     690:	f248 62a0 	movw	r2, #34464	; 0x86a0
     694:	f240 235c 	movw	r3, #604	; 0x25c
     698:	f2c0 0201 	movt	r2, #1
     69c:	f2c1 0300 	movt	r3, #4096	; 0x1000
     6a0:	6062      	str	r2, [r4, #4]
     6a2:	601c      	str	r4, [r3, #0]
     6a4:	4620      	mov	r0, r4
     6a6:	bd10      	pop	{r4, pc}

000006a8 <_ZN4mbed3I2C6aquireEv>:
     6a8:	b538      	push	{r3, r4, r5, lr}
     6aa:	4d05      	ldr	r5, [pc, #20]	; (6c0 <_ZN4mbed3I2C6aquireEv+0x18>)
     6ac:	4604      	mov	r4, r0
     6ae:	682b      	ldr	r3, [r5, #0]
     6b0:	4283      	cmp	r3, r0
     6b2:	d003      	beq.n	6bc <_ZN4mbed3I2C6aquireEv+0x14>
     6b4:	6841      	ldr	r1, [r0, #4]
     6b6:	f000 fcc7 	bl	1048 <i2c_frequency>
     6ba:	602c      	str	r4, [r5, #0]
     6bc:	bd38      	pop	{r3, r4, r5, pc}
     6be:	bf00      	nop
     6c0:	1000025c 	.word	0x1000025c

000006c4 <_ZN4mbed3I2C5writeEiPKcib>:
     6c4:	e92d 41f0 	stmdb	sp!, {r4, r5, r6, r7, r8, lr}
     6c8:	4604      	mov	r4, r0
     6ca:	f89d 5018 	ldrb.w	r5, [sp, #24]
     6ce:	4688      	mov	r8, r1
     6d0:	4617      	mov	r7, r2
     6d2:	461e      	mov	r6, r3
     6d4:	f7ff ffe8 	bl	6a8 <_ZN4mbed3I2C6aquireEv>
     6d8:	f085 0501 	eor.w	r5, r5, #1
     6dc:	4620      	mov	r0, r4
     6de:	4641      	mov	r1, r8
     6e0:	463a      	mov	r2, r7
     6e2:	4633      	mov	r3, r6
     6e4:	9506      	str	r5, [sp, #24]
     6e6:	e8bd 41f0 	ldmia.w	sp!, {r4, r5, r6, r7, r8, lr}
     6ea:	f000 bd3b 	b.w	1164 <i2c_write>
     6ee:	bf00      	nop

000006f0 <_ZN4mbed3I2C4readEiPcib>:
     6f0:	e92d 41f0 	stmdb	sp!, {r4, r5, r6, r7, r8, lr}
     6f4:	4604      	mov	r4, r0
     6f6:	f89d 5018 	ldrb.w	r5, [sp, #24]
     6fa:	4688      	mov	r8, r1
     6fc:	4617      	mov	r7, r2
     6fe:	461e      	mov	r6, r3
     700:	f7ff ffd2 	bl	6a8 <_ZN4mbed3I2C6aquireEv>
     704:	f085 0501 	eor.w	r5, r5, #1
     708:	4620      	mov	r0, r4
     70a:	4641      	mov	r1, r8
     70c:	463a      	mov	r2, r7
     70e:	4633      	mov	r3, r6
     710:	9506      	str	r5, [sp, #24]
     712:	e8bd 41f0 	ldmia.w	sp!, {r4, r5, r6, r7, r8, lr}
     716:	f000 bca5 	b.w	1064 <i2c_read>
     71a:	bf00      	nop

0000071c <_ZN4mbed6Serial5_putcEi>:
     71c:	b510      	push	{r4, lr}
     71e:	3018      	adds	r0, #24
     720:	460c      	mov	r4, r1
     722:	f001 f89b 	bl	185c <serial_putc>
     726:	4620      	mov	r0, r4
     728:	bd10      	pop	{r4, pc}
     72a:	bf00      	nop

0000072c <_ZN4mbed6Serial5_getcEv>:
     72c:	3018      	adds	r0, #24
     72e:	f001 b88f 	b.w	1850 <serial_getc>
     732:	bf00      	nop

00000734 <_ZN4mbed6Serial12_irq_handlerEm9SerialIrq>:
     734:	ebc1 01c1 	rsb	r1, r1, r1, lsl #3
     738:	eb00 0081 	add.w	r0, r0, r1, lsl #2
     73c:	3020      	adds	r0, #32
     73e:	f7ff bf97 	b.w	670 <_ZN4mbed15FunctionPointer4callEv>
     742:	bf00      	nop

00000744 <_ZN4mbed6SerialC1E7PinNameS1_PKc>:
     744:	b5f8      	push	{r3, r4, r5, r6, r7, lr}
     746:	460e      	mov	r6, r1
     748:	4619      	mov	r1, r3
     74a:	4604      	mov	r4, r0
     74c:	4617      	mov	r7, r2
     74e:	f000 fa5b 	bl	c08 <_ZN4mbed6StreamC1EPKc>
     752:	f248 4308 	movw	r3, #33800	; 0x8408
     756:	f2c0 0300 	movt	r3, #0
     75a:	f103 0208 	add.w	r2, r3, #8
     75e:	333c      	adds	r3, #60	; 0x3c
     760:	e884 000c 	stmia.w	r4, {r2, r3}
     764:	2100      	movs	r1, #0
     766:	f104 0020 	add.w	r0, r4, #32
     76a:	f7ff ff7d 	bl	668 <_ZN4mbed15FunctionPointerC1EPFvvE>
     76e:	f104 0518 	add.w	r5, r4, #24
     772:	2100      	movs	r1, #0
     774:	f104 003c 	add.w	r0, r4, #60	; 0x3c
     778:	f7ff ff76 	bl	668 <_ZN4mbed15FunctionPointerC1EPFvvE>
     77c:	4628      	mov	r0, r5
     77e:	4631      	mov	r1, r6
     780:	463a      	mov	r2, r7
     782:	f000 ff29 	bl	15d8 <serial_init>
     786:	f240 7135 	movw	r1, #1845	; 0x735
     78a:	4628      	mov	r0, r5
     78c:	f2c0 0100 	movt	r1, #0
     790:	4622      	mov	r2, r4
     792:	f001 f84d 	bl	1830 <serial_irq_handler>
     796:	4620      	mov	r0, r4
     798:	bdf8      	pop	{r3, r4, r5, r6, r7, pc}
     79a:	bf00      	nop

0000079c <_ZN4mbed10FileHandle4flenEv>:
     79c:	6803      	ldr	r3, [r0, #0]
     79e:	b570      	push	{r4, r5, r6, lr}
     7a0:	2100      	movs	r1, #0
     7a2:	691d      	ldr	r5, [r3, #16]
     7a4:	2201      	movs	r2, #1
     7a6:	4604      	mov	r4, r0
     7a8:	47a8      	blx	r5
     7aa:	1c43      	adds	r3, r0, #1
     7ac:	4605      	mov	r5, r0
     7ae:	d00e      	beq.n	7ce <_ZN4mbed10FileHandle4flenEv+0x32>
     7b0:	6821      	ldr	r1, [r4, #0]
     7b2:	2202      	movs	r2, #2
     7b4:	690e      	ldr	r6, [r1, #16]
     7b6:	4620      	mov	r0, r4
     7b8:	2100      	movs	r1, #0
     7ba:	47b0      	blx	r6
     7bc:	6822      	ldr	r2, [r4, #0]
     7be:	4606      	mov	r6, r0
     7c0:	6913      	ldr	r3, [r2, #16]
     7c2:	4620      	mov	r0, r4
     7c4:	4629      	mov	r1, r5
     7c6:	2200      	movs	r2, #0
     7c8:	4798      	blx	r3
     7ca:	4630      	mov	r0, r6
     7cc:	bd70      	pop	{r4, r5, r6, pc}
     7ce:	4606      	mov	r6, r0
     7d0:	e7fb      	b.n	7ca <_ZN4mbed10FileHandle4flenEv+0x2e>
     7d2:	bf00      	nop

000007d4 <_ZN4mbed10FileHandleD1Ev>:
     7d4:	4b0d      	ldr	r3, [pc, #52]	; (80c <Heap_Size+0xc>)
     7d6:	4a0e      	ldr	r2, [pc, #56]	; (810 <Heap_Size+0x10>)
     7d8:	b430      	push	{r4, r5}
     7da:	6002      	str	r2, [r0, #0]
     7dc:	f503 7480 	add.w	r4, r3, #256	; 0x100
     7e0:	2500      	movs	r5, #0
     7e2:	e001      	b.n	7e8 <_ZN4mbed10FileHandleD1Ev+0x14>
     7e4:	42a3      	cmp	r3, r4
     7e6:	d00f      	beq.n	808 <Heap_Size+0x8>
     7e8:	469c      	mov	r12, r3
     7ea:	f85c 1b04 	ldr.w	r1, [r12], #4
     7ee:	4281      	cmp	r1, r0
     7f0:	bf08      	it	eq
     7f2:	f84c 5c04 	streq.w	r5, [r12, #-4]
     7f6:	4663      	mov	r3, r12
     7f8:	f853 2b04 	ldr.w	r2, [r3], #4
     7fc:	4282      	cmp	r2, r0
     7fe:	d1f1      	bne.n	7e4 <_ZN4mbed10FileHandleD1Ev+0x10>
     800:	42a3      	cmp	r3, r4
     802:	f843 5c04 	str.w	r5, [r3, #-4]
     806:	d1ef      	bne.n	7e8 <_ZN4mbed10FileHandleD1Ev+0x14>
     808:	bc30      	pop	{r4, r5}
     80a:	4770      	bx	lr
     80c:	10000264 	.word	0x10000264
     810:	00008498 	.word	0x00008498

00000814 <_ZN4mbed10FileHandleD0Ev>:
     814:	b538      	push	{r3, r4, r5, lr}
     816:	4a0f      	ldr	r2, [pc, #60]	; (854 <_ZN4mbed10FileHandleD0Ev+0x40>)
     818:	4b0f      	ldr	r3, [pc, #60]	; (858 <_ZN4mbed10FileHandleD0Ev+0x44>)
     81a:	4604      	mov	r4, r0
     81c:	6002      	str	r2, [r0, #0]
     81e:	2500      	movs	r5, #0
     820:	f503 7080 	add.w	r0, r3, #256	; 0x100
     824:	e001      	b.n	82a <_ZN4mbed10FileHandleD0Ev+0x16>
     826:	4283      	cmp	r3, r0
     828:	d00f      	beq.n	84a <_ZN4mbed10FileHandleD0Ev+0x36>
     82a:	469c      	mov	r12, r3
     82c:	f85c 1b04 	ldr.w	r1, [r12], #4
     830:	428c      	cmp	r4, r1
     832:	bf08      	it	eq
     834:	f84c 5c04 	streq.w	r5, [r12, #-4]
     838:	4663      	mov	r3, r12
     83a:	f853 2b04 	ldr.w	r2, [r3], #4
     83e:	4294      	cmp	r4, r2
     840:	d1f1      	bne.n	826 <_ZN4mbed10FileHandleD0Ev+0x12>
     842:	4283      	cmp	r3, r0
     844:	f843 5c04 	str.w	r5, [r3, #-4]
     848:	d1ef      	bne.n	82a <_ZN4mbed10FileHandleD0Ev+0x16>
     84a:	4620      	mov	r0, r4
     84c:	f001 fab2 	bl	1db4 <_ZdlPv>
     850:	4620      	mov	r0, r4
     852:	bd38      	pop	{r3, r4, r5, pc}
     854:	00008498 	.word	0x00008498
     858:	10000264 	.word	0x10000264

0000085c <_ZL11init_serialv>:
     85c:	4b0e      	ldr	r3, [pc, #56]	; (898 <_ZL11init_serialv+0x3c>)
     85e:	b510      	push	{r4, lr}
     860:	681c      	ldr	r4, [r3, #0]
     862:	b104      	cbz	r4, 866 <_ZL11init_serialv+0xa>
     864:	bd10      	pop	{r4, pc}
     866:	f24c 0102 	movw	r1, #49154	; 0xc002
     86a:	f24c 0203 	movw	r2, #49155	; 0xc003
     86e:	480b      	ldr	r0, [pc, #44]	; (89c <_ZL11init_serialv+0x40>)
     870:	f2c2 0109 	movt	r1, #8201	; 0x2009
     874:	f2c2 0209 	movt	r2, #8201	; 0x2009
     878:	f000 feae 	bl	15d8 <serial_init>
     87c:	2108      	movs	r1, #8
     87e:	4807      	ldr	r0, [pc, #28]	; (89c <_ZL11init_serialv+0x40>)
     880:	4622      	mov	r2, r4
     882:	2301      	movs	r3, #1
     884:	f000 fe64 	bl	1550 <serial_format>
     888:	4804      	ldr	r0, [pc, #16]	; (89c <_ZL11init_serialv+0x40>)
     88a:	f44f 5116 	mov.w	r1, #9600	; 0x2580
     88e:	e8bd 4010 	ldmia.w	sp!, {r4, lr}
     892:	f000 bd29 	b.w	12e8 <serial_baud>
     896:	bf00      	nop
     898:	10000364 	.word	0x10000364
     89c:	10000394 	.word	0x10000394

000008a0 <_open>:
     8a0:	b5f0      	push	{r4, r5, r6, r7, lr}
     8a2:	460f      	mov	r7, r1
     8a4:	b085      	sub	sp, #20
     8a6:	492e      	ldr	r1, [pc, #184]	; (960 <_open+0xc0>)
     8a8:	4606      	mov	r6, r0
     8aa:	f003 fa9c 	bl	3de6 <strcmp>
     8ae:	4604      	mov	r4, r0
     8b0:	2800      	cmp	r0, #0
     8b2:	d033      	beq.n	91c <_open+0x7c>
     8b4:	4630      	mov	r0, r6
     8b6:	492b      	ldr	r1, [pc, #172]	; (964 <_open+0xc4>)
     8b8:	f003 fa95 	bl	3de6 <strcmp>
     8bc:	b348      	cbz	r0, 912 <_open+0x72>
     8be:	4630      	mov	r0, r6
     8c0:	4929      	ldr	r1, [pc, #164]	; (968 <_open+0xc8>)
     8c2:	f003 fa90 	bl	3de6 <strcmp>
     8c6:	2800      	cmp	r0, #0
     8c8:	d02c      	beq.n	924 <_open+0x84>
     8ca:	4828      	ldr	r0, [pc, #160]	; (96c <_open+0xcc>)
     8cc:	2400      	movs	r4, #0
     8ce:	e006      	b.n	8de <_open+0x3e>
     8d0:	685d      	ldr	r5, [r3, #4]
     8d2:	3401      	adds	r4, #1
     8d4:	1d18      	adds	r0, r3, #4
     8d6:	b135      	cbz	r5, 8e6 <_open+0x46>
     8d8:	3401      	adds	r4, #1
     8da:	2c40      	cmp	r4, #64	; 0x40
     8dc:	d036      	beq.n	94c <_open+0xac>
     8de:	6845      	ldr	r5, [r0, #4]
     8e0:	1d03      	adds	r3, r0, #4
     8e2:	2d00      	cmp	r5, #0
     8e4:	d1f4      	bne.n	8d0 <_open+0x30>
     8e6:	7831      	ldrb	r1, [r6, #0]
     8e8:	293a      	cmp	r1, #58	; 0x3a
     8ea:	d032      	beq.n	952 <_open+0xb2>
     8ec:	a802      	add	r0, sp, #8
     8ee:	4631      	mov	r1, r6
     8f0:	f001 f924 	bl	1b3c <_ZN4mbed8FilePathC1EPKc>
     8f4:	a802      	add	r0, sp, #8
     8f6:	f001 f965 	bl	1bc4 <_ZN4mbed8FilePath6isFileEv>
     8fa:	b1b8      	cbz	r0, 92c <_open+0x8c>
     8fc:	a802      	add	r0, sp, #8
     8fe:	f001 f96b 	bl	1bd8 <_ZN4mbed8FilePath4fileEv>
     902:	4603      	mov	r3, r0
     904:	2b00      	cmp	r3, #0
     906:	d021      	beq.n	94c <_open+0xac>
     908:	4919      	ldr	r1, [pc, #100]	; (970 <_open+0xd0>)
     90a:	1ce0      	adds	r0, r4, #3
     90c:	f841 3024 	str.w	r3, [r1, r4, lsl #2]
     910:	e002      	b.n	918 <_open+0x78>
     912:	f7ff ffa3 	bl	85c <_ZL11init_serialv>
     916:	2001      	movs	r0, #1
     918:	b005      	add	sp, #20
     91a:	bdf0      	pop	{r4, r5, r6, r7, pc}
     91c:	f7ff ff9e 	bl	85c <_ZL11init_serialv>
     920:	4620      	mov	r0, r4
     922:	e7f9      	b.n	918 <_open+0x78>
     924:	f7ff ff9a 	bl	85c <_ZL11init_serialv>
     928:	2002      	movs	r0, #2
     92a:	e7f5      	b.n	918 <_open+0x78>
     92c:	a802      	add	r0, sp, #8
     92e:	f001 f941 	bl	1bb4 <_ZN4mbed8FilePath10fileSystemEv>
     932:	4605      	mov	r5, r0
     934:	b150      	cbz	r0, 94c <_open+0xac>
     936:	6802      	ldr	r2, [r0, #0]
     938:	a802      	add	r0, sp, #8
     93a:	6896      	ldr	r6, [r2, #8]
     93c:	f001 f930 	bl	1ba0 <_ZN4mbed8FilePath8fileNameEv>
     940:	463a      	mov	r2, r7
     942:	4601      	mov	r1, r0
     944:	4628      	mov	r0, r5
     946:	47b0      	blx	r6
     948:	4603      	mov	r3, r0
     94a:	e7db      	b.n	904 <_open+0x64>
     94c:	f04f 30ff 	mov.w	r0, #4294967295
     950:	e7e2      	b.n	918 <_open+0x78>
     952:	4630      	mov	r0, r6
     954:	4907      	ldr	r1, [pc, #28]	; (974 <_open+0xd4>)
     956:	aa01      	add	r2, sp, #4
     958:	f003 f9d4 	bl	3d04 <siscanf>
     95c:	9b01      	ldr	r3, [sp, #4]
     95e:	e7d1      	b.n	904 <_open+0x64>
     960:	0000845c 	.word	0x0000845c
     964:	00008480 	.word	0x00008480
     968:	00008464 	.word	0x00008464
     96c:	10000260 	.word	0x10000260
     970:	10000264 	.word	0x10000264
     974:	000084c0 	.word	0x000084c0

00000978 <_close>:
     978:	2802      	cmp	r0, #2
     97a:	b508      	push	{r3, lr}
     97c:	dd0b      	ble.n	996 <_close+0x1e>
     97e:	4b08      	ldr	r3, [pc, #32]	; (9a0 <_close+0x28>)
     980:	1ec2      	subs	r2, r0, #3
     982:	f853 0022 	ldr.w	r0, [r3, r2, lsl #2]
     986:	2100      	movs	r1, #0
     988:	f843 1022 	str.w	r1, [r3, r2, lsl #2]
     98c:	b128      	cbz	r0, 99a <_close+0x22>
     98e:	6803      	ldr	r3, [r0, #0]
     990:	685a      	ldr	r2, [r3, #4]
     992:	4790      	blx	r2
     994:	bd08      	pop	{r3, pc}
     996:	2000      	movs	r0, #0
     998:	bd08      	pop	{r3, pc}
     99a:	f04f 30ff 	mov.w	r0, #4294967295
     99e:	bd08      	pop	{r3, pc}
     9a0:	10000264 	.word	0x10000264

000009a4 <_write>:
     9a4:	2802      	cmp	r0, #2
     9a6:	b5f8      	push	{r3, r4, r5, r6, r7, lr}
     9a8:	460d      	mov	r5, r1
     9aa:	4617      	mov	r7, r2
     9ac:	dc28      	bgt.n	a00 <_write+0x5c>
     9ae:	491d      	ldr	r1, [pc, #116]	; (a24 <_write+0x80>)
     9b0:	680a      	ldr	r2, [r1, #0]
     9b2:	2a00      	cmp	r2, #0
     9b4:	d02d      	beq.n	a12 <_write+0x6e>
     9b6:	b30f      	cbz	r7, 9fc <_write+0x58>
     9b8:	462c      	mov	r4, r5
     9ba:	19ee      	adds	r6, r5, r7
     9bc:	f814 1b01 	ldrb.w	r1, [r4], #1
     9c0:	43ed      	mvns	r5, r5
     9c2:	19ab      	adds	r3, r5, r6
     9c4:	4818      	ldr	r0, [pc, #96]	; (a28 <_write+0x84>)
     9c6:	f003 0501 	and.w	r5, r3, #1
     9ca:	f000 ff47 	bl	185c <serial_putc>
     9ce:	42b4      	cmp	r4, r6
     9d0:	d014      	beq.n	9fc <_write+0x58>
     9d2:	b135      	cbz	r5, 9e2 <_write+0x3e>
     9d4:	f814 1b01 	ldrb.w	r1, [r4], #1
     9d8:	4813      	ldr	r0, [pc, #76]	; (a28 <_write+0x84>)
     9da:	f000 ff3f 	bl	185c <serial_putc>
     9de:	42b4      	cmp	r4, r6
     9e0:	d00c      	beq.n	9fc <_write+0x58>
     9e2:	4625      	mov	r5, r4
     9e4:	f815 1b01 	ldrb.w	r1, [r5], #1
     9e8:	480f      	ldr	r0, [pc, #60]	; (a28 <_write+0x84>)
     9ea:	f000 ff37 	bl	185c <serial_putc>
     9ee:	7861      	ldrb	r1, [r4, #1]
     9f0:	480d      	ldr	r0, [pc, #52]	; (a28 <_write+0x84>)
     9f2:	1c6c      	adds	r4, r5, #1
     9f4:	f000 ff32 	bl	185c <serial_putc>
     9f8:	42b4      	cmp	r4, r6
     9fa:	d1f2      	bne.n	9e2 <_write+0x3e>
     9fc:	4638      	mov	r0, r7
     9fe:	bdf8      	pop	{r3, r4, r5, r6, r7, pc}
     a00:	4b0a      	ldr	r3, [pc, #40]	; (a2c <_write+0x88>)
     a02:	3803      	subs	r0, #3
     a04:	f853 0020 	ldr.w	r0, [r3, r0, lsl #2]
     a08:	b140      	cbz	r0, a1c <_write+0x78>
     a0a:	6803      	ldr	r3, [r0, #0]
     a0c:	681b      	ldr	r3, [r3, #0]
     a0e:	4798      	blx	r3
     a10:	bdf8      	pop	{r3, r4, r5, r6, r7, pc}
     a12:	f7ff ff23 	bl	85c <_ZL11init_serialv>
     a16:	2f00      	cmp	r7, #0
     a18:	d1ce      	bne.n	9b8 <_write+0x14>
     a1a:	e7ef      	b.n	9fc <_write+0x58>
     a1c:	f04f 30ff 	mov.w	r0, #4294967295
     a20:	bdf8      	pop	{r3, r4, r5, r6, r7, pc}
     a22:	bf00      	nop
     a24:	10000364 	.word	0x10000364
     a28:	10000394 	.word	0x10000394
     a2c:	10000264 	.word	0x10000264

00000a30 <_read>:
     a30:	2802      	cmp	r0, #2
     a32:	b510      	push	{r4, lr}
     a34:	460c      	mov	r4, r1
     a36:	dd0a      	ble.n	a4e <_read+0x1e>
     a38:	4b0a      	ldr	r3, [pc, #40]	; (a64 <_read+0x34>)
     a3a:	3803      	subs	r0, #3
     a3c:	f853 0020 	ldr.w	r0, [r3, r0, lsl #2]
     a40:	b160      	cbz	r0, a5c <_read+0x2c>
     a42:	6803      	ldr	r3, [r0, #0]
     a44:	689b      	ldr	r3, [r3, #8]
     a46:	4798      	blx	r3
     a48:	4601      	mov	r1, r0
     a4a:	4608      	mov	r0, r1
     a4c:	bd10      	pop	{r4, pc}
     a4e:	4806      	ldr	r0, [pc, #24]	; (a68 <_read+0x38>)
     a50:	f000 fefe 	bl	1850 <serial_getc>
     a54:	2101      	movs	r1, #1
     a56:	7020      	strb	r0, [r4, #0]
     a58:	4608      	mov	r0, r1
     a5a:	bd10      	pop	{r4, pc}
     a5c:	f04f 31ff 	mov.w	r1, #4294967295
     a60:	e7f3      	b.n	a4a <_read+0x1a>
     a62:	bf00      	nop
     a64:	10000264 	.word	0x10000264
     a68:	10000394 	.word	0x10000394

00000a6c <_lseek>:
     a6c:	2802      	cmp	r0, #2
     a6e:	b508      	push	{r3, lr}
     a70:	dd08      	ble.n	a84 <_lseek+0x18>
     a72:	4b07      	ldr	r3, [pc, #28]	; (a90 <_lseek+0x24>)
     a74:	3803      	subs	r0, #3
     a76:	f853 0020 	ldr.w	r0, [r3, r0, lsl #2]
     a7a:	b128      	cbz	r0, a88 <_lseek+0x1c>
     a7c:	6803      	ldr	r3, [r0, #0]
     a7e:	691b      	ldr	r3, [r3, #16]
     a80:	4798      	blx	r3
     a82:	bd08      	pop	{r3, pc}
     a84:	2000      	movs	r0, #0
     a86:	bd08      	pop	{r3, pc}
     a88:	f04f 30ff 	mov.w	r0, #4294967295
     a8c:	bd08      	pop	{r3, pc}
     a8e:	bf00      	nop
     a90:	10000264 	.word	0x10000264

00000a94 <_fstat>:
     a94:	2802      	cmp	r0, #2
     a96:	b508      	push	{r3, lr}
     a98:	d804      	bhi.n	aa4 <_fstat+0x10>
     a9a:	f44f 5000 	mov.w	r0, #8192	; 0x2000
     a9e:	6048      	str	r0, [r1, #4]
     aa0:	2000      	movs	r0, #0
     aa2:	bd08      	pop	{r3, pc}
     aa4:	f002 fc04 	bl	32b0 <__errno>
     aa8:	2309      	movs	r3, #9
     aaa:	6003      	str	r3, [r0, #0]
     aac:	f04f 30ff 	mov.w	r0, #4294967295
     ab0:	bd08      	pop	{r3, pc}
     ab2:	bf00      	nop

00000ab4 <_ZN4mbed6Stream5closeEv>:
     ab4:	2000      	movs	r0, #0
     ab6:	4770      	bx	lr

00000ab8 <_ZN4mbed6Stream5writeEPKvj>:
     ab8:	e92d 41f0 	stmdb	sp!, {r4, r5, r6, r7, r8, lr}
     abc:	188e      	adds	r6, r1, r2
     abe:	42b1      	cmp	r1, r6
     ac0:	460f      	mov	r7, r1
     ac2:	4605      	mov	r5, r0
     ac4:	d030      	beq.n	b28 <_ZN4mbed6Stream5writeEPKvj+0x70>
     ac6:	6803      	ldr	r3, [r0, #0]
     ac8:	1b8a      	subs	r2, r1, r6
     aca:	460c      	mov	r4, r1
     acc:	43d2      	mvns	r2, r2
     ace:	6a5b      	ldr	r3, [r3, #36]	; 0x24
     ad0:	f814 1b01 	ldrb.w	r1, [r4], #1
     ad4:	f002 0801 	and.w	r8, r2, #1
     ad8:	4798      	blx	r3
     ada:	3001      	adds	r0, #1
     adc:	d01e      	beq.n	b1c <_ZN4mbed6Stream5writeEPKvj+0x64>
     ade:	42a6      	cmp	r6, r4
     ae0:	d01f      	beq.n	b22 <_ZN4mbed6Stream5writeEPKvj+0x6a>
     ae2:	f1b8 0f00 	cmp.w	r8, #0
     ae6:	d009      	beq.n	afc <_ZN4mbed6Stream5writeEPKvj+0x44>
     ae8:	6829      	ldr	r1, [r5, #0]
     aea:	4628      	mov	r0, r5
     aec:	6a4a      	ldr	r2, [r1, #36]	; 0x24
     aee:	f814 1b01 	ldrb.w	r1, [r4], #1
     af2:	4790      	blx	r2
     af4:	3001      	adds	r0, #1
     af6:	d011      	beq.n	b1c <_ZN4mbed6Stream5writeEPKvj+0x64>
     af8:	42a6      	cmp	r6, r4
     afa:	d012      	beq.n	b22 <_ZN4mbed6Stream5writeEPKvj+0x6a>
     afc:	6828      	ldr	r0, [r5, #0]
     afe:	f814 1b01 	ldrb.w	r1, [r4], #1
     b02:	6a43      	ldr	r3, [r0, #36]	; 0x24
     b04:	4628      	mov	r0, r5
     b06:	4798      	blx	r3
     b08:	3001      	adds	r0, #1
     b0a:	4628      	mov	r0, r5
     b0c:	d006      	beq.n	b1c <_ZN4mbed6Stream5writeEPKvj+0x64>
     b0e:	682a      	ldr	r2, [r5, #0]
     b10:	f814 1b01 	ldrb.w	r1, [r4], #1
     b14:	6a53      	ldr	r3, [r2, #36]	; 0x24
     b16:	4798      	blx	r3
     b18:	3001      	adds	r0, #1
     b1a:	d1ed      	bne.n	af8 <_ZN4mbed6Stream5writeEPKvj+0x40>
     b1c:	1be0      	subs	r0, r4, r7
     b1e:	e8bd 81f0 	ldmia.w	sp!, {r4, r5, r6, r7, r8, pc}
     b22:	1bf0      	subs	r0, r6, r7
     b24:	e8bd 81f0 	ldmia.w	sp!, {r4, r5, r6, r7, r8, pc}
     b28:	2000      	movs	r0, #0
     b2a:	e8bd 81f0 	ldmia.w	sp!, {r4, r5, r6, r7, r8, pc}
     b2e:	bf00      	nop

00000b30 <_ZN4mbed6Stream4readEPvj>:
     b30:	e92d 41f0 	stmdb	sp!, {r4, r5, r6, r7, r8, lr}
     b34:	188e      	adds	r6, r1, r2
     b36:	42b1      	cmp	r1, r6
     b38:	460f      	mov	r7, r1
     b3a:	4605      	mov	r5, r0
     b3c:	d032      	beq.n	ba4 <_ZN4mbed6Stream4readEPvj+0x74>
     b3e:	6803      	ldr	r3, [r0, #0]
     b40:	1b8a      	subs	r2, r1, r6
     b42:	43d1      	mvns	r1, r2
     b44:	6a9c      	ldr	r4, [r3, #40]	; 0x28
     b46:	f001 0801 	and.w	r8, r1, #1
     b4a:	47a0      	blx	r4
     b4c:	1c43      	adds	r3, r0, #1
     b4e:	463c      	mov	r4, r7
     b50:	d025      	beq.n	b9e <_ZN4mbed6Stream4readEPvj+0x6e>
     b52:	463c      	mov	r4, r7
     b54:	f804 0b01 	strb.w	r0, [r4], #1
     b58:	42a6      	cmp	r6, r4
     b5a:	d01d      	beq.n	b98 <_ZN4mbed6Stream4readEPvj+0x68>
     b5c:	f1b8 0f00 	cmp.w	r8, #0
     b60:	d006      	beq.n	b70 <_ZN4mbed6Stream4readEPvj+0x40>
     b62:	682b      	ldr	r3, [r5, #0]
     b64:	4628      	mov	r0, r5
     b66:	6a9a      	ldr	r2, [r3, #40]	; 0x28
     b68:	4790      	blx	r2
     b6a:	1c43      	adds	r3, r0, #1
     b6c:	d110      	bne.n	b90 <_ZN4mbed6Stream4readEPvj+0x60>
     b6e:	e016      	b.n	b9e <_ZN4mbed6Stream4readEPvj+0x6e>
     b70:	6829      	ldr	r1, [r5, #0]
     b72:	4628      	mov	r0, r5
     b74:	6a8b      	ldr	r3, [r1, #40]	; 0x28
     b76:	4798      	blx	r3
     b78:	4684      	mov	r12, r0
     b7a:	f11c 0101 	adds.w	r1, r12, #1
     b7e:	4628      	mov	r0, r5
     b80:	d00d      	beq.n	b9e <_ZN4mbed6Stream4readEPvj+0x6e>
     b82:	f804 cb01 	strb.w	r12, [r4], #1
     b86:	682a      	ldr	r2, [r5, #0]
     b88:	6a91      	ldr	r1, [r2, #40]	; 0x28
     b8a:	4788      	blx	r1
     b8c:	1c42      	adds	r2, r0, #1
     b8e:	d006      	beq.n	b9e <_ZN4mbed6Stream4readEPvj+0x6e>
     b90:	f804 0b01 	strb.w	r0, [r4], #1
     b94:	42a6      	cmp	r6, r4
     b96:	d1eb      	bne.n	b70 <_ZN4mbed6Stream4readEPvj+0x40>
     b98:	1bf0      	subs	r0, r6, r7
     b9a:	e8bd 81f0 	ldmia.w	sp!, {r4, r5, r6, r7, r8, pc}
     b9e:	1be0      	subs	r0, r4, r7
     ba0:	e8bd 81f0 	ldmia.w	sp!, {r4, r5, r6, r7, r8, pc}
     ba4:	2000      	movs	r0, #0
     ba6:	e8bd 81f0 	ldmia.w	sp!, {r4, r5, r6, r7, r8, pc}
     baa:	bf00      	nop

00000bac <_ZN4mbed6Stream5lseekEli>:
     bac:	2000      	movs	r0, #0
     bae:	4770      	bx	lr

00000bb0 <_ZN4mbed6Stream6isattyEv>:
     bb0:	2000      	movs	r0, #0
     bb2:	4770      	bx	lr

00000bb4 <_ZN4mbed6Stream5fsyncEv>:
     bb4:	2000      	movs	r0, #0
     bb6:	4770      	bx	lr

00000bb8 <_ZN4mbed6Stream4flenEv>:
     bb8:	2000      	movs	r0, #0
     bba:	4770      	bx	lr

00000bbc <_ZN4mbed6StreamD1Ev>:
     bbc:	f248 43d0 	movw	r3, #34000	; 0x84d0
     bc0:	f2c0 0300 	movt	r3, #0
     bc4:	f103 0208 	add.w	r2, r3, #8
     bc8:	333c      	adds	r3, #60	; 0x3c
     bca:	b510      	push	{r4, lr}
     bcc:	4604      	mov	r4, r0
     bce:	e880 000c 	stmia.w	r0, {r2, r3}
     bd2:	6940      	ldr	r0, [r0, #20]
     bd4:	f002 fbc8 	bl	3368 <fclose>
     bd8:	4620      	mov	r0, r4
     bda:	f000 ff73 	bl	1ac4 <_ZN4mbed8FileLikeD1Ev>
     bde:	4620      	mov	r0, r4
     be0:	bd10      	pop	{r4, pc}
     be2:	bf00      	nop

00000be4 <_ZThn4_N4mbed6StreamD1Ev>:
     be4:	f1a0 0004 	sub.w	r0, r0, #4
     be8:	f7ff bfe8 	b.w	bbc <_ZN4mbed6StreamD1Ev>

00000bec <_ZN4mbed6StreamD0Ev>:
     bec:	b510      	push	{r4, lr}
     bee:	4604      	mov	r4, r0
     bf0:	f7ff ffe4 	bl	bbc <_ZN4mbed6StreamD1Ev>
     bf4:	4620      	mov	r0, r4
     bf6:	f001 f8dd 	bl	1db4 <_ZdlPv>
     bfa:	4620      	mov	r0, r4
     bfc:	bd10      	pop	{r4, pc}
     bfe:	bf00      	nop

00000c00 <_ZThn4_N4mbed6StreamD0Ev>:
     c00:	f1a0 0004 	sub.w	r0, r0, #4
     c04:	f7ff bff2 	b.w	bec <_ZN4mbed6StreamD0Ev>

00000c08 <_ZN4mbed6StreamC1EPKc>:
     c08:	b510      	push	{r4, lr}
     c0a:	b084      	sub	sp, #16
     c0c:	4604      	mov	r4, r0
     c0e:	f000 ff7f 	bl	1b10 <_ZN4mbed8FileLikeC1EPKc>
     c12:	f248 43d0 	movw	r3, #34000	; 0x84d0
     c16:	f2c0 0300 	movt	r3, #0
     c1a:	f103 0008 	add.w	r0, r3, #8
     c1e:	f248 41c0 	movw	r1, #33984	; 0x84c0
     c22:	333c      	adds	r3, #60	; 0x3c
     c24:	e884 0009 	stmia.w	r4, {r0, r3}
     c28:	4622      	mov	r2, r4
     c2a:	f2c0 0100 	movt	r1, #0
     c2e:	a801      	add	r0, sp, #4
     c30:	f003 f844 	bl	3cbc <siprintf>
     c34:	f248 5124 	movw	r1, #34084	; 0x8524
     c38:	f2c0 0100 	movt	r1, #0
     c3c:	a801      	add	r0, sp, #4
     c3e:	f002 fd4f 	bl	36e0 <fopen>
     c42:	2100      	movs	r1, #0
     c44:	6160      	str	r0, [r4, #20]
     c46:	f002 ff9f 	bl	3b88 <setbuf>
     c4a:	4620      	mov	r0, r4
     c4c:	b004      	add	sp, #16
     c4e:	bd10      	pop	{r4, pc}

00000c50 <_ZN4mbed6Stream6printfEPKcz>:
     c50:	b40e      	push	{r1, r2, r3}
     c52:	b530      	push	{r4, r5, lr}
     c54:	b082      	sub	sp, #8
     c56:	ab05      	add	r3, sp, #20
     c58:	f853 5b04 	ldr.w	r5, [r3], #4
     c5c:	4604      	mov	r4, r0
     c5e:	6940      	ldr	r0, [r0, #20]
     c60:	9301      	str	r3, [sp, #4]
     c62:	f002 fc2d 	bl	34c0 <fflush>
     c66:	6960      	ldr	r0, [r4, #20]
     c68:	4629      	mov	r1, r5
     c6a:	9a01      	ldr	r2, [sp, #4]
     c6c:	f003 fd60 	bl	4730 <vfiprintf>
     c70:	b002      	add	sp, #8
     c72:	e8bd 4030 	ldmia.w	sp!, {r4, r5, lr}
     c76:	b003      	add	sp, #12
     c78:	4770      	bx	lr
     c7a:	bf00      	nop

00000c7c <_ZN4mbed6TickerD1Ev>:
     c7c:	4b03      	ldr	r3, [pc, #12]	; (c8c <_ZN4mbed6TickerD1Ev+0x10>)
     c7e:	b510      	push	{r4, lr}
     c80:	4604      	mov	r4, r0
     c82:	6003      	str	r3, [r0, #0]
     c84:	f000 f866 	bl	d54 <_ZN4mbed10TimerEventD1Ev>
     c88:	4620      	mov	r0, r4
     c8a:	bd10      	pop	{r4, pc}
     c8c:	00008560 	.word	0x00008560

00000c90 <_ZN4mbed6Ticker7handlerEv>:
     c90:	6843      	ldr	r3, [r0, #4]
     c92:	6901      	ldr	r1, [r0, #16]
     c94:	b510      	push	{r4, lr}
     c96:	18c9      	adds	r1, r1, r3
     c98:	4604      	mov	r4, r0
     c9a:	f000 f853 	bl	d44 <_ZN4mbed10TimerEvent6insertEj>
     c9e:	f104 0014 	add.w	r0, r4, #20
     ca2:	e8bd 4010 	ldmia.w	sp!, {r4, lr}
     ca6:	f7ff bce3 	b.w	670 <_ZN4mbed15FunctionPointer4callEv>
     caa:	bf00      	nop

00000cac <_ZN4mbed6TickerD0Ev>:
     cac:	4b05      	ldr	r3, [pc, #20]	; (cc4 <_ZN4mbed6TickerD0Ev+0x18>)
     cae:	b510      	push	{r4, lr}
     cb0:	4604      	mov	r4, r0
     cb2:	6003      	str	r3, [r0, #0]
     cb4:	f000 f84e 	bl	d54 <_ZN4mbed10TimerEventD1Ev>
     cb8:	4620      	mov	r0, r4
     cba:	f001 f87b 	bl	1db4 <_ZdlPv>
     cbe:	4620      	mov	r0, r4
     cc0:	bd10      	pop	{r4, pc}
     cc2:	bf00      	nop
     cc4:	00008560 	.word	0x00008560

00000cc8 <_ZN4mbed6Ticker5setupEj>:
     cc8:	b538      	push	{r3, r4, r5, lr}
     cca:	460d      	mov	r5, r1
     ccc:	4604      	mov	r4, r0
     cce:	f000 f83d 	bl	d4c <_ZN4mbed10TimerEvent6removeEv>
     cd2:	6125      	str	r5, [r4, #16]
     cd4:	f000 fdcc 	bl	1870 <us_ticker_read>
     cd8:	1941      	adds	r1, r0, r5
     cda:	4620      	mov	r0, r4
     cdc:	e8bd 4038 	ldmia.w	sp!, {r3, r4, r5, lr}
     ce0:	f000 b830 	b.w	d44 <_ZN4mbed10TimerEvent6insertEj>

00000ce4 <_ZN4mbed7Timeout7handlerEv>:
     ce4:	3014      	adds	r0, #20
     ce6:	f7ff bcc3 	b.w	670 <_ZN4mbed15FunctionPointer4callEv>
     cea:	bf00      	nop

00000cec <_ZN4mbed7TimeoutD1Ev>:
     cec:	4b03      	ldr	r3, [pc, #12]	; (cfc <_ZN4mbed7TimeoutD1Ev+0x10>)
     cee:	b510      	push	{r4, lr}
     cf0:	4604      	mov	r4, r0
     cf2:	6003      	str	r3, [r0, #0]
     cf4:	f000 f82e 	bl	d54 <_ZN4mbed10TimerEventD1Ev>
     cf8:	4620      	mov	r0, r4
     cfa:	bd10      	pop	{r4, pc}
     cfc:	00008560 	.word	0x00008560

00000d00 <_ZN4mbed7TimeoutD0Ev>:
     d00:	4b05      	ldr	r3, [pc, #20]	; (d18 <_ZN4mbed7TimeoutD0Ev+0x18>)
     d02:	b510      	push	{r4, lr}
     d04:	4604      	mov	r4, r0
     d06:	6003      	str	r3, [r0, #0]
     d08:	f000 f824 	bl	d54 <_ZN4mbed10TimerEventD1Ev>
     d0c:	4620      	mov	r0, r4
     d0e:	f001 f851 	bl	1db4 <_ZdlPv>
     d12:	4620      	mov	r0, r4
     d14:	bd10      	pop	{r4, pc}
     d16:	bf00      	nop
     d18:	00008560 	.word	0x00008560

00000d1c <_ZN4mbed10TimerEvent3irqEm>:
     d1c:	b508      	push	{r3, lr}
     d1e:	6803      	ldr	r3, [r0, #0]
     d20:	6899      	ldr	r1, [r3, #8]
     d22:	4788      	blx	r1
     d24:	bd08      	pop	{r3, pc}
     d26:	bf00      	nop

00000d28 <_ZN4mbed10TimerEventC1Ev>:
     d28:	4b05      	ldr	r3, [pc, #20]	; (d40 <_ZN4mbed10TimerEventC1Ev+0x18>)
     d2a:	b510      	push	{r4, lr}
     d2c:	4604      	mov	r4, r0
     d2e:	6003      	str	r3, [r0, #0]
     d30:	f640 501d 	movw	r0, #3357	; 0xd1d
     d34:	f2c0 0000 	movt	r0, #0
     d38:	f000 fdfe 	bl	1938 <us_ticker_set_handler>
     d3c:	4620      	mov	r0, r4
     d3e:	bd10      	pop	{r4, pc}
     d40:	000085b8 	.word	0x000085b8

00000d44 <_ZN4mbed10TimerEvent6insertEj>:
     d44:	4602      	mov	r2, r0
     d46:	3004      	adds	r0, #4
     d48:	f000 be0a 	b.w	1960 <us_ticker_insert_event>

00000d4c <_ZN4mbed10TimerEvent6removeEv>:
     d4c:	3004      	adds	r0, #4
     d4e:	f000 be31 	b.w	19b4 <us_ticker_remove_event>
     d52:	bf00      	nop

00000d54 <_ZN4mbed10TimerEventD1Ev>:
     d54:	4b03      	ldr	r3, [pc, #12]	; (d64 <_ZN4mbed10TimerEventD1Ev+0x10>)
     d56:	b510      	push	{r4, lr}
     d58:	4604      	mov	r4, r0
     d5a:	6003      	str	r3, [r0, #0]
     d5c:	f7ff fff6 	bl	d4c <_ZN4mbed10TimerEvent6removeEv>
     d60:	4620      	mov	r0, r4
     d62:	bd10      	pop	{r4, pc}
     d64:	000085b8 	.word	0x000085b8

00000d68 <_ZN4mbed10TimerEventD0Ev>:
     d68:	b510      	push	{r4, lr}
     d6a:	4604      	mov	r4, r0
     d6c:	f7ff fff2 	bl	d54 <_ZN4mbed10TimerEventD1Ev>
     d70:	4620      	mov	r0, r4
     d72:	f001 f81f 	bl	1db4 <_ZdlPv>
     d76:	4620      	mov	r0, r4
     d78:	bd10      	pop	{r4, pc}
     d7a:	bf00      	nop

00000d7c <mbed_die>:
     d7c:	b500      	push	{lr}
     d7e:	f24c 0132 	movw	r1, #49202	; 0xc032
     d82:	b099      	sub	sp, #100	; 0x64
     d84:	4668      	mov	r0, sp
     d86:	f2c2 0109 	movt	r1, #8201	; 0x2009
     d8a:	2201      	movs	r2, #1
     d8c:	f000 f856 	bl	e3c <gpio_init>
     d90:	f24c 0134 	movw	r1, #49204	; 0xc034
     d94:	a806      	add	r0, sp, #24
     d96:	f2c2 0109 	movt	r1, #8201	; 0x2009
     d9a:	2201      	movs	r2, #1
     d9c:	f000 f84e 	bl	e3c <gpio_init>
     da0:	f24c 0135 	movw	r1, #49205	; 0xc035
     da4:	a80c      	add	r0, sp, #48	; 0x30
     da6:	f2c2 0109 	movt	r1, #8201	; 0x2009
     daa:	2201      	movs	r2, #1
     dac:	f000 f846 	bl	e3c <gpio_init>
     db0:	f24c 0137 	movw	r1, #49207	; 0xc037
     db4:	a812      	add	r0, sp, #72	; 0x48
     db6:	f2c2 0109 	movt	r1, #8201	; 0x2009
     dba:	2201      	movs	r2, #1
     dbc:	f000 f83e 	bl	e3c <gpio_init>
     dc0:	9a01      	ldr	r2, [sp, #4]
     dc2:	9b03      	ldr	r3, [sp, #12]
     dc4:	990a      	ldr	r1, [sp, #40]	; 0x28
     dc6:	601a      	str	r2, [r3, #0]
     dc8:	9807      	ldr	r0, [sp, #28]
     dca:	9b10      	ldr	r3, [sp, #64]	; 0x40
     dcc:	6008      	str	r0, [r1, #0]
     dce:	9a0d      	ldr	r2, [sp, #52]	; 0x34
     dd0:	2096      	movs	r0, #150	; 0x96
     dd2:	601a      	str	r2, [r3, #0]
     dd4:	9913      	ldr	r1, [sp, #76]	; 0x4c
     dd6:	9a15      	ldr	r2, [sp, #84]	; 0x54
     dd8:	6011      	str	r1, [r2, #0]
     dda:	f7ff fc2b 	bl	634 <wait_ms>
     dde:	9801      	ldr	r0, [sp, #4]
     de0:	9b04      	ldr	r3, [sp, #16]
     de2:	9a09      	ldr	r2, [sp, #36]	; 0x24
     de4:	6018      	str	r0, [r3, #0]
     de6:	9907      	ldr	r1, [sp, #28]
     de8:	9b0f      	ldr	r3, [sp, #60]	; 0x3c
     dea:	6011      	str	r1, [r2, #0]
     dec:	980d      	ldr	r0, [sp, #52]	; 0x34
     dee:	9a16      	ldr	r2, [sp, #88]	; 0x58
     df0:	6018      	str	r0, [r3, #0]
     df2:	9913      	ldr	r1, [sp, #76]	; 0x4c
     df4:	2096      	movs	r0, #150	; 0x96
     df6:	6011      	str	r1, [r2, #0]
     df8:	f7ff fc1c 	bl	634 <wait_ms>
     dfc:	e7e0      	b.n	dc0 <mbed_die+0x44>
     dfe:	bf00      	nop

00000e00 <gpio_set>:
     e00:	b510      	push	{r4, lr}
     e02:	2100      	movs	r1, #0
     e04:	4604      	mov	r4, r0
     e06:	f004 041f 	and.w	r4, r4, #31
     e0a:	f000 fa0b 	bl	1224 <pin_function>
     e0e:	2001      	movs	r0, #1
     e10:	fa00 f004 	lsl.w	r0, r0, r4
     e14:	bd10      	pop	{r4, pc}
     e16:	bf00      	nop

00000e18 <gpio_dir>:
     e18:	b931      	cbnz	r1, e28 <gpio_dir+0x10>
     e1a:	6883      	ldr	r3, [r0, #8]
     e1c:	6841      	ldr	r1, [r0, #4]
     e1e:	681a      	ldr	r2, [r3, #0]
     e20:	ea22 0001 	bic.w	r0, r2, r1
     e24:	6018      	str	r0, [r3, #0]
     e26:	4770      	bx	lr
     e28:	2901      	cmp	r1, #1
     e2a:	d000      	beq.n	e2e <gpio_dir+0x16>
     e2c:	4770      	bx	lr
     e2e:	6883      	ldr	r3, [r0, #8]
     e30:	6842      	ldr	r2, [r0, #4]
     e32:	6819      	ldr	r1, [r3, #0]
     e34:	ea41 0002 	orr.w	r0, r1, r2
     e38:	6018      	str	r0, [r3, #0]
     e3a:	4770      	bx	lr

00000e3c <gpio_init>:
     e3c:	b5f8      	push	{r3, r4, r5, r6, r7, lr}
     e3e:	1c4b      	adds	r3, r1, #1
     e40:	460d      	mov	r5, r1
     e42:	4604      	mov	r4, r0
     e44:	4616      	mov	r6, r2
     e46:	d01d      	beq.n	e84 <gpio_init+0x48>
     e48:	6021      	str	r1, [r4, #0]
     e4a:	4608      	mov	r0, r1
     e4c:	f7ff ffd8 	bl	e00 <gpio_set>
     e50:	f025 031f 	bic.w	r3, r5, #31
     e54:	f103 011c 	add.w	r1, r3, #28
     e58:	f103 0718 	add.w	r7, r3, #24
     e5c:	f103 0214 	add.w	r2, r3, #20
     e60:	6060      	str	r0, [r4, #4]
     e62:	6121      	str	r1, [r4, #16]
     e64:	60e7      	str	r7, [r4, #12]
     e66:	6162      	str	r2, [r4, #20]
     e68:	60a3      	str	r3, [r4, #8]
     e6a:	4620      	mov	r0, r4
     e6c:	4631      	mov	r1, r6
     e6e:	f7ff ffd3 	bl	e18 <gpio_dir>
     e72:	b92e      	cbnz	r6, e80 <gpio_init+0x44>
     e74:	4628      	mov	r0, r5
     e76:	2103      	movs	r1, #3
     e78:	e8bd 40f8 	ldmia.w	sp!, {r3, r4, r5, r6, r7, lr}
     e7c:	f000 b9f4 	b.w	1268 <pin_mode>
     e80:	2e01      	cmp	r6, #1
     e82:	d000      	beq.n	e86 <gpio_init+0x4a>
     e84:	bdf8      	pop	{r3, r4, r5, r6, r7, pc}
     e86:	4628      	mov	r0, r5
     e88:	2102      	movs	r1, #2
     e8a:	e8bd 40f8 	ldmia.w	sp!, {r3, r4, r5, r6, r7, lr}
     e8e:	f000 b9eb 	b.w	1268 <pin_mode>
     e92:	bf00      	nop

00000e94 <i2c_do_write>:
     e94:	6802      	ldr	r2, [r0, #0]
     e96:	f242 7310 	movw	r3, #10000	; 0x2710
     e9a:	6091      	str	r1, [r2, #8]
     e9c:	2108      	movs	r1, #8
     e9e:	6191      	str	r1, [r2, #24]
     ea0:	e004      	b.n	eac <i2c_do_write+0x18>
     ea2:	6811      	ldr	r1, [r2, #0]
     ea4:	0709      	lsls	r1, r1, #28
     ea6:	d405      	bmi.n	eb4 <i2c_do_write+0x20>
     ea8:	3b01      	subs	r3, #1
     eaa:	d00c      	beq.n	ec6 <i2c_do_write+0x32>
     eac:	6810      	ldr	r0, [r2, #0]
     eae:	3b01      	subs	r3, #1
     eb0:	0700      	lsls	r0, r0, #28
     eb2:	d5f6      	bpl.n	ea2 <i2c_do_write+0xe>
     eb4:	6850      	ldr	r0, [r2, #4]
     eb6:	2840      	cmp	r0, #64	; 0x40
     eb8:	d007      	beq.n	eca <i2c_do_write+0x36>
     eba:	6851      	ldr	r1, [r2, #4]
     ebc:	2918      	cmp	r1, #24
     ebe:	d004      	beq.n	eca <i2c_do_write+0x36>
     ec0:	6852      	ldr	r2, [r2, #4]
     ec2:	2a28      	cmp	r2, #40	; 0x28
     ec4:	d001      	beq.n	eca <i2c_do_write+0x36>
     ec6:	2001      	movs	r0, #1
     ec8:	4770      	bx	lr
     eca:	2000      	movs	r0, #0
     ecc:	4770      	bx	lr
     ece:	bf00      	nop

00000ed0 <i2c_do_read>:
     ed0:	b302      	cbz	r2, f14 <i2c_do_read+0x44>
     ed2:	6802      	ldr	r2, [r0, #0]
     ed4:	2004      	movs	r0, #4
     ed6:	6190      	str	r0, [r2, #24]
     ed8:	2308      	movs	r3, #8
     eda:	6193      	str	r3, [r2, #24]
     edc:	6810      	ldr	r0, [r2, #0]
     ede:	0703      	lsls	r3, r0, #28
     ee0:	d40d      	bmi.n	efe <i2c_do_read+0x2e>
     ee2:	f248 63a0 	movw	r3, #34464	; 0x86a0
     ee6:	f2c0 0301 	movt	r3, #1
     eea:	e004      	b.n	ef6 <i2c_do_read+0x26>
     eec:	6810      	ldr	r0, [r2, #0]
     eee:	0700      	lsls	r0, r0, #28
     ef0:	d405      	bmi.n	efe <i2c_do_read+0x2e>
     ef2:	3b01      	subs	r3, #1
     ef4:	d003      	beq.n	efe <i2c_do_read+0x2e>
     ef6:	6810      	ldr	r0, [r2, #0]
     ef8:	3b01      	subs	r3, #1
     efa:	0700      	lsls	r0, r0, #28
     efc:	d5f6      	bpl.n	eec <i2c_do_read+0x1c>
     efe:	6850      	ldr	r0, [r2, #4]
     f00:	2850      	cmp	r0, #80	; 0x50
     f02:	d00b      	beq.n	f1c <i2c_do_read+0x4c>
     f04:	6853      	ldr	r3, [r2, #4]
     f06:	f1b3 0058 	subs.w	r0, r3, #88	; 0x58
     f0a:	bf18      	it	ne
     f0c:	2001      	movne	r0, #1
     f0e:	6892      	ldr	r2, [r2, #8]
     f10:	700a      	strb	r2, [r1, #0]
     f12:	4770      	bx	lr
     f14:	6802      	ldr	r2, [r0, #0]
     f16:	2304      	movs	r3, #4
     f18:	6013      	str	r3, [r2, #0]
     f1a:	e7dd      	b.n	ed8 <i2c_do_read+0x8>
     f1c:	2000      	movs	r0, #0
     f1e:	e7f6      	b.n	f0e <i2c_do_read+0x3e>

00000f20 <i2c_init>:
     f20:	b5f8      	push	{r3, r4, r5, r6, r7, lr}
     f22:	460d      	mov	r5, r1
     f24:	4606      	mov	r6, r0
     f26:	4932      	ldr	r1, [pc, #200]	; (ff0 <i2c_init+0xd0>)
     f28:	4628      	mov	r0, r5
     f2a:	4614      	mov	r4, r2
     f2c:	f000 fdac 	bl	1a88 <pinmap_peripheral>
     f30:	4930      	ldr	r1, [pc, #192]	; (ff4 <i2c_init+0xd4>)
     f32:	4607      	mov	r7, r0
     f34:	4620      	mov	r0, r4
     f36:	f000 fda7 	bl	1a88 <pinmap_peripheral>
     f3a:	4601      	mov	r1, r0
     f3c:	4638      	mov	r0, r7
     f3e:	f000 fd8b 	bl	1a58 <pinmap_merge>
     f42:	1c42      	adds	r2, r0, #1
     f44:	4603      	mov	r3, r0
     f46:	6030      	str	r0, [r6, #0]
     f48:	d049      	beq.n	fde <i2c_init+0xbe>
     f4a:	f44f 4240 	mov.w	r2, #49152	; 0xc000
     f4e:	f2c4 0205 	movt	r2, #16389	; 0x4005
     f52:	4290      	cmp	r0, r2
     f54:	d038      	beq.n	fc8 <i2c_init+0xa8>
     f56:	2000      	movs	r0, #0
     f58:	f2c4 000a 	movt	r0, #16394	; 0x400a
     f5c:	4283      	cmp	r3, r0
     f5e:	f44f 4c40 	mov.w	r12, #49152	; 0xc000
     f62:	d028      	beq.n	fb6 <i2c_init+0x96>
     f64:	f2c4 0c01 	movt	r12, #16385	; 0x4001
     f68:	4563      	cmp	r3, r12
     f6a:	d019      	beq.n	fa0 <i2c_init+0x80>
     f6c:	4922      	ldr	r1, [pc, #136]	; (ff8 <i2c_init+0xd8>)
     f6e:	f642 5e63 	movw	lr, #11619	; 0x2d63
     f72:	680a      	ldr	r2, [r1, #0]
     f74:	f2c0 5e3e 	movt	lr, #1342	; 0x53e
     f78:	0a10      	lsrs	r0, r2, #8
     f7a:	fbae 0100 	umull	r0, r1, lr, r0
     f7e:	098a      	lsrs	r2, r1, #6
     f80:	615a      	str	r2, [r3, #20]
     f82:	611a      	str	r2, [r3, #16]
     f84:	223c      	movs	r2, #60	; 0x3c
     f86:	619a      	str	r2, [r3, #24]
     f88:	2240      	movs	r2, #64	; 0x40
     f8a:	4628      	mov	r0, r5
     f8c:	4918      	ldr	r1, [pc, #96]	; (ff0 <i2c_init+0xd0>)
     f8e:	601a      	str	r2, [r3, #0]
     f90:	f000 fd3c 	bl	1a0c <pinmap_pinout>
     f94:	4917      	ldr	r1, [pc, #92]	; (ff4 <i2c_init+0xd4>)
     f96:	4620      	mov	r0, r4
     f98:	e8bd 40f8 	ldmia.w	sp!, {r3, r4, r5, r6, r7, lr}
     f9c:	f000 bd36 	b.w	1a0c <pinmap_pinout>
     fa0:	f44f 4e40 	mov.w	lr, #49152	; 0xc000
     fa4:	f2c4 0e0f 	movt	lr, #16399	; 0x400f
     fa8:	f8de 10c4 	ldr.w	r1, [lr, #196]	; 0xc4
     fac:	f041 0280 	orr.w	r2, r1, #128	; 0x80
     fb0:	f8ce 20c4 	str.w	r2, [lr, #196]	; 0xc4
     fb4:	e7da      	b.n	f6c <i2c_init+0x4c>
     fb6:	f2c4 0c0f 	movt	r12, #16399	; 0x400f
     fba:	f8dc 00c4 	ldr.w	r0, [r12, #196]	; 0xc4
     fbe:	f040 6180 	orr.w	r1, r0, #67108864	; 0x4000000
     fc2:	f8cc 10c4 	str.w	r1, [r12, #196]	; 0xc4
     fc6:	e7d1      	b.n	f6c <i2c_init+0x4c>
     fc8:	f44f 4c40 	mov.w	r12, #49152	; 0xc000
     fcc:	f2c4 0c0f 	movt	r12, #16399	; 0x400f
     fd0:	f8dc 20c4 	ldr.w	r2, [r12, #196]	; 0xc4
     fd4:	f442 2000 	orr.w	r0, r2, #524288	; 0x80000
     fd8:	f8cc 00c4 	str.w	r0, [r12, #196]	; 0xc4
     fdc:	e7c6      	b.n	f6c <i2c_init+0x4c>
     fde:	4c07      	ldr	r4, [pc, #28]	; (ffc <i2c_init+0xdc>)
     fe0:	4907      	ldr	r1, [pc, #28]	; (1000 <i2c_init+0xe0>)
     fe2:	6825      	ldr	r5, [r4, #0]
     fe4:	68e8      	ldr	r0, [r5, #12]
     fe6:	f002 fb85 	bl	36f4 <fiprintf>
     fea:	2001      	movs	r0, #1
     fec:	f7ff fafa 	bl	5e4 <exit>
     ff0:	000085dc 	.word	0x000085dc
     ff4:	00008630 	.word	0x00008630
     ff8:	100000cc 	.word	0x100000cc
     ffc:	10000134 	.word	0x10000134
    1000:	00008618 	.word	0x00008618

00001004 <i2c_start>:
    1004:	6802      	ldr	r2, [r0, #0]
    1006:	233c      	movs	r3, #60	; 0x3c
    1008:	2024      	movs	r0, #36	; 0x24
    100a:	6193      	str	r3, [r2, #24]
    100c:	6010      	str	r0, [r2, #0]
    100e:	6811      	ldr	r1, [r2, #0]
    1010:	070b      	lsls	r3, r1, #28
    1012:	d40d      	bmi.n	1030 <i2c_start+0x2c>
    1014:	f248 63a0 	movw	r3, #34464	; 0x86a0
    1018:	f2c0 0301 	movt	r3, #1
    101c:	e004      	b.n	1028 <i2c_start+0x24>
    101e:	6811      	ldr	r1, [r2, #0]
    1020:	0708      	lsls	r0, r1, #28
    1022:	d405      	bmi.n	1030 <i2c_start+0x2c>
    1024:	3b01      	subs	r3, #1
    1026:	d003      	beq.n	1030 <i2c_start+0x2c>
    1028:	6810      	ldr	r0, [r2, #0]
    102a:	3b01      	subs	r3, #1
    102c:	0701      	lsls	r1, r0, #28
    102e:	d5f6      	bpl.n	101e <i2c_start+0x1a>
    1030:	6850      	ldr	r0, [r2, #4]
    1032:	2120      	movs	r1, #32
    1034:	2808      	cmp	r0, #8
    1036:	6191      	str	r1, [r2, #24]
    1038:	d003      	beq.n	1042 <i2c_start+0x3e>
    103a:	3810      	subs	r0, #16
    103c:	bf18      	it	ne
    103e:	2001      	movne	r0, #1
    1040:	4770      	bx	lr
    1042:	2000      	movs	r0, #0
    1044:	4770      	bx	lr
    1046:	bf00      	nop

00001048 <i2c_frequency>:
    1048:	f240 03cc 	movw	r3, #204	; 0xcc
    104c:	f2c1 0300 	movt	r3, #4096	; 0x1000
    1050:	681a      	ldr	r2, [r3, #0]
    1052:	6800      	ldr	r0, [r0, #0]
    1054:	0893      	lsrs	r3, r2, #2
    1056:	0049      	lsls	r1, r1, #1
    1058:	fbb3 f2f1 	udiv	r2, r3, r1
    105c:	6142      	str	r2, [r0, #20]
    105e:	6102      	str	r2, [r0, #16]
    1060:	4770      	bx	lr
    1062:	bf00      	nop

00001064 <i2c_read>:
    1064:	e92d 43f8 	stmdb	sp!, {r3, r4, r5, r6, r7, r8, r9, lr}
    1068:	4604      	mov	r4, r0
    106a:	460d      	mov	r5, r1
    106c:	4616      	mov	r6, r2
    106e:	4699      	mov	r9, r3
    1070:	f7ff ffc8 	bl	1004 <i2c_start>
    1074:	b150      	cbz	r0, 108c <i2c_read+0x28>
    1076:	6821      	ldr	r1, [r4, #0]
    1078:	2010      	movs	r0, #16
    107a:	2308      	movs	r3, #8
    107c:	6008      	str	r0, [r1, #0]
    107e:	618b      	str	r3, [r1, #24]
    1080:	680a      	ldr	r2, [r1, #0]
    1082:	06d3      	lsls	r3, r2, #27
    1084:	d4fc      	bmi.n	1080 <i2c_read+0x1c>
    1086:	2001      	movs	r0, #1
    1088:	e8bd 83f8 	ldmia.w	sp!, {r3, r4, r5, r6, r7, r8, r9, pc}
    108c:	4620      	mov	r0, r4
    108e:	f045 0101 	orr.w	r1, r5, #1
    1092:	f7ff feff 	bl	e94 <i2c_do_write>
    1096:	4602      	mov	r2, r0
    1098:	2800      	cmp	r0, #0
    109a:	d13a      	bne.n	1112 <i2c_read+0xae>
    109c:	f109 39ff 	add.w	r9, r9, #4294967295
    10a0:	f1b9 0f00 	cmp.w	r9, #0
    10a4:	bfd8      	it	le
    10a6:	4601      	movle	r1, r0
    10a8:	dd3f      	ble.n	112a <i2c_read+0xc6>
    10aa:	f109 33ff 	add.w	r3, r9, #4294967295
    10ae:	4620      	mov	r0, r4
    10b0:	4631      	mov	r1, r6
    10b2:	f003 0701 	and.w	r7, r3, #1
    10b6:	f7ff ff0b 	bl	ed0 <i2c_do_read>
    10ba:	4602      	mov	r2, r0
    10bc:	bb00      	cbnz	r0, 1100 <i2c_read+0x9c>
    10be:	2501      	movs	r5, #1
    10c0:	454d      	cmp	r5, r9
    10c2:	d031      	beq.n	1128 <i2c_read+0xc4>
    10c4:	b16f      	cbz	r7, 10e2 <i2c_read+0x7e>
    10c6:	4620      	mov	r0, r4
    10c8:	1971      	adds	r1, r6, r5
    10ca:	f7ff ff01 	bl	ed0 <i2c_do_read>
    10ce:	b9b8      	cbnz	r0, 1100 <i2c_read+0x9c>
    10d0:	2502      	movs	r5, #2
    10d2:	454d      	cmp	r5, r9
    10d4:	d105      	bne.n	10e2 <i2c_read+0x7e>
    10d6:	e027      	b.n	1128 <i2c_read+0xc4>
    10d8:	f7ff fefa 	bl	ed0 <i2c_do_read>
    10dc:	b980      	cbnz	r0, 1100 <i2c_read+0x9c>
    10de:	454d      	cmp	r5, r9
    10e0:	d022      	beq.n	1128 <i2c_read+0xc4>
    10e2:	1971      	adds	r1, r6, r5
    10e4:	2200      	movs	r2, #0
    10e6:	4620      	mov	r0, r4
    10e8:	f7ff fef2 	bl	ed0 <i2c_do_read>
    10ec:	f105 0801 	add.w	r8, r5, #1
    10f0:	4607      	mov	r7, r0
    10f2:	3502      	adds	r5, #2
    10f4:	eb06 0108 	add.w	r1, r6, r8
    10f8:	4620      	mov	r0, r4
    10fa:	463a      	mov	r2, r7
    10fc:	2f00      	cmp	r7, #0
    10fe:	d0eb      	beq.n	10d8 <i2c_read+0x74>
    1100:	6822      	ldr	r2, [r4, #0]
    1102:	2010      	movs	r0, #16
    1104:	2108      	movs	r1, #8
    1106:	6010      	str	r0, [r2, #0]
    1108:	6191      	str	r1, [r2, #24]
    110a:	6813      	ldr	r3, [r2, #0]
    110c:	06d9      	lsls	r1, r3, #27
    110e:	d4fc      	bmi.n	110a <i2c_read+0xa6>
    1110:	e7b9      	b.n	1086 <i2c_read+0x22>
    1112:	6821      	ldr	r1, [r4, #0]
    1114:	2010      	movs	r0, #16
    1116:	2308      	movs	r3, #8
    1118:	6008      	str	r0, [r1, #0]
    111a:	618b      	str	r3, [r1, #24]
    111c:	680a      	ldr	r2, [r1, #0]
    111e:	06d0      	lsls	r0, r2, #27
    1120:	d4fc      	bmi.n	111c <i2c_read+0xb8>
    1122:	2001      	movs	r0, #1
    1124:	e8bd 83f8 	ldmia.w	sp!, {r3, r4, r5, r6, r7, r8, r9, pc}
    1128:	4629      	mov	r1, r5
    112a:	4620      	mov	r0, r4
    112c:	1871      	adds	r1, r6, r1
    112e:	2201      	movs	r2, #1
    1130:	f7ff fece 	bl	ed0 <i2c_do_read>
    1134:	b960      	cbnz	r0, 1150 <i2c_read+0xec>
    1136:	9a08      	ldr	r2, [sp, #32]
    1138:	b13a      	cbz	r2, 114a <i2c_read+0xe6>
    113a:	6821      	ldr	r1, [r4, #0]
    113c:	2010      	movs	r0, #16
    113e:	2308      	movs	r3, #8
    1140:	6008      	str	r0, [r1, #0]
    1142:	618b      	str	r3, [r1, #24]
    1144:	680a      	ldr	r2, [r1, #0]
    1146:	06d0      	lsls	r0, r2, #27
    1148:	d4fc      	bmi.n	1144 <i2c_read+0xe0>
    114a:	2000      	movs	r0, #0
    114c:	e8bd 83f8 	ldmia.w	sp!, {r3, r4, r5, r6, r7, r8, r9, pc}
    1150:	6821      	ldr	r1, [r4, #0]
    1152:	2010      	movs	r0, #16
    1154:	2308      	movs	r3, #8
    1156:	6008      	str	r0, [r1, #0]
    1158:	618b      	str	r3, [r1, #24]
    115a:	680a      	ldr	r2, [r1, #0]
    115c:	06d3      	lsls	r3, r2, #27
    115e:	d4fc      	bmi.n	115a <i2c_read+0xf6>
    1160:	e791      	b.n	1086 <i2c_read+0x22>
    1162:	bf00      	nop

00001164 <i2c_write>:
    1164:	b5f8      	push	{r3, r4, r5, r6, r7, lr}
    1166:	4604      	mov	r4, r0
    1168:	460e      	mov	r6, r1
    116a:	4615      	mov	r5, r2
    116c:	461f      	mov	r7, r3
    116e:	f7ff ff49 	bl	1004 <i2c_start>
    1172:	b148      	cbz	r0, 1188 <i2c_write+0x24>
    1174:	6820      	ldr	r0, [r4, #0]
    1176:	2110      	movs	r1, #16
    1178:	2208      	movs	r2, #8
    117a:	6001      	str	r1, [r0, #0]
    117c:	6182      	str	r2, [r0, #24]
    117e:	6803      	ldr	r3, [r0, #0]
    1180:	06d9      	lsls	r1, r3, #27
    1182:	d4fc      	bmi.n	117e <i2c_write+0x1a>
    1184:	2001      	movs	r0, #1
    1186:	bdf8      	pop	{r3, r4, r5, r6, r7, pc}
    1188:	4620      	mov	r0, r4
    118a:	f006 01fe 	and.w	r1, r6, #254	; 0xfe
    118e:	f7ff fe81 	bl	e94 <i2c_do_write>
    1192:	2800      	cmp	r0, #0
    1194:	d133      	bne.n	11fe <i2c_write+0x9a>
    1196:	2f00      	cmp	r7, #0
    1198:	dd24      	ble.n	11e4 <i2c_write+0x80>
    119a:	19ef      	adds	r7, r5, r7
    119c:	43eb      	mvns	r3, r5
    119e:	19da      	adds	r2, r3, r7
    11a0:	4620      	mov	r0, r4
    11a2:	f815 1b01 	ldrb.w	r1, [r5], #1
    11a6:	f002 0601 	and.w	r6, r2, #1
    11aa:	f7ff fe73 	bl	e94 <i2c_do_write>
    11ae:	2800      	cmp	r0, #0
    11b0:	d12f      	bne.n	1212 <i2c_write+0xae>
    11b2:	42bd      	cmp	r5, r7
    11b4:	d016      	beq.n	11e4 <i2c_write+0x80>
    11b6:	b136      	cbz	r6, 11c6 <i2c_write+0x62>
    11b8:	4620      	mov	r0, r4
    11ba:	f815 1b01 	ldrb.w	r1, [r5], #1
    11be:	f7ff fe69 	bl	e94 <i2c_do_write>
    11c2:	b168      	cbz	r0, 11e0 <i2c_write+0x7c>
    11c4:	e025      	b.n	1212 <i2c_write+0xae>
    11c6:	462e      	mov	r6, r5
    11c8:	f816 1b01 	ldrb.w	r1, [r6], #1
    11cc:	4620      	mov	r0, r4
    11ce:	f7ff fe61 	bl	e94 <i2c_do_write>
    11d2:	b9f0      	cbnz	r0, 1212 <i2c_write+0xae>
    11d4:	7869      	ldrb	r1, [r5, #1]
    11d6:	4620      	mov	r0, r4
    11d8:	1c75      	adds	r5, r6, #1
    11da:	f7ff fe5b 	bl	e94 <i2c_do_write>
    11de:	b9c0      	cbnz	r0, 1212 <i2c_write+0xae>
    11e0:	42bd      	cmp	r5, r7
    11e2:	d1f0      	bne.n	11c6 <i2c_write+0x62>
    11e4:	6820      	ldr	r0, [r4, #0]
    11e6:	9906      	ldr	r1, [sp, #24]
    11e8:	2308      	movs	r3, #8
    11ea:	6183      	str	r3, [r0, #24]
    11ec:	b129      	cbz	r1, 11fa <i2c_write+0x96>
    11ee:	2210      	movs	r2, #16
    11f0:	6002      	str	r2, [r0, #0]
    11f2:	6183      	str	r3, [r0, #24]
    11f4:	6803      	ldr	r3, [r0, #0]
    11f6:	06d9      	lsls	r1, r3, #27
    11f8:	d4fc      	bmi.n	11f4 <i2c_write+0x90>
    11fa:	2000      	movs	r0, #0
    11fc:	bdf8      	pop	{r3, r4, r5, r6, r7, pc}
    11fe:	6821      	ldr	r1, [r4, #0]
    1200:	2010      	movs	r0, #16
    1202:	2208      	movs	r2, #8
    1204:	6008      	str	r0, [r1, #0]
    1206:	618a      	str	r2, [r1, #24]
    1208:	680b      	ldr	r3, [r1, #0]
    120a:	06db      	lsls	r3, r3, #27
    120c:	d4fc      	bmi.n	1208 <i2c_write+0xa4>
    120e:	2001      	movs	r0, #1
    1210:	bdf8      	pop	{r3, r4, r5, r6, r7, pc}
    1212:	6821      	ldr	r1, [r4, #0]
    1214:	2010      	movs	r0, #16
    1216:	2208      	movs	r2, #8
    1218:	6008      	str	r0, [r1, #0]
    121a:	618a      	str	r2, [r1, #24]
    121c:	680b      	ldr	r3, [r1, #0]
    121e:	06d8      	lsls	r0, r3, #27
    1220:	d4fc      	bmi.n	121c <i2c_write+0xb8>
    1222:	e7af      	b.n	1184 <i2c_write+0x20>

00001224 <pin_function>:
    1224:	1c43      	adds	r3, r0, #1
    1226:	b410      	push	{r4}
    1228:	d01b      	beq.n	1262 <pin_function+0x3e>
    122a:	f100 4060 	add.w	r0, r0, #3758096384	; 0xe0000000
    122e:	f5a0 241c 	sub.w	r4, r0, #638976	; 0x9c000
    1232:	f004 030f 	and.w	r3, r4, #15
    1236:	0058      	lsls	r0, r3, #1
    1238:	2203      	movs	r2, #3
    123a:	fa02 fc00 	lsl.w	r12, r2, r0
    123e:	fa01 f100 	lsl.w	r1, r1, r0
    1242:	f44f 4340 	mov.w	r3, #49152	; 0xc000
    1246:	0920      	lsrs	r0, r4, #4
    1248:	f2c4 0302 	movt	r3, #16386	; 0x4002
    124c:	f853 4020 	ldr.w	r4, [r3, r0, lsl #2]
    1250:	ea24 020c 	bic.w	r2, r4, r12
    1254:	f843 2020 	str.w	r2, [r3, r0, lsl #2]
    1258:	f853 2020 	ldr.w	r2, [r3, r0, lsl #2]
    125c:	4311      	orrs	r1, r2
    125e:	f843 1020 	str.w	r1, [r3, r0, lsl #2]
    1262:	bc10      	pop	{r4}
    1264:	4770      	bx	lr
    1266:	bf00      	nop

00001268 <pin_mode>:
    1268:	1c42      	adds	r2, r0, #1
    126a:	b470      	push	{r4, r5, r6}
    126c:	d032      	beq.n	12d4 <pin_mode+0x6c>
    126e:	f100 4060 	add.w	r0, r0, #3758096384	; 0xe0000000
    1272:	f5a0 201c 	sub.w	r0, r0, #638976	; 0x9c000
    1276:	f000 051f 	and.w	r5, r0, #31
    127a:	f3c1 0480 	ubfx	r4, r1, #2, #1
    127e:	fa04 fc05 	lsl.w	r12, r4, r5
    1282:	0942      	lsrs	r2, r0, #5
    1284:	f44f 4340 	mov.w	r3, #49152	; 0xc000
    1288:	f2c4 0302 	movt	r3, #16386	; 0x4002
    128c:	321a      	adds	r2, #26
    128e:	f853 6022 	ldr.w	r6, [r3, r2, lsl #2]
    1292:	ea26 050c 	bic.w	r5, r6, r12
    1296:	f843 5022 	str.w	r5, [r3, r2, lsl #2]
    129a:	f853 6022 	ldr.w	r6, [r3, r2, lsl #2]
    129e:	ea46 050c 	orr.w	r5, r6, r12
    12a2:	f843 5022 	str.w	r5, [r3, r2, lsl #2]
    12a6:	b9ac      	cbnz	r4, 12d4 <pin_mode+0x6c>
    12a8:	f000 040f 	and.w	r4, r0, #15
    12ac:	0062      	lsls	r2, r4, #1
    12ae:	2503      	movs	r5, #3
    12b0:	fa05 f502 	lsl.w	r5, r5, r2
    12b4:	fa01 fc02 	lsl.w	r12, r1, r2
    12b8:	0900      	lsrs	r0, r0, #4
    12ba:	3010      	adds	r0, #16
    12bc:	f853 1020 	ldr.w	r1, [r3, r0, lsl #2]
    12c0:	ea21 0405 	bic.w	r4, r1, r5
    12c4:	f843 4020 	str.w	r4, [r3, r0, lsl #2]
    12c8:	f853 4020 	ldr.w	r4, [r3, r0, lsl #2]
    12cc:	ea4c 0204 	orr.w	r2, r12, r4
    12d0:	f843 2020 	str.w	r2, [r3, r0, lsl #2]
    12d4:	bc70      	pop	{r4, r5, r6}
    12d6:	4770      	bx	lr

000012d8 <semihost_connected>:
    12d8:	f64e 53f0 	movw	r3, #60912	; 0xedf0
    12dc:	f2ce 0300 	movt	r3, #57344	; 0xe000
    12e0:	6818      	ldr	r0, [r3, #0]
    12e2:	f000 0001 	and.w	r0, r0, #1
    12e6:	4770      	bx	lr

000012e8 <serial_baud>:
    12e8:	e92d 4ff0 	stmdb	sp!, {r4, r5, r6, r7, r8, r9, r10, r11, lr}
    12ec:	2300      	movs	r3, #0
    12ee:	6804      	ldr	r4, [r0, #0]
    12f0:	f2c4 0301 	movt	r3, #16385	; 0x4001
    12f4:	b08b      	sub	sp, #44	; 0x2c
    12f6:	429c      	cmp	r4, r3
    12f8:	9009      	str	r0, [sp, #36]	; 0x24
    12fa:	f000 80fb 	beq.w	14f4 <serial_baud+0x20c>
    12fe:	f340 80d9 	ble.w	14b4 <serial_baud+0x1cc>
    1302:	f44f 4c00 	mov.w	r12, #32768	; 0x8000
    1306:	f2c4 0c09 	movt	r12, #16393	; 0x4009
    130a:	4564      	cmp	r4, r12
    130c:	f44f 4340 	mov.w	r3, #49152	; 0xc000
    1310:	f000 80e1 	beq.w	14d6 <serial_baud+0x1ee>
    1314:	f2c4 0309 	movt	r3, #16393	; 0x4009
    1318:	429c      	cmp	r4, r3
    131a:	f040 80d1 	bne.w	14c0 <serial_baud+0x1d8>
    131e:	f44f 4040 	mov.w	r0, #49152	; 0xc000
    1322:	f2c4 000f 	movt	r0, #16399	; 0x400f
    1326:	f8d0 21ac 	ldr.w	r2, [r0, #428]	; 0x1ac
    132a:	f422 2340 	bic.w	r3, r2, #786432	; 0xc0000
    132e:	f8c0 31ac 	str.w	r3, [r0, #428]	; 0x1ac
    1332:	f8d0 21ac 	ldr.w	r2, [r0, #428]	; 0x1ac
    1336:	f442 2380 	orr.w	r3, r2, #262144	; 0x40000
    133a:	f8c0 31ac 	str.w	r3, [r0, #428]	; 0x1ac
    133e:	4880      	ldr	r0, [pc, #512]	; (1540 <serial_baud+0x258>)
    1340:	010a      	lsls	r2, r1, #4
    1342:	6803      	ldr	r3, [r0, #0]
    1344:	9308      	str	r3, [sp, #32]
    1346:	9808      	ldr	r0, [sp, #32]
    1348:	fbb3 fcf2 	udiv	r12, r3, r2
    134c:	fb02 021c 	mls	r2, r2, r12, r0
    1350:	fa1f f38c 	uxth.w	r3, r12
    1354:	9307      	str	r3, [sp, #28]
    1356:	2a00      	cmp	r2, #0
    1358:	f000 80bb 	beq.w	14d2 <serial_baud+0x1ea>
    135c:	4608      	mov	r0, r1
    135e:	0859      	lsrs	r1, r3, #1
    1360:	9102      	str	r1, [sp, #8]
    1362:	f001 fd7f 	bl	2e64 <__aeabi_i2f>
    1366:	9a02      	ldr	r2, [sp, #8]
    1368:	4683      	mov	r11, r0
    136a:	9807      	ldr	r0, [sp, #28]
    136c:	4290      	cmp	r0, r2
    136e:	f0c0 80b0 	bcc.w	14d2 <serial_baud+0x1ea>
    1372:	9f07      	ldr	r7, [sp, #28]
    1374:	2401      	movs	r4, #1
    1376:	2100      	movs	r1, #0
    1378:	46da      	mov	r10, r11
    137a:	9703      	str	r7, [sp, #12]
    137c:	9405      	str	r4, [sp, #20]
    137e:	9104      	str	r1, [sp, #16]
    1380:	f04f 0901 	mov.w	r9, #1
    1384:	f109 0201 	add.w	r2, r9, #1
    1388:	fa5f f982 	uxtb.w	r9, r2
    138c:	2000      	movs	r0, #0
    138e:	f1b9 0f10 	cmp.w	r9, #16
    1392:	9006      	str	r0, [sp, #24]
    1394:	9f08      	ldr	r7, [sp, #32]
    1396:	d061      	beq.n	145c <serial_baud+0x174>
    1398:	9802      	ldr	r0, [sp, #8]
    139a:	f001 fd5f 	bl	2e5c <__aeabi_ui2f>
    139e:	f001 f941 	bl	2624 <__aeabi_f2d>
    13a2:	2300      	movs	r3, #0
    13a4:	2200      	movs	r2, #0
    13a6:	f2c4 0330 	movt	r3, #16432	; 0x4030
    13aa:	f001 f98f 	bl	26cc <__aeabi_dmul>
    13ae:	e9cd 0100 	strd	r0, r1, [sp]
    13b2:	2601      	movs	r6, #1
    13b4:	4638      	mov	r0, r7
    13b6:	f001 fd51 	bl	2e5c <__aeabi_ui2f>
    13ba:	f001 f933 	bl	2624 <__aeabi_f2d>
    13be:	4604      	mov	r4, r0
    13c0:	4630      	mov	r0, r6
    13c2:	460d      	mov	r5, r1
    13c4:	f001 fd4a 	bl	2e5c <__aeabi_ui2f>
    13c8:	4680      	mov	r8, r0
    13ca:	4648      	mov	r0, r9
    13cc:	f001 fd46 	bl	2e5c <__aeabi_ui2f>
    13d0:	4601      	mov	r1, r0
    13d2:	4640      	mov	r0, r8
    13d4:	f001 fe4e 	bl	3074 <__aeabi_fdiv>
    13d8:	f04f 517e 	mov.w	r1, #1065353216	; 0x3f800000
    13dc:	f001 fc8e 	bl	2cfc <__addsf3>
    13e0:	f001 f920 	bl	2624 <__aeabi_f2d>
    13e4:	4602      	mov	r2, r0
    13e6:	460b      	mov	r3, r1
    13e8:	e9dd 0100 	ldrd	r0, r1, [sp]
    13ec:	f001 f96e 	bl	26cc <__aeabi_dmul>
    13f0:	4602      	mov	r2, r0
    13f2:	460b      	mov	r3, r1
    13f4:	4620      	mov	r0, r4
    13f6:	4629      	mov	r1, r5
    13f8:	f001 fa92 	bl	2920 <__aeabi_ddiv>
    13fc:	f001 fc28 	bl	2c50 <__aeabi_d2f>
    1400:	4601      	mov	r1, r0
    1402:	4658      	mov	r0, r11
    1404:	f001 fc78 	bl	2cf8 <__aeabi_fsub>
    1408:	4659      	mov	r1, r11
    140a:	f001 fe33 	bl	3074 <__aeabi_fdiv>
    140e:	f001 f909 	bl	2624 <__aeabi_f2d>
    1412:	f006 ffbf 	bl	8394 <fabs>
    1416:	f001 fc1b 	bl	2c50 <__aeabi_d2f>
    141a:	4651      	mov	r1, r10
    141c:	4604      	mov	r4, r0
    141e:	f001 ff13 	bl	3248 <__aeabi_fcmplt>
    1422:	b180      	cbz	r0, 1446 <serial_baud+0x15e>
    1424:	4620      	mov	r0, r4
    1426:	f001 f8fd 	bl	2624 <__aeabi_f2d>
    142a:	a343      	add	r3, pc, #268	; (adr r3, 1538 <serial_baud+0x250>)
    142c:	e9d3 2300 	ldrd	r2, r3, [r3]
    1430:	f001 fbbe 	bl	2bb0 <__aeabi_dcmplt>
    1434:	9a02      	ldr	r2, [sp, #8]
    1436:	46a2      	mov	r10, r4
    1438:	f8cd 9014 	str.w	r9, [sp, #20]
    143c:	9604      	str	r6, [sp, #16]
    143e:	9203      	str	r2, [sp, #12]
    1440:	b108      	cbz	r0, 1446 <serial_baud+0x15e>
    1442:	2301      	movs	r3, #1
    1444:	9306      	str	r3, [sp, #24]
    1446:	3601      	adds	r6, #1
    1448:	b2f6      	uxtb	r6, r6
    144a:	454e      	cmp	r6, r9
    144c:	d1b2      	bne.n	13b4 <serial_baud+0xcc>
    144e:	f109 0201 	add.w	r2, r9, #1
    1452:	fa5f f982 	uxtb.w	r9, r2
    1456:	f1b9 0f10 	cmp.w	r9, #16
    145a:	d19d      	bne.n	1398 <serial_baud+0xb0>
    145c:	9b02      	ldr	r3, [sp, #8]
    145e:	9807      	ldr	r0, [sp, #28]
    1460:	1c5c      	adds	r4, r3, #1
    1462:	b2a1      	uxth	r1, r4
    1464:	4288      	cmp	r0, r1
    1466:	9102      	str	r1, [sp, #8]
    1468:	d302      	bcc.n	1470 <serial_baud+0x188>
    146a:	9a06      	ldr	r2, [sp, #24]
    146c:	2a00      	cmp	r2, #0
    146e:	d087      	beq.n	1380 <serial_baud+0x98>
    1470:	9b04      	ldr	r3, [sp, #16]
    1472:	9c05      	ldr	r4, [sp, #20]
    1474:	9a09      	ldr	r2, [sp, #36]	; 0x24
    1476:	9803      	ldr	r0, [sp, #12]
    1478:	ea43 1104 	orr.w	r1, r3, r4, lsl #4
    147c:	6814      	ldr	r4, [r2, #0]
    147e:	b2cb      	uxtb	r3, r1
    1480:	9007      	str	r0, [sp, #28]
    1482:	f894 c00c 	ldrb.w	r12, [r4, #12]
    1486:	9907      	ldr	r1, [sp, #28]
    1488:	f04c 0280 	orr.w	r2, r12, #128	; 0x80
    148c:	7322      	strb	r2, [r4, #12]
    148e:	9c09      	ldr	r4, [sp, #36]	; 0x24
    1490:	0a08      	lsrs	r0, r1, #8
    1492:	6822      	ldr	r2, [r4, #0]
    1494:	9c09      	ldr	r4, [sp, #36]	; 0x24
    1496:	7110      	strb	r0, [r2, #4]
    1498:	6820      	ldr	r0, [r4, #0]
    149a:	b2c9      	uxtb	r1, r1
    149c:	7001      	strb	r1, [r0, #0]
    149e:	6822      	ldr	r2, [r4, #0]
    14a0:	f882 3028 	strb.w	r3, [r2, #40]	; 0x28
    14a4:	6823      	ldr	r3, [r4, #0]
    14a6:	7b19      	ldrb	r1, [r3, #12]
    14a8:	f001 007f 	and.w	r0, r1, #127	; 0x7f
    14ac:	7318      	strb	r0, [r3, #12]
    14ae:	b00b      	add	sp, #44	; 0x2c
    14b0:	e8bd 8ff0 	ldmia.w	sp!, {r4, r5, r6, r7, r8, r9, r10, r11, pc}
    14b4:	f44f 4040 	mov.w	r0, #49152	; 0xc000
    14b8:	f2c4 0000 	movt	r0, #16384	; 0x4000
    14bc:	4284      	cmp	r4, r0
    14be:	d02a      	beq.n	1516 <serial_baud+0x22e>
    14c0:	4d20      	ldr	r5, [pc, #128]	; (1544 <serial_baud+0x25c>)
    14c2:	4921      	ldr	r1, [pc, #132]	; (1548 <serial_baud+0x260>)
    14c4:	682e      	ldr	r6, [r5, #0]
    14c6:	68f0      	ldr	r0, [r6, #12]
    14c8:	f002 f914 	bl	36f4 <fiprintf>
    14cc:	2001      	movs	r0, #1
    14ce:	f7ff f889 	bl	5e4 <exit>
    14d2:	2310      	movs	r3, #16
    14d4:	e7d5      	b.n	1482 <serial_baud+0x19a>
    14d6:	f2c4 030f 	movt	r3, #16399	; 0x400f
    14da:	f8d3 01ac 	ldr.w	r0, [r3, #428]	; 0x1ac
    14de:	f420 3240 	bic.w	r2, r0, #196608	; 0x30000
    14e2:	f8c3 21ac 	str.w	r2, [r3, #428]	; 0x1ac
    14e6:	f8d3 01ac 	ldr.w	r0, [r3, #428]	; 0x1ac
    14ea:	f440 3280 	orr.w	r2, r0, #65536	; 0x10000
    14ee:	f8c3 21ac 	str.w	r2, [r3, #428]	; 0x1ac
    14f2:	e724      	b.n	133e <serial_baud+0x56>
    14f4:	f44f 4c40 	mov.w	r12, #49152	; 0xc000
    14f8:	f2c4 0c0f 	movt	r12, #16399	; 0x400f
    14fc:	f8dc 31a8 	ldr.w	r3, [r12, #424]	; 0x1a8
    1500:	f423 7040 	bic.w	r0, r3, #768	; 0x300
    1504:	f8cc 01a8 	str.w	r0, [r12, #424]	; 0x1a8
    1508:	f8dc 21a8 	ldr.w	r2, [r12, #424]	; 0x1a8
    150c:	f442 7380 	orr.w	r3, r2, #256	; 0x100
    1510:	f8cc 31a8 	str.w	r3, [r12, #424]	; 0x1a8
    1514:	e713      	b.n	133e <serial_baud+0x56>
    1516:	f44f 4c40 	mov.w	r12, #49152	; 0xc000
    151a:	f2c4 0c0f 	movt	r12, #16399	; 0x400f
    151e:	f8dc 21a8 	ldr.w	r2, [r12, #424]	; 0x1a8
    1522:	f022 03c0 	bic.w	r3, r2, #192	; 0xc0
    1526:	f8cc 31a8 	str.w	r3, [r12, #424]	; 0x1a8
    152a:	f8dc 01a8 	ldr.w	r0, [r12, #424]	; 0x1a8
    152e:	f040 0240 	orr.w	r2, r0, #64	; 0x40
    1532:	f8cc 21a8 	str.w	r2, [r12, #424]	; 0x1a8
    1536:	e702      	b.n	133e <serial_baud+0x56>
    1538:	d2f1a9fc 	.word	0xd2f1a9fc
    153c:	3f50624d 	.word	0x3f50624d
    1540:	100000cc 	.word	0x100000cc
    1544:	10000134 	.word	0x10000134
    1548:	000086d8 	.word	0x000086d8
    154c:	f3af 8000 	nop.w

00001550 <serial_format>:
    1550:	b538      	push	{r3, r4, r5, lr}
    1552:	1f4c      	subs	r4, r1, #5
    1554:	2c03      	cmp	r4, #3
    1556:	460d      	mov	r5, r1
    1558:	d82a      	bhi.n	15b0 <serial_format+0x60>
    155a:	2a04      	cmp	r2, #4
    155c:	d813      	bhi.n	1586 <serial_format+0x36>
    155e:	e8df f002 	tbb	[pc, r2]
    1562:	1e1b      	.short	0x1e1b
    1564:	2421      	.short	0x2421
    1566:	03          	.byte	0x03
    1567:	00          	.byte	0x00
    1568:	2203      	movs	r2, #3
    156a:	2101      	movs	r1, #1
    156c:	3b01      	subs	r3, #1
    156e:	2b01      	cmp	r3, #1
    1570:	d828      	bhi.n	15c4 <serial_format+0x74>
    1572:	ea44 0483 	orr.w	r4, r4, r3, lsl #2
    1576:	ea44 0cc1 	orr.w	r12, r4, r1, lsl #3
    157a:	6800      	ldr	r0, [r0, #0]
    157c:	ea4c 1202 	orr.w	r2, r12, r2, lsl #4
    1580:	b2d1      	uxtb	r1, r2
    1582:	7301      	strb	r1, [r0, #12]
    1584:	bd38      	pop	{r3, r4, r5, pc}
    1586:	4910      	ldr	r1, [pc, #64]	; (15c8 <serial_format+0x78>)
    1588:	4d10      	ldr	r5, [pc, #64]	; (15cc <serial_format+0x7c>)
    158a:	682c      	ldr	r4, [r5, #0]
    158c:	68e0      	ldr	r0, [r4, #12]
    158e:	f002 f8b1 	bl	36f4 <fiprintf>
    1592:	2001      	movs	r0, #1
    1594:	f7ff f826 	bl	5e4 <exit>
    1598:	2200      	movs	r2, #0
    159a:	4611      	mov	r1, r2
    159c:	e7e6      	b.n	156c <serial_format+0x1c>
    159e:	2200      	movs	r2, #0
    15a0:	2101      	movs	r1, #1
    15a2:	e7e3      	b.n	156c <serial_format+0x1c>
    15a4:	2201      	movs	r2, #1
    15a6:	4611      	mov	r1, r2
    15a8:	e7e0      	b.n	156c <serial_format+0x1c>
    15aa:	2202      	movs	r2, #2
    15ac:	2101      	movs	r1, #1
    15ae:	e7dd      	b.n	156c <serial_format+0x1c>
    15b0:	4b06      	ldr	r3, [pc, #24]	; (15cc <serial_format+0x7c>)
    15b2:	4907      	ldr	r1, [pc, #28]	; (15d0 <serial_format+0x80>)
    15b4:	6818      	ldr	r0, [r3, #0]
    15b6:	462a      	mov	r2, r5
    15b8:	68c0      	ldr	r0, [r0, #12]
    15ba:	f002 f89b 	bl	36f4 <fiprintf>
    15be:	2001      	movs	r0, #1
    15c0:	f7ff f810 	bl	5e4 <exit>
    15c4:	4903      	ldr	r1, [pc, #12]	; (15d4 <serial_format+0x84>)
    15c6:	e7df      	b.n	1588 <serial_format+0x38>
    15c8:	00008724 	.word	0x00008724
    15cc:	10000134 	.word	0x10000134
    15d0:	000086e4 	.word	0x000086e4
    15d4:	00008744 	.word	0x00008744

000015d8 <serial_init>:
    15d8:	e92d 43f8 	stmdb	sp!, {r3, r4, r5, r6, r7, r8, r9, lr}
    15dc:	460f      	mov	r7, r1
    15de:	4605      	mov	r5, r0
    15e0:	498d      	ldr	r1, [pc, #564]	; (1818 <serial_init+0x240>)
    15e2:	4638      	mov	r0, r7
    15e4:	4616      	mov	r6, r2
    15e6:	f000 fa4f 	bl	1a88 <pinmap_peripheral>
    15ea:	498c      	ldr	r1, [pc, #560]	; (181c <serial_init+0x244>)
    15ec:	4604      	mov	r4, r0
    15ee:	4630      	mov	r0, r6
    15f0:	f000 fa4a 	bl	1a88 <pinmap_peripheral>
    15f4:	4601      	mov	r1, r0
    15f6:	4620      	mov	r0, r4
    15f8:	f000 fa2e 	bl	1a58 <pinmap_merge>
    15fc:	1c43      	adds	r3, r0, #1
    15fe:	4604      	mov	r4, r0
    1600:	f000 8101 	beq.w	1806 <serial_init+0x22e>
    1604:	2300      	movs	r3, #0
    1606:	f2c4 0301 	movt	r3, #16385	; 0x4001
    160a:	4298      	cmp	r0, r3
    160c:	6028      	str	r0, [r5, #0]
    160e:	d06c      	beq.n	16ea <serial_init+0x112>
    1610:	d934      	bls.n	167c <serial_init+0xa4>
    1612:	f44f 4200 	mov.w	r2, #32768	; 0x8000
    1616:	f2c4 0209 	movt	r2, #16393	; 0x4009
    161a:	4290      	cmp	r0, r2
    161c:	f000 80bd 	beq.w	179a <serial_init+0x1c2>
    1620:	f44f 4140 	mov.w	r1, #49152	; 0xc000
    1624:	f2c4 0109 	movt	r1, #16393	; 0x4009
    1628:	4288      	cmp	r0, r1
    162a:	d12d      	bne.n	1688 <serial_init+0xb0>
    162c:	f44f 4c40 	mov.w	r12, #49152	; 0xc000
    1630:	f2c4 0c0f 	movt	r12, #16399	; 0x400f
    1634:	f8dc 00c4 	ldr.w	r0, [r12, #196]	; 0xc4
    1638:	f04f 0801 	mov.w	r8, #1
    163c:	f040 7200 	orr.w	r2, r0, #33554432	; 0x2000000
    1640:	f8cc 20c4 	str.w	r2, [r12, #196]	; 0xc4
    1644:	f884 8008 	strb.w	r8, [r4, #8]
    1648:	6829      	ldr	r1, [r5, #0]
    164a:	2400      	movs	r4, #0
    164c:	604c      	str	r4, [r1, #4]
    164e:	4628      	mov	r0, r5
    1650:	f44f 5116 	mov.w	r1, #9600	; 0x2580
    1654:	f7ff fe48 	bl	12e8 <serial_baud>
    1658:	4628      	mov	r0, r5
    165a:	4622      	mov	r2, r4
    165c:	4643      	mov	r3, r8
    165e:	2108      	movs	r1, #8
    1660:	f7ff ff76 	bl	1550 <serial_format>
    1664:	4638      	mov	r0, r7
    1666:	496c      	ldr	r1, [pc, #432]	; (1818 <serial_init+0x240>)
    1668:	f000 f9d0 	bl	1a0c <pinmap_pinout>
    166c:	4630      	mov	r0, r6
    166e:	496b      	ldr	r1, [pc, #428]	; (181c <serial_init+0x244>)
    1670:	f000 f9cc 	bl	1a0c <pinmap_pinout>
    1674:	2303      	movs	r3, #3
    1676:	606b      	str	r3, [r5, #4]
    1678:	e8bd 83f8 	ldmia.w	sp!, {r3, r4, r5, r6, r7, r8, r9, pc}
    167c:	f44f 4040 	mov.w	r0, #49152	; 0xc000
    1680:	f2c4 0000 	movt	r0, #16384	; 0x4000
    1684:	4284      	cmp	r4, r0
    1686:	d058      	beq.n	173a <serial_init+0x162>
    1688:	f04f 0801 	mov.w	r8, #1
    168c:	f884 8008 	strb.w	r8, [r4, #8]
    1690:	682b      	ldr	r3, [r5, #0]
    1692:	f04f 0900 	mov.w	r9, #0
    1696:	f44f 5116 	mov.w	r1, #9600	; 0x2580
    169a:	f8c3 9004 	str.w	r9, [r3, #4]
    169e:	4628      	mov	r0, r5
    16a0:	f7ff fe22 	bl	12e8 <serial_baud>
    16a4:	464a      	mov	r2, r9
    16a6:	4643      	mov	r3, r8
    16a8:	2108      	movs	r1, #8
    16aa:	4628      	mov	r0, r5
    16ac:	f7ff ff50 	bl	1550 <serial_format>
    16b0:	4638      	mov	r0, r7
    16b2:	4959      	ldr	r1, [pc, #356]	; (1818 <serial_init+0x240>)
    16b4:	f000 f9aa 	bl	1a0c <pinmap_pinout>
    16b8:	4630      	mov	r0, r6
    16ba:	4958      	ldr	r1, [pc, #352]	; (181c <serial_init+0x244>)
    16bc:	f000 f9a6 	bl	1a0c <pinmap_pinout>
    16c0:	46cc      	mov	r12, r9
    16c2:	f2c4 0c01 	movt	r12, #16385	; 0x4001
    16c6:	4564      	cmp	r4, r12
    16c8:	d033      	beq.n	1732 <serial_init+0x15a>
    16ca:	f200 808e 	bhi.w	17ea <serial_init+0x212>
    16ce:	f44f 4040 	mov.w	r0, #49152	; 0xc000
    16d2:	f2c4 0000 	movt	r0, #16384	; 0x4000
    16d6:	4284      	cmp	r4, r0
    16d8:	d053      	beq.n	1782 <serial_init+0x1aa>
    16da:	f44f 4e40 	mov.w	lr, #49152	; 0xc000
    16de:	f2c4 0e00 	movt	lr, #16384	; 0x4000
    16e2:	4574      	cmp	r4, lr
    16e4:	d04f      	beq.n	1786 <serial_init+0x1ae>
    16e6:	e8bd 83f8 	ldmia.w	sp!, {r3, r4, r5, r6, r7, r8, r9, pc}
    16ea:	f44f 4c40 	mov.w	r12, #49152	; 0xc000
    16ee:	f2c4 0c0f 	movt	r12, #16399	; 0x400f
    16f2:	f8dc 00c4 	ldr.w	r0, [r12, #196]	; 0xc4
    16f6:	f04f 0801 	mov.w	r8, #1
    16fa:	f040 0210 	orr.w	r2, r0, #16
    16fe:	f8cc 20c4 	str.w	r2, [r12, #196]	; 0xc4
    1702:	f884 8008 	strb.w	r8, [r4, #8]
    1706:	6829      	ldr	r1, [r5, #0]
    1708:	2400      	movs	r4, #0
    170a:	604c      	str	r4, [r1, #4]
    170c:	4628      	mov	r0, r5
    170e:	f44f 5116 	mov.w	r1, #9600	; 0x2580
    1712:	f7ff fde9 	bl	12e8 <serial_baud>
    1716:	4628      	mov	r0, r5
    1718:	4622      	mov	r2, r4
    171a:	4643      	mov	r3, r8
    171c:	2108      	movs	r1, #8
    171e:	f7ff ff17 	bl	1550 <serial_format>
    1722:	4638      	mov	r0, r7
    1724:	493c      	ldr	r1, [pc, #240]	; (1818 <serial_init+0x240>)
    1726:	f000 f971 	bl	1a0c <pinmap_pinout>
    172a:	4630      	mov	r0, r6
    172c:	493b      	ldr	r1, [pc, #236]	; (181c <serial_init+0x244>)
    172e:	f000 f96d 	bl	1a0c <pinmap_pinout>
    1732:	2301      	movs	r3, #1
    1734:	606b      	str	r3, [r5, #4]
    1736:	e8bd 83f8 	ldmia.w	sp!, {r3, r4, r5, r6, r7, r8, r9, pc}
    173a:	f44f 4240 	mov.w	r2, #49152	; 0xc000
    173e:	f2c4 020f 	movt	r2, #16399	; 0x400f
    1742:	f8d2 10c4 	ldr.w	r1, [r2, #196]	; 0xc4
    1746:	f04f 0801 	mov.w	r8, #1
    174a:	f041 0308 	orr.w	r3, r1, #8
    174e:	f8c2 30c4 	str.w	r3, [r2, #196]	; 0xc4
    1752:	f884 8008 	strb.w	r8, [r4, #8]
    1756:	6828      	ldr	r0, [r5, #0]
    1758:	2400      	movs	r4, #0
    175a:	6044      	str	r4, [r0, #4]
    175c:	f44f 5116 	mov.w	r1, #9600	; 0x2580
    1760:	4628      	mov	r0, r5
    1762:	f7ff fdc1 	bl	12e8 <serial_baud>
    1766:	4628      	mov	r0, r5
    1768:	4622      	mov	r2, r4
    176a:	4643      	mov	r3, r8
    176c:	2108      	movs	r1, #8
    176e:	f7ff feef 	bl	1550 <serial_format>
    1772:	4638      	mov	r0, r7
    1774:	4928      	ldr	r1, [pc, #160]	; (1818 <serial_init+0x240>)
    1776:	f000 f949 	bl	1a0c <pinmap_pinout>
    177a:	4630      	mov	r0, r6
    177c:	4927      	ldr	r1, [pc, #156]	; (181c <serial_init+0x244>)
    177e:	f000 f945 	bl	1a0c <pinmap_pinout>
    1782:	2400      	movs	r4, #0
    1784:	606c      	str	r4, [r5, #4]
    1786:	4b26      	ldr	r3, [pc, #152]	; (1820 <serial_init+0x248>)
    1788:	4826      	ldr	r0, [pc, #152]	; (1824 <serial_init+0x24c>)
    178a:	2401      	movs	r4, #1
    178c:	4629      	mov	r1, r5
    178e:	2208      	movs	r2, #8
    1790:	601c      	str	r4, [r3, #0]
    1792:	e8bd 43f8 	ldmia.w	sp!, {r3, r4, r5, r6, r7, r8, r9, lr}
    1796:	f002 b99f 	b.w	3ad8 <memcpy>
    179a:	f44f 4e40 	mov.w	lr, #49152	; 0xc000
    179e:	f2c4 0e0f 	movt	lr, #16399	; 0x400f
    17a2:	f8de 00c4 	ldr.w	r0, [lr, #196]	; 0xc4
    17a6:	f04f 0801 	mov.w	r8, #1
    17aa:	f040 7280 	orr.w	r2, r0, #16777216	; 0x1000000
    17ae:	f8ce 20c4 	str.w	r2, [lr, #196]	; 0xc4
    17b2:	f884 8008 	strb.w	r8, [r4, #8]
    17b6:	6829      	ldr	r1, [r5, #0]
    17b8:	2400      	movs	r4, #0
    17ba:	604c      	str	r4, [r1, #4]
    17bc:	4628      	mov	r0, r5
    17be:	f44f 5116 	mov.w	r1, #9600	; 0x2580
    17c2:	f7ff fd91 	bl	12e8 <serial_baud>
    17c6:	4628      	mov	r0, r5
    17c8:	4622      	mov	r2, r4
    17ca:	4643      	mov	r3, r8
    17cc:	2108      	movs	r1, #8
    17ce:	f7ff febf 	bl	1550 <serial_format>
    17d2:	4638      	mov	r0, r7
    17d4:	4910      	ldr	r1, [pc, #64]	; (1818 <serial_init+0x240>)
    17d6:	f000 f919 	bl	1a0c <pinmap_pinout>
    17da:	4630      	mov	r0, r6
    17dc:	490f      	ldr	r1, [pc, #60]	; (181c <serial_init+0x244>)
    17de:	f000 f915 	bl	1a0c <pinmap_pinout>
    17e2:	2302      	movs	r3, #2
    17e4:	606b      	str	r3, [r5, #4]
    17e6:	e8bd 83f8 	ldmia.w	sp!, {r3, r4, r5, r6, r7, r8, r9, pc}
    17ea:	f44f 4200 	mov.w	r2, #32768	; 0x8000
    17ee:	f2c4 0209 	movt	r2, #16393	; 0x4009
    17f2:	4294      	cmp	r4, r2
    17f4:	d0f5      	beq.n	17e2 <serial_init+0x20a>
    17f6:	f44f 4140 	mov.w	r1, #49152	; 0xc000
    17fa:	f2c4 0109 	movt	r1, #16393	; 0x4009
    17fe:	428c      	cmp	r4, r1
    1800:	f47f af6b 	bne.w	16da <serial_init+0x102>
    1804:	e736      	b.n	1674 <serial_init+0x9c>
    1806:	4d08      	ldr	r5, [pc, #32]	; (1828 <serial_init+0x250>)
    1808:	4908      	ldr	r1, [pc, #32]	; (182c <serial_init+0x254>)
    180a:	682e      	ldr	r6, [r5, #0]
    180c:	68f0      	ldr	r0, [r6, #12]
    180e:	f001 ff71 	bl	36f4 <fiprintf>
    1812:	2001      	movs	r0, #1
    1814:	f7fe fee6 	bl	5e4 <exit>
    1818:	00008780 	.word	0x00008780
    181c:	0000866c 	.word	0x0000866c
    1820:	10000364 	.word	0x10000364
    1824:	10000394 	.word	0x10000394
    1828:	10000134 	.word	0x10000134
    182c:	00008760 	.word	0x00008760

00001830 <serial_irq_handler>:
    1830:	b410      	push	{r4}
    1832:	f240 3368 	movw	r3, #872	; 0x368
    1836:	f240 3478 	movw	r4, #888	; 0x378
    183a:	6840      	ldr	r0, [r0, #4]
    183c:	f2c1 0400 	movt	r4, #4096	; 0x1000
    1840:	f2c1 0300 	movt	r3, #4096	; 0x1000
    1844:	6021      	str	r1, [r4, #0]
    1846:	f843 2020 	str.w	r2, [r3, r0, lsl #2]
    184a:	bc10      	pop	{r4}
    184c:	4770      	bx	lr
    184e:	bf00      	nop

00001850 <serial_getc>:
    1850:	6802      	ldr	r2, [r0, #0]
    1852:	7d13      	ldrb	r3, [r2, #20]
    1854:	07d9      	lsls	r1, r3, #31
    1856:	d5fc      	bpl.n	1852 <serial_getc+0x2>
    1858:	7810      	ldrb	r0, [r2, #0]
    185a:	4770      	bx	lr

0000185c <serial_putc>:
    185c:	6802      	ldr	r2, [r0, #0]
    185e:	7d13      	ldrb	r3, [r2, #20]
    1860:	f003 0020 	and.w	r0, r3, #32
    1864:	b2c3      	uxtb	r3, r0
    1866:	2b00      	cmp	r3, #0
    1868:	d0f9      	beq.n	185e <serial_putc+0x2>
    186a:	b2c9      	uxtb	r1, r1
    186c:	7011      	strb	r1, [r2, #0]
    186e:	4770      	bx	lr

00001870 <us_ticker_read>:
    1870:	4915      	ldr	r1, [pc, #84]	; (18c8 <us_ticker_read+0x58>)
    1872:	b430      	push	{r4, r5}
    1874:	680a      	ldr	r2, [r1, #0]
    1876:	b9fa      	cbnz	r2, 18b8 <us_ticker_read+0x48>
    1878:	f44f 4040 	mov.w	r0, #49152	; 0xc000
    187c:	f2c4 000f 	movt	r0, #16399	; 0x400f
    1880:	f8d0 50c4 	ldr.w	r5, [r0, #196]	; 0xc4
    1884:	2401      	movs	r4, #1
    1886:	f44f 4380 	mov.w	r3, #16384	; 0x4000
    188a:	600c      	str	r4, [r1, #0]
    188c:	f2c4 0309 	movt	r3, #16393	; 0x4009
    1890:	490e      	ldr	r1, [pc, #56]	; (18cc <us_ticker_read+0x5c>)
    1892:	f445 0500 	orr.w	r5, r5, #8388608	; 0x800000
    1896:	f8c0 50c4 	str.w	r5, [r0, #196]	; 0xc4
    189a:	671a      	str	r2, [r3, #112]	; 0x70
    189c:	6808      	ldr	r0, [r1, #0]
    189e:	f64d 6c83 	movw	r12, #56963	; 0xde83
    18a2:	0882      	lsrs	r2, r0, #2
    18a4:	f2c4 3c1b 	movt	r12, #17179	; 0x431b
    18a8:	fbac 0102 	umull	r0, r1, r12, r2
    18ac:	0c88      	lsrs	r0, r1, #18
    18ae:	1e42      	subs	r2, r0, #1
    18b0:	2102      	movs	r1, #2
    18b2:	6059      	str	r1, [r3, #4]
    18b4:	60da      	str	r2, [r3, #12]
    18b6:	605c      	str	r4, [r3, #4]
    18b8:	f44f 4380 	mov.w	r3, #16384	; 0x4000
    18bc:	f2c4 0309 	movt	r3, #16393	; 0x4009
    18c0:	6898      	ldr	r0, [r3, #8]
    18c2:	bc30      	pop	{r4, r5}
    18c4:	4770      	bx	lr
    18c6:	bf00      	nop
    18c8:	1000037c 	.word	0x1000037c
    18cc:	100000cc 	.word	0x100000cc

000018d0 <irq_handler>:
    18d0:	b5f8      	push	{r3, r4, r5, r6, r7, lr}
    18d2:	4d17      	ldr	r5, [pc, #92]	; (1930 <irq_handler+0x60>)
    18d4:	f44f 4380 	mov.w	r3, #16384	; 0x4000
    18d8:	682c      	ldr	r4, [r5, #0]
    18da:	f2c4 0309 	movt	r3, #16393	; 0x4009
    18de:	2201      	movs	r2, #1
    18e0:	601a      	str	r2, [r3, #0]
    18e2:	b1e4      	cbz	r4, 191e <irq_handler+0x4e>
    18e4:	4f13      	ldr	r7, [pc, #76]	; (1934 <irq_handler+0x64>)
    18e6:	e006      	b.n	18f6 <irq_handler+0x26>
    18e8:	68a1      	ldr	r1, [r4, #8]
    18ea:	6860      	ldr	r0, [r4, #4]
    18ec:	683c      	ldr	r4, [r7, #0]
    18ee:	6029      	str	r1, [r5, #0]
    18f0:	47a0      	blx	r4
    18f2:	682c      	ldr	r4, [r5, #0]
    18f4:	b19c      	cbz	r4, 191e <irq_handler+0x4e>
    18f6:	6826      	ldr	r6, [r4, #0]
    18f8:	f7ff ffba 	bl	1870 <us_ticker_read>
    18fc:	1a30      	subs	r0, r6, r0
    18fe:	2800      	cmp	r0, #0
    1900:	ddf2      	ble.n	18e8 <irq_handler+0x18>
    1902:	6821      	ldr	r1, [r4, #0]
    1904:	f44f 4c80 	mov.w	r12, #16384	; 0x4000
    1908:	f2c4 0c09 	movt	r12, #16393	; 0x4009
    190c:	f8cc 1018 	str.w	r1, [r12, #24]
    1910:	f8dc 3014 	ldr.w	r3, [r12, #20]
    1914:	f043 0201 	orr.w	r2, r3, #1
    1918:	f8cc 2014 	str.w	r2, [r12, #20]
    191c:	bdf8      	pop	{r3, r4, r5, r6, r7, pc}
    191e:	f44f 4080 	mov.w	r0, #16384	; 0x4000
    1922:	f2c4 0009 	movt	r0, #16393	; 0x4009
    1926:	6943      	ldr	r3, [r0, #20]
    1928:	f023 0201 	bic.w	r2, r3, #1
    192c:	6142      	str	r2, [r0, #20]
    192e:	bdf8      	pop	{r3, r4, r5, r6, r7, pc}
    1930:	10000380 	.word	0x10000380
    1934:	10000384 	.word	0x10000384

00001938 <us_ticker_set_handler>:
    1938:	b508      	push	{r3, lr}
    193a:	f240 3384 	movw	r3, #900	; 0x384
    193e:	f2c1 0300 	movt	r3, #4096	; 0x1000
    1942:	f641 01d1 	movw	r1, #6353	; 0x18d1
    1946:	6018      	str	r0, [r3, #0]
    1948:	f2c0 0100 	movt	r1, #0
    194c:	2004      	movs	r0, #4
    194e:	f7fe fdaf 	bl	4b0 <NVIC_SetVector>
    1952:	f44f 4061 	mov.w	r0, #57600	; 0xe100
    1956:	f2ce 0000 	movt	r0, #57344	; 0xe000
    195a:	2210      	movs	r2, #16
    195c:	6002      	str	r2, [r0, #0]
    195e:	bd08      	pop	{r3, pc}

00001960 <us_ticker_insert_event>:
    1960:	b410      	push	{r4}
    1962:	b672      	cpsid	i
    1964:	4b12      	ldr	r3, [pc, #72]	; (19b0 <us_ticker_insert_event+0x50>)
    1966:	6001      	str	r1, [r0, #0]
    1968:	681c      	ldr	r4, [r3, #0]
    196a:	6042      	str	r2, [r0, #4]
    196c:	b18c      	cbz	r4, 1992 <us_ticker_insert_event+0x32>
    196e:	6822      	ldr	r2, [r4, #0]
    1970:	1a8a      	subs	r2, r1, r2
    1972:	2a00      	cmp	r2, #0
    1974:	dc05      	bgt.n	1982 <us_ticker_insert_event+0x22>
    1976:	e00c      	b.n	1992 <us_ticker_insert_event+0x32>
    1978:	681a      	ldr	r2, [r3, #0]
    197a:	1a8a      	subs	r2, r1, r2
    197c:	2a00      	cmp	r2, #0
    197e:	dd03      	ble.n	1988 <us_ticker_insert_event+0x28>
    1980:	461c      	mov	r4, r3
    1982:	68a3      	ldr	r3, [r4, #8]
    1984:	2b00      	cmp	r3, #0
    1986:	d1f7      	bne.n	1978 <us_ticker_insert_event+0x18>
    1988:	60a0      	str	r0, [r4, #8]
    198a:	6083      	str	r3, [r0, #8]
    198c:	b662      	cpsie	i
    198e:	bc10      	pop	{r4}
    1990:	4770      	bx	lr
    1992:	f44f 4c80 	mov.w	r12, #16384	; 0x4000
    1996:	f2c4 0c09 	movt	r12, #16393	; 0x4009
    199a:	6018      	str	r0, [r3, #0]
    199c:	f8cc 1018 	str.w	r1, [r12, #24]
    19a0:	f8dc 1014 	ldr.w	r1, [r12, #20]
    19a4:	4623      	mov	r3, r4
    19a6:	f041 0201 	orr.w	r2, r1, #1
    19aa:	f8cc 2014 	str.w	r2, [r12, #20]
    19ae:	e7ec      	b.n	198a <us_ticker_insert_event+0x2a>
    19b0:	10000380 	.word	0x10000380

000019b4 <us_ticker_remove_event>:
    19b4:	b672      	cpsid	i
    19b6:	4b14      	ldr	r3, [pc, #80]	; (1a08 <us_ticker_remove_event+0x54>)
    19b8:	681a      	ldr	r2, [r3, #0]
    19ba:	4282      	cmp	r2, r0
    19bc:	d011      	beq.n	19e2 <us_ticker_remove_event+0x2e>
    19be:	b14a      	cbz	r2, 19d4 <us_ticker_remove_event+0x20>
    19c0:	6891      	ldr	r1, [r2, #8]
    19c2:	4281      	cmp	r1, r0
    19c4:	d008      	beq.n	19d8 <us_ticker_remove_event+0x24>
    19c6:	b129      	cbz	r1, 19d4 <us_ticker_remove_event+0x20>
    19c8:	688b      	ldr	r3, [r1, #8]
    19ca:	4283      	cmp	r3, r0
    19cc:	d005      	beq.n	19da <us_ticker_remove_event+0x26>
    19ce:	4619      	mov	r1, r3
    19d0:	2900      	cmp	r1, #0
    19d2:	d1f9      	bne.n	19c8 <us_ticker_remove_event+0x14>
    19d4:	b662      	cpsie	i
    19d6:	4770      	bx	lr
    19d8:	4611      	mov	r1, r2
    19da:	6880      	ldr	r0, [r0, #8]
    19dc:	6088      	str	r0, [r1, #8]
    19de:	b662      	cpsie	i
    19e0:	4770      	bx	lr
    19e2:	6892      	ldr	r2, [r2, #8]
    19e4:	601a      	str	r2, [r3, #0]
    19e6:	2a00      	cmp	r2, #0
    19e8:	d0f4      	beq.n	19d4 <us_ticker_remove_event+0x20>
    19ea:	6811      	ldr	r1, [r2, #0]
    19ec:	f44f 4c80 	mov.w	r12, #16384	; 0x4000
    19f0:	f2c4 0c09 	movt	r12, #16393	; 0x4009
    19f4:	f8cc 1018 	str.w	r1, [r12, #24]
    19f8:	f8dc 3014 	ldr.w	r3, [r12, #20]
    19fc:	f043 0001 	orr.w	r0, r3, #1
    1a00:	f8cc 0014 	str.w	r0, [r12, #20]
    1a04:	b662      	cpsie	i
    1a06:	4770      	bx	lr
    1a08:	10000380 	.word	0x10000380

00001a0c <pinmap_pinout>:
    1a0c:	1c43      	adds	r3, r0, #1
    1a0e:	b510      	push	{r4, lr}
    1a10:	4604      	mov	r4, r0
    1a12:	d013      	beq.n	1a3c <pinmap_pinout+0x30>
    1a14:	680b      	ldr	r3, [r1, #0]
    1a16:	1c58      	adds	r0, r3, #1
    1a18:	d104      	bne.n	1a24 <pinmap_pinout+0x18>
    1a1a:	e010      	b.n	1a3e <pinmap_pinout+0x32>
    1a1c:	f851 3f0c 	ldr.w	r3, [r1, #12]!
    1a20:	1c5a      	adds	r2, r3, #1
    1a22:	d00c      	beq.n	1a3e <pinmap_pinout+0x32>
    1a24:	429c      	cmp	r4, r3
    1a26:	d1f9      	bne.n	1a1c <pinmap_pinout+0x10>
    1a28:	4620      	mov	r0, r4
    1a2a:	6889      	ldr	r1, [r1, #8]
    1a2c:	f7ff fbfa 	bl	1224 <pin_function>
    1a30:	4620      	mov	r0, r4
    1a32:	2102      	movs	r1, #2
    1a34:	e8bd 4010 	ldmia.w	sp!, {r4, lr}
    1a38:	f7ff bc16 	b.w	1268 <pin_mode>
    1a3c:	bd10      	pop	{r4, pc}
    1a3e:	4804      	ldr	r0, [pc, #16]	; (1a50 <pinmap_pinout+0x44>)
    1a40:	4904      	ldr	r1, [pc, #16]	; (1a54 <pinmap_pinout+0x48>)
    1a42:	6802      	ldr	r2, [r0, #0]
    1a44:	68d0      	ldr	r0, [r2, #12]
    1a46:	f001 fe55 	bl	36f4 <fiprintf>
    1a4a:	2001      	movs	r0, #1
    1a4c:	f7fe fdca 	bl	5e4 <exit>
    1a50:	10000134 	.word	0x10000134
    1a54:	000087ec 	.word	0x000087ec

00001a58 <pinmap_merge>:
    1a58:	4288      	cmp	r0, r1
    1a5a:	b508      	push	{r3, lr}
    1a5c:	d003      	beq.n	1a66 <pinmap_merge+0xe>
    1a5e:	1c42      	adds	r2, r0, #1
    1a60:	d002      	beq.n	1a68 <pinmap_merge+0x10>
    1a62:	3101      	adds	r1, #1
    1a64:	d102      	bne.n	1a6c <pinmap_merge+0x14>
    1a66:	bd08      	pop	{r3, pc}
    1a68:	4608      	mov	r0, r1
    1a6a:	bd08      	pop	{r3, pc}
    1a6c:	4b04      	ldr	r3, [pc, #16]	; (1a80 <pinmap_merge+0x28>)
    1a6e:	4905      	ldr	r1, [pc, #20]	; (1a84 <pinmap_merge+0x2c>)
    1a70:	6818      	ldr	r0, [r3, #0]
    1a72:	68c0      	ldr	r0, [r0, #12]
    1a74:	f001 fe3e 	bl	36f4 <fiprintf>
    1a78:	2001      	movs	r0, #1
    1a7a:	f7fe fdb3 	bl	5e4 <exit>
    1a7e:	bf00      	nop
    1a80:	10000134 	.word	0x10000134
    1a84:	00008800 	.word	0x00008800

00001a88 <pinmap_peripheral>:
    1a88:	b508      	push	{r3, lr}
    1a8a:	1c43      	adds	r3, r0, #1
    1a8c:	d00b      	beq.n	1aa6 <pinmap_peripheral+0x1e>
    1a8e:	680b      	ldr	r3, [r1, #0]
    1a90:	1c5a      	adds	r2, r3, #1
    1a92:	d104      	bne.n	1a9e <pinmap_peripheral+0x16>
    1a94:	e008      	b.n	1aa8 <pinmap_peripheral+0x20>
    1a96:	f851 3f0c 	ldr.w	r3, [r1, #12]!
    1a9a:	1c5a      	adds	r2, r3, #1
    1a9c:	d004      	beq.n	1aa8 <pinmap_peripheral+0x20>
    1a9e:	4298      	cmp	r0, r3
    1aa0:	d1f9      	bne.n	1a96 <pinmap_peripheral+0xe>
    1aa2:	6848      	ldr	r0, [r1, #4]
    1aa4:	bd08      	pop	{r3, pc}
    1aa6:	bd08      	pop	{r3, pc}
    1aa8:	4804      	ldr	r0, [pc, #16]	; (1abc <pinmap_peripheral+0x34>)
    1aaa:	4905      	ldr	r1, [pc, #20]	; (1ac0 <pinmap_peripheral+0x38>)
    1aac:	6802      	ldr	r2, [r0, #0]
    1aae:	68d0      	ldr	r0, [r2, #12]
    1ab0:	f001 fe20 	bl	36f4 <fiprintf>
    1ab4:	2001      	movs	r0, #1
    1ab6:	f7fe fd95 	bl	5e4 <exit>
    1aba:	bf00      	nop
    1abc:	10000134 	.word	0x10000134
    1ac0:	00008814 	.word	0x00008814

00001ac4 <_ZN4mbed8FileLikeD1Ev>:
    1ac4:	f648 0368 	movw	r3, #34920	; 0x8868
    1ac8:	f2c0 0300 	movt	r3, #0
    1acc:	b510      	push	{r4, lr}
    1ace:	f103 0234 	add.w	r2, r3, #52	; 0x34
    1ad2:	4604      	mov	r4, r0
    1ad4:	3308      	adds	r3, #8
    1ad6:	f840 2f04 	str.w	r2, [r0, #4]!
    1ada:	6023      	str	r3, [r4, #0]
    1adc:	f000 f886 	bl	1bec <_ZN4mbed8FileBaseD1Ev>
    1ae0:	4620      	mov	r0, r4
    1ae2:	f7fe fe77 	bl	7d4 <_ZN4mbed10FileHandleD1Ev>
    1ae6:	4620      	mov	r0, r4
    1ae8:	bd10      	pop	{r4, pc}
    1aea:	bf00      	nop

00001aec <_ZThn4_N4mbed8FileLikeD1Ev>:
    1aec:	f1a0 0004 	sub.w	r0, r0, #4
    1af0:	f7ff bfe8 	b.w	1ac4 <_ZN4mbed8FileLikeD1Ev>

00001af4 <_ZN4mbed8FileLikeD0Ev>:
    1af4:	b510      	push	{r4, lr}
    1af6:	4604      	mov	r4, r0
    1af8:	f7ff ffe4 	bl	1ac4 <_ZN4mbed8FileLikeD1Ev>
    1afc:	4620      	mov	r0, r4
    1afe:	f000 f959 	bl	1db4 <_ZdlPv>
    1b02:	4620      	mov	r0, r4
    1b04:	bd10      	pop	{r4, pc}
    1b06:	bf00      	nop

00001b08 <_ZThn4_N4mbed8FileLikeD0Ev>:
    1b08:	f1a0 0004 	sub.w	r0, r0, #4
    1b0c:	f7ff bff2 	b.w	1af4 <_ZN4mbed8FileLikeD0Ev>

00001b10 <_ZN4mbed8FileLikeC1EPKc>:
    1b10:	4b09      	ldr	r3, [pc, #36]	; (1b38 <_ZN4mbed8FileLikeC1EPKc+0x28>)
    1b12:	b510      	push	{r4, lr}
    1b14:	2200      	movs	r2, #0
    1b16:	4604      	mov	r4, r0
    1b18:	f840 3b04 	str.w	r3, [r0], #4
    1b1c:	f000 f89c 	bl	1c58 <_ZN4mbed8FileBaseC1EPKcNS_8PathTypeE>
    1b20:	f648 0368 	movw	r3, #34920	; 0x8868
    1b24:	f2c0 0300 	movt	r3, #0
    1b28:	f103 0208 	add.w	r2, r3, #8
    1b2c:	3334      	adds	r3, #52	; 0x34
    1b2e:	e884 000c 	stmia.w	r4, {r2, r3}
    1b32:	4620      	mov	r0, r4
    1b34:	bd10      	pop	{r4, pc}
    1b36:	bf00      	nop
    1b38:	00008498 	.word	0x00008498

00001b3c <_ZN4mbed8FilePathC1EPKc>:
    1b3c:	b570      	push	{r4, r5, r6, lr}
    1b3e:	2200      	movs	r2, #0
    1b40:	6002      	str	r2, [r0, #0]
    1b42:	6042      	str	r2, [r0, #4]
    1b44:	780b      	ldrb	r3, [r1, #0]
    1b46:	4604      	mov	r4, r0
    1b48:	2b2f      	cmp	r3, #47	; 0x2f
    1b4a:	d001      	beq.n	1b50 <_ZN4mbed8FilePathC1EPKc+0x14>
    1b4c:	4620      	mov	r0, r4
    1b4e:	bd70      	pop	{r4, r5, r6, pc}
    1b50:	7848      	ldrb	r0, [r1, #1]
    1b52:	2800      	cmp	r0, #0
    1b54:	d0fa      	beq.n	1b4c <_ZN4mbed8FilePathC1EPKc+0x10>
    1b56:	1c4e      	adds	r6, r1, #1
    1b58:	6026      	str	r6, [r4, #0]
    1b5a:	784d      	ldrb	r5, [r1, #1]
    1b5c:	2d2f      	cmp	r5, #47	; 0x2f
    1b5e:	d01b      	beq.n	1b98 <_ZN4mbed8FilePathC1EPKc+0x5c>
    1b60:	b16d      	cbz	r5, 1b7e <_ZN4mbed8FilePathC1EPKc+0x42>
    1b62:	1c8d      	adds	r5, r1, #2
    1b64:	4611      	mov	r1, r2
    1b66:	e000      	b.n	1b6a <_ZN4mbed8FilePathC1EPKc+0x2e>
    1b68:	b1a2      	cbz	r2, 1b94 <_ZN4mbed8FilePathC1EPKc+0x58>
    1b6a:	6025      	str	r5, [r4, #0]
    1b6c:	782a      	ldrb	r2, [r5, #0]
    1b6e:	462b      	mov	r3, r5
    1b70:	3101      	adds	r1, #1
    1b72:	3501      	adds	r5, #1
    1b74:	2a2f      	cmp	r2, #47	; 0x2f
    1b76:	d1f7      	bne.n	1b68 <_ZN4mbed8FilePathC1EPKc+0x2c>
    1b78:	460d      	mov	r5, r1
    1b7a:	1c58      	adds	r0, r3, #1
    1b7c:	6020      	str	r0, [r4, #0]
    1b7e:	4629      	mov	r1, r5
    1b80:	4630      	mov	r0, r6
    1b82:	f000 f879 	bl	1c78 <_ZN4mbed8FileBase6lookupEPKcj>
    1b86:	4630      	mov	r0, r6
    1b88:	4629      	mov	r1, r5
    1b8a:	f000 f875 	bl	1c78 <_ZN4mbed8FileBase6lookupEPKcj>
    1b8e:	6060      	str	r0, [r4, #4]
    1b90:	4620      	mov	r0, r4
    1b92:	bd70      	pop	{r4, r5, r6, pc}
    1b94:	460d      	mov	r5, r1
    1b96:	e7f2      	b.n	1b7e <_ZN4mbed8FilePathC1EPKc+0x42>
    1b98:	4633      	mov	r3, r6
    1b9a:	4615      	mov	r5, r2
    1b9c:	e7ed      	b.n	1b7a <_ZN4mbed8FilePathC1EPKc+0x3e>
    1b9e:	bf00      	nop

00001ba0 <_ZN4mbed8FilePath8fileNameEv>:
    1ba0:	6800      	ldr	r0, [r0, #0]
    1ba2:	4770      	bx	lr

00001ba4 <_ZN4mbed8FilePath12isFileSystemEv>:
    1ba4:	b508      	push	{r3, lr}
    1ba6:	6840      	ldr	r0, [r0, #4]
    1ba8:	f000 f886 	bl	1cb8 <_ZN4mbed8FileBase11getPathTypeEv>
    1bac:	1e43      	subs	r3, r0, #1
    1bae:	4258      	negs	r0, r3
    1bb0:	4158      	adcs	r0, r3
    1bb2:	bd08      	pop	{r3, pc}

00001bb4 <_ZN4mbed8FilePath10fileSystemEv>:
    1bb4:	b510      	push	{r4, lr}
    1bb6:	4604      	mov	r4, r0
    1bb8:	f7ff fff4 	bl	1ba4 <_ZN4mbed8FilePath12isFileSystemEv>
    1bbc:	b100      	cbz	r0, 1bc0 <_ZN4mbed8FilePath10fileSystemEv+0xc>
    1bbe:	6860      	ldr	r0, [r4, #4]
    1bc0:	bd10      	pop	{r4, pc}
    1bc2:	bf00      	nop

00001bc4 <_ZN4mbed8FilePath6isFileEv>:
    1bc4:	b508      	push	{r3, lr}
    1bc6:	6840      	ldr	r0, [r0, #4]
    1bc8:	f000 f876 	bl	1cb8 <_ZN4mbed8FileBase11getPathTypeEv>
    1bcc:	f1d0 0001 	rsbs	r0, r0, #1
    1bd0:	bf38      	it	cc
    1bd2:	2000      	movcc	r0, #0
    1bd4:	bd08      	pop	{r3, pc}
    1bd6:	bf00      	nop

00001bd8 <_ZN4mbed8FilePath4fileEv>:
    1bd8:	b510      	push	{r4, lr}
    1bda:	4604      	mov	r4, r0
    1bdc:	f7ff fff2 	bl	1bc4 <_ZN4mbed8FilePath6isFileEv>
    1be0:	b110      	cbz	r0, 1be8 <_ZN4mbed8FilePath4fileEv+0x10>
    1be2:	6860      	ldr	r0, [r4, #4]
    1be4:	b100      	cbz	r0, 1be8 <_ZN4mbed8FilePath4fileEv+0x10>
    1be6:	3804      	subs	r0, #4
    1be8:	bd10      	pop	{r4, pc}
    1bea:	bf00      	nop

00001bec <_ZN4mbed8FileBaseD1Ev>:
    1bec:	4a09      	ldr	r2, [pc, #36]	; (1c14 <_ZN4mbed8FileBaseD1Ev+0x28>)
    1bee:	6883      	ldr	r3, [r0, #8]
    1bf0:	6002      	str	r2, [r0, #0]
    1bf2:	b153      	cbz	r3, 1c0a <_ZN4mbed8FileBaseD1Ev+0x1e>
    1bf4:	4908      	ldr	r1, [pc, #32]	; (1c18 <_ZN4mbed8FileBaseD1Ev+0x2c>)
    1bf6:	680a      	ldr	r2, [r1, #0]
    1bf8:	4282      	cmp	r2, r0
    1bfa:	d101      	bne.n	1c00 <_ZN4mbed8FileBaseD1Ev+0x14>
    1bfc:	e006      	b.n	1c0c <_ZN4mbed8FileBaseD1Ev+0x20>
    1bfe:	461a      	mov	r2, r3
    1c00:	6853      	ldr	r3, [r2, #4]
    1c02:	4298      	cmp	r0, r3
    1c04:	d1fb      	bne.n	1bfe <_ZN4mbed8FileBaseD1Ev+0x12>
    1c06:	6841      	ldr	r1, [r0, #4]
    1c08:	6051      	str	r1, [r2, #4]
    1c0a:	4770      	bx	lr
    1c0c:	6843      	ldr	r3, [r0, #4]
    1c0e:	600b      	str	r3, [r1, #0]
    1c10:	4770      	bx	lr
    1c12:	bf00      	nop
    1c14:	000088c8 	.word	0x000088c8
    1c18:	10000388 	.word	0x10000388

00001c1c <_ZN4mbed8FileBaseD0Ev>:
    1c1c:	4a0c      	ldr	r2, [pc, #48]	; (1c50 <_ZN4mbed8FileBaseD0Ev+0x34>)
    1c1e:	6883      	ldr	r3, [r0, #8]
    1c20:	b510      	push	{r4, lr}
    1c22:	4604      	mov	r4, r0
    1c24:	6002      	str	r2, [r0, #0]
    1c26:	b153      	cbz	r3, 1c3e <_ZN4mbed8FileBaseD0Ev+0x22>
    1c28:	480a      	ldr	r0, [pc, #40]	; (1c54 <_ZN4mbed8FileBaseD0Ev+0x38>)
    1c2a:	6802      	ldr	r2, [r0, #0]
    1c2c:	4294      	cmp	r4, r2
    1c2e:	d101      	bne.n	1c34 <_ZN4mbed8FileBaseD0Ev+0x18>
    1c30:	e00a      	b.n	1c48 <_ZN4mbed8FileBaseD0Ev+0x2c>
    1c32:	460a      	mov	r2, r1
    1c34:	6851      	ldr	r1, [r2, #4]
    1c36:	428c      	cmp	r4, r1
    1c38:	d1fb      	bne.n	1c32 <_ZN4mbed8FileBaseD0Ev+0x16>
    1c3a:	6863      	ldr	r3, [r4, #4]
    1c3c:	6053      	str	r3, [r2, #4]
    1c3e:	4620      	mov	r0, r4
    1c40:	f000 f8b8 	bl	1db4 <_ZdlPv>
    1c44:	4620      	mov	r0, r4
    1c46:	bd10      	pop	{r4, pc}
    1c48:	6861      	ldr	r1, [r4, #4]
    1c4a:	6001      	str	r1, [r0, #0]
    1c4c:	e7f7      	b.n	1c3e <_ZN4mbed8FileBaseD0Ev+0x22>
    1c4e:	bf00      	nop
    1c50:	000088c8 	.word	0x000088c8
    1c54:	10000388 	.word	0x10000388

00001c58 <_ZN4mbed8FileBaseC1EPKcNS_8PathTypeE>:
    1c58:	4b05      	ldr	r3, [pc, #20]	; (1c70 <_ZN4mbed8FileBaseC1EPKcNS_8PathTypeE+0x18>)
    1c5a:	6081      	str	r1, [r0, #8]
    1c5c:	6003      	str	r3, [r0, #0]
    1c5e:	7302      	strb	r2, [r0, #12]
    1c60:	b121      	cbz	r1, 1c6c <_ZN4mbed8FileBaseC1EPKcNS_8PathTypeE+0x14>
    1c62:	4904      	ldr	r1, [pc, #16]	; (1c74 <_ZN4mbed8FileBaseC1EPKcNS_8PathTypeE+0x1c>)
    1c64:	680a      	ldr	r2, [r1, #0]
    1c66:	6008      	str	r0, [r1, #0]
    1c68:	6042      	str	r2, [r0, #4]
    1c6a:	4770      	bx	lr
    1c6c:	6041      	str	r1, [r0, #4]
    1c6e:	4770      	bx	lr
    1c70:	000088c8 	.word	0x000088c8
    1c74:	10000388 	.word	0x10000388

00001c78 <_ZN4mbed8FileBase6lookupEPKcj>:
    1c78:	4b0e      	ldr	r3, [pc, #56]	; (1cb4 <_ZN4mbed8FileBase6lookupEPKcj+0x3c>)
    1c7a:	b570      	push	{r4, r5, r6, lr}
    1c7c:	681c      	ldr	r4, [r3, #0]
    1c7e:	4606      	mov	r6, r0
    1c80:	460d      	mov	r5, r1
    1c82:	b914      	cbnz	r4, 1c8a <_ZN4mbed8FileBase6lookupEPKcj+0x12>
    1c84:	e012      	b.n	1cac <_ZN4mbed8FileBase6lookupEPKcj+0x34>
    1c86:	6864      	ldr	r4, [r4, #4]
    1c88:	b184      	cbz	r4, 1cac <_ZN4mbed8FileBase6lookupEPKcj+0x34>
    1c8a:	68a3      	ldr	r3, [r4, #8]
    1c8c:	4631      	mov	r1, r6
    1c8e:	462a      	mov	r2, r5
    1c90:	4618      	mov	r0, r3
    1c92:	2b00      	cmp	r3, #0
    1c94:	d0f7      	beq.n	1c86 <_ZN4mbed8FileBase6lookupEPKcj+0xe>
    1c96:	f002 f8b9 	bl	3e0c <strncmp>
    1c9a:	2800      	cmp	r0, #0
    1c9c:	d1f3      	bne.n	1c86 <_ZN4mbed8FileBase6lookupEPKcj+0xe>
    1c9e:	68a0      	ldr	r0, [r4, #8]
    1ca0:	f002 f8ac 	bl	3dfc <strlen>
    1ca4:	42a8      	cmp	r0, r5
    1ca6:	d1ee      	bne.n	1c86 <_ZN4mbed8FileBase6lookupEPKcj+0xe>
    1ca8:	4620      	mov	r0, r4
    1caa:	bd70      	pop	{r4, r5, r6, pc}
    1cac:	2400      	movs	r4, #0
    1cae:	4620      	mov	r0, r4
    1cb0:	bd70      	pop	{r4, r5, r6, pc}
    1cb2:	bf00      	nop
    1cb4:	10000388 	.word	0x10000388

00001cb8 <_ZN4mbed8FileBase11getPathTypeEv>:
    1cb8:	7b00      	ldrb	r0, [r0, #12]
    1cba:	4770      	bx	lr

00001cbc <_ZNK10__cxxabiv120__si_class_type_info12__do_dyncastEiNS_17__class_type_info10__sub_kindEPKS1_PKvS4_S6_RNS1_16__dyncast_resultE>:
    1cbc:	e92d 4ff0 	stmdb	sp!, {r4, r5, r6, r7, r8, r9, r10, r11, lr}
    1cc0:	460e      	mov	r6, r1
    1cc2:	b085      	sub	sp, #20
    1cc4:	4619      	mov	r1, r3
    1cc6:	4683      	mov	r11, r0
    1cc8:	4690      	mov	r8, r2
    1cca:	4699      	mov	r9, r3
    1ccc:	9d0e      	ldr	r5, [sp, #56]	; 0x38
    1cce:	9f10      	ldr	r7, [sp, #64]	; 0x40
    1cd0:	9c11      	ldr	r4, [sp, #68]	; 0x44
    1cd2:	f000 fb2d 	bl	2330 <_ZNKSt9type_infoeqERKS_>
    1cd6:	4682      	mov	r10, r0
    1cd8:	b180      	cbz	r0, 1cfc <_ZNK10__cxxabiv120__si_class_type_info12__do_dyncastEiNS_17__class_type_info10__sub_kindEPKS1_PKvS4_S6_RNS1_16__dyncast_resultE+0x40>
    1cda:	2e00      	cmp	r6, #0
    1cdc:	6025      	str	r5, [r4, #0]
    1cde:	f884 8004 	strb.w	r8, [r4, #4]
    1ce2:	db06      	blt.n	1cf2 <_ZNK10__cxxabiv120__si_class_type_info12__do_dyncastEiNS_17__class_type_info10__sub_kindEPKS1_PKvS4_S6_RNS1_16__dyncast_resultE+0x36>
    1ce4:	19ad      	adds	r5, r5, r6
    1ce6:	42af      	cmp	r7, r5
    1ce8:	bf14      	ite	ne
    1cea:	2701      	movne	r7, #1
    1cec:	2706      	moveq	r7, #6
    1cee:	71a7      	strb	r7, [r4, #6]
    1cf0:	e00c      	b.n	1d0c <_ZNK10__cxxabiv120__si_class_type_info12__do_dyncastEiNS_17__class_type_info10__sub_kindEPKS1_PKvS4_S6_RNS1_16__dyncast_resultE+0x50>
    1cf2:	1cb3      	adds	r3, r6, #2
    1cf4:	d10a      	bne.n	1d0c <_ZNK10__cxxabiv120__si_class_type_info12__do_dyncastEiNS_17__class_type_info10__sub_kindEPKS1_PKvS4_S6_RNS1_16__dyncast_resultE+0x50>
    1cf6:	2001      	movs	r0, #1
    1cf8:	71a0      	strb	r0, [r4, #6]
    1cfa:	e007      	b.n	1d0c <_ZNK10__cxxabiv120__si_class_type_info12__do_dyncastEiNS_17__class_type_info10__sub_kindEPKS1_PKvS4_S6_RNS1_16__dyncast_resultE+0x50>
    1cfc:	42bd      	cmp	r5, r7
    1cfe:	d107      	bne.n	1d10 <_ZNK10__cxxabiv120__si_class_type_info12__do_dyncastEiNS_17__class_type_info10__sub_kindEPKS1_PKvS4_S6_RNS1_16__dyncast_resultE+0x54>
    1d00:	4658      	mov	r0, r11
    1d02:	990f      	ldr	r1, [sp, #60]	; 0x3c
    1d04:	f000 fb14 	bl	2330 <_ZNKSt9type_infoeqERKS_>
    1d08:	b980      	cbnz	r0, 1d2c <_ZNK10__cxxabiv120__si_class_type_info12__do_dyncastEiNS_17__class_type_info10__sub_kindEPKS1_PKvS4_S6_RNS1_16__dyncast_resultE+0x70>
    1d0a:	e001      	b.n	1d10 <_ZNK10__cxxabiv120__si_class_type_info12__do_dyncastEiNS_17__class_type_info10__sub_kindEPKS1_PKvS4_S6_RNS1_16__dyncast_resultE+0x54>
    1d0c:	2000      	movs	r0, #0
    1d0e:	e010      	b.n	1d32 <_ZNK10__cxxabiv120__si_class_type_info12__do_dyncastEiNS_17__class_type_info10__sub_kindEPKS1_PKvS4_S6_RNS1_16__dyncast_resultE+0x76>
    1d10:	f8db 0008 	ldr.w	r0, [r11, #8]
    1d14:	9a0f      	ldr	r2, [sp, #60]	; 0x3c
    1d16:	6803      	ldr	r3, [r0, #0]
    1d18:	9201      	str	r2, [sp, #4]
    1d1a:	9500      	str	r5, [sp, #0]
    1d1c:	9702      	str	r7, [sp, #8]
    1d1e:	9403      	str	r4, [sp, #12]
    1d20:	69dc      	ldr	r4, [r3, #28]
    1d22:	4631      	mov	r1, r6
    1d24:	4642      	mov	r2, r8
    1d26:	464b      	mov	r3, r9
    1d28:	47a0      	blx	r4
    1d2a:	e002      	b.n	1d32 <_ZNK10__cxxabiv120__si_class_type_info12__do_dyncastEiNS_17__class_type_info10__sub_kindEPKS1_PKvS4_S6_RNS1_16__dyncast_resultE+0x76>
    1d2c:	f884 8005 	strb.w	r8, [r4, #5]
    1d30:	4650      	mov	r0, r10
    1d32:	b005      	add	sp, #20
    1d34:	e8bd 8ff0 	ldmia.w	sp!, {r4, r5, r6, r7, r8, r9, r10, r11, pc}

00001d38 <_ZN10__cxxabiv120__si_class_type_infoD1Ev>:
    1d38:	4b03      	ldr	r3, [pc, #12]	; (1d48 <_ZN10__cxxabiv120__si_class_type_infoD1Ev+0x10>)
    1d3a:	b510      	push	{r4, lr}
    1d3c:	4604      	mov	r4, r0
    1d3e:	6003      	str	r3, [r0, #0]
    1d40:	f000 f86a 	bl	1e18 <_ZN10__cxxabiv117__class_type_infoD1Ev>
    1d44:	4620      	mov	r0, r4
    1d46:	bd10      	pop	{r4, pc}
    1d48:	000088e0 	.word	0x000088e0

00001d4c <_ZN10__cxxabiv120__si_class_type_infoD0Ev>:
    1d4c:	b510      	push	{r4, lr}
    1d4e:	4604      	mov	r4, r0
    1d50:	f7ff fff2 	bl	1d38 <_ZN10__cxxabiv120__si_class_type_infoD1Ev>
    1d54:	4620      	mov	r0, r4
    1d56:	f000 f82d 	bl	1db4 <_ZdlPv>
    1d5a:	4620      	mov	r0, r4
    1d5c:	bd10      	pop	{r4, pc}

00001d5e <_ZNK10__cxxabiv120__si_class_type_info11__do_upcastEPKNS_17__class_type_infoEPKvRNS1_15__upcast_resultE>:
    1d5e:	b5f8      	push	{r3, r4, r5, r6, r7, lr}
    1d60:	4604      	mov	r4, r0
    1d62:	460f      	mov	r7, r1
    1d64:	4616      	mov	r6, r2
    1d66:	461d      	mov	r5, r3
    1d68:	f000 f849 	bl	1dfe <_ZNK10__cxxabiv117__class_type_info11__do_upcastEPKS0_PKvRNS0_15__upcast_resultE>
    1d6c:	b938      	cbnz	r0, 1d7e <_ZNK10__cxxabiv120__si_class_type_info11__do_upcastEPKNS_17__class_type_infoEPKvRNS1_15__upcast_resultE+0x20>
    1d6e:	68a0      	ldr	r0, [r4, #8]
    1d70:	4639      	mov	r1, r7
    1d72:	6804      	ldr	r4, [r0, #0]
    1d74:	4632      	mov	r2, r6
    1d76:	69a4      	ldr	r4, [r4, #24]
    1d78:	462b      	mov	r3, r5
    1d7a:	47a0      	blx	r4
    1d7c:	bdf8      	pop	{r3, r4, r5, r6, r7, pc}
    1d7e:	2001      	movs	r0, #1
    1d80:	bdf8      	pop	{r3, r4, r5, r6, r7, pc}

00001d82 <_ZNK10__cxxabiv120__si_class_type_info20__do_find_public_srcEiPKvPKNS_17__class_type_infoES2_>:
    1d82:	e92d 41f3 	stmdb	sp!, {r0, r1, r4, r5, r6, r7, r8, lr}
    1d86:	9c08      	ldr	r4, [sp, #32]
    1d88:	4607      	mov	r7, r0
    1d8a:	4294      	cmp	r4, r2
    1d8c:	4688      	mov	r8, r1
    1d8e:	4616      	mov	r6, r2
    1d90:	461d      	mov	r5, r3
    1d92:	d105      	bne.n	1da0 <_ZNK10__cxxabiv120__si_class_type_info20__do_find_public_srcEiPKvPKNS_17__class_type_infoES2_+0x1e>
    1d94:	4619      	mov	r1, r3
    1d96:	f000 facb 	bl	2330 <_ZNKSt9type_infoeqERKS_>
    1d9a:	b108      	cbz	r0, 1da0 <_ZNK10__cxxabiv120__si_class_type_info20__do_find_public_srcEiPKvPKNS_17__class_type_infoES2_+0x1e>
    1d9c:	2006      	movs	r0, #6
    1d9e:	e007      	b.n	1db0 <_ZNK10__cxxabiv120__si_class_type_info20__do_find_public_srcEiPKvPKNS_17__class_type_infoES2_+0x2e>
    1da0:	68b8      	ldr	r0, [r7, #8]
    1da2:	4641      	mov	r1, r8
    1da4:	6803      	ldr	r3, [r0, #0]
    1da6:	9400      	str	r4, [sp, #0]
    1da8:	6a1c      	ldr	r4, [r3, #32]
    1daa:	4632      	mov	r2, r6
    1dac:	462b      	mov	r3, r5
    1dae:	47a0      	blx	r4
    1db0:	e8bd 81fc 	ldmia.w	sp!, {r2, r3, r4, r5, r6, r7, r8, pc}

00001db4 <_ZdlPv>:
    1db4:	b108      	cbz	r0, 1dba <_ZdlPv+0x6>
    1db6:	f001 be2f 	b.w	3a18 <free>
    1dba:	4770      	bx	lr

00001dbc <_ZNK10__cxxabiv117__class_type_info11__do_upcastEPKS0_PPv>:
    1dbc:	b57f      	push	{r0, r1, r2, r3, r4, r5, r6, lr}
    1dbe:	4615      	mov	r5, r2
    1dc0:	6802      	ldr	r2, [r0, #0]
    1dc2:	2400      	movs	r4, #0
    1dc4:	2310      	movs	r3, #16
    1dc6:	9302      	str	r3, [sp, #8]
    1dc8:	6996      	ldr	r6, [r2, #24]
    1dca:	9400      	str	r4, [sp, #0]
    1dcc:	f88d 4004 	strb.w	r4, [sp, #4]
    1dd0:	9403      	str	r4, [sp, #12]
    1dd2:	682a      	ldr	r2, [r5, #0]
    1dd4:	466b      	mov	r3, sp
    1dd6:	47b0      	blx	r6
    1dd8:	f89d 0004 	ldrb.w	r0, [sp, #4]
    1ddc:	f000 0106 	and.w	r1, r0, #6
    1de0:	2906      	cmp	r1, #6
    1de2:	d103      	bne.n	1dec <_ZNK10__cxxabiv117__class_type_info11__do_upcastEPKS0_PPv+0x30>
    1de4:	9b00      	ldr	r3, [sp, #0]
    1de6:	2001      	movs	r0, #1
    1de8:	602b      	str	r3, [r5, #0]
    1dea:	e000      	b.n	1dee <_ZNK10__cxxabiv117__class_type_info11__do_upcastEPKS0_PPv+0x32>
    1dec:	4620      	mov	r0, r4
    1dee:	b004      	add	sp, #16
    1df0:	bd70      	pop	{r4, r5, r6, pc}

00001df2 <_ZNK10__cxxabiv117__class_type_info20__do_find_public_srcEiPKvPKS0_S2_>:
    1df2:	9800      	ldr	r0, [sp, #0]
    1df4:	4290      	cmp	r0, r2
    1df6:	bf14      	ite	ne
    1df8:	2001      	movne	r0, #1
    1dfa:	2006      	moveq	r0, #6
    1dfc:	4770      	bx	lr

00001dfe <_ZNK10__cxxabiv117__class_type_info11__do_upcastEPKS0_PKvRNS0_15__upcast_resultE>:
    1dfe:	b538      	push	{r3, r4, r5, lr}
    1e00:	4615      	mov	r5, r2
    1e02:	461c      	mov	r4, r3
    1e04:	f000 fa94 	bl	2330 <_ZNKSt9type_infoeqERKS_>
    1e08:	b128      	cbz	r0, 1e16 <_ZNK10__cxxabiv117__class_type_info11__do_upcastEPKS0_PKvRNS0_15__upcast_resultE+0x18>
    1e0a:	2006      	movs	r0, #6
    1e0c:	2308      	movs	r3, #8
    1e0e:	7120      	strb	r0, [r4, #4]
    1e10:	6025      	str	r5, [r4, #0]
    1e12:	60e3      	str	r3, [r4, #12]
    1e14:	2001      	movs	r0, #1
    1e16:	bd38      	pop	{r3, r4, r5, pc}

00001e18 <_ZN10__cxxabiv117__class_type_infoD1Ev>:
    1e18:	4b03      	ldr	r3, [pc, #12]	; (1e28 <_ZN10__cxxabiv117__class_type_infoD1Ev+0x10>)
    1e1a:	b510      	push	{r4, lr}
    1e1c:	4604      	mov	r4, r0
    1e1e:	6003      	str	r3, [r0, #0]
    1e20:	f000 fa70 	bl	2304 <_ZNSt9type_infoD1Ev>
    1e24:	4620      	mov	r0, r4
    1e26:	bd10      	pop	{r4, pc}
    1e28:	00008948 	.word	0x00008948

00001e2c <_ZN10__cxxabiv117__class_type_infoD0Ev>:
    1e2c:	b510      	push	{r4, lr}
    1e2e:	4604      	mov	r4, r0
    1e30:	f7ff fff2 	bl	1e18 <_ZN10__cxxabiv117__class_type_infoD1Ev>
    1e34:	4620      	mov	r0, r4
    1e36:	f7ff ffbd 	bl	1db4 <_ZdlPv>
    1e3a:	4620      	mov	r0, r4
    1e3c:	bd10      	pop	{r4, pc}

00001e3e <_ZNK10__cxxabiv117__class_type_info12__do_dyncastEiNS0_10__sub_kindEPKS0_PKvS3_S5_RNS0_16__dyncast_resultE>:
    1e3e:	e92d 41f0 	stmdb	sp!, {r4, r5, r6, r7, r8, lr}
    1e42:	9e06      	ldr	r6, [sp, #24]
    1e44:	4615      	mov	r5, r2
    1e46:	9a08      	ldr	r2, [sp, #32]
    1e48:	4607      	mov	r7, r0
    1e4a:	4296      	cmp	r6, r2
    1e4c:	4698      	mov	r8, r3
    1e4e:	9c09      	ldr	r4, [sp, #36]	; 0x24
    1e50:	d103      	bne.n	1e5a <_ZNK10__cxxabiv117__class_type_info12__do_dyncastEiNS0_10__sub_kindEPKS0_PKvS3_S5_RNS0_16__dyncast_resultE+0x1c>
    1e52:	9907      	ldr	r1, [sp, #28]
    1e54:	f000 fa6c 	bl	2330 <_ZNKSt9type_infoeqERKS_>
    1e58:	b948      	cbnz	r0, 1e6e <_ZNK10__cxxabiv117__class_type_info12__do_dyncastEiNS0_10__sub_kindEPKS0_PKvS3_S5_RNS0_16__dyncast_resultE+0x30>
    1e5a:	4638      	mov	r0, r7
    1e5c:	4641      	mov	r1, r8
    1e5e:	f000 fa67 	bl	2330 <_ZNKSt9type_infoeqERKS_>
    1e62:	b128      	cbz	r0, 1e70 <_ZNK10__cxxabiv117__class_type_info12__do_dyncastEiNS0_10__sub_kindEPKS0_PKvS3_S5_RNS0_16__dyncast_resultE+0x32>
    1e64:	2301      	movs	r3, #1
    1e66:	6026      	str	r6, [r4, #0]
    1e68:	7125      	strb	r5, [r4, #4]
    1e6a:	71a3      	strb	r3, [r4, #6]
    1e6c:	e000      	b.n	1e70 <_ZNK10__cxxabiv117__class_type_info12__do_dyncastEiNS0_10__sub_kindEPKS0_PKvS3_S5_RNS0_16__dyncast_resultE+0x32>
    1e6e:	7165      	strb	r5, [r4, #5]
    1e70:	2000      	movs	r0, #0
    1e72:	e8bd 81f0 	ldmia.w	sp!, {r4, r5, r6, r7, r8, pc}

00001e76 <_ZNK10__cxxabiv117__class_type_info10__do_catchEPKSt9type_infoPPvj>:
    1e76:	b5f8      	push	{r3, r4, r5, r6, r7, lr}
    1e78:	4605      	mov	r5, r0
    1e7a:	460c      	mov	r4, r1
    1e7c:	4616      	mov	r6, r2
    1e7e:	461f      	mov	r7, r3
    1e80:	f000 fa56 	bl	2330 <_ZNKSt9type_infoeqERKS_>
    1e84:	b940      	cbnz	r0, 1e98 <_ZNK10__cxxabiv117__class_type_info10__do_catchEPKSt9type_infoPPvj+0x22>
    1e86:	2f03      	cmp	r7, #3
    1e88:	d807      	bhi.n	1e9a <_ZNK10__cxxabiv117__class_type_info10__do_catchEPKSt9type_infoPPvj+0x24>
    1e8a:	6823      	ldr	r3, [r4, #0]
    1e8c:	4620      	mov	r0, r4
    1e8e:	695b      	ldr	r3, [r3, #20]
    1e90:	4629      	mov	r1, r5
    1e92:	4632      	mov	r2, r6
    1e94:	4798      	blx	r3
    1e96:	bdf8      	pop	{r3, r4, r5, r6, r7, pc}
    1e98:	2001      	movs	r0, #1
    1e9a:	bdf8      	pop	{r3, r4, r5, r6, r7, pc}

00001e9c <__aeabi_atexit>:
    1e9c:	4603      	mov	r3, r0
    1e9e:	4608      	mov	r0, r1
    1ea0:	4619      	mov	r1, r3
    1ea2:	f001 b9f9 	b.w	3298 <__cxa_atexit>
	...

00001ea8 <_ZN10__cxxabiv121__vmi_class_type_infoD1Ev>:
    1ea8:	4b03      	ldr	r3, [pc, #12]	; (1eb8 <_ZN10__cxxabiv121__vmi_class_type_infoD1Ev+0x10>)
    1eaa:	b510      	push	{r4, lr}
    1eac:	4604      	mov	r4, r0
    1eae:	6003      	str	r3, [r0, #0]
    1eb0:	f7ff ffb2 	bl	1e18 <_ZN10__cxxabiv117__class_type_infoD1Ev>
    1eb4:	4620      	mov	r0, r4
    1eb6:	bd10      	pop	{r4, pc}
    1eb8:	000089e0 	.word	0x000089e0

00001ebc <_ZN10__cxxabiv121__vmi_class_type_infoD0Ev>:
    1ebc:	b510      	push	{r4, lr}
    1ebe:	4604      	mov	r4, r0
    1ec0:	f7ff fff2 	bl	1ea8 <_ZN10__cxxabiv121__vmi_class_type_infoD1Ev>
    1ec4:	4620      	mov	r0, r4
    1ec6:	f7ff ff75 	bl	1db4 <_ZdlPv>
    1eca:	4620      	mov	r0, r4
    1ecc:	bd10      	pop	{r4, pc}

00001ece <_ZNK10__cxxabiv121__vmi_class_type_info20__do_find_public_srcEiPKvPKNS_17__class_type_infoES2_>:
    1ece:	e92d 47f3 	stmdb	sp!, {r0, r1, r4, r5, r6, r7, r8, r9, r10, lr}
    1ed2:	f8dd 9028 	ldr.w	r9, [sp, #40]	; 0x28
    1ed6:	4605      	mov	r5, r0
    1ed8:	454a      	cmp	r2, r9
    1eda:	460f      	mov	r7, r1
    1edc:	4616      	mov	r6, r2
    1ede:	4698      	mov	r8, r3
    1ee0:	d105      	bne.n	1eee <_ZNK10__cxxabiv121__vmi_class_type_info20__do_find_public_srcEiPKvPKNS_17__class_type_infoES2_+0x20>
    1ee2:	4619      	mov	r1, r3
    1ee4:	f000 fa24 	bl	2330 <_ZNKSt9type_infoeqERKS_>
    1ee8:	b108      	cbz	r0, 1eee <_ZNK10__cxxabiv121__vmi_class_type_info20__do_find_public_srcEiPKvPKNS_17__class_type_infoES2_+0x20>
    1eea:	2006      	movs	r0, #6
    1eec:	e026      	b.n	1f3c <_ZNK10__cxxabiv121__vmi_class_type_info20__do_find_public_srcEiPKvPKNS_17__class_type_infoES2_+0x6e>
    1eee:	68ec      	ldr	r4, [r5, #12]
    1ef0:	f104 3aff 	add.w	r10, r4, #4294967295
    1ef4:	b30c      	cbz	r4, 1f3a <_ZNK10__cxxabiv121__vmi_class_type_info20__do_find_public_srcEiPKvPKNS_17__class_type_infoES2_+0x6c>
    1ef6:	eb05 04c4 	add.w	r4, r5, r4, lsl #3
    1efa:	68e0      	ldr	r0, [r4, #12]
    1efc:	0782      	lsls	r2, r0, #30
    1efe:	d51a      	bpl.n	1f36 <_ZNK10__cxxabiv121__vmi_class_type_info20__do_find_public_srcEiPKvPKNS_17__class_type_infoES2_+0x68>
    1f00:	1202      	asrs	r2, r0, #8
    1f02:	f010 0401 	ands.w	r4, r0, #1
    1f06:	d003      	beq.n	1f10 <_ZNK10__cxxabiv121__vmi_class_type_info20__do_find_public_srcEiPKvPKNS_17__class_type_infoES2_+0x42>
    1f08:	1cfb      	adds	r3, r7, #3
    1f0a:	d014      	beq.n	1f36 <_ZNK10__cxxabiv121__vmi_class_type_info20__do_find_public_srcEiPKvPKNS_17__class_type_infoES2_+0x68>
    1f0c:	6833      	ldr	r3, [r6, #0]
    1f0e:	589a      	ldr	r2, [r3, r2]
    1f10:	eb05 01ca 	add.w	r1, r5, r10, lsl #3
    1f14:	6908      	ldr	r0, [r1, #16]
    1f16:	18b2      	adds	r2, r6, r2
    1f18:	6803      	ldr	r3, [r0, #0]
    1f1a:	f8cd 9000 	str.w	r9, [sp]
    1f1e:	f8d3 c020 	ldr.w	r12, [r3, #32]
    1f22:	4639      	mov	r1, r7
    1f24:	4643      	mov	r3, r8
    1f26:	47e0      	blx	r12
    1f28:	2803      	cmp	r0, #3
    1f2a:	d904      	bls.n	1f36 <_ZNK10__cxxabiv121__vmi_class_type_info20__do_find_public_srcEiPKvPKNS_17__class_type_infoES2_+0x68>
    1f2c:	b134      	cbz	r4, 1f3c <_ZNK10__cxxabiv121__vmi_class_type_info20__do_find_public_srcEiPKvPKNS_17__class_type_infoES2_+0x6e>
    1f2e:	f040 0001 	orr.w	r0, r0, #1
    1f32:	b2c0      	uxtb	r0, r0
    1f34:	e002      	b.n	1f3c <_ZNK10__cxxabiv121__vmi_class_type_info20__do_find_public_srcEiPKvPKNS_17__class_type_infoES2_+0x6e>
    1f36:	4654      	mov	r4, r10
    1f38:	e7da      	b.n	1ef0 <_ZNK10__cxxabiv121__vmi_class_type_info20__do_find_public_srcEiPKvPKNS_17__class_type_infoES2_+0x22>
    1f3a:	2001      	movs	r0, #1
    1f3c:	e8bd 87fc 	ldmia.w	sp!, {r2, r3, r4, r5, r6, r7, r8, r9, r10, pc}

00001f40 <_ZNK10__cxxabiv121__vmi_class_type_info11__do_upcastEPKNS_17__class_type_infoEPKvRNS1_15__upcast_resultE>:
    1f40:	e92d 4ff0 	stmdb	sp!, {r4, r5, r6, r7, r8, r9, r10, r11, lr}
    1f44:	b087      	sub	sp, #28
    1f46:	4605      	mov	r5, r0
    1f48:	9101      	str	r1, [sp, #4]
    1f4a:	4616      	mov	r6, r2
    1f4c:	461c      	mov	r4, r3
    1f4e:	f7ff ff56 	bl	1dfe <_ZNK10__cxxabiv117__class_type_info11__do_upcastEPKS0_PKvRNS0_15__upcast_resultE>
    1f52:	2800      	cmp	r0, #0
    1f54:	d17d      	bne.n	2052 <_ZNK10__cxxabiv121__vmi_class_type_info11__do_upcastEPKNS_17__class_type_infoEPKvRNS1_15__upcast_resultE+0x112>
    1f56:	68a7      	ldr	r7, [r4, #8]
    1f58:	68eb      	ldr	r3, [r5, #12]
    1f5a:	06fa      	lsls	r2, r7, #27
    1f5c:	f103 0802 	add.w	r8, r3, #2
    1f60:	bf48      	it	mi
    1f62:	68af      	ldrmi	r7, [r5, #8]
    1f64:	f103 39ff 	add.w	r9, r3, #4294967295
    1f68:	eb05 08c8 	add.w	r8, r5, r8, lsl #3
    1f6c:	f1b9 3fff 	cmp.w	r9, #4294967295
    1f70:	d068      	beq.n	2044 <_ZNK10__cxxabiv121__vmi_class_type_info11__do_upcastEPKNS_17__class_type_infoEPKvRNS1_15__upcast_resultE+0x104>
    1f72:	eb05 02c9 	add.w	r2, r5, r9, lsl #3
    1f76:	6950      	ldr	r0, [r2, #20]
    1f78:	2100      	movs	r1, #0
    1f7a:	f3c0 0a40 	ubfx	r10, r0, #1, #1
    1f7e:	9102      	str	r1, [sp, #8]
    1f80:	f88d 100c 	strb.w	r1, [sp, #12]
    1f84:	9704      	str	r7, [sp, #16]
    1f86:	9105      	str	r1, [sp, #20]
    1f88:	f000 0b01 	and.w	r11, r0, #1
    1f8c:	f1ba 0f00 	cmp.w	r10, #0
    1f90:	d101      	bne.n	1f96 <_ZNK10__cxxabiv121__vmi_class_type_info11__do_upcastEPKNS_17__class_type_infoEPKvRNS1_15__upcast_resultE+0x56>
    1f92:	07fb      	lsls	r3, r7, #31
    1f94:	d551      	bpl.n	203a <_ZNK10__cxxabiv121__vmi_class_type_info11__do_upcastEPKNS_17__class_type_infoEPKvRNS1_15__upcast_resultE+0xfa>
    1f96:	b13e      	cbz	r6, 1fa8 <_ZNK10__cxxabiv121__vmi_class_type_info11__do_upcastEPKNS_17__class_type_infoEPKvRNS1_15__upcast_resultE+0x68>
    1f98:	1201      	asrs	r1, r0, #8
    1f9a:	f1bb 0f00 	cmp.w	r11, #0
    1f9e:	d001      	beq.n	1fa4 <_ZNK10__cxxabiv121__vmi_class_type_info11__do_upcastEPKNS_17__class_type_infoEPKvRNS1_15__upcast_resultE+0x64>
    1fa0:	6833      	ldr	r3, [r6, #0]
    1fa2:	5859      	ldr	r1, [r3, r1]
    1fa4:	1872      	adds	r2, r6, r1
    1fa6:	e000      	b.n	1faa <_ZNK10__cxxabiv121__vmi_class_type_info11__do_upcastEPKNS_17__class_type_infoEPKvRNS1_15__upcast_resultE+0x6a>
    1fa8:	4632      	mov	r2, r6
    1faa:	f858 0c08 	ldr.w	r0, [r8, #-8]
    1fae:	9901      	ldr	r1, [sp, #4]
    1fb0:	6803      	ldr	r3, [r0, #0]
    1fb2:	f8d3 c018 	ldr.w	r12, [r3, #24]
    1fb6:	ab02      	add	r3, sp, #8
    1fb8:	47e0      	blx	r12
    1fba:	2800      	cmp	r0, #0
    1fbc:	d03d      	beq.n	203a <_ZNK10__cxxabiv121__vmi_class_type_info11__do_upcastEPKNS_17__class_type_infoEPKvRNS1_15__upcast_resultE+0xfa>
    1fbe:	9a05      	ldr	r2, [sp, #20]
    1fc0:	2a08      	cmp	r2, #8
    1fc2:	d105      	bne.n	1fd0 <_ZNK10__cxxabiv121__vmi_class_type_info11__do_upcastEPKNS_17__class_type_infoEPKvRNS1_15__upcast_resultE+0x90>
    1fc4:	f1bb 0f00 	cmp.w	r11, #0
    1fc8:	d002      	beq.n	1fd0 <_ZNK10__cxxabiv121__vmi_class_type_info11__do_upcastEPKNS_17__class_type_infoEPKvRNS1_15__upcast_resultE+0x90>
    1fca:	f858 0c08 	ldr.w	r0, [r8, #-8]
    1fce:	9005      	str	r0, [sp, #20]
    1fd0:	f89d 100c 	ldrb.w	r1, [sp, #12]
    1fd4:	2903      	cmp	r1, #3
    1fd6:	d902      	bls.n	1fde <_ZNK10__cxxabiv121__vmi_class_type_info11__do_upcastEPKNS_17__class_type_infoEPKvRNS1_15__upcast_resultE+0x9e>
    1fd8:	f1ba 0f00 	cmp.w	r10, #0
    1fdc:	d03b      	beq.n	2056 <_ZNK10__cxxabiv121__vmi_class_type_info11__do_upcastEPKNS_17__class_type_infoEPKvRNS1_15__upcast_resultE+0x116>
    1fde:	68e1      	ldr	r1, [r4, #12]
    1fe0:	b9a9      	cbnz	r1, 200e <_ZNK10__cxxabiv121__vmi_class_type_info11__do_upcastEPKNS_17__class_type_infoEPKvRNS1_15__upcast_resultE+0xce>
    1fe2:	f10d 0e18 	add.w	lr, sp, #24
    1fe6:	e91e 000f 	ldmdb	lr, {r0, r1, r2, r3}
    1fea:	e884 000f 	stmia.w	r4, {r0, r1, r2, r3}
    1fee:	7923      	ldrb	r3, [r4, #4]
    1ff0:	2b03      	cmp	r3, #3
    1ff2:	d92e      	bls.n	2052 <_ZNK10__cxxabiv121__vmi_class_type_info11__do_upcastEPKNS_17__class_type_infoEPKvRNS1_15__upcast_resultE+0x112>
    1ff4:	0798      	lsls	r0, r3, #30
    1ff6:	d503      	bpl.n	2000 <_ZNK10__cxxabiv121__vmi_class_type_info11__do_upcastEPKNS_17__class_type_infoEPKvRNS1_15__upcast_resultE+0xc0>
    1ff8:	68aa      	ldr	r2, [r5, #8]
    1ffa:	f012 0f01 	tst.w	r2, #1
    1ffe:	e004      	b.n	200a <_ZNK10__cxxabiv121__vmi_class_type_info11__do_upcastEPKNS_17__class_type_infoEPKvRNS1_15__upcast_resultE+0xca>
    2000:	07d9      	lsls	r1, r3, #31
    2002:	d526      	bpl.n	2052 <_ZNK10__cxxabiv121__vmi_class_type_info11__do_upcastEPKNS_17__class_type_infoEPKvRNS1_15__upcast_resultE+0x112>
    2004:	68a8      	ldr	r0, [r5, #8]
    2006:	f010 0f02 	tst.w	r0, #2
    200a:	d116      	bne.n	203a <_ZNK10__cxxabiv121__vmi_class_type_info11__do_upcastEPKNS_17__class_type_infoEPKvRNS1_15__upcast_resultE+0xfa>
    200c:	e021      	b.n	2052 <_ZNK10__cxxabiv121__vmi_class_type_info11__do_upcastEPKNS_17__class_type_infoEPKvRNS1_15__upcast_resultE+0x112>
    200e:	6820      	ldr	r0, [r4, #0]
    2010:	9a02      	ldr	r2, [sp, #8]
    2012:	4290      	cmp	r0, r2
    2014:	d002      	beq.n	201c <_ZNK10__cxxabiv121__vmi_class_type_info11__do_upcastEPKNS_17__class_type_infoEPKvRNS1_15__upcast_resultE+0xdc>
    2016:	2200      	movs	r2, #0
    2018:	6022      	str	r2, [r4, #0]
    201a:	e018      	b.n	204e <_ZNK10__cxxabiv121__vmi_class_type_info11__do_upcastEPKNS_17__class_type_infoEPKvRNS1_15__upcast_resultE+0x10e>
    201c:	b938      	cbnz	r0, 202e <_ZNK10__cxxabiv121__vmi_class_type_info11__do_upcastEPKNS_17__class_type_infoEPKvRNS1_15__upcast_resultE+0xee>
    201e:	9805      	ldr	r0, [sp, #20]
    2020:	2808      	cmp	r0, #8
    2022:	d014      	beq.n	204e <_ZNK10__cxxabiv121__vmi_class_type_info11__do_upcastEPKNS_17__class_type_infoEPKvRNS1_15__upcast_resultE+0x10e>
    2024:	2908      	cmp	r1, #8
    2026:	d012      	beq.n	204e <_ZNK10__cxxabiv121__vmi_class_type_info11__do_upcastEPKNS_17__class_type_infoEPKvRNS1_15__upcast_resultE+0x10e>
    2028:	f000 f982 	bl	2330 <_ZNKSt9type_infoeqERKS_>
    202c:	b178      	cbz	r0, 204e <_ZNK10__cxxabiv121__vmi_class_type_info11__do_upcastEPKNS_17__class_type_infoEPKvRNS1_15__upcast_resultE+0x10e>
    202e:	7923      	ldrb	r3, [r4, #4]
    2030:	f89d 100c 	ldrb.w	r1, [sp, #12]
    2034:	ea41 0003 	orr.w	r0, r1, r3
    2038:	7120      	strb	r0, [r4, #4]
    203a:	f109 39ff 	add.w	r9, r9, #4294967295
    203e:	f1a8 0808 	sub.w	r8, r8, #8
    2042:	e793      	b.n	1f6c <_ZNK10__cxxabiv121__vmi_class_type_info11__do_upcastEPKNS_17__class_type_infoEPKvRNS1_15__upcast_resultE+0x2c>
    2044:	7920      	ldrb	r0, [r4, #4]
    2046:	3000      	adds	r0, #0
    2048:	bf18      	it	ne
    204a:	2001      	movne	r0, #1
    204c:	e008      	b.n	2060 <_ZNK10__cxxabiv121__vmi_class_type_info11__do_upcastEPKNS_17__class_type_infoEPKvRNS1_15__upcast_resultE+0x120>
    204e:	2102      	movs	r1, #2
    2050:	7121      	strb	r1, [r4, #4]
    2052:	2001      	movs	r0, #1
    2054:	e004      	b.n	2060 <_ZNK10__cxxabiv121__vmi_class_type_info11__do_upcastEPKNS_17__class_type_infoEPKvRNS1_15__upcast_resultE+0x120>
    2056:	f021 0302 	bic.w	r3, r1, #2
    205a:	f88d 300c 	strb.w	r3, [sp, #12]
    205e:	e7be      	b.n	1fde <_ZNK10__cxxabiv121__vmi_class_type_info11__do_upcastEPKNS_17__class_type_infoEPKvRNS1_15__upcast_resultE+0x9e>
    2060:	b007      	add	sp, #28
    2062:	e8bd 8ff0 	ldmia.w	sp!, {r4, r5, r6, r7, r8, r9, r10, r11, pc}

00002066 <_ZNK10__cxxabiv121__vmi_class_type_info12__do_dyncastEiNS_17__class_type_info10__sub_kindEPKS1_PKvS4_S6_RNS1_16__dyncast_resultE>:
    2066:	e92d 4ff0 	stmdb	sp!, {r4, r5, r6, r7, r8, r9, r10, r11, lr}
    206a:	b08f      	sub	sp, #60	; 0x3c
    206c:	9c1b      	ldr	r4, [sp, #108]	; 0x6c
    206e:	469a      	mov	r10, r3
    2070:	68a3      	ldr	r3, [r4, #8]
    2072:	4688      	mov	r8, r1
    2074:	06d9      	lsls	r1, r3, #27
    2076:	bf48      	it	mi
    2078:	6883      	ldrmi	r3, [r0, #8]
    207a:	f8dd 9068 	ldr.w	r9, [sp, #104]	; 0x68
    207e:	9e18      	ldr	r6, [sp, #96]	; 0x60
    2080:	bf48      	it	mi
    2082:	60a3      	strmi	r3, [r4, #8]
    2084:	454e      	cmp	r6, r9
    2086:	4683      	mov	r11, r0
    2088:	9205      	str	r2, [sp, #20]
    208a:	d107      	bne.n	209c <_ZNK10__cxxabiv121__vmi_class_type_info12__do_dyncastEiNS_17__class_type_info10__sub_kindEPKS1_PKvS4_S6_RNS1_16__dyncast_resultE+0x36>
    208c:	9919      	ldr	r1, [sp, #100]	; 0x64
    208e:	f000 f94f 	bl	2330 <_ZNKSt9type_infoeqERKS_>
    2092:	b118      	cbz	r0, 209c <_ZNK10__cxxabiv121__vmi_class_type_info12__do_dyncastEiNS_17__class_type_info10__sub_kindEPKS1_PKvS4_S6_RNS1_16__dyncast_resultE+0x36>
    2094:	9e05      	ldr	r6, [sp, #20]
    2096:	7166      	strb	r6, [r4, #5]
    2098:	2700      	movs	r7, #0
    209a:	e12f      	b.n	22fc <_ZNK10__cxxabiv121__vmi_class_type_info12__do_dyncastEiNS_17__class_type_info10__sub_kindEPKS1_PKvS4_S6_RNS1_16__dyncast_resultE+0x296>
    209c:	4658      	mov	r0, r11
    209e:	4651      	mov	r1, r10
    20a0:	f000 f946 	bl	2330 <_ZNKSt9type_infoeqERKS_>
    20a4:	b1b8      	cbz	r0, 20d6 <_ZNK10__cxxabiv121__vmi_class_type_info12__do_dyncastEiNS_17__class_type_info10__sub_kindEPKS1_PKvS4_S6_RNS1_16__dyncast_resultE+0x70>
    20a6:	9818      	ldr	r0, [sp, #96]	; 0x60
    20a8:	9e05      	ldr	r6, [sp, #20]
    20aa:	f1b8 0f00 	cmp.w	r8, #0
    20ae:	6020      	str	r0, [r4, #0]
    20b0:	7126      	strb	r6, [r4, #4]
    20b2:	db0a      	blt.n	20ca <_ZNK10__cxxabiv121__vmi_class_type_info12__do_dyncastEiNS_17__class_type_info10__sub_kindEPKS1_PKvS4_S6_RNS1_16__dyncast_resultE+0x64>
    20b4:	9e18      	ldr	r6, [sp, #96]	; 0x60
    20b6:	44b0      	add	r8, r6
    20b8:	45c1      	cmp	r9, r8
    20ba:	bf14      	ite	ne
    20bc:	f04f 0901 	movne.w	r9, #1
    20c0:	f04f 0906 	moveq.w	r9, #6
    20c4:	f884 9006 	strb.w	r9, [r4, #6]
    20c8:	e7e6      	b.n	2098 <_ZNK10__cxxabiv121__vmi_class_type_info12__do_dyncastEiNS_17__class_type_info10__sub_kindEPKS1_PKvS4_S6_RNS1_16__dyncast_resultE+0x32>
    20ca:	f118 0f02 	cmn.w	r8, #2
    20ce:	d1e3      	bne.n	2098 <_ZNK10__cxxabiv121__vmi_class_type_info12__do_dyncastEiNS_17__class_type_info10__sub_kindEPKS1_PKvS4_S6_RNS1_16__dyncast_resultE+0x32>
    20d0:	2201      	movs	r2, #1
    20d2:	71a2      	strb	r2, [r4, #6]
    20d4:	e7e0      	b.n	2098 <_ZNK10__cxxabiv121__vmi_class_type_info12__do_dyncastEiNS_17__class_type_info10__sub_kindEPKS1_PKvS4_S6_RNS1_16__dyncast_resultE+0x32>
    20d6:	f1b8 0f00 	cmp.w	r8, #0
    20da:	bfa6      	itte	ge
    20dc:	ebc8 0609 	rsbge	r6, r8, r9
    20e0:	9606      	strge	r6, [sp, #24]
    20e2:	9006      	strlt	r0, [sp, #24]
    20e4:	2700      	movs	r7, #0
    20e6:	2101      	movs	r1, #1
    20e8:	9709      	str	r7, [sp, #36]	; 0x24
    20ea:	9107      	str	r1, [sp, #28]
    20ec:	f8db 300c 	ldr.w	r3, [r11, #12]
    20f0:	1e5a      	subs	r2, r3, #1
    20f2:	9208      	str	r2, [sp, #32]
    20f4:	2b00      	cmp	r3, #0
    20f6:	f000 80b0 	beq.w	225a <_ZNK10__cxxabiv121__vmi_class_type_info12__do_dyncastEiNS_17__class_type_info10__sub_kindEPKS1_PKvS4_S6_RNS1_16__dyncast_resultE+0x1f4>
    20fa:	eb0b 03c3 	add.w	r3, r11, r3, lsl #3
    20fe:	68db      	ldr	r3, [r3, #12]
    2100:	68a5      	ldr	r5, [r4, #8]
    2102:	2600      	movs	r6, #0
    2104:	1219      	asrs	r1, r3, #8
    2106:	07da      	lsls	r2, r3, #31
    2108:	960b      	str	r6, [sp, #44]	; 0x2c
    210a:	f88d 6030 	strb.w	r6, [sp, #48]	; 0x30
    210e:	f88d 6031 	strb.w	r6, [sp, #49]	; 0x31
    2112:	f88d 6032 	strb.w	r6, [sp, #50]	; 0x32
    2116:	950d      	str	r5, [sp, #52]	; 0x34
    2118:	d506      	bpl.n	2128 <_ZNK10__cxxabiv121__vmi_class_type_info12__do_dyncastEiNS_17__class_type_info10__sub_kindEPKS1_PKvS4_S6_RNS1_16__dyncast_resultE+0xc2>
    211a:	9805      	ldr	r0, [sp, #20]
    211c:	9e18      	ldr	r6, [sp, #96]	; 0x60
    211e:	f040 0201 	orr.w	r2, r0, #1
    2122:	6830      	ldr	r0, [r6, #0]
    2124:	5841      	ldr	r1, [r0, r1]
    2126:	e000      	b.n	212a <_ZNK10__cxxabiv121__vmi_class_type_info12__do_dyncastEiNS_17__class_type_info10__sub_kindEPKS1_PKvS4_S6_RNS1_16__dyncast_resultE+0xc4>
    2128:	9a05      	ldr	r2, [sp, #20]
    212a:	9e18      	ldr	r6, [sp, #96]	; 0x60
    212c:	1871      	adds	r1, r6, r1
    212e:	9e06      	ldr	r6, [sp, #24]
    2130:	b136      	cbz	r6, 2140 <_ZNK10__cxxabiv121__vmi_class_type_info12__do_dyncastEiNS_17__class_type_info10__sub_kindEPKS1_PKvS4_S6_RNS1_16__dyncast_resultE+0xda>
    2132:	42b1      	cmp	r1, r6
    2134:	9e07      	ldr	r6, [sp, #28]
    2136:	bf94      	ite	ls
    2138:	2000      	movls	r0, #0
    213a:	2001      	movhi	r0, #1
    213c:	42b0      	cmp	r0, r6
    213e:	d07b      	beq.n	2238 <_ZNK10__cxxabiv121__vmi_class_type_info12__do_dyncastEiNS_17__class_type_info10__sub_kindEPKS1_PKvS4_S6_RNS1_16__dyncast_resultE+0x1d2>
    2140:	079b      	lsls	r3, r3, #30
    2142:	d407      	bmi.n	2154 <_ZNK10__cxxabiv121__vmi_class_type_info12__do_dyncastEiNS_17__class_type_info10__sub_kindEPKS1_PKvS4_S6_RNS1_16__dyncast_resultE+0xee>
    2144:	f118 0f02 	cmn.w	r8, #2
    2148:	d102      	bne.n	2150 <_ZNK10__cxxabiv121__vmi_class_type_info12__do_dyncastEiNS_17__class_type_info10__sub_kindEPKS1_PKvS4_S6_RNS1_16__dyncast_resultE+0xea>
    214a:	07ae      	lsls	r6, r5, #30
    214c:	f000 8083 	beq.w	2256 <_ZNK10__cxxabiv121__vmi_class_type_info12__do_dyncastEiNS_17__class_type_info10__sub_kindEPKS1_PKvS4_S6_RNS1_16__dyncast_resultE+0x1f0>
    2150:	f002 02fd 	and.w	r2, r2, #253	; 0xfd
    2154:	9d08      	ldr	r5, [sp, #32]
    2156:	ae0b      	add	r6, sp, #44	; 0x2c
    2158:	eb0b 03c5 	add.w	r3, r11, r5, lsl #3
    215c:	6918      	ldr	r0, [r3, #16]
    215e:	4653      	mov	r3, r10
    2160:	6805      	ldr	r5, [r0, #0]
    2162:	9100      	str	r1, [sp, #0]
    2164:	9919      	ldr	r1, [sp, #100]	; 0x64
    2166:	9603      	str	r6, [sp, #12]
    2168:	9101      	str	r1, [sp, #4]
    216a:	f8cd 9008 	str.w	r9, [sp, #8]
    216e:	69ed      	ldr	r5, [r5, #28]
    2170:	4641      	mov	r1, r8
    2172:	47a8      	blx	r5
    2174:	7963      	ldrb	r3, [r4, #5]
    2176:	f89d 2031 	ldrb.w	r2, [sp, #49]	; 0x31
    217a:	f89d 6032 	ldrb.w	r6, [sp, #50]	; 0x32
    217e:	4313      	orrs	r3, r2
    2180:	2e06      	cmp	r6, #6
    2182:	7163      	strb	r3, [r4, #5]
    2184:	d001      	beq.n	218a <_ZNK10__cxxabiv121__vmi_class_type_info12__do_dyncastEiNS_17__class_type_info10__sub_kindEPKS1_PKvS4_S6_RNS1_16__dyncast_resultE+0x124>
    2186:	2e02      	cmp	r6, #2
    2188:	d106      	bne.n	2198 <_ZNK10__cxxabiv121__vmi_class_type_info12__do_dyncastEiNS_17__class_type_info10__sub_kindEPKS1_PKvS4_S6_RNS1_16__dyncast_resultE+0x132>
    218a:	9f0b      	ldr	r7, [sp, #44]	; 0x2c
    218c:	f89d 1030 	ldrb.w	r1, [sp, #48]	; 0x30
    2190:	6027      	str	r7, [r4, #0]
    2192:	7121      	strb	r1, [r4, #4]
    2194:	71a6      	strb	r6, [r4, #6]
    2196:	e05c      	b.n	2252 <_ZNK10__cxxabiv121__vmi_class_type_info12__do_dyncastEiNS_17__class_type_info10__sub_kindEPKS1_PKvS4_S6_RNS1_16__dyncast_resultE+0x1ec>
    2198:	6822      	ldr	r2, [r4, #0]
    219a:	b977      	cbnz	r7, 21ba <_ZNK10__cxxabiv121__vmi_class_type_info12__do_dyncastEiNS_17__class_type_info10__sub_kindEPKS1_PKvS4_S6_RNS1_16__dyncast_resultE+0x154>
    219c:	b96a      	cbnz	r2, 21ba <_ZNK10__cxxabiv121__vmi_class_type_info12__do_dyncastEiNS_17__class_type_info10__sub_kindEPKS1_PKvS4_S6_RNS1_16__dyncast_resultE+0x154>
    219e:	9f0b      	ldr	r7, [sp, #44]	; 0x2c
    21a0:	f89d 1030 	ldrb.w	r1, [sp, #48]	; 0x30
    21a4:	6027      	str	r7, [r4, #0]
    21a6:	7121      	strb	r1, [r4, #4]
    21a8:	2f00      	cmp	r7, #0
    21aa:	d040      	beq.n	222e <_ZNK10__cxxabiv121__vmi_class_type_info12__do_dyncastEiNS_17__class_type_info10__sub_kindEPKS1_PKvS4_S6_RNS1_16__dyncast_resultE+0x1c8>
    21ac:	2b00      	cmp	r3, #0
    21ae:	d03e      	beq.n	222e <_ZNK10__cxxabiv121__vmi_class_type_info12__do_dyncastEiNS_17__class_type_info10__sub_kindEPKS1_PKvS4_S6_RNS1_16__dyncast_resultE+0x1c8>
    21b0:	f8db 3008 	ldr.w	r3, [r11, #8]
    21b4:	07da      	lsls	r2, r3, #31
    21b6:	d43a      	bmi.n	222e <_ZNK10__cxxabiv121__vmi_class_type_info12__do_dyncastEiNS_17__class_type_info10__sub_kindEPKS1_PKvS4_S6_RNS1_16__dyncast_resultE+0x1c8>
    21b8:	e04b      	b.n	2252 <_ZNK10__cxxabiv121__vmi_class_type_info12__do_dyncastEiNS_17__class_type_info10__sub_kindEPKS1_PKvS4_S6_RNS1_16__dyncast_resultE+0x1ec>
    21ba:	b15a      	cbz	r2, 21d4 <_ZNK10__cxxabiv121__vmi_class_type_info12__do_dyncastEiNS_17__class_type_info10__sub_kindEPKS1_PKvS4_S6_RNS1_16__dyncast_resultE+0x16e>
    21bc:	990b      	ldr	r1, [sp, #44]	; 0x2c
    21be:	428a      	cmp	r2, r1
    21c0:	d106      	bne.n	21d0 <_ZNK10__cxxabiv121__vmi_class_type_info12__do_dyncastEiNS_17__class_type_info10__sub_kindEPKS1_PKvS4_S6_RNS1_16__dyncast_resultE+0x16a>
    21c2:	7922      	ldrb	r2, [r4, #4]
    21c4:	f89d 1030 	ldrb.w	r1, [sp, #48]	; 0x30
    21c8:	ea41 0002 	orr.w	r0, r1, r2
    21cc:	7120      	strb	r0, [r4, #4]
    21ce:	e02d      	b.n	222c <_ZNK10__cxxabiv121__vmi_class_type_info12__do_dyncastEiNS_17__class_type_info10__sub_kindEPKS1_PKvS4_S6_RNS1_16__dyncast_resultE+0x1c6>
    21d0:	b919      	cbnz	r1, 21da <_ZNK10__cxxabiv121__vmi_class_type_info12__do_dyncastEiNS_17__class_type_info10__sub_kindEPKS1_PKvS4_S6_RNS1_16__dyncast_resultE+0x174>
    21d2:	b910      	cbnz	r0, 21da <_ZNK10__cxxabiv121__vmi_class_type_info12__do_dyncastEiNS_17__class_type_info10__sub_kindEPKS1_PKvS4_S6_RNS1_16__dyncast_resultE+0x174>
    21d4:	980b      	ldr	r0, [sp, #44]	; 0x2c
    21d6:	b348      	cbz	r0, 222c <_ZNK10__cxxabiv121__vmi_class_type_info12__do_dyncastEiNS_17__class_type_info10__sub_kindEPKS1_PKvS4_S6_RNS1_16__dyncast_resultE+0x1c6>
    21d8:	b347      	cbz	r7, 222c <_ZNK10__cxxabiv121__vmi_class_type_info12__do_dyncastEiNS_17__class_type_info10__sub_kindEPKS1_PKvS4_S6_RNS1_16__dyncast_resultE+0x1c6>
    21da:	2b03      	cmp	r3, #3
    21dc:	79a5      	ldrb	r5, [r4, #6]
    21de:	d904      	bls.n	21ea <_ZNK10__cxxabiv121__vmi_class_type_info12__do_dyncastEiNS_17__class_type_info10__sub_kindEPKS1_PKvS4_S6_RNS1_16__dyncast_resultE+0x184>
    21e0:	07db      	lsls	r3, r3, #31
    21e2:	d542      	bpl.n	226a <_ZNK10__cxxabiv121__vmi_class_type_info12__do_dyncastEiNS_17__class_type_info10__sub_kindEPKS1_PKvS4_S6_RNS1_16__dyncast_resultE+0x204>
    21e4:	68a3      	ldr	r3, [r4, #8]
    21e6:	0798      	lsls	r0, r3, #30
    21e8:	d53f      	bpl.n	226a <_ZNK10__cxxabiv121__vmi_class_type_info12__do_dyncastEiNS_17__class_type_info10__sub_kindEPKS1_PKvS4_S6_RNS1_16__dyncast_resultE+0x204>
    21ea:	b94d      	cbnz	r5, 2200 <_ZNK10__cxxabiv121__vmi_class_type_info12__do_dyncastEiNS_17__class_type_info10__sub_kindEPKS1_PKvS4_S6_RNS1_16__dyncast_resultE+0x19a>
    21ec:	2e03      	cmp	r6, #3
    21ee:	d848      	bhi.n	2282 <_ZNK10__cxxabiv121__vmi_class_type_info12__do_dyncastEiNS_17__class_type_info10__sub_kindEPKS1_PKvS4_S6_RNS1_16__dyncast_resultE+0x21c>
    21f0:	f1b8 0f00 	cmp.w	r8, #0
    21f4:	db59      	blt.n	22aa <_ZNK10__cxxabiv121__vmi_class_type_info12__do_dyncastEiNS_17__class_type_info10__sub_kindEPKS1_PKvS4_S6_RNS1_16__dyncast_resultE+0x244>
    21f6:	4442      	add	r2, r8
    21f8:	4591      	cmp	r9, r2
    21fa:	bf0c      	ite	eq
    21fc:	2506      	moveq	r5, #6
    21fe:	2501      	movne	r5, #1
    2200:	2e00      	cmp	r6, #0
    2202:	d045      	beq.n	2290 <_ZNK10__cxxabiv121__vmi_class_type_info12__do_dyncastEiNS_17__class_type_info10__sub_kindEPKS1_PKvS4_S6_RNS1_16__dyncast_resultE+0x22a>
    2204:	ea85 0106 	eor.w	r1, r5, r6
    2208:	b2ca      	uxtb	r2, r1
    220a:	2a03      	cmp	r2, #3
    220c:	d917      	bls.n	223e <_ZNK10__cxxabiv121__vmi_class_type_info12__do_dyncastEiNS_17__class_type_info10__sub_kindEPKS1_PKvS4_S6_RNS1_16__dyncast_resultE+0x1d8>
    220e:	2e03      	cmp	r6, #3
    2210:	d906      	bls.n	2220 <_ZNK10__cxxabiv121__vmi_class_type_info12__do_dyncastEiNS_17__class_type_info10__sub_kindEPKS1_PKvS4_S6_RNS1_16__dyncast_resultE+0x1ba>
    2212:	9d0b      	ldr	r5, [sp, #44]	; 0x2c
    2214:	f89d 3030 	ldrb.w	r3, [sp, #48]	; 0x30
    2218:	6025      	str	r5, [r4, #0]
    221a:	7123      	strb	r3, [r4, #4]
    221c:	4635      	mov	r5, r6
    221e:	2700      	movs	r7, #0
    2220:	07a9      	lsls	r1, r5, #30
    2222:	71a5      	strb	r5, [r4, #6]
    2224:	d42b      	bmi.n	227e <_ZNK10__cxxabiv121__vmi_class_type_info12__do_dyncastEiNS_17__class_type_info10__sub_kindEPKS1_PKvS4_S6_RNS1_16__dyncast_resultE+0x218>
    2226:	f015 0001 	ands.w	r0, r5, #1
    222a:	d012      	beq.n	2252 <_ZNK10__cxxabiv121__vmi_class_type_info12__do_dyncastEiNS_17__class_type_info10__sub_kindEPKS1_PKvS4_S6_RNS1_16__dyncast_resultE+0x1ec>
    222c:	4638      	mov	r0, r7
    222e:	7962      	ldrb	r2, [r4, #5]
    2230:	2a04      	cmp	r2, #4
    2232:	d00e      	beq.n	2252 <_ZNK10__cxxabiv121__vmi_class_type_info12__do_dyncastEiNS_17__class_type_info10__sub_kindEPKS1_PKvS4_S6_RNS1_16__dyncast_resultE+0x1ec>
    2234:	4607      	mov	r7, r0
    2236:	e00e      	b.n	2256 <_ZNK10__cxxabiv121__vmi_class_type_info12__do_dyncastEiNS_17__class_type_info10__sub_kindEPKS1_PKvS4_S6_RNS1_16__dyncast_resultE+0x1f0>
    2238:	2601      	movs	r6, #1
    223a:	9609      	str	r6, [sp, #36]	; 0x24
    223c:	e00b      	b.n	2256 <_ZNK10__cxxabiv121__vmi_class_type_info12__do_dyncastEiNS_17__class_type_info10__sub_kindEPKS1_PKvS4_S6_RNS1_16__dyncast_resultE+0x1f0>
    223e:	4035      	ands	r5, r6
    2240:	b2ed      	uxtb	r5, r5
    2242:	f04f 0700 	mov.w	r7, #0
    2246:	2d03      	cmp	r5, #3
    2248:	6027      	str	r7, [r4, #0]
    224a:	d915      	bls.n	2278 <_ZNK10__cxxabiv121__vmi_class_type_info12__do_dyncastEiNS_17__class_type_info10__sub_kindEPKS1_PKvS4_S6_RNS1_16__dyncast_resultE+0x212>
    224c:	2002      	movs	r0, #2
    224e:	71a0      	strb	r0, [r4, #6]
    2250:	2001      	movs	r0, #1
    2252:	4607      	mov	r7, r0
    2254:	e052      	b.n	22fc <_ZNK10__cxxabiv121__vmi_class_type_info12__do_dyncastEiNS_17__class_type_info10__sub_kindEPKS1_PKvS4_S6_RNS1_16__dyncast_resultE+0x296>
    2256:	9b08      	ldr	r3, [sp, #32]
    2258:	e74a      	b.n	20f0 <_ZNK10__cxxabiv121__vmi_class_type_info12__do_dyncastEiNS_17__class_type_info10__sub_kindEPKS1_PKvS4_S6_RNS1_16__dyncast_resultE+0x8a>
    225a:	9e09      	ldr	r6, [sp, #36]	; 0x24
    225c:	2e00      	cmp	r6, #0
    225e:	d04d      	beq.n	22fc <_ZNK10__cxxabiv121__vmi_class_type_info12__do_dyncastEiNS_17__class_type_info10__sub_kindEPKS1_PKvS4_S6_RNS1_16__dyncast_resultE+0x296>
    2260:	9e07      	ldr	r6, [sp, #28]
    2262:	2e00      	cmp	r6, #0
    2264:	d04a      	beq.n	22fc <_ZNK10__cxxabiv121__vmi_class_type_info12__do_dyncastEiNS_17__class_type_info10__sub_kindEPKS1_PKvS4_S6_RNS1_16__dyncast_resultE+0x296>
    2266:	9307      	str	r3, [sp, #28]
    2268:	e740      	b.n	20ec <_ZNK10__cxxabiv121__vmi_class_type_info12__do_dyncastEiNS_17__class_type_info10__sub_kindEPKS1_PKvS4_S6_RNS1_16__dyncast_resultE+0x86>
    226a:	2d00      	cmp	r5, #0
    226c:	bf08      	it	eq
    226e:	2501      	moveq	r5, #1
    2270:	2e00      	cmp	r6, #0
    2272:	bf08      	it	eq
    2274:	2601      	moveq	r6, #1
    2276:	e7c5      	b.n	2204 <_ZNK10__cxxabiv121__vmi_class_type_info12__do_dyncastEiNS_17__class_type_info10__sub_kindEPKS1_PKvS4_S6_RNS1_16__dyncast_resultE+0x19e>
    2278:	2001      	movs	r0, #1
    227a:	71a0      	strb	r0, [r4, #6]
    227c:	e7d7      	b.n	222e <_ZNK10__cxxabiv121__vmi_class_type_info12__do_dyncastEiNS_17__class_type_info10__sub_kindEPKS1_PKvS4_S6_RNS1_16__dyncast_resultE+0x1c8>
    227e:	2000      	movs	r0, #0
    2280:	e7e7      	b.n	2252 <_ZNK10__cxxabiv121__vmi_class_type_info12__do_dyncastEiNS_17__class_type_info10__sub_kindEPKS1_PKvS4_S6_RNS1_16__dyncast_resultE+0x1ec>
    2282:	07f1      	lsls	r1, r6, #31
    2284:	d50d      	bpl.n	22a2 <_ZNK10__cxxabiv121__vmi_class_type_info12__do_dyncastEiNS_17__class_type_info10__sub_kindEPKS1_PKvS4_S6_RNS1_16__dyncast_resultE+0x23c>
    2286:	f8db 5008 	ldr.w	r5, [r11, #8]
    228a:	07ab      	lsls	r3, r5, #30
    228c:	d509      	bpl.n	22a2 <_ZNK10__cxxabiv121__vmi_class_type_info12__do_dyncastEiNS_17__class_type_info10__sub_kindEPKS1_PKvS4_S6_RNS1_16__dyncast_resultE+0x23c>
    228e:	e7af      	b.n	21f0 <_ZNK10__cxxabiv121__vmi_class_type_info12__do_dyncastEiNS_17__class_type_info10__sub_kindEPKS1_PKvS4_S6_RNS1_16__dyncast_resultE+0x18a>
    2290:	2d03      	cmp	r5, #3
    2292:	d91a      	bls.n	22ca <_ZNK10__cxxabiv121__vmi_class_type_info12__do_dyncastEiNS_17__class_type_info10__sub_kindEPKS1_PKvS4_S6_RNS1_16__dyncast_resultE+0x264>
    2294:	07ee      	lsls	r6, r5, #31
    2296:	d506      	bpl.n	22a6 <_ZNK10__cxxabiv121__vmi_class_type_info12__do_dyncastEiNS_17__class_type_info10__sub_kindEPKS1_PKvS4_S6_RNS1_16__dyncast_resultE+0x240>
    2298:	f8db 6008 	ldr.w	r6, [r11, #8]
    229c:	07b0      	lsls	r0, r6, #30
    229e:	d502      	bpl.n	22a6 <_ZNK10__cxxabiv121__vmi_class_type_info12__do_dyncastEiNS_17__class_type_info10__sub_kindEPKS1_PKvS4_S6_RNS1_16__dyncast_resultE+0x240>
    22a0:	e013      	b.n	22ca <_ZNK10__cxxabiv121__vmi_class_type_info12__do_dyncastEiNS_17__class_type_info10__sub_kindEPKS1_PKvS4_S6_RNS1_16__dyncast_resultE+0x264>
    22a2:	2501      	movs	r5, #1
    22a4:	e7ae      	b.n	2204 <_ZNK10__cxxabiv121__vmi_class_type_info12__do_dyncastEiNS_17__class_type_info10__sub_kindEPKS1_PKvS4_S6_RNS1_16__dyncast_resultE+0x19e>
    22a6:	2601      	movs	r6, #1
    22a8:	e7ac      	b.n	2204 <_ZNK10__cxxabiv121__vmi_class_type_info12__do_dyncastEiNS_17__class_type_info10__sub_kindEPKS1_PKvS4_S6_RNS1_16__dyncast_resultE+0x19e>
    22aa:	f118 0f02 	cmn.w	r8, #2
    22ae:	d00a      	beq.n	22c6 <_ZNK10__cxxabiv121__vmi_class_type_info12__do_dyncastEiNS_17__class_type_info10__sub_kindEPKS1_PKvS4_S6_RNS1_16__dyncast_resultE+0x260>
    22b0:	f8da 1000 	ldr.w	r1, [r10]
    22b4:	f8cd 9000 	str.w	r9, [sp]
    22b8:	6a0d      	ldr	r5, [r1, #32]
    22ba:	4650      	mov	r0, r10
    22bc:	4641      	mov	r1, r8
    22be:	9b19      	ldr	r3, [sp, #100]	; 0x64
    22c0:	47a8      	blx	r5
    22c2:	4605      	mov	r5, r0
    22c4:	e79c      	b.n	2200 <_ZNK10__cxxabiv121__vmi_class_type_info12__do_dyncastEiNS_17__class_type_info10__sub_kindEPKS1_PKvS4_S6_RNS1_16__dyncast_resultE+0x19a>
    22c6:	2501      	movs	r5, #1
    22c8:	e79a      	b.n	2200 <_ZNK10__cxxabiv121__vmi_class_type_info12__do_dyncastEiNS_17__class_type_info10__sub_kindEPKS1_PKvS4_S6_RNS1_16__dyncast_resultE+0x19a>
    22ca:	f1b8 0f00 	cmp.w	r8, #0
    22ce:	9a0b      	ldr	r2, [sp, #44]	; 0x2c
    22d0:	db06      	blt.n	22e0 <_ZNK10__cxxabiv121__vmi_class_type_info12__do_dyncastEiNS_17__class_type_info10__sub_kindEPKS1_PKvS4_S6_RNS1_16__dyncast_resultE+0x27a>
    22d2:	eb02 0308 	add.w	r3, r2, r8
    22d6:	4599      	cmp	r9, r3
    22d8:	bf14      	ite	ne
    22da:	2601      	movne	r6, #1
    22dc:	2606      	moveq	r6, #6
    22de:	e791      	b.n	2204 <_ZNK10__cxxabiv121__vmi_class_type_info12__do_dyncastEiNS_17__class_type_info10__sub_kindEPKS1_PKvS4_S6_RNS1_16__dyncast_resultE+0x19e>
    22e0:	f118 0f02 	cmn.w	r8, #2
    22e4:	d0df      	beq.n	22a6 <_ZNK10__cxxabiv121__vmi_class_type_info12__do_dyncastEiNS_17__class_type_info10__sub_kindEPKS1_PKvS4_S6_RNS1_16__dyncast_resultE+0x240>
    22e6:	f8da 0000 	ldr.w	r0, [r10]
    22ea:	f8cd 9000 	str.w	r9, [sp]
    22ee:	6a06      	ldr	r6, [r0, #32]
    22f0:	4641      	mov	r1, r8
    22f2:	4650      	mov	r0, r10
    22f4:	9b19      	ldr	r3, [sp, #100]	; 0x64
    22f6:	47b0      	blx	r6
    22f8:	4606      	mov	r6, r0
    22fa:	e783      	b.n	2204 <_ZNK10__cxxabiv121__vmi_class_type_info12__do_dyncastEiNS_17__class_type_info10__sub_kindEPKS1_PKvS4_S6_RNS1_16__dyncast_resultE+0x19e>
    22fc:	4638      	mov	r0, r7
    22fe:	b00f      	add	sp, #60	; 0x3c
    2300:	e8bd 8ff0 	ldmia.w	sp!, {r4, r5, r6, r7, r8, r9, r10, r11, pc}

00002304 <_ZNSt9type_infoD1Ev>:
    2304:	4b01      	ldr	r3, [pc, #4]	; (230c <_ZNSt9type_infoD1Ev+0x8>)
    2306:	6003      	str	r3, [r0, #0]
    2308:	4770      	bx	lr
    230a:	bf00      	nop
    230c:	00008a28 	.word	0x00008a28

00002310 <_ZNKSt9type_info14__is_pointer_pEv>:
    2310:	2000      	movs	r0, #0
    2312:	4770      	bx	lr

00002314 <_ZNKSt9type_info15__is_function_pEv>:
    2314:	2000      	movs	r0, #0
    2316:	4770      	bx	lr

00002318 <_ZNKSt9type_info11__do_upcastEPKN10__cxxabiv117__class_type_infoEPPv>:
    2318:	2000      	movs	r0, #0
    231a:	4770      	bx	lr

0000231c <_ZNSt9type_infoD0Ev>:
    231c:	4b03      	ldr	r3, [pc, #12]	; (232c <_ZNSt9type_infoD0Ev+0x10>)
    231e:	b510      	push	{r4, lr}
    2320:	4604      	mov	r4, r0
    2322:	6003      	str	r3, [r0, #0]
    2324:	f7ff fd46 	bl	1db4 <_ZdlPv>
    2328:	4620      	mov	r0, r4
    232a:	bd10      	pop	{r4, pc}
    232c:	00008a28 	.word	0x00008a28

00002330 <_ZNKSt9type_infoeqERKS_>:
    2330:	4281      	cmp	r1, r0
    2332:	b508      	push	{r3, lr}
    2334:	d00e      	beq.n	2354 <_ZNKSt9type_infoeqERKS_+0x24>
    2336:	6840      	ldr	r0, [r0, #4]
    2338:	7803      	ldrb	r3, [r0, #0]
    233a:	2b2a      	cmp	r3, #42	; 0x2a
    233c:	d101      	bne.n	2342 <_ZNKSt9type_infoeqERKS_+0x12>
    233e:	2000      	movs	r0, #0
    2340:	bd08      	pop	{r3, pc}
    2342:	6849      	ldr	r1, [r1, #4]
    2344:	780a      	ldrb	r2, [r1, #0]
    2346:	2a2a      	cmp	r2, #42	; 0x2a
    2348:	bf08      	it	eq
    234a:	3101      	addeq	r1, #1
    234c:	f001 fd4b 	bl	3de6 <strcmp>
    2350:	2800      	cmp	r0, #0
    2352:	d1f4      	bne.n	233e <_ZNKSt9type_infoeqERKS_+0xe>
    2354:	2001      	movs	r0, #1
    2356:	bd08      	pop	{r3, pc}

00002358 <_ZNKSt9type_info10__do_catchEPKS_PPvj>:
    2358:	f7ff bfea 	b.w	2330 <_ZNKSt9type_infoeqERKS_>

0000235c <__aeabi_drsub>:
    235c:	f081 4100 	eor.w	r1, r1, #2147483648	; 0x80000000
    2360:	e002      	b.n	2368 <__adddf3>
    2362:	bf00      	nop

00002364 <__aeabi_dsub>:
    2364:	f083 4300 	eor.w	r3, r3, #2147483648	; 0x80000000

00002368 <__adddf3>:
    2368:	b530      	push	{r4, r5, lr}
    236a:	ea4f 0441 	mov.w	r4, r1, lsl #1
    236e:	ea4f 0543 	mov.w	r5, r3, lsl #1
    2372:	ea94 0f05 	teq	r4, r5
    2376:	bf08      	it	eq
    2378:	ea90 0f02 	teqeq	r0, r2
    237c:	bf1f      	itttt	ne
    237e:	ea54 0c00 	orrsne.w	r12, r4, r0
    2382:	ea55 0c02 	orrsne.w	r12, r5, r2
    2386:	ea7f 5c64 	mvnsne.w	r12, r4, asr #21
    238a:	ea7f 5c65 	mvnsne.w	r12, r5, asr #21
    238e:	f000 80e2 	beq.w	2556 <__adddf3+0x1ee>
    2392:	ea4f 5454 	mov.w	r4, r4, lsr #21
    2396:	ebd4 5555 	rsbs	r5, r4, r5, lsr #21
    239a:	bfb8      	it	lt
    239c:	426d      	neglt	r5, r5
    239e:	dd0c      	ble.n	23ba <__adddf3+0x52>
    23a0:	442c      	add	r4, r5
    23a2:	ea80 0202 	eor.w	r2, r0, r2
    23a6:	ea81 0303 	eor.w	r3, r1, r3
    23aa:	ea82 0000 	eor.w	r0, r2, r0
    23ae:	ea83 0101 	eor.w	r1, r3, r1
    23b2:	ea80 0202 	eor.w	r2, r0, r2
    23b6:	ea81 0303 	eor.w	r3, r1, r3
    23ba:	2d36      	cmp	r5, #54	; 0x36
    23bc:	bf88      	it	hi
    23be:	bd30      	pophi	{r4, r5, pc}
    23c0:	f011 4f00 	tst.w	r1, #2147483648	; 0x80000000
    23c4:	ea4f 3101 	mov.w	r1, r1, lsl #12
    23c8:	f44f 1c80 	mov.w	r12, #1048576	; 0x100000
    23cc:	ea4c 3111 	orr.w	r1, r12, r1, lsr #12
    23d0:	d002      	beq.n	23d8 <__adddf3+0x70>
    23d2:	4240      	negs	r0, r0
    23d4:	eb61 0141 	sbc.w	r1, r1, r1, lsl #1
    23d8:	f013 4f00 	tst.w	r3, #2147483648	; 0x80000000
    23dc:	ea4f 3303 	mov.w	r3, r3, lsl #12
    23e0:	ea4c 3313 	orr.w	r3, r12, r3, lsr #12
    23e4:	d002      	beq.n	23ec <__adddf3+0x84>
    23e6:	4252      	negs	r2, r2
    23e8:	eb63 0343 	sbc.w	r3, r3, r3, lsl #1
    23ec:	ea94 0f05 	teq	r4, r5
    23f0:	f000 80a7 	beq.w	2542 <__adddf3+0x1da>
    23f4:	f1a4 0401 	sub.w	r4, r4, #1
    23f8:	f1d5 0e20 	rsbs	lr, r5, #32
    23fc:	db0d      	blt.n	241a <__adddf3+0xb2>
    23fe:	fa02 fc0e 	lsl.w	r12, r2, lr
    2402:	fa22 f205 	lsr.w	r2, r2, r5
    2406:	1880      	adds	r0, r0, r2
    2408:	f141 0100 	adc.w	r1, r1, #0
    240c:	fa03 f20e 	lsl.w	r2, r3, lr
    2410:	1880      	adds	r0, r0, r2
    2412:	fa43 f305 	asr.w	r3, r3, r5
    2416:	4159      	adcs	r1, r3
    2418:	e00e      	b.n	2438 <__adddf3+0xd0>
    241a:	f1a5 0520 	sub.w	r5, r5, #32
    241e:	f10e 0e20 	add.w	lr, lr, #32
    2422:	2a01      	cmp	r2, #1
    2424:	fa03 fc0e 	lsl.w	r12, r3, lr
    2428:	bf28      	it	cs
    242a:	f04c 0c02 	orrcs.w	r12, r12, #2
    242e:	fa43 f305 	asr.w	r3, r3, r5
    2432:	18c0      	adds	r0, r0, r3
    2434:	eb51 71e3 	adcs.w	r1, r1, r3, asr #31
    2438:	f001 4500 	and.w	r5, r1, #2147483648	; 0x80000000
    243c:	d507      	bpl.n	244e <__adddf3+0xe6>
    243e:	f04f 0e00 	mov.w	lr, #0
    2442:	f1dc 0c00 	rsbs	r12, r12, #0
    2446:	eb7e 0000 	sbcs.w	r0, lr, r0
    244a:	eb6e 0101 	sbc.w	r1, lr, r1
    244e:	f5b1 1f80 	cmp.w	r1, #1048576	; 0x100000
    2452:	d31b      	bcc.n	248c <__adddf3+0x124>
    2454:	f5b1 1f00 	cmp.w	r1, #2097152	; 0x200000
    2458:	d30c      	bcc.n	2474 <__adddf3+0x10c>
    245a:	0849      	lsrs	r1, r1, #1
    245c:	ea5f 0030 	movs.w	r0, r0, rrx
    2460:	ea4f 0c3c 	mov.w	r12, r12, rrx
    2464:	f104 0401 	add.w	r4, r4, #1
    2468:	ea4f 5244 	mov.w	r2, r4, lsl #21
    246c:	f512 0f80 	cmn.w	r2, #4194304	; 0x400000
    2470:	f080 809a 	bcs.w	25a8 <__adddf3+0x240>
    2474:	f1bc 4f00 	cmp.w	r12, #2147483648	; 0x80000000
    2478:	bf08      	it	eq
    247a:	ea5f 0c50 	movseq.w	r12, r0, lsr #1
    247e:	f150 0000 	adcs.w	r0, r0, #0
    2482:	eb41 5104 	adc.w	r1, r1, r4, lsl #20
    2486:	ea41 0105 	orr.w	r1, r1, r5
    248a:	bd30      	pop	{r4, r5, pc}
    248c:	ea5f 0c4c 	movs.w	r12, r12, lsl #1
    2490:	4140      	adcs	r0, r0
    2492:	eb41 0101 	adc.w	r1, r1, r1
    2496:	f411 1f80 	tst.w	r1, #1048576	; 0x100000
    249a:	f1a4 0401 	sub.w	r4, r4, #1
    249e:	d1e9      	bne.n	2474 <__adddf3+0x10c>
    24a0:	f091 0f00 	teq	r1, #0
    24a4:	bf04      	itt	eq
    24a6:	4601      	moveq	r1, r0
    24a8:	2000      	moveq	r0, #0
    24aa:	fab1 f381 	clz	r3, r1
    24ae:	bf08      	it	eq
    24b0:	3320      	addeq	r3, #32
    24b2:	f1a3 030b 	sub.w	r3, r3, #11
    24b6:	f1b3 0220 	subs.w	r2, r3, #32
    24ba:	da0c      	bge.n	24d6 <__adddf3+0x16e>
    24bc:	320c      	adds	r2, #12
    24be:	dd08      	ble.n	24d2 <__adddf3+0x16a>
    24c0:	f102 0c14 	add.w	r12, r2, #20
    24c4:	f1c2 020c 	rsb	r2, r2, #12
    24c8:	fa01 f00c 	lsl.w	r0, r1, r12
    24cc:	fa21 f102 	lsr.w	r1, r1, r2
    24d0:	e00c      	b.n	24ec <__adddf3+0x184>
    24d2:	f102 0214 	add.w	r2, r2, #20
    24d6:	bfd8      	it	le
    24d8:	f1c2 0c20 	rsble	r12, r2, #32
    24dc:	fa01 f102 	lsl.w	r1, r1, r2
    24e0:	fa20 fc0c 	lsr.w	r12, r0, r12
    24e4:	bfdc      	itt	le
    24e6:	ea41 010c 	orrle.w	r1, r1, r12
    24ea:	4090      	lslle	r0, r2
    24ec:	1ae4      	subs	r4, r4, r3
    24ee:	bfa2      	ittt	ge
    24f0:	eb01 5104 	addge.w	r1, r1, r4, lsl #20
    24f4:	4329      	orrge	r1, r5
    24f6:	bd30      	popge	{r4, r5, pc}
    24f8:	ea6f 0404 	mvn.w	r4, r4
    24fc:	3c1f      	subs	r4, #31
    24fe:	da1c      	bge.n	253a <__adddf3+0x1d2>
    2500:	340c      	adds	r4, #12
    2502:	dc0e      	bgt.n	2522 <__adddf3+0x1ba>
    2504:	f104 0414 	add.w	r4, r4, #20
    2508:	f1c4 0220 	rsb	r2, r4, #32
    250c:	fa20 f004 	lsr.w	r0, r0, r4
    2510:	fa01 f302 	lsl.w	r3, r1, r2
    2514:	ea40 0003 	orr.w	r0, r0, r3
    2518:	fa21 f304 	lsr.w	r3, r1, r4
    251c:	ea45 0103 	orr.w	r1, r5, r3
    2520:	bd30      	pop	{r4, r5, pc}
    2522:	f1c4 040c 	rsb	r4, r4, #12
    2526:	f1c4 0220 	rsb	r2, r4, #32
    252a:	fa20 f002 	lsr.w	r0, r0, r2
    252e:	fa01 f304 	lsl.w	r3, r1, r4
    2532:	ea40 0003 	orr.w	r0, r0, r3
    2536:	4629      	mov	r1, r5
    2538:	bd30      	pop	{r4, r5, pc}
    253a:	fa21 f004 	lsr.w	r0, r1, r4
    253e:	4629      	mov	r1, r5
    2540:	bd30      	pop	{r4, r5, pc}
    2542:	f094 0f00 	teq	r4, #0
    2546:	f483 1380 	eor.w	r3, r3, #1048576	; 0x100000
    254a:	bf06      	itte	eq
    254c:	f481 1180 	eoreq.w	r1, r1, #1048576	; 0x100000
    2550:	3401      	addeq	r4, #1
    2552:	3d01      	subne	r5, #1
    2554:	e74e      	b.n	23f4 <__adddf3+0x8c>
    2556:	ea7f 5c64 	mvns.w	r12, r4, asr #21
    255a:	bf18      	it	ne
    255c:	ea7f 5c65 	mvnsne.w	r12, r5, asr #21
    2560:	d029      	beq.n	25b6 <__adddf3+0x24e>
    2562:	ea94 0f05 	teq	r4, r5
    2566:	bf08      	it	eq
    2568:	ea90 0f02 	teqeq	r0, r2
    256c:	d005      	beq.n	257a <__adddf3+0x212>
    256e:	ea54 0c00 	orrs.w	r12, r4, r0
    2572:	bf04      	itt	eq
    2574:	4619      	moveq	r1, r3
    2576:	4610      	moveq	r0, r2
    2578:	bd30      	pop	{r4, r5, pc}
    257a:	ea91 0f03 	teq	r1, r3
    257e:	bf1e      	ittt	ne
    2580:	2100      	movne	r1, #0
    2582:	2000      	movne	r0, #0
    2584:	bd30      	popne	{r4, r5, pc}
    2586:	ea5f 5c54 	movs.w	r12, r4, lsr #21
    258a:	d105      	bne.n	2598 <__adddf3+0x230>
    258c:	0040      	lsls	r0, r0, #1
    258e:	4149      	adcs	r1, r1
    2590:	bf28      	it	cs
    2592:	f041 4100 	orrcs.w	r1, r1, #2147483648	; 0x80000000
    2596:	bd30      	pop	{r4, r5, pc}
    2598:	f514 0480 	adds.w	r4, r4, #4194304	; 0x400000
    259c:	bf3c      	itt	cc
    259e:	f501 1180 	addcc.w	r1, r1, #1048576	; 0x100000
    25a2:	bd30      	popcc	{r4, r5, pc}
    25a4:	f001 4500 	and.w	r5, r1, #2147483648	; 0x80000000
    25a8:	f045 41fe 	orr.w	r1, r5, #2130706432	; 0x7f000000
    25ac:	f441 0170 	orr.w	r1, r1, #15728640	; 0xf00000
    25b0:	f04f 0000 	mov.w	r0, #0
    25b4:	bd30      	pop	{r4, r5, pc}
    25b6:	ea7f 5c64 	mvns.w	r12, r4, asr #21
    25ba:	bf1a      	itte	ne
    25bc:	4619      	movne	r1, r3
    25be:	4610      	movne	r0, r2
    25c0:	ea7f 5c65 	mvnseq.w	r12, r5, asr #21
    25c4:	bf1c      	itt	ne
    25c6:	460b      	movne	r3, r1
    25c8:	4602      	movne	r2, r0
    25ca:	ea50 3401 	orrs.w	r4, r0, r1, lsl #12
    25ce:	bf06      	itte	eq
    25d0:	ea52 3503 	orrseq.w	r5, r2, r3, lsl #12
    25d4:	ea91 0f03 	teqeq	r1, r3
    25d8:	f441 2100 	orrne.w	r1, r1, #524288	; 0x80000
    25dc:	bd30      	pop	{r4, r5, pc}
    25de:	bf00      	nop

000025e0 <__aeabi_ui2d>:
    25e0:	f090 0f00 	teq	r0, #0
    25e4:	bf04      	itt	eq
    25e6:	2100      	moveq	r1, #0
    25e8:	4770      	bxeq	lr
    25ea:	b530      	push	{r4, r5, lr}
    25ec:	f44f 6480 	mov.w	r4, #1024	; 0x400
    25f0:	f104 0432 	add.w	r4, r4, #50	; 0x32
    25f4:	f04f 0500 	mov.w	r5, #0
    25f8:	f04f 0100 	mov.w	r1, #0
    25fc:	e750      	b.n	24a0 <__adddf3+0x138>
    25fe:	bf00      	nop

00002600 <__aeabi_i2d>:
    2600:	f090 0f00 	teq	r0, #0
    2604:	bf04      	itt	eq
    2606:	2100      	moveq	r1, #0
    2608:	4770      	bxeq	lr
    260a:	b530      	push	{r4, r5, lr}
    260c:	f44f 6480 	mov.w	r4, #1024	; 0x400
    2610:	f104 0432 	add.w	r4, r4, #50	; 0x32
    2614:	f010 4500 	ands.w	r5, r0, #2147483648	; 0x80000000
    2618:	bf48      	it	mi
    261a:	4240      	negmi	r0, r0
    261c:	f04f 0100 	mov.w	r1, #0
    2620:	e73e      	b.n	24a0 <__adddf3+0x138>
    2622:	bf00      	nop

00002624 <__aeabi_f2d>:
    2624:	0042      	lsls	r2, r0, #1
    2626:	ea4f 01e2 	mov.w	r1, r2, asr #3
    262a:	ea4f 0131 	mov.w	r1, r1, rrx
    262e:	ea4f 7002 	mov.w	r0, r2, lsl #28
    2632:	bf1f      	itttt	ne
    2634:	f012 437f 	andsne.w	r3, r2, #4278190080	; 0xff000000
    2638:	f093 4f7f 	teqne	r3, #4278190080	; 0xff000000
    263c:	f081 5160 	eorne.w	r1, r1, #939524096	; 0x38000000
    2640:	4770      	bxne	lr
    2642:	f092 0f00 	teq	r2, #0
    2646:	bf14      	ite	ne
    2648:	f093 4f7f 	teqne	r3, #4278190080	; 0xff000000
    264c:	4770      	bxeq	lr
    264e:	b530      	push	{r4, r5, lr}
    2650:	f44f 7460 	mov.w	r4, #896	; 0x380
    2654:	f001 4500 	and.w	r5, r1, #2147483648	; 0x80000000
    2658:	f021 4100 	bic.w	r1, r1, #2147483648	; 0x80000000
    265c:	e720      	b.n	24a0 <__adddf3+0x138>
    265e:	bf00      	nop

00002660 <__aeabi_ul2d>:
    2660:	ea50 0201 	orrs.w	r2, r0, r1
    2664:	bf08      	it	eq
    2666:	4770      	bxeq	lr
    2668:	b530      	push	{r4, r5, lr}
    266a:	f04f 0500 	mov.w	r5, #0
    266e:	e00a      	b.n	2686 <__aeabi_l2d+0x16>

00002670 <__aeabi_l2d>:
    2670:	ea50 0201 	orrs.w	r2, r0, r1
    2674:	bf08      	it	eq
    2676:	4770      	bxeq	lr
    2678:	b530      	push	{r4, r5, lr}
    267a:	f011 4500 	ands.w	r5, r1, #2147483648	; 0x80000000
    267e:	d502      	bpl.n	2686 <__aeabi_l2d+0x16>
    2680:	4240      	negs	r0, r0
    2682:	eb61 0141 	sbc.w	r1, r1, r1, lsl #1
    2686:	f44f 6480 	mov.w	r4, #1024	; 0x400
    268a:	f104 0432 	add.w	r4, r4, #50	; 0x32
    268e:	ea5f 5c91 	movs.w	r12, r1, lsr #22
    2692:	f43f aedc 	beq.w	244e <__adddf3+0xe6>
    2696:	f04f 0203 	mov.w	r2, #3
    269a:	ea5f 0cdc 	movs.w	r12, r12, lsr #3
    269e:	bf18      	it	ne
    26a0:	3203      	addne	r2, #3
    26a2:	ea5f 0cdc 	movs.w	r12, r12, lsr #3
    26a6:	bf18      	it	ne
    26a8:	3203      	addne	r2, #3
    26aa:	eb02 02dc 	add.w	r2, r2, r12, lsr #3
    26ae:	f1c2 0320 	rsb	r3, r2, #32
    26b2:	fa00 fc03 	lsl.w	r12, r0, r3
    26b6:	fa20 f002 	lsr.w	r0, r0, r2
    26ba:	fa01 fe03 	lsl.w	lr, r1, r3
    26be:	ea40 000e 	orr.w	r0, r0, lr
    26c2:	fa21 f102 	lsr.w	r1, r1, r2
    26c6:	4414      	add	r4, r2
    26c8:	e6c1      	b.n	244e <__adddf3+0xe6>
    26ca:	bf00      	nop

000026cc <__aeabi_dmul>:
    26cc:	b570      	push	{r4, r5, r6, lr}
    26ce:	f04f 0cff 	mov.w	r12, #255	; 0xff
    26d2:	f44c 6ce0 	orr.w	r12, r12, #1792	; 0x700
    26d6:	ea1c 5411 	ands.w	r4, r12, r1, lsr #20
    26da:	bf1d      	ittte	ne
    26dc:	ea1c 5513 	andsne.w	r5, r12, r3, lsr #20
    26e0:	ea94 0f0c 	teqne	r4, r12
    26e4:	ea95 0f0c 	teqne	r5, r12
    26e8:	f000 f8de 	bleq	28a8 <__aeabi_dmul+0x1dc>
    26ec:	442c      	add	r4, r5
    26ee:	ea81 0603 	eor.w	r6, r1, r3
    26f2:	ea21 514c 	bic.w	r1, r1, r12, lsl #21
    26f6:	ea23 534c 	bic.w	r3, r3, r12, lsl #21
    26fa:	ea50 3501 	orrs.w	r5, r0, r1, lsl #12
    26fe:	bf18      	it	ne
    2700:	ea52 3503 	orrsne.w	r5, r2, r3, lsl #12
    2704:	f441 1180 	orr.w	r1, r1, #1048576	; 0x100000
    2708:	f443 1380 	orr.w	r3, r3, #1048576	; 0x100000
    270c:	d038      	beq.n	2780 <__aeabi_dmul+0xb4>
    270e:	fba0 ce02 	umull	r12, lr, r0, r2
    2712:	f04f 0500 	mov.w	r5, #0
    2716:	fbe1 e502 	umlal	lr, r5, r1, r2
    271a:	f006 4200 	and.w	r2, r6, #2147483648	; 0x80000000
    271e:	fbe0 e503 	umlal	lr, r5, r0, r3
    2722:	f04f 0600 	mov.w	r6, #0
    2726:	fbe1 5603 	umlal	r5, r6, r1, r3
    272a:	f09c 0f00 	teq	r12, #0
    272e:	bf18      	it	ne
    2730:	f04e 0e01 	orrne.w	lr, lr, #1
    2734:	f1a4 04ff 	sub.w	r4, r4, #255	; 0xff
    2738:	f5b6 7f00 	cmp.w	r6, #512	; 0x200
    273c:	f564 7440 	sbc.w	r4, r4, #768	; 0x300
    2740:	d204      	bcs.n	274c <__aeabi_dmul+0x80>
    2742:	ea5f 0e4e 	movs.w	lr, lr, lsl #1
    2746:	416d      	adcs	r5, r5
    2748:	eb46 0606 	adc.w	r6, r6, r6
    274c:	ea42 21c6 	orr.w	r1, r2, r6, lsl #11
    2750:	ea41 5155 	orr.w	r1, r1, r5, lsr #21
    2754:	ea4f 20c5 	mov.w	r0, r5, lsl #11
    2758:	ea40 505e 	orr.w	r0, r0, lr, lsr #21
    275c:	ea4f 2ece 	mov.w	lr, lr, lsl #11
    2760:	f1b4 0cfd 	subs.w	r12, r4, #253	; 0xfd
    2764:	bf88      	it	hi
    2766:	f5bc 6fe0 	cmphi.w	r12, #1792	; 0x700
    276a:	d81e      	bhi.n	27aa <__aeabi_dmul+0xde>
    276c:	f1be 4f00 	cmp.w	lr, #2147483648	; 0x80000000
    2770:	bf08      	it	eq
    2772:	ea5f 0e50 	movseq.w	lr, r0, lsr #1
    2776:	f150 0000 	adcs.w	r0, r0, #0
    277a:	eb41 5104 	adc.w	r1, r1, r4, lsl #20
    277e:	bd70      	pop	{r4, r5, r6, pc}
    2780:	f006 4600 	and.w	r6, r6, #2147483648	; 0x80000000
    2784:	ea46 0101 	orr.w	r1, r6, r1
    2788:	ea40 0002 	orr.w	r0, r0, r2
    278c:	ea81 0103 	eor.w	r1, r1, r3
    2790:	ebb4 045c 	subs.w	r4, r4, r12, lsr #1
    2794:	bfc2      	ittt	gt
    2796:	ebd4 050c 	rsbsgt	r5, r4, r12
    279a:	ea41 5104 	orrgt.w	r1, r1, r4, lsl #20
    279e:	bd70      	popgt	{r4, r5, r6, pc}
    27a0:	f441 1180 	orr.w	r1, r1, #1048576	; 0x100000
    27a4:	f04f 0e00 	mov.w	lr, #0
    27a8:	3c01      	subs	r4, #1
    27aa:	f300 80ab 	bgt.w	2904 <__aeabi_dmul+0x238>
    27ae:	f114 0f36 	cmn.w	r4, #54	; 0x36
    27b2:	bfde      	ittt	le
    27b4:	2000      	movle	r0, #0
    27b6:	f001 4100 	andle.w	r1, r1, #2147483648	; 0x80000000
    27ba:	bd70      	pople	{r4, r5, r6, pc}
    27bc:	f1c4 0400 	rsb	r4, r4, #0
    27c0:	3c20      	subs	r4, #32
    27c2:	da35      	bge.n	2830 <__aeabi_dmul+0x164>
    27c4:	340c      	adds	r4, #12
    27c6:	dc1b      	bgt.n	2800 <__aeabi_dmul+0x134>
    27c8:	f104 0414 	add.w	r4, r4, #20
    27cc:	f1c4 0520 	rsb	r5, r4, #32
    27d0:	fa00 f305 	lsl.w	r3, r0, r5
    27d4:	fa20 f004 	lsr.w	r0, r0, r4
    27d8:	fa01 f205 	lsl.w	r2, r1, r5
    27dc:	ea40 0002 	orr.w	r0, r0, r2
    27e0:	f001 4200 	and.w	r2, r1, #2147483648	; 0x80000000
    27e4:	f021 4100 	bic.w	r1, r1, #2147483648	; 0x80000000
    27e8:	eb10 70d3 	adds.w	r0, r0, r3, lsr #31
    27ec:	fa21 f604 	lsr.w	r6, r1, r4
    27f0:	eb42 0106 	adc.w	r1, r2, r6
    27f4:	ea5e 0e43 	orrs.w	lr, lr, r3, lsl #1
    27f8:	bf08      	it	eq
    27fa:	ea20 70d3 	biceq.w	r0, r0, r3, lsr #31
    27fe:	bd70      	pop	{r4, r5, r6, pc}
    2800:	f1c4 040c 	rsb	r4, r4, #12
    2804:	f1c4 0520 	rsb	r5, r4, #32
    2808:	fa00 f304 	lsl.w	r3, r0, r4
    280c:	fa20 f005 	lsr.w	r0, r0, r5
    2810:	fa01 f204 	lsl.w	r2, r1, r4
    2814:	ea40 0002 	orr.w	r0, r0, r2
    2818:	f001 4100 	and.w	r1, r1, #2147483648	; 0x80000000
    281c:	eb10 70d3 	adds.w	r0, r0, r3, lsr #31
    2820:	f141 0100 	adc.w	r1, r1, #0
    2824:	ea5e 0e43 	orrs.w	lr, lr, r3, lsl #1
    2828:	bf08      	it	eq
    282a:	ea20 70d3 	biceq.w	r0, r0, r3, lsr #31
    282e:	bd70      	pop	{r4, r5, r6, pc}
    2830:	f1c4 0520 	rsb	r5, r4, #32
    2834:	fa00 f205 	lsl.w	r2, r0, r5
    2838:	ea4e 0e02 	orr.w	lr, lr, r2
    283c:	fa20 f304 	lsr.w	r3, r0, r4
    2840:	fa01 f205 	lsl.w	r2, r1, r5
    2844:	ea43 0302 	orr.w	r3, r3, r2
    2848:	fa21 f004 	lsr.w	r0, r1, r4
    284c:	f001 4100 	and.w	r1, r1, #2147483648	; 0x80000000
    2850:	fa21 f204 	lsr.w	r2, r1, r4
    2854:	ea20 0002 	bic.w	r0, r0, r2
    2858:	eb00 70d3 	add.w	r0, r0, r3, lsr #31
    285c:	ea5e 0e43 	orrs.w	lr, lr, r3, lsl #1
    2860:	bf08      	it	eq
    2862:	ea20 70d3 	biceq.w	r0, r0, r3, lsr #31
    2866:	bd70      	pop	{r4, r5, r6, pc}
    2868:	f094 0f00 	teq	r4, #0
    286c:	d10f      	bne.n	288e <__aeabi_dmul+0x1c2>
    286e:	f001 4600 	and.w	r6, r1, #2147483648	; 0x80000000
    2872:	0040      	lsls	r0, r0, #1
    2874:	eb41 0101 	adc.w	r1, r1, r1
    2878:	f411 1f80 	tst.w	r1, #1048576	; 0x100000
    287c:	bf08      	it	eq
    287e:	3c01      	subeq	r4, #1
    2880:	d0f7      	beq.n	2872 <__aeabi_dmul+0x1a6>
    2882:	ea41 0106 	orr.w	r1, r1, r6
    2886:	f095 0f00 	teq	r5, #0
    288a:	bf18      	it	ne
    288c:	4770      	bxne	lr
    288e:	f003 4600 	and.w	r6, r3, #2147483648	; 0x80000000
    2892:	0052      	lsls	r2, r2, #1
    2894:	eb43 0303 	adc.w	r3, r3, r3
    2898:	f413 1f80 	tst.w	r3, #1048576	; 0x100000
    289c:	bf08      	it	eq
    289e:	3d01      	subeq	r5, #1
    28a0:	d0f7      	beq.n	2892 <__aeabi_dmul+0x1c6>
    28a2:	ea43 0306 	orr.w	r3, r3, r6
    28a6:	4770      	bx	lr
    28a8:	ea94 0f0c 	teq	r4, r12
    28ac:	ea0c 5513 	and.w	r5, r12, r3, lsr #20
    28b0:	bf18      	it	ne
    28b2:	ea95 0f0c 	teqne	r5, r12
    28b6:	d00c      	beq.n	28d2 <__aeabi_dmul+0x206>
    28b8:	ea50 0641 	orrs.w	r6, r0, r1, lsl #1
    28bc:	bf18      	it	ne
    28be:	ea52 0643 	orrsne.w	r6, r2, r3, lsl #1
    28c2:	d1d1      	bne.n	2868 <__aeabi_dmul+0x19c>
    28c4:	ea81 0103 	eor.w	r1, r1, r3
    28c8:	f001 4100 	and.w	r1, r1, #2147483648	; 0x80000000
    28cc:	f04f 0000 	mov.w	r0, #0
    28d0:	bd70      	pop	{r4, r5, r6, pc}
    28d2:	ea50 0641 	orrs.w	r6, r0, r1, lsl #1
    28d6:	bf06      	itte	eq
    28d8:	4610      	moveq	r0, r2
    28da:	4619      	moveq	r1, r3
    28dc:	ea52 0643 	orrsne.w	r6, r2, r3, lsl #1
    28e0:	d019      	beq.n	2916 <__aeabi_dmul+0x24a>
    28e2:	ea94 0f0c 	teq	r4, r12
    28e6:	d102      	bne.n	28ee <__aeabi_dmul+0x222>
    28e8:	ea50 3601 	orrs.w	r6, r0, r1, lsl #12
    28ec:	d113      	bne.n	2916 <__aeabi_dmul+0x24a>
    28ee:	ea95 0f0c 	teq	r5, r12
    28f2:	d105      	bne.n	2900 <__aeabi_dmul+0x234>
    28f4:	ea52 3603 	orrs.w	r6, r2, r3, lsl #12
    28f8:	bf1c      	itt	ne
    28fa:	4610      	movne	r0, r2
    28fc:	4619      	movne	r1, r3
    28fe:	d10a      	bne.n	2916 <__aeabi_dmul+0x24a>
    2900:	ea81 0103 	eor.w	r1, r1, r3
    2904:	f001 4100 	and.w	r1, r1, #2147483648	; 0x80000000
    2908:	f041 41fe 	orr.w	r1, r1, #2130706432	; 0x7f000000
    290c:	f441 0170 	orr.w	r1, r1, #15728640	; 0xf00000
    2910:	f04f 0000 	mov.w	r0, #0
    2914:	bd70      	pop	{r4, r5, r6, pc}
    2916:	f041 41fe 	orr.w	r1, r1, #2130706432	; 0x7f000000
    291a:	f441 0178 	orr.w	r1, r1, #16252928	; 0xf80000
    291e:	bd70      	pop	{r4, r5, r6, pc}

00002920 <__aeabi_ddiv>:
    2920:	b570      	push	{r4, r5, r6, lr}
    2922:	f04f 0cff 	mov.w	r12, #255	; 0xff
    2926:	f44c 6ce0 	orr.w	r12, r12, #1792	; 0x700
    292a:	ea1c 5411 	ands.w	r4, r12, r1, lsr #20
    292e:	bf1d      	ittte	ne
    2930:	ea1c 5513 	andsne.w	r5, r12, r3, lsr #20
    2934:	ea94 0f0c 	teqne	r4, r12
    2938:	ea95 0f0c 	teqne	r5, r12
    293c:	f000 f8a7 	bleq	2a8e <__aeabi_ddiv+0x16e>
    2940:	eba4 0405 	sub.w	r4, r4, r5
    2944:	ea81 0e03 	eor.w	lr, r1, r3
    2948:	ea52 3503 	orrs.w	r5, r2, r3, lsl #12
    294c:	ea4f 3101 	mov.w	r1, r1, lsl #12
    2950:	f000 8088 	beq.w	2a64 <__aeabi_ddiv+0x144>
    2954:	ea4f 3303 	mov.w	r3, r3, lsl #12
    2958:	f04f 5580 	mov.w	r5, #268435456	; 0x10000000
    295c:	ea45 1313 	orr.w	r3, r5, r3, lsr #4
    2960:	ea43 6312 	orr.w	r3, r3, r2, lsr #24
    2964:	ea4f 2202 	mov.w	r2, r2, lsl #8
    2968:	ea45 1511 	orr.w	r5, r5, r1, lsr #4
    296c:	ea45 6510 	orr.w	r5, r5, r0, lsr #24
    2970:	ea4f 2600 	mov.w	r6, r0, lsl #8
    2974:	f00e 4100 	and.w	r1, lr, #2147483648	; 0x80000000
    2978:	429d      	cmp	r5, r3
    297a:	bf08      	it	eq
    297c:	4296      	cmpeq	r6, r2
    297e:	f144 04fd 	adc.w	r4, r4, #253	; 0xfd
    2982:	f504 7440 	add.w	r4, r4, #768	; 0x300
    2986:	d202      	bcs.n	298e <__aeabi_ddiv+0x6e>
    2988:	085b      	lsrs	r3, r3, #1
    298a:	ea4f 0232 	mov.w	r2, r2, rrx
    298e:	1ab6      	subs	r6, r6, r2
    2990:	eb65 0503 	sbc.w	r5, r5, r3
    2994:	085b      	lsrs	r3, r3, #1
    2996:	ea4f 0232 	mov.w	r2, r2, rrx
    299a:	f44f 1080 	mov.w	r0, #1048576	; 0x100000
    299e:	f44f 2c00 	mov.w	r12, #524288	; 0x80000
    29a2:	ebb6 0e02 	subs.w	lr, r6, r2
    29a6:	eb75 0e03 	sbcs.w	lr, r5, r3
    29aa:	bf22      	ittt	cs
    29ac:	1ab6      	subcs	r6, r6, r2
    29ae:	4675      	movcs	r5, lr
    29b0:	ea40 000c 	orrcs.w	r0, r0, r12
    29b4:	085b      	lsrs	r3, r3, #1
    29b6:	ea4f 0232 	mov.w	r2, r2, rrx
    29ba:	ebb6 0e02 	subs.w	lr, r6, r2
    29be:	eb75 0e03 	sbcs.w	lr, r5, r3
    29c2:	bf22      	ittt	cs
    29c4:	1ab6      	subcs	r6, r6, r2
    29c6:	4675      	movcs	r5, lr
    29c8:	ea40 005c 	orrcs.w	r0, r0, r12, lsr #1
    29cc:	085b      	lsrs	r3, r3, #1
    29ce:	ea4f 0232 	mov.w	r2, r2, rrx
    29d2:	ebb6 0e02 	subs.w	lr, r6, r2
    29d6:	eb75 0e03 	sbcs.w	lr, r5, r3
    29da:	bf22      	ittt	cs
    29dc:	1ab6      	subcs	r6, r6, r2
    29de:	4675      	movcs	r5, lr
    29e0:	ea40 009c 	orrcs.w	r0, r0, r12, lsr #2
    29e4:	085b      	lsrs	r3, r3, #1
    29e6:	ea4f 0232 	mov.w	r2, r2, rrx
    29ea:	ebb6 0e02 	subs.w	lr, r6, r2
    29ee:	eb75 0e03 	sbcs.w	lr, r5, r3
    29f2:	bf22      	ittt	cs
    29f4:	1ab6      	subcs	r6, r6, r2
    29f6:	4675      	movcs	r5, lr
    29f8:	ea40 00dc 	orrcs.w	r0, r0, r12, lsr #3
    29fc:	ea55 0e06 	orrs.w	lr, r5, r6
    2a00:	d018      	beq.n	2a34 <__aeabi_ddiv+0x114>
    2a02:	ea4f 1505 	mov.w	r5, r5, lsl #4
    2a06:	ea45 7516 	orr.w	r5, r5, r6, lsr #28
    2a0a:	ea4f 1606 	mov.w	r6, r6, lsl #4
    2a0e:	ea4f 03c3 	mov.w	r3, r3, lsl #3
    2a12:	ea43 7352 	orr.w	r3, r3, r2, lsr #29
    2a16:	ea4f 02c2 	mov.w	r2, r2, lsl #3
    2a1a:	ea5f 1c1c 	movs.w	r12, r12, lsr #4
    2a1e:	d1c0      	bne.n	29a2 <__aeabi_ddiv+0x82>
    2a20:	f411 1f80 	tst.w	r1, #1048576	; 0x100000
    2a24:	d10b      	bne.n	2a3e <__aeabi_ddiv+0x11e>
    2a26:	ea41 0100 	orr.w	r1, r1, r0
    2a2a:	f04f 0000 	mov.w	r0, #0
    2a2e:	f04f 4c00 	mov.w	r12, #2147483648	; 0x80000000
    2a32:	e7b6      	b.n	29a2 <__aeabi_ddiv+0x82>
    2a34:	f411 1f80 	tst.w	r1, #1048576	; 0x100000
    2a38:	bf04      	itt	eq
    2a3a:	4301      	orreq	r1, r0
    2a3c:	2000      	moveq	r0, #0
    2a3e:	f1b4 0cfd 	subs.w	r12, r4, #253	; 0xfd
    2a42:	bf88      	it	hi
    2a44:	f5bc 6fe0 	cmphi.w	r12, #1792	; 0x700
    2a48:	f63f aeaf 	bhi.w	27aa <__aeabi_dmul+0xde>
    2a4c:	ebb5 0c03 	subs.w	r12, r5, r3
    2a50:	bf04      	itt	eq
    2a52:	ebb6 0c02 	subseq.w	r12, r6, r2
    2a56:	ea5f 0c50 	movseq.w	r12, r0, lsr #1
    2a5a:	f150 0000 	adcs.w	r0, r0, #0
    2a5e:	eb41 5104 	adc.w	r1, r1, r4, lsl #20
    2a62:	bd70      	pop	{r4, r5, r6, pc}
    2a64:	f00e 4e00 	and.w	lr, lr, #2147483648	; 0x80000000
    2a68:	ea4e 3111 	orr.w	r1, lr, r1, lsr #12
    2a6c:	eb14 045c 	adds.w	r4, r4, r12, lsr #1
    2a70:	bfc2      	ittt	gt
    2a72:	ebd4 050c 	rsbsgt	r5, r4, r12
    2a76:	ea41 5104 	orrgt.w	r1, r1, r4, lsl #20
    2a7a:	bd70      	popgt	{r4, r5, r6, pc}
    2a7c:	f441 1180 	orr.w	r1, r1, #1048576	; 0x100000
    2a80:	f04f 0e00 	mov.w	lr, #0
    2a84:	3c01      	subs	r4, #1
    2a86:	e690      	b.n	27aa <__aeabi_dmul+0xde>
    2a88:	ea45 0e06 	orr.w	lr, r5, r6
    2a8c:	e68d      	b.n	27aa <__aeabi_dmul+0xde>
    2a8e:	ea0c 5513 	and.w	r5, r12, r3, lsr #20
    2a92:	ea94 0f0c 	teq	r4, r12
    2a96:	bf08      	it	eq
    2a98:	ea95 0f0c 	teqeq	r5, r12
    2a9c:	f43f af3b 	beq.w	2916 <__aeabi_dmul+0x24a>
    2aa0:	ea94 0f0c 	teq	r4, r12
    2aa4:	d10a      	bne.n	2abc <__aeabi_ddiv+0x19c>
    2aa6:	ea50 3401 	orrs.w	r4, r0, r1, lsl #12
    2aaa:	f47f af34 	bne.w	2916 <__aeabi_dmul+0x24a>
    2aae:	ea95 0f0c 	teq	r5, r12
    2ab2:	f47f af25 	bne.w	2900 <__aeabi_dmul+0x234>
    2ab6:	4610      	mov	r0, r2
    2ab8:	4619      	mov	r1, r3
    2aba:	e72c      	b.n	2916 <__aeabi_dmul+0x24a>
    2abc:	ea95 0f0c 	teq	r5, r12
    2ac0:	d106      	bne.n	2ad0 <__aeabi_ddiv+0x1b0>
    2ac2:	ea52 3503 	orrs.w	r5, r2, r3, lsl #12
    2ac6:	f43f aefd 	beq.w	28c4 <__aeabi_dmul+0x1f8>
    2aca:	4610      	mov	r0, r2
    2acc:	4619      	mov	r1, r3
    2ace:	e722      	b.n	2916 <__aeabi_dmul+0x24a>
    2ad0:	ea50 0641 	orrs.w	r6, r0, r1, lsl #1
    2ad4:	bf18      	it	ne
    2ad6:	ea52 0643 	orrsne.w	r6, r2, r3, lsl #1
    2ada:	f47f aec5 	bne.w	2868 <__aeabi_dmul+0x19c>
    2ade:	ea50 0441 	orrs.w	r4, r0, r1, lsl #1
    2ae2:	f47f af0d 	bne.w	2900 <__aeabi_dmul+0x234>
    2ae6:	ea52 0543 	orrs.w	r5, r2, r3, lsl #1
    2aea:	f47f aeeb 	bne.w	28c4 <__aeabi_dmul+0x1f8>
    2aee:	e712      	b.n	2916 <__aeabi_dmul+0x24a>

00002af0 <__gedf2>:
    2af0:	f04f 3cff 	mov.w	r12, #4294967295
    2af4:	e006      	b.n	2b04 <__cmpdf2+0x4>
    2af6:	bf00      	nop

00002af8 <__ledf2>:
    2af8:	f04f 0c01 	mov.w	r12, #1
    2afc:	e002      	b.n	2b04 <__cmpdf2+0x4>
    2afe:	bf00      	nop

00002b00 <__cmpdf2>:
    2b00:	f04f 0c01 	mov.w	r12, #1
    2b04:	f84d cd04 	str.w	r12, [sp, #-4]!
    2b08:	ea4f 0c41 	mov.w	r12, r1, lsl #1
    2b0c:	ea7f 5c6c 	mvns.w	r12, r12, asr #21
    2b10:	ea4f 0c43 	mov.w	r12, r3, lsl #1
    2b14:	bf18      	it	ne
    2b16:	ea7f 5c6c 	mvnsne.w	r12, r12, asr #21
    2b1a:	d01b      	beq.n	2b54 <__cmpdf2+0x54>
    2b1c:	b001      	add	sp, #4
    2b1e:	ea50 0c41 	orrs.w	r12, r0, r1, lsl #1
    2b22:	bf0c      	ite	eq
    2b24:	ea52 0c43 	orrseq.w	r12, r2, r3, lsl #1
    2b28:	ea91 0f03 	teqne	r1, r3
    2b2c:	bf02      	ittt	eq
    2b2e:	ea90 0f02 	teqeq	r0, r2
    2b32:	2000      	moveq	r0, #0
    2b34:	4770      	bxeq	lr
    2b36:	f110 0f00 	cmn.w	r0, #0
    2b3a:	ea91 0f03 	teq	r1, r3
    2b3e:	bf58      	it	pl
    2b40:	4299      	cmppl	r1, r3
    2b42:	bf08      	it	eq
    2b44:	4290      	cmpeq	r0, r2
    2b46:	bf2c      	ite	cs
    2b48:	17d8      	asrcs	r0, r3, #31
    2b4a:	ea6f 70e3 	mvncc.w	r0, r3, asr #31
    2b4e:	f040 0001 	orr.w	r0, r0, #1
    2b52:	4770      	bx	lr
    2b54:	ea4f 0c41 	mov.w	r12, r1, lsl #1
    2b58:	ea7f 5c6c 	mvns.w	r12, r12, asr #21
    2b5c:	d102      	bne.n	2b64 <__cmpdf2+0x64>
    2b5e:	ea50 3c01 	orrs.w	r12, r0, r1, lsl #12
    2b62:	d107      	bne.n	2b74 <__cmpdf2+0x74>
    2b64:	ea4f 0c43 	mov.w	r12, r3, lsl #1
    2b68:	ea7f 5c6c 	mvns.w	r12, r12, asr #21
    2b6c:	d1d6      	bne.n	2b1c <__cmpdf2+0x1c>
    2b6e:	ea52 3c03 	orrs.w	r12, r2, r3, lsl #12
    2b72:	d0d3      	beq.n	2b1c <__cmpdf2+0x1c>
    2b74:	f85d 0b04 	ldr.w	r0, [sp], #4
    2b78:	4770      	bx	lr
    2b7a:	bf00      	nop

00002b7c <__aeabi_cdrcmple>:
    2b7c:	4684      	mov	r12, r0
    2b7e:	4610      	mov	r0, r2
    2b80:	4662      	mov	r2, r12
    2b82:	468c      	mov	r12, r1
    2b84:	4619      	mov	r1, r3
    2b86:	4663      	mov	r3, r12
    2b88:	e000      	b.n	2b8c <__aeabi_cdcmpeq>
    2b8a:	bf00      	nop

00002b8c <__aeabi_cdcmpeq>:
    2b8c:	b501      	push	{r0, lr}
    2b8e:	f7ff ffb7 	bl	2b00 <__cmpdf2>
    2b92:	2800      	cmp	r0, #0
    2b94:	bf48      	it	mi
    2b96:	f110 0f00 	cmnmi.w	r0, #0
    2b9a:	bd01      	pop	{r0, pc}

00002b9c <__aeabi_dcmpeq>:
    2b9c:	f84d ed08 	str.w	lr, [sp, #-8]!
    2ba0:	f7ff fff4 	bl	2b8c <__aeabi_cdcmpeq>
    2ba4:	bf0c      	ite	eq
    2ba6:	2001      	moveq	r0, #1
    2ba8:	2000      	movne	r0, #0
    2baa:	f85d fb08 	ldr.w	pc, [sp], #8
    2bae:	bf00      	nop

00002bb0 <__aeabi_dcmplt>:
    2bb0:	f84d ed08 	str.w	lr, [sp, #-8]!
    2bb4:	f7ff ffea 	bl	2b8c <__aeabi_cdcmpeq>
    2bb8:	bf34      	ite	cc
    2bba:	2001      	movcc	r0, #1
    2bbc:	2000      	movcs	r0, #0
    2bbe:	f85d fb08 	ldr.w	pc, [sp], #8
    2bc2:	bf00      	nop

00002bc4 <__aeabi_dcmple>:
    2bc4:	f84d ed08 	str.w	lr, [sp, #-8]!
    2bc8:	f7ff ffe0 	bl	2b8c <__aeabi_cdcmpeq>
    2bcc:	bf94      	ite	ls
    2bce:	2001      	movls	r0, #1
    2bd0:	2000      	movhi	r0, #0
    2bd2:	f85d fb08 	ldr.w	pc, [sp], #8
    2bd6:	bf00      	nop

00002bd8 <__aeabi_dcmpge>:
    2bd8:	f84d ed08 	str.w	lr, [sp, #-8]!
    2bdc:	f7ff ffce 	bl	2b7c <__aeabi_cdrcmple>
    2be0:	bf94      	ite	ls
    2be2:	2001      	movls	r0, #1
    2be4:	2000      	movhi	r0, #0
    2be6:	f85d fb08 	ldr.w	pc, [sp], #8
    2bea:	bf00      	nop

00002bec <__aeabi_dcmpgt>:
    2bec:	f84d ed08 	str.w	lr, [sp, #-8]!
    2bf0:	f7ff ffc4 	bl	2b7c <__aeabi_cdrcmple>
    2bf4:	bf34      	ite	cc
    2bf6:	2001      	movcc	r0, #1
    2bf8:	2000      	movcs	r0, #0
    2bfa:	f85d fb08 	ldr.w	pc, [sp], #8
    2bfe:	bf00      	nop

00002c00 <__aeabi_d2iz>:
    2c00:	ea4f 0241 	mov.w	r2, r1, lsl #1
    2c04:	f512 1200 	adds.w	r2, r2, #2097152	; 0x200000
    2c08:	d215      	bcs.n	2c36 <__aeabi_d2iz+0x36>
    2c0a:	d511      	bpl.n	2c30 <__aeabi_d2iz+0x30>
    2c0c:	f46f 7378 	mvn.w	r3, #992	; 0x3e0
    2c10:	ebb3 5262 	subs.w	r2, r3, r2, asr #21
    2c14:	d912      	bls.n	2c3c <__aeabi_d2iz+0x3c>
    2c16:	ea4f 23c1 	mov.w	r3, r1, lsl #11
    2c1a:	f043 4300 	orr.w	r3, r3, #2147483648	; 0x80000000
    2c1e:	ea43 5350 	orr.w	r3, r3, r0, lsr #21
    2c22:	f011 4f00 	tst.w	r1, #2147483648	; 0x80000000
    2c26:	fa23 f002 	lsr.w	r0, r3, r2
    2c2a:	bf18      	it	ne
    2c2c:	4240      	negne	r0, r0
    2c2e:	4770      	bx	lr
    2c30:	f04f 0000 	mov.w	r0, #0
    2c34:	4770      	bx	lr
    2c36:	ea50 3001 	orrs.w	r0, r0, r1, lsl #12
    2c3a:	d105      	bne.n	2c48 <__aeabi_d2iz+0x48>
    2c3c:	f011 4000 	ands.w	r0, r1, #2147483648	; 0x80000000
    2c40:	bf08      	it	eq
    2c42:	f06f 4000 	mvneq.w	r0, #2147483648	; 0x80000000
    2c46:	4770      	bx	lr
    2c48:	f04f 0000 	mov.w	r0, #0
    2c4c:	4770      	bx	lr
    2c4e:	bf00      	nop

00002c50 <__aeabi_d2f>:
    2c50:	ea4f 0241 	mov.w	r2, r1, lsl #1
    2c54:	f1b2 43e0 	subs.w	r3, r2, #1879048192	; 0x70000000
    2c58:	bf24      	itt	cs
    2c5a:	f5b3 1c00 	subscs.w	r12, r3, #2097152	; 0x200000
    2c5e:	f1dc 5cfe 	rsbscs	r12, r12, #532676608	; 0x1fc00000
    2c62:	d90d      	bls.n	2c80 <__aeabi_d2f+0x30>
    2c64:	f001 4c00 	and.w	r12, r1, #2147483648	; 0x80000000
    2c68:	ea4f 02c0 	mov.w	r2, r0, lsl #3
    2c6c:	ea4c 7050 	orr.w	r0, r12, r0, lsr #29
    2c70:	f1b2 4f00 	cmp.w	r2, #2147483648	; 0x80000000
    2c74:	eb40 0083 	adc.w	r0, r0, r3, lsl #2
    2c78:	bf08      	it	eq
    2c7a:	f020 0001 	biceq.w	r0, r0, #1
    2c7e:	4770      	bx	lr
    2c80:	f011 4f80 	tst.w	r1, #1073741824	; 0x40000000
    2c84:	d121      	bne.n	2cca <__aeabi_d2f+0x7a>
    2c86:	f113 7238 	adds.w	r2, r3, #48234496	; 0x2e00000
    2c8a:	bfbc      	itt	lt
    2c8c:	f001 4000 	andlt.w	r0, r1, #2147483648	; 0x80000000
    2c90:	4770      	bxlt	lr
    2c92:	f441 1180 	orr.w	r1, r1, #1048576	; 0x100000
    2c96:	ea4f 5252 	mov.w	r2, r2, lsr #21
    2c9a:	f1c2 0218 	rsb	r2, r2, #24
    2c9e:	f1c2 0c20 	rsb	r12, r2, #32
    2ca2:	fa10 f30c 	lsls.w	r3, r0, r12
    2ca6:	fa20 f002 	lsr.w	r0, r0, r2
    2caa:	bf18      	it	ne
    2cac:	f040 0001 	orrne.w	r0, r0, #1
    2cb0:	ea4f 23c1 	mov.w	r3, r1, lsl #11
    2cb4:	ea4f 23d3 	mov.w	r3, r3, lsr #11
    2cb8:	fa03 fc0c 	lsl.w	r12, r3, r12
    2cbc:	ea40 000c 	orr.w	r0, r0, r12
    2cc0:	fa23 f302 	lsr.w	r3, r3, r2
    2cc4:	ea4f 0343 	mov.w	r3, r3, lsl #1
    2cc8:	e7cc      	b.n	2c64 <__aeabi_d2f+0x14>
    2cca:	ea7f 5362 	mvns.w	r3, r2, asr #21
    2cce:	d107      	bne.n	2ce0 <__aeabi_d2f+0x90>
    2cd0:	ea50 3301 	orrs.w	r3, r0, r1, lsl #12
    2cd4:	bf1e      	ittt	ne
    2cd6:	f04f 40fe 	movne.w	r0, #2130706432	; 0x7f000000
    2cda:	f440 0040 	orrne.w	r0, r0, #12582912	; 0xc00000
    2cde:	4770      	bxne	lr
    2ce0:	f001 4000 	and.w	r0, r1, #2147483648	; 0x80000000
    2ce4:	f040 40fe 	orr.w	r0, r0, #2130706432	; 0x7f000000
    2ce8:	f440 0000 	orr.w	r0, r0, #8388608	; 0x800000
    2cec:	4770      	bx	lr
    2cee:	bf00      	nop

00002cf0 <__aeabi_frsub>:
    2cf0:	f080 4000 	eor.w	r0, r0, #2147483648	; 0x80000000
    2cf4:	e002      	b.n	2cfc <__addsf3>
    2cf6:	bf00      	nop

00002cf8 <__aeabi_fsub>:
    2cf8:	f081 4100 	eor.w	r1, r1, #2147483648	; 0x80000000

00002cfc <__addsf3>:
    2cfc:	0042      	lsls	r2, r0, #1
    2cfe:	bf1f      	itttt	ne
    2d00:	ea5f 0341 	movsne.w	r3, r1, lsl #1
    2d04:	ea92 0f03 	teqne	r2, r3
    2d08:	ea7f 6c22 	mvnsne.w	r12, r2, asr #24
    2d0c:	ea7f 6c23 	mvnsne.w	r12, r3, asr #24
    2d10:	d06a      	beq.n	2de8 <__addsf3+0xec>
    2d12:	ea4f 6212 	mov.w	r2, r2, lsr #24
    2d16:	ebd2 6313 	rsbs	r3, r2, r3, lsr #24
    2d1a:	bfc1      	itttt	gt
    2d1c:	18d2      	addgt	r2, r2, r3
    2d1e:	4041      	eorgt	r1, r0
    2d20:	4048      	eorgt	r0, r1
    2d22:	4041      	eorgt	r1, r0
    2d24:	bfb8      	it	lt
    2d26:	425b      	neglt	r3, r3
    2d28:	2b19      	cmp	r3, #25
    2d2a:	bf88      	it	hi
    2d2c:	4770      	bxhi	lr
    2d2e:	f010 4f00 	tst.w	r0, #2147483648	; 0x80000000
    2d32:	f440 0000 	orr.w	r0, r0, #8388608	; 0x800000
    2d36:	f020 407f 	bic.w	r0, r0, #4278190080	; 0xff000000
    2d3a:	bf18      	it	ne
    2d3c:	4240      	negne	r0, r0
    2d3e:	f011 4f00 	tst.w	r1, #2147483648	; 0x80000000
    2d42:	f441 0100 	orr.w	r1, r1, #8388608	; 0x800000
    2d46:	f021 417f 	bic.w	r1, r1, #4278190080	; 0xff000000
    2d4a:	bf18      	it	ne
    2d4c:	4249      	negne	r1, r1
    2d4e:	ea92 0f03 	teq	r2, r3
    2d52:	d03f      	beq.n	2dd4 <__addsf3+0xd8>
    2d54:	f1a2 0201 	sub.w	r2, r2, #1
    2d58:	fa41 fc03 	asr.w	r12, r1, r3
    2d5c:	eb10 000c 	adds.w	r0, r0, r12
    2d60:	f1c3 0320 	rsb	r3, r3, #32
    2d64:	fa01 f103 	lsl.w	r1, r1, r3
    2d68:	f000 4300 	and.w	r3, r0, #2147483648	; 0x80000000
    2d6c:	d502      	bpl.n	2d74 <__addsf3+0x78>
    2d6e:	4249      	negs	r1, r1
    2d70:	eb60 0040 	sbc.w	r0, r0, r0, lsl #1
    2d74:	f5b0 0f00 	cmp.w	r0, #8388608	; 0x800000
    2d78:	d313      	bcc.n	2da2 <__addsf3+0xa6>
    2d7a:	f1b0 7f80 	cmp.w	r0, #16777216	; 0x1000000
    2d7e:	d306      	bcc.n	2d8e <__addsf3+0x92>
    2d80:	0840      	lsrs	r0, r0, #1
    2d82:	ea4f 0131 	mov.w	r1, r1, rrx
    2d86:	f102 0201 	add.w	r2, r2, #1
    2d8a:	2afe      	cmp	r2, #254	; 0xfe
    2d8c:	d251      	bcs.n	2e32 <__addsf3+0x136>
    2d8e:	f1b1 4f00 	cmp.w	r1, #2147483648	; 0x80000000
    2d92:	eb40 50c2 	adc.w	r0, r0, r2, lsl #23
    2d96:	bf08      	it	eq
    2d98:	f020 0001 	biceq.w	r0, r0, #1
    2d9c:	ea40 0003 	orr.w	r0, r0, r3
    2da0:	4770      	bx	lr
    2da2:	0049      	lsls	r1, r1, #1
    2da4:	eb40 0000 	adc.w	r0, r0, r0
    2da8:	f410 0f00 	tst.w	r0, #8388608	; 0x800000
    2dac:	f1a2 0201 	sub.w	r2, r2, #1
    2db0:	d1ed      	bne.n	2d8e <__addsf3+0x92>
    2db2:	fab0 fc80 	clz	r12, r0
    2db6:	f1ac 0c08 	sub.w	r12, r12, #8
    2dba:	ebb2 020c 	subs.w	r2, r2, r12
    2dbe:	fa00 f00c 	lsl.w	r0, r0, r12
    2dc2:	bfaa      	itet	ge
    2dc4:	eb00 50c2 	addge.w	r0, r0, r2, lsl #23
    2dc8:	4252      	neglt	r2, r2
    2dca:	4318      	orrge	r0, r3
    2dcc:	bfbc      	itt	lt
    2dce:	40d0      	lsrlt	r0, r2
    2dd0:	4318      	orrlt	r0, r3
    2dd2:	4770      	bx	lr
    2dd4:	f092 0f00 	teq	r2, #0
    2dd8:	f481 0100 	eor.w	r1, r1, #8388608	; 0x800000
    2ddc:	bf06      	itte	eq
    2dde:	f480 0000 	eoreq.w	r0, r0, #8388608	; 0x800000
    2de2:	3201      	addeq	r2, #1
    2de4:	3b01      	subne	r3, #1
    2de6:	e7b5      	b.n	2d54 <__addsf3+0x58>
    2de8:	ea4f 0341 	mov.w	r3, r1, lsl #1
    2dec:	ea7f 6c22 	mvns.w	r12, r2, asr #24
    2df0:	bf18      	it	ne
    2df2:	ea7f 6c23 	mvnsne.w	r12, r3, asr #24
    2df6:	d021      	beq.n	2e3c <__addsf3+0x140>
    2df8:	ea92 0f03 	teq	r2, r3
    2dfc:	d004      	beq.n	2e08 <__addsf3+0x10c>
    2dfe:	f092 0f00 	teq	r2, #0
    2e02:	bf08      	it	eq
    2e04:	4608      	moveq	r0, r1
    2e06:	4770      	bx	lr
    2e08:	ea90 0f01 	teq	r0, r1
    2e0c:	bf1c      	itt	ne
    2e0e:	2000      	movne	r0, #0
    2e10:	4770      	bxne	lr
    2e12:	f012 4f7f 	tst.w	r2, #4278190080	; 0xff000000
    2e16:	d104      	bne.n	2e22 <__addsf3+0x126>
    2e18:	0040      	lsls	r0, r0, #1
    2e1a:	bf28      	it	cs
    2e1c:	f040 4000 	orrcs.w	r0, r0, #2147483648	; 0x80000000
    2e20:	4770      	bx	lr
    2e22:	f112 7200 	adds.w	r2, r2, #33554432	; 0x2000000
    2e26:	bf3c      	itt	cc
    2e28:	f500 0000 	addcc.w	r0, r0, #8388608	; 0x800000
    2e2c:	4770      	bxcc	lr
    2e2e:	f000 4300 	and.w	r3, r0, #2147483648	; 0x80000000
    2e32:	f043 40fe 	orr.w	r0, r3, #2130706432	; 0x7f000000
    2e36:	f440 0000 	orr.w	r0, r0, #8388608	; 0x800000
    2e3a:	4770      	bx	lr
    2e3c:	ea7f 6222 	mvns.w	r2, r2, asr #24
    2e40:	bf16      	itet	ne
    2e42:	4608      	movne	r0, r1
    2e44:	ea7f 6323 	mvnseq.w	r3, r3, asr #24
    2e48:	4601      	movne	r1, r0
    2e4a:	0242      	lsls	r2, r0, #9
    2e4c:	bf06      	itte	eq
    2e4e:	ea5f 2341 	movseq.w	r3, r1, lsl #9
    2e52:	ea90 0f01 	teqeq	r0, r1
    2e56:	f440 0080 	orrne.w	r0, r0, #4194304	; 0x400000
    2e5a:	4770      	bx	lr

00002e5c <__aeabi_ui2f>:
    2e5c:	f04f 0300 	mov.w	r3, #0
    2e60:	e004      	b.n	2e6c <__aeabi_i2f+0x8>
    2e62:	bf00      	nop

00002e64 <__aeabi_i2f>:
    2e64:	f010 4300 	ands.w	r3, r0, #2147483648	; 0x80000000
    2e68:	bf48      	it	mi
    2e6a:	4240      	negmi	r0, r0
    2e6c:	ea5f 0c00 	movs.w	r12, r0
    2e70:	bf08      	it	eq
    2e72:	4770      	bxeq	lr
    2e74:	f043 4396 	orr.w	r3, r3, #1258291200	; 0x4b000000
    2e78:	4601      	mov	r1, r0
    2e7a:	f04f 0000 	mov.w	r0, #0
    2e7e:	e01c      	b.n	2eba <__aeabi_l2f+0x2a>

00002e80 <__aeabi_ul2f>:
    2e80:	ea50 0201 	orrs.w	r2, r0, r1
    2e84:	bf08      	it	eq
    2e86:	4770      	bxeq	lr
    2e88:	f04f 0300 	mov.w	r3, #0
    2e8c:	e00a      	b.n	2ea4 <__aeabi_l2f+0x14>
    2e8e:	bf00      	nop

00002e90 <__aeabi_l2f>:
    2e90:	ea50 0201 	orrs.w	r2, r0, r1
    2e94:	bf08      	it	eq
    2e96:	4770      	bxeq	lr
    2e98:	f011 4300 	ands.w	r3, r1, #2147483648	; 0x80000000
    2e9c:	d502      	bpl.n	2ea4 <__aeabi_l2f+0x14>
    2e9e:	4240      	negs	r0, r0
    2ea0:	eb61 0141 	sbc.w	r1, r1, r1, lsl #1
    2ea4:	ea5f 0c01 	movs.w	r12, r1
    2ea8:	bf02      	ittt	eq
    2eaa:	4684      	moveq	r12, r0
    2eac:	4601      	moveq	r1, r0
    2eae:	2000      	moveq	r0, #0
    2eb0:	f043 43b6 	orr.w	r3, r3, #1526726656	; 0x5b000000
    2eb4:	bf08      	it	eq
    2eb6:	f1a3 5380 	subeq.w	r3, r3, #268435456	; 0x10000000
    2eba:	f5a3 0300 	sub.w	r3, r3, #8388608	; 0x800000
    2ebe:	fabc f28c 	clz	r2, r12
    2ec2:	3a08      	subs	r2, #8
    2ec4:	eba3 53c2 	sub.w	r3, r3, r2, lsl #23
    2ec8:	db10      	blt.n	2eec <__aeabi_l2f+0x5c>
    2eca:	fa01 fc02 	lsl.w	r12, r1, r2
    2ece:	4463      	add	r3, r12
    2ed0:	fa00 fc02 	lsl.w	r12, r0, r2
    2ed4:	f1c2 0220 	rsb	r2, r2, #32
    2ed8:	f1bc 4f00 	cmp.w	r12, #2147483648	; 0x80000000
    2edc:	fa20 f202 	lsr.w	r2, r0, r2
    2ee0:	eb43 0002 	adc.w	r0, r3, r2
    2ee4:	bf08      	it	eq
    2ee6:	f020 0001 	biceq.w	r0, r0, #1
    2eea:	4770      	bx	lr
    2eec:	f102 0220 	add.w	r2, r2, #32
    2ef0:	fa01 fc02 	lsl.w	r12, r1, r2
    2ef4:	f1c2 0220 	rsb	r2, r2, #32
    2ef8:	ea50 004c 	orrs.w	r0, r0, r12, lsl #1
    2efc:	fa21 f202 	lsr.w	r2, r1, r2
    2f00:	eb43 0002 	adc.w	r0, r3, r2
    2f04:	bf08      	it	eq
    2f06:	ea20 70dc 	biceq.w	r0, r0, r12, lsr #31
    2f0a:	4770      	bx	lr

00002f0c <__aeabi_fmul>:
    2f0c:	f04f 0cff 	mov.w	r12, #255	; 0xff
    2f10:	ea1c 52d0 	ands.w	r2, r12, r0, lsr #23
    2f14:	bf1e      	ittt	ne
    2f16:	ea1c 53d1 	andsne.w	r3, r12, r1, lsr #23
    2f1a:	ea92 0f0c 	teqne	r2, r12
    2f1e:	ea93 0f0c 	teqne	r3, r12
    2f22:	d06f      	beq.n	3004 <__aeabi_fmul+0xf8>
    2f24:	441a      	add	r2, r3
    2f26:	ea80 0c01 	eor.w	r12, r0, r1
    2f2a:	0240      	lsls	r0, r0, #9
    2f2c:	bf18      	it	ne
    2f2e:	ea5f 2141 	movsne.w	r1, r1, lsl #9
    2f32:	d01e      	beq.n	2f72 <__aeabi_fmul+0x66>
    2f34:	f04f 6300 	mov.w	r3, #134217728	; 0x8000000
    2f38:	ea43 1050 	orr.w	r0, r3, r0, lsr #5
    2f3c:	ea43 1151 	orr.w	r1, r3, r1, lsr #5
    2f40:	fba0 3101 	umull	r3, r1, r0, r1
    2f44:	f00c 4000 	and.w	r0, r12, #2147483648	; 0x80000000
    2f48:	f5b1 0f00 	cmp.w	r1, #8388608	; 0x800000
    2f4c:	bf3e      	ittt	cc
    2f4e:	0049      	lslcc	r1, r1, #1
    2f50:	ea41 71d3 	orrcc.w	r1, r1, r3, lsr #31
    2f54:	005b      	lslcc	r3, r3, #1
    2f56:	ea40 0001 	orr.w	r0, r0, r1
    2f5a:	f162 027f 	sbc.w	r2, r2, #127	; 0x7f
    2f5e:	2afd      	cmp	r2, #253	; 0xfd
    2f60:	d81d      	bhi.n	2f9e <__aeabi_fmul+0x92>
    2f62:	f1b3 4f00 	cmp.w	r3, #2147483648	; 0x80000000
    2f66:	eb40 50c2 	adc.w	r0, r0, r2, lsl #23
    2f6a:	bf08      	it	eq
    2f6c:	f020 0001 	biceq.w	r0, r0, #1
    2f70:	4770      	bx	lr
    2f72:	f090 0f00 	teq	r0, #0
    2f76:	f00c 4c00 	and.w	r12, r12, #2147483648	; 0x80000000
    2f7a:	bf08      	it	eq
    2f7c:	0249      	lsleq	r1, r1, #9
    2f7e:	ea4c 2050 	orr.w	r0, r12, r0, lsr #9
    2f82:	ea40 2051 	orr.w	r0, r0, r1, lsr #9
    2f86:	3a7f      	subs	r2, #127	; 0x7f
    2f88:	bfc2      	ittt	gt
    2f8a:	f1d2 03ff 	rsbsgt	r3, r2, #255	; 0xff
    2f8e:	ea40 50c2 	orrgt.w	r0, r0, r2, lsl #23
    2f92:	4770      	bxgt	lr
    2f94:	f440 0000 	orr.w	r0, r0, #8388608	; 0x800000
    2f98:	f04f 0300 	mov.w	r3, #0
    2f9c:	3a01      	subs	r2, #1
    2f9e:	dc5d      	bgt.n	305c <__aeabi_fmul+0x150>
    2fa0:	f112 0f19 	cmn.w	r2, #25
    2fa4:	bfdc      	itt	le
    2fa6:	f000 4000 	andle.w	r0, r0, #2147483648	; 0x80000000
    2faa:	4770      	bxle	lr
    2fac:	f1c2 0200 	rsb	r2, r2, #0
    2fb0:	0041      	lsls	r1, r0, #1
    2fb2:	fa21 f102 	lsr.w	r1, r1, r2
    2fb6:	f1c2 0220 	rsb	r2, r2, #32
    2fba:	fa00 fc02 	lsl.w	r12, r0, r2
    2fbe:	ea5f 0031 	movs.w	r0, r1, rrx
    2fc2:	f140 0000 	adc.w	r0, r0, #0
    2fc6:	ea53 034c 	orrs.w	r3, r3, r12, lsl #1
    2fca:	bf08      	it	eq
    2fcc:	ea20 70dc 	biceq.w	r0, r0, r12, lsr #31
    2fd0:	4770      	bx	lr
    2fd2:	f092 0f00 	teq	r2, #0
    2fd6:	f000 4c00 	and.w	r12, r0, #2147483648	; 0x80000000
    2fda:	bf02      	ittt	eq
    2fdc:	0040      	lsleq	r0, r0, #1
    2fde:	f410 0f00 	tsteq.w	r0, #8388608	; 0x800000
    2fe2:	3a01      	subeq	r2, #1
    2fe4:	d0f9      	beq.n	2fda <__aeabi_fmul+0xce>
    2fe6:	ea40 000c 	orr.w	r0, r0, r12
    2fea:	f093 0f00 	teq	r3, #0
    2fee:	f001 4c00 	and.w	r12, r1, #2147483648	; 0x80000000
    2ff2:	bf02      	ittt	eq
    2ff4:	0049      	lsleq	r1, r1, #1
    2ff6:	f411 0f00 	tsteq.w	r1, #8388608	; 0x800000
    2ffa:	3b01      	subeq	r3, #1
    2ffc:	d0f9      	beq.n	2ff2 <__aeabi_fmul+0xe6>
    2ffe:	ea41 010c 	orr.w	r1, r1, r12
    3002:	e78f      	b.n	2f24 <__aeabi_fmul+0x18>
    3004:	ea0c 53d1 	and.w	r3, r12, r1, lsr #23
    3008:	ea92 0f0c 	teq	r2, r12
    300c:	bf18      	it	ne
    300e:	ea93 0f0c 	teqne	r3, r12
    3012:	d00a      	beq.n	302a <__aeabi_fmul+0x11e>
    3014:	f030 4c00 	bics.w	r12, r0, #2147483648	; 0x80000000
    3018:	bf18      	it	ne
    301a:	f031 4c00 	bicsne.w	r12, r1, #2147483648	; 0x80000000
    301e:	d1d8      	bne.n	2fd2 <__aeabi_fmul+0xc6>
    3020:	ea80 0001 	eor.w	r0, r0, r1
    3024:	f000 4000 	and.w	r0, r0, #2147483648	; 0x80000000
    3028:	4770      	bx	lr
    302a:	f090 0f00 	teq	r0, #0
    302e:	bf17      	itett	ne
    3030:	f090 4f00 	teqne	r0, #2147483648	; 0x80000000
    3034:	4608      	moveq	r0, r1
    3036:	f091 0f00 	teqne	r1, #0
    303a:	f091 4f00 	teqne	r1, #2147483648	; 0x80000000
    303e:	d014      	beq.n	306a <__aeabi_fmul+0x15e>
    3040:	ea92 0f0c 	teq	r2, r12
    3044:	d101      	bne.n	304a <__aeabi_fmul+0x13e>
    3046:	0242      	lsls	r2, r0, #9
    3048:	d10f      	bne.n	306a <__aeabi_fmul+0x15e>
    304a:	ea93 0f0c 	teq	r3, r12
    304e:	d103      	bne.n	3058 <__aeabi_fmul+0x14c>
    3050:	024b      	lsls	r3, r1, #9
    3052:	bf18      	it	ne
    3054:	4608      	movne	r0, r1
    3056:	d108      	bne.n	306a <__aeabi_fmul+0x15e>
    3058:	ea80 0001 	eor.w	r0, r0, r1
    305c:	f000 4000 	and.w	r0, r0, #2147483648	; 0x80000000
    3060:	f040 40fe 	orr.w	r0, r0, #2130706432	; 0x7f000000
    3064:	f440 0000 	orr.w	r0, r0, #8388608	; 0x800000
    3068:	4770      	bx	lr
    306a:	f040 40fe 	orr.w	r0, r0, #2130706432	; 0x7f000000
    306e:	f440 0040 	orr.w	r0, r0, #12582912	; 0xc00000
    3072:	4770      	bx	lr

00003074 <__aeabi_fdiv>:
    3074:	f04f 0cff 	mov.w	r12, #255	; 0xff
    3078:	ea1c 52d0 	ands.w	r2, r12, r0, lsr #23
    307c:	bf1e      	ittt	ne
    307e:	ea1c 53d1 	andsne.w	r3, r12, r1, lsr #23
    3082:	ea92 0f0c 	teqne	r2, r12
    3086:	ea93 0f0c 	teqne	r3, r12
    308a:	d069      	beq.n	3160 <__aeabi_fdiv+0xec>
    308c:	eba2 0203 	sub.w	r2, r2, r3
    3090:	ea80 0c01 	eor.w	r12, r0, r1
    3094:	0249      	lsls	r1, r1, #9
    3096:	ea4f 2040 	mov.w	r0, r0, lsl #9
    309a:	d037      	beq.n	310c <__aeabi_fdiv+0x98>
    309c:	f04f 5380 	mov.w	r3, #268435456	; 0x10000000
    30a0:	ea43 1111 	orr.w	r1, r3, r1, lsr #4
    30a4:	ea43 1310 	orr.w	r3, r3, r0, lsr #4
    30a8:	f00c 4000 	and.w	r0, r12, #2147483648	; 0x80000000
    30ac:	428b      	cmp	r3, r1
    30ae:	bf38      	it	cc
    30b0:	005b      	lslcc	r3, r3, #1
    30b2:	f142 027d 	adc.w	r2, r2, #125	; 0x7d
    30b6:	f44f 0c00 	mov.w	r12, #8388608	; 0x800000
    30ba:	428b      	cmp	r3, r1
    30bc:	bf24      	itt	cs
    30be:	1a5b      	subcs	r3, r3, r1
    30c0:	ea40 000c 	orrcs.w	r0, r0, r12
    30c4:	ebb3 0f51 	cmp.w	r3, r1, lsr #1
    30c8:	bf24      	itt	cs
    30ca:	eba3 0351 	subcs.w	r3, r3, r1, lsr #1
    30ce:	ea40 005c 	orrcs.w	r0, r0, r12, lsr #1
    30d2:	ebb3 0f91 	cmp.w	r3, r1, lsr #2
    30d6:	bf24      	itt	cs
    30d8:	eba3 0391 	subcs.w	r3, r3, r1, lsr #2
    30dc:	ea40 009c 	orrcs.w	r0, r0, r12, lsr #2
    30e0:	ebb3 0fd1 	cmp.w	r3, r1, lsr #3
    30e4:	bf24      	itt	cs
    30e6:	eba3 03d1 	subcs.w	r3, r3, r1, lsr #3
    30ea:	ea40 00dc 	orrcs.w	r0, r0, r12, lsr #3
    30ee:	011b      	lsls	r3, r3, #4
    30f0:	bf18      	it	ne
    30f2:	ea5f 1c1c 	movsne.w	r12, r12, lsr #4
    30f6:	d1e0      	bne.n	30ba <__aeabi_fdiv+0x46>
    30f8:	2afd      	cmp	r2, #253	; 0xfd
    30fa:	f63f af50 	bhi.w	2f9e <__aeabi_fmul+0x92>
    30fe:	428b      	cmp	r3, r1
    3100:	eb40 50c2 	adc.w	r0, r0, r2, lsl #23
    3104:	bf08      	it	eq
    3106:	f020 0001 	biceq.w	r0, r0, #1
    310a:	4770      	bx	lr
    310c:	f00c 4c00 	and.w	r12, r12, #2147483648	; 0x80000000
    3110:	ea4c 2050 	orr.w	r0, r12, r0, lsr #9
    3114:	327f      	adds	r2, #127	; 0x7f
    3116:	bfc2      	ittt	gt
    3118:	f1d2 03ff 	rsbsgt	r3, r2, #255	; 0xff
    311c:	ea40 50c2 	orrgt.w	r0, r0, r2, lsl #23
    3120:	4770      	bxgt	lr
    3122:	f440 0000 	orr.w	r0, r0, #8388608	; 0x800000
    3126:	f04f 0300 	mov.w	r3, #0
    312a:	3a01      	subs	r2, #1
    312c:	e737      	b.n	2f9e <__aeabi_fmul+0x92>
    312e:	f092 0f00 	teq	r2, #0
    3132:	f000 4c00 	and.w	r12, r0, #2147483648	; 0x80000000
    3136:	bf02      	ittt	eq
    3138:	0040      	lsleq	r0, r0, #1
    313a:	f410 0f00 	tsteq.w	r0, #8388608	; 0x800000
    313e:	3a01      	subeq	r2, #1
    3140:	d0f9      	beq.n	3136 <__aeabi_fdiv+0xc2>
    3142:	ea40 000c 	orr.w	r0, r0, r12
    3146:	f093 0f00 	teq	r3, #0
    314a:	f001 4c00 	and.w	r12, r1, #2147483648	; 0x80000000
    314e:	bf02      	ittt	eq
    3150:	0049      	lsleq	r1, r1, #1
    3152:	f411 0f00 	tsteq.w	r1, #8388608	; 0x800000
    3156:	3b01      	subeq	r3, #1
    3158:	d0f9      	beq.n	314e <__aeabi_fdiv+0xda>
    315a:	ea41 010c 	orr.w	r1, r1, r12
    315e:	e795      	b.n	308c <__aeabi_fdiv+0x18>
    3160:	ea0c 53d1 	and.w	r3, r12, r1, lsr #23
    3164:	ea92 0f0c 	teq	r2, r12
    3168:	d108      	bne.n	317c <__aeabi_fdiv+0x108>
    316a:	0242      	lsls	r2, r0, #9
    316c:	f47f af7d 	bne.w	306a <__aeabi_fmul+0x15e>
    3170:	ea93 0f0c 	teq	r3, r12
    3174:	f47f af70 	bne.w	3058 <__aeabi_fmul+0x14c>
    3178:	4608      	mov	r0, r1
    317a:	e776      	b.n	306a <__aeabi_fmul+0x15e>
    317c:	ea93 0f0c 	teq	r3, r12
    3180:	d104      	bne.n	318c <__aeabi_fdiv+0x118>
    3182:	024b      	lsls	r3, r1, #9
    3184:	f43f af4c 	beq.w	3020 <__aeabi_fmul+0x114>
    3188:	4608      	mov	r0, r1
    318a:	e76e      	b.n	306a <__aeabi_fmul+0x15e>
    318c:	f030 4c00 	bics.w	r12, r0, #2147483648	; 0x80000000
    3190:	bf18      	it	ne
    3192:	f031 4c00 	bicsne.w	r12, r1, #2147483648	; 0x80000000
    3196:	d1ca      	bne.n	312e <__aeabi_fdiv+0xba>
    3198:	f030 4200 	bics.w	r2, r0, #2147483648	; 0x80000000
    319c:	f47f af5c 	bne.w	3058 <__aeabi_fmul+0x14c>
    31a0:	f031 4300 	bics.w	r3, r1, #2147483648	; 0x80000000
    31a4:	f47f af3c 	bne.w	3020 <__aeabi_fmul+0x114>
    31a8:	e75f      	b.n	306a <__aeabi_fmul+0x15e>
    31aa:	bf00      	nop

000031ac <__gesf2>:
    31ac:	f04f 3cff 	mov.w	r12, #4294967295
    31b0:	e006      	b.n	31c0 <__cmpsf2+0x4>
    31b2:	bf00      	nop

000031b4 <__lesf2>:
    31b4:	f04f 0c01 	mov.w	r12, #1
    31b8:	e002      	b.n	31c0 <__cmpsf2+0x4>
    31ba:	bf00      	nop

000031bc <__cmpsf2>:
    31bc:	f04f 0c01 	mov.w	r12, #1
    31c0:	f84d cd04 	str.w	r12, [sp, #-4]!
    31c4:	ea4f 0240 	mov.w	r2, r0, lsl #1
    31c8:	ea4f 0341 	mov.w	r3, r1, lsl #1
    31cc:	ea7f 6c22 	mvns.w	r12, r2, asr #24
    31d0:	bf18      	it	ne
    31d2:	ea7f 6c23 	mvnsne.w	r12, r3, asr #24
    31d6:	d011      	beq.n	31fc <__cmpsf2+0x40>
    31d8:	b001      	add	sp, #4
    31da:	ea52 0c53 	orrs.w	r12, r2, r3, lsr #1
    31de:	bf18      	it	ne
    31e0:	ea90 0f01 	teqne	r0, r1
    31e4:	bf58      	it	pl
    31e6:	ebb2 0003 	subspl.w	r0, r2, r3
    31ea:	bf88      	it	hi
    31ec:	17c8      	asrhi	r0, r1, #31
    31ee:	bf38      	it	cc
    31f0:	ea6f 70e1 	mvncc.w	r0, r1, asr #31
    31f4:	bf18      	it	ne
    31f6:	f040 0001 	orrne.w	r0, r0, #1
    31fa:	4770      	bx	lr
    31fc:	ea7f 6c22 	mvns.w	r12, r2, asr #24
    3200:	d102      	bne.n	3208 <__cmpsf2+0x4c>
    3202:	ea5f 2c40 	movs.w	r12, r0, lsl #9
    3206:	d105      	bne.n	3214 <__cmpsf2+0x58>
    3208:	ea7f 6c23 	mvns.w	r12, r3, asr #24
    320c:	d1e4      	bne.n	31d8 <__cmpsf2+0x1c>
    320e:	ea5f 2c41 	movs.w	r12, r1, lsl #9
    3212:	d0e1      	beq.n	31d8 <__cmpsf2+0x1c>
    3214:	f85d 0b04 	ldr.w	r0, [sp], #4
    3218:	4770      	bx	lr
    321a:	bf00      	nop

0000321c <__aeabi_cfrcmple>:
    321c:	4684      	mov	r12, r0
    321e:	4608      	mov	r0, r1
    3220:	4661      	mov	r1, r12
    3222:	e7ff      	b.n	3224 <__aeabi_cfcmpeq>

00003224 <__aeabi_cfcmpeq>:
    3224:	b50f      	push	{r0, r1, r2, r3, lr}
    3226:	f7ff ffc9 	bl	31bc <__cmpsf2>
    322a:	2800      	cmp	r0, #0
    322c:	bf48      	it	mi
    322e:	f110 0f00 	cmnmi.w	r0, #0
    3232:	bd0f      	pop	{r0, r1, r2, r3, pc}

00003234 <__aeabi_fcmpeq>:
    3234:	f84d ed08 	str.w	lr, [sp, #-8]!
    3238:	f7ff fff4 	bl	3224 <__aeabi_cfcmpeq>
    323c:	bf0c      	ite	eq
    323e:	2001      	moveq	r0, #1
    3240:	2000      	movne	r0, #0
    3242:	f85d fb08 	ldr.w	pc, [sp], #8
    3246:	bf00      	nop

00003248 <__aeabi_fcmplt>:
    3248:	f84d ed08 	str.w	lr, [sp, #-8]!
    324c:	f7ff ffea 	bl	3224 <__aeabi_cfcmpeq>
    3250:	bf34      	ite	cc
    3252:	2001      	movcc	r0, #1
    3254:	2000      	movcs	r0, #0
    3256:	f85d fb08 	ldr.w	pc, [sp], #8
    325a:	bf00      	nop

0000325c <__aeabi_fcmple>:
    325c:	f84d ed08 	str.w	lr, [sp, #-8]!
    3260:	f7ff ffe0 	bl	3224 <__aeabi_cfcmpeq>
    3264:	bf94      	ite	ls
    3266:	2001      	movls	r0, #1
    3268:	2000      	movhi	r0, #0
    326a:	f85d fb08 	ldr.w	pc, [sp], #8
    326e:	bf00      	nop

00003270 <__aeabi_fcmpge>:
    3270:	f84d ed08 	str.w	lr, [sp, #-8]!
    3274:	f7ff ffd2 	bl	321c <__aeabi_cfrcmple>
    3278:	bf94      	ite	ls
    327a:	2001      	movls	r0, #1
    327c:	2000      	movhi	r0, #0
    327e:	f85d fb08 	ldr.w	pc, [sp], #8
    3282:	bf00      	nop

00003284 <__aeabi_fcmpgt>:
    3284:	f84d ed08 	str.w	lr, [sp, #-8]!
    3288:	f7ff ffc8 	bl	321c <__aeabi_cfrcmple>
    328c:	bf34      	ite	cc
    328e:	2001      	movcc	r0, #1
    3290:	2000      	movcs	r0, #0
    3292:	f85d fb08 	ldr.w	pc, [sp], #8
    3296:	bf00      	nop

00003298 <__cxa_atexit>:
    3298:	b530      	push	{r4, r5, lr}
    329a:	4605      	mov	r5, r0
    329c:	460c      	mov	r4, r1
    329e:	4613      	mov	r3, r2
    32a0:	2002      	movs	r0, #2
    32a2:	4629      	mov	r1, r5
    32a4:	4622      	mov	r2, r4
    32a6:	e8bd 4030 	ldmia.w	sp!, {r4, r5, lr}
    32aa:	f002 bae3 	b.w	5874 <__do_register_exitproc>
	...

000032b0 <__errno>:
    32b0:	4b01      	ldr	r3, [pc, #4]	; (32b8 <__errno+0x8>)
    32b2:	6818      	ldr	r0, [r3, #0]
    32b4:	4770      	bx	lr
    32b6:	bf00      	nop
    32b8:	10000134 	.word	0x10000134

000032bc <_fclose_r>:
    32bc:	b570      	push	{r4, r5, r6, lr}
    32be:	4605      	mov	r5, r0
    32c0:	460c      	mov	r4, r1
    32c2:	2900      	cmp	r1, #0
    32c4:	d047      	beq.n	3356 <_fclose_r+0x9a>
    32c6:	f000 f9c9 	bl	365c <__sfp_lock_acquire>
    32ca:	b125      	cbz	r5, 32d6 <_fclose_r+0x1a>
    32cc:	69ab      	ldr	r3, [r5, #24]
    32ce:	b913      	cbnz	r3, 32d6 <_fclose_r+0x1a>
    32d0:	4628      	mov	r0, r5
    32d2:	f000 f95b 	bl	358c <__sinit>
    32d6:	4821      	ldr	r0, [pc, #132]	; (335c <_fclose_r+0xa0>)
    32d8:	4284      	cmp	r4, r0
    32da:	d101      	bne.n	32e0 <_fclose_r+0x24>
    32dc:	686c      	ldr	r4, [r5, #4]
    32de:	e008      	b.n	32f2 <_fclose_r+0x36>
    32e0:	491f      	ldr	r1, [pc, #124]	; (3360 <_fclose_r+0xa4>)
    32e2:	428c      	cmp	r4, r1
    32e4:	d101      	bne.n	32ea <_fclose_r+0x2e>
    32e6:	68ac      	ldr	r4, [r5, #8]
    32e8:	e003      	b.n	32f2 <_fclose_r+0x36>
    32ea:	4a1e      	ldr	r2, [pc, #120]	; (3364 <_fclose_r+0xa8>)
    32ec:	4294      	cmp	r4, r2
    32ee:	bf08      	it	eq
    32f0:	68ec      	ldreq	r4, [r5, #12]
    32f2:	f9b4 600c 	ldrsh.w	r6, [r4, #12]
    32f6:	b35e      	cbz	r6, 3350 <_fclose_r+0x94>
    32f8:	4628      	mov	r0, r5
    32fa:	4621      	mov	r1, r4
    32fc:	f000 f83c 	bl	3378 <_fflush_r>
    3300:	6b23      	ldr	r3, [r4, #48]	; 0x30
    3302:	4606      	mov	r6, r0
    3304:	b13b      	cbz	r3, 3316 <_fclose_r+0x5a>
    3306:	4628      	mov	r0, r5
    3308:	6a21      	ldr	r1, [r4, #32]
    330a:	4798      	blx	r3
    330c:	ea36 0620 	bics.w	r6, r6, r0, asr #32
    3310:	bf28      	it	cs
    3312:	f04f 36ff 	movcs.w	r6, #4294967295
    3316:	89a0      	ldrh	r0, [r4, #12]
    3318:	f000 0180 	and.w	r1, r0, #128	; 0x80
    331c:	b20a      	sxth	r2, r1
    331e:	b11a      	cbz	r2, 3328 <_fclose_r+0x6c>
    3320:	4628      	mov	r0, r5
    3322:	6921      	ldr	r1, [r4, #16]
    3324:	f000 f9f8 	bl	3718 <_free_r>
    3328:	6b61      	ldr	r1, [r4, #52]	; 0x34
    332a:	b141      	cbz	r1, 333e <_fclose_r+0x82>
    332c:	f104 0344 	add.w	r3, r4, #68	; 0x44
    3330:	4299      	cmp	r1, r3
    3332:	d002      	beq.n	333a <_fclose_r+0x7e>
    3334:	4628      	mov	r0, r5
    3336:	f000 f9ef 	bl	3718 <_free_r>
    333a:	2000      	movs	r0, #0
    333c:	6360      	str	r0, [r4, #52]	; 0x34
    333e:	6ca1      	ldr	r1, [r4, #72]	; 0x48
    3340:	b121      	cbz	r1, 334c <_fclose_r+0x90>
    3342:	4628      	mov	r0, r5
    3344:	f000 f9e8 	bl	3718 <_free_r>
    3348:	2100      	movs	r1, #0
    334a:	64a1      	str	r1, [r4, #72]	; 0x48
    334c:	2200      	movs	r2, #0
    334e:	81a2      	strh	r2, [r4, #12]
    3350:	f000 f985 	bl	365e <__sfp_lock_release>
    3354:	e000      	b.n	3358 <_fclose_r+0x9c>
    3356:	460e      	mov	r6, r1
    3358:	4630      	mov	r0, r6
    335a:	bd70      	pop	{r4, r5, r6, pc}
    335c:	00008a40 	.word	0x00008a40
    3360:	00008a60 	.word	0x00008a60
    3364:	00008a80 	.word	0x00008a80

00003368 <fclose>:
    3368:	4b02      	ldr	r3, [pc, #8]	; (3374 <fclose+0xc>)
    336a:	4601      	mov	r1, r0
    336c:	6818      	ldr	r0, [r3, #0]
    336e:	f7ff bfa5 	b.w	32bc <_fclose_r>
    3372:	bf00      	nop
    3374:	10000134 	.word	0x10000134

00003378 <_fflush_r>:
    3378:	690b      	ldr	r3, [r1, #16]
    337a:	e92d 41f0 	stmdb	sp!, {r4, r5, r6, r7, r8, lr}
    337e:	4605      	mov	r5, r0
    3380:	460c      	mov	r4, r1
    3382:	2b00      	cmp	r3, #0
    3384:	d03b      	beq.n	33fe <_fflush_r+0x86>
    3386:	b118      	cbz	r0, 3390 <_fflush_r+0x18>
    3388:	6981      	ldr	r1, [r0, #24]
    338a:	b909      	cbnz	r1, 3390 <_fflush_r+0x18>
    338c:	f000 f8fe 	bl	358c <__sinit>
    3390:	4848      	ldr	r0, [pc, #288]	; (34b4 <_fflush_r+0x13c>)
    3392:	4284      	cmp	r4, r0
    3394:	d101      	bne.n	339a <_fflush_r+0x22>
    3396:	686c      	ldr	r4, [r5, #4]
    3398:	e008      	b.n	33ac <_fflush_r+0x34>
    339a:	4a47      	ldr	r2, [pc, #284]	; (34b8 <_fflush_r+0x140>)
    339c:	4294      	cmp	r4, r2
    339e:	d101      	bne.n	33a4 <_fflush_r+0x2c>
    33a0:	68ac      	ldr	r4, [r5, #8]
    33a2:	e003      	b.n	33ac <_fflush_r+0x34>
    33a4:	4b45      	ldr	r3, [pc, #276]	; (34bc <_fflush_r+0x144>)
    33a6:	429c      	cmp	r4, r3
    33a8:	bf08      	it	eq
    33aa:	68ec      	ldreq	r4, [r5, #12]
    33ac:	89a1      	ldrh	r1, [r4, #12]
    33ae:	b331      	cbz	r1, 33fe <_fflush_r+0x86>
    33b0:	f001 0008 	and.w	r0, r1, #8
    33b4:	b202      	sxth	r2, r0
    33b6:	2a00      	cmp	r2, #0
    33b8:	d161      	bne.n	347e <_fflush_r+0x106>
    33ba:	6862      	ldr	r2, [r4, #4]
    33bc:	f441 6000 	orr.w	r0, r1, #2048	; 0x800
    33c0:	2a00      	cmp	r2, #0
    33c2:	81a0      	strh	r0, [r4, #12]
    33c4:	dc02      	bgt.n	33cc <_fflush_r+0x54>
    33c6:	6c23      	ldr	r3, [r4, #64]	; 0x40
    33c8:	2b00      	cmp	r3, #0
    33ca:	dd18      	ble.n	33fe <_fflush_r+0x86>
    33cc:	6ae6      	ldr	r6, [r4, #44]	; 0x2c
    33ce:	b1b6      	cbz	r6, 33fe <_fflush_r+0x86>
    33d0:	f401 5180 	and.w	r1, r1, #4096	; 0x1000
    33d4:	2000      	movs	r0, #0
    33d6:	b20a      	sxth	r2, r1
    33d8:	682f      	ldr	r7, [r5, #0]
    33da:	6028      	str	r0, [r5, #0]
    33dc:	b10a      	cbz	r2, 33e2 <_fflush_r+0x6a>
    33de:	6d62      	ldr	r2, [r4, #84]	; 0x54
    33e0:	e010      	b.n	3404 <_fflush_r+0x8c>
    33e2:	2301      	movs	r3, #1
    33e4:	4628      	mov	r0, r5
    33e6:	6a21      	ldr	r1, [r4, #32]
    33e8:	47b0      	blx	r6
    33ea:	4602      	mov	r2, r0
    33ec:	3001      	adds	r0, #1
    33ee:	d109      	bne.n	3404 <_fflush_r+0x8c>
    33f0:	682b      	ldr	r3, [r5, #0]
    33f2:	b13b      	cbz	r3, 3404 <_fflush_r+0x8c>
    33f4:	2b1d      	cmp	r3, #29
    33f6:	d001      	beq.n	33fc <_fflush_r+0x84>
    33f8:	2b16      	cmp	r3, #22
    33fa:	d11b      	bne.n	3434 <_fflush_r+0xbc>
    33fc:	602f      	str	r7, [r5, #0]
    33fe:	2000      	movs	r0, #0
    3400:	e8bd 81f0 	ldmia.w	sp!, {r4, r5, r6, r7, r8, pc}
    3404:	89a6      	ldrh	r6, [r4, #12]
    3406:	f006 0004 	and.w	r0, r6, #4
    340a:	b201      	sxth	r1, r0
    340c:	b129      	cbz	r1, 341a <_fflush_r+0xa2>
    340e:	6863      	ldr	r3, [r4, #4]
    3410:	6b66      	ldr	r6, [r4, #52]	; 0x34
    3412:	1ad2      	subs	r2, r2, r3
    3414:	b10e      	cbz	r6, 341a <_fflush_r+0xa2>
    3416:	6c20      	ldr	r0, [r4, #64]	; 0x40
    3418:	1a12      	subs	r2, r2, r0
    341a:	6a21      	ldr	r1, [r4, #32]
    341c:	2300      	movs	r3, #0
    341e:	6ae6      	ldr	r6, [r4, #44]	; 0x2c
    3420:	4628      	mov	r0, r5
    3422:	47b0      	blx	r6
    3424:	1c41      	adds	r1, r0, #1
    3426:	d10d      	bne.n	3444 <_fflush_r+0xcc>
    3428:	682a      	ldr	r2, [r5, #0]
    342a:	b15a      	cbz	r2, 3444 <_fflush_r+0xcc>
    342c:	2a1d      	cmp	r2, #29
    342e:	d009      	beq.n	3444 <_fflush_r+0xcc>
    3430:	2a16      	cmp	r2, #22
    3432:	d007      	beq.n	3444 <_fflush_r+0xcc>
    3434:	89a1      	ldrh	r1, [r4, #12]
    3436:	f04f 30ff 	mov.w	r0, #4294967295
    343a:	f041 0340 	orr.w	r3, r1, #64	; 0x40
    343e:	81a3      	strh	r3, [r4, #12]
    3440:	e8bd 81f0 	ldmia.w	sp!, {r4, r5, r6, r7, r8, pc}
    3444:	89a3      	ldrh	r3, [r4, #12]
    3446:	2200      	movs	r2, #0
    3448:	6921      	ldr	r1, [r4, #16]
    344a:	6062      	str	r2, [r4, #4]
    344c:	f403 5280 	and.w	r2, r3, #4096	; 0x1000
    3450:	6021      	str	r1, [r4, #0]
    3452:	b211      	sxth	r1, r2
    3454:	b121      	cbz	r1, 3460 <_fflush_r+0xe8>
    3456:	1c42      	adds	r2, r0, #1
    3458:	d101      	bne.n	345e <_fflush_r+0xe6>
    345a:	682b      	ldr	r3, [r5, #0]
    345c:	b903      	cbnz	r3, 3460 <_fflush_r+0xe8>
    345e:	6560      	str	r0, [r4, #84]	; 0x54
    3460:	6b61      	ldr	r1, [r4, #52]	; 0x34
    3462:	602f      	str	r7, [r5, #0]
    3464:	2900      	cmp	r1, #0
    3466:	d0ca      	beq.n	33fe <_fflush_r+0x86>
    3468:	f104 0044 	add.w	r0, r4, #68	; 0x44
    346c:	4281      	cmp	r1, r0
    346e:	d002      	beq.n	3476 <_fflush_r+0xfe>
    3470:	4628      	mov	r0, r5
    3472:	f000 f951 	bl	3718 <_free_r>
    3476:	2000      	movs	r0, #0
    3478:	6360      	str	r0, [r4, #52]	; 0x34
    347a:	e8bd 81f0 	ldmia.w	sp!, {r4, r5, r6, r7, r8, pc}
    347e:	6926      	ldr	r6, [r4, #16]
    3480:	2e00      	cmp	r6, #0
    3482:	d0bc      	beq.n	33fe <_fflush_r+0x86>
    3484:	0789      	lsls	r1, r1, #30
    3486:	6823      	ldr	r3, [r4, #0]
    3488:	bf0c      	ite	eq
    348a:	6961      	ldreq	r1, [r4, #20]
    348c:	2100      	movne	r1, #0
    348e:	ebc6 0803 	rsb	r8, r6, r3
    3492:	6026      	str	r6, [r4, #0]
    3494:	60a1      	str	r1, [r4, #8]
    3496:	f1b8 0f00 	cmp.w	r8, #0
    349a:	ddb0      	ble.n	33fe <_fflush_r+0x86>
    349c:	6aa7      	ldr	r7, [r4, #40]	; 0x28
    349e:	4628      	mov	r0, r5
    34a0:	6a21      	ldr	r1, [r4, #32]
    34a2:	4632      	mov	r2, r6
    34a4:	4643      	mov	r3, r8
    34a6:	47b8      	blx	r7
    34a8:	2800      	cmp	r0, #0
    34aa:	ddc3      	ble.n	3434 <_fflush_r+0xbc>
    34ac:	1836      	adds	r6, r6, r0
    34ae:	ebc0 0808 	rsb	r8, r0, r8
    34b2:	e7f0      	b.n	3496 <_fflush_r+0x11e>
    34b4:	00008a40 	.word	0x00008a40
    34b8:	00008a60 	.word	0x00008a60
    34bc:	00008a80 	.word	0x00008a80

000034c0 <fflush>:
    34c0:	4601      	mov	r1, r0
    34c2:	b920      	cbnz	r0, 34ce <fflush+0xe>
    34c4:	4804      	ldr	r0, [pc, #16]	; (34d8 <fflush+0x18>)
    34c6:	4905      	ldr	r1, [pc, #20]	; (34dc <fflush+0x1c>)
    34c8:	6800      	ldr	r0, [r0, #0]
    34ca:	f000 ba01 	b.w	38d0 <_fwalk_reent>
    34ce:	4b04      	ldr	r3, [pc, #16]	; (34e0 <fflush+0x20>)
    34d0:	6818      	ldr	r0, [r3, #0]
    34d2:	f7ff bf51 	b.w	3378 <_fflush_r>
    34d6:	bf00      	nop
    34d8:	00008aa4 	.word	0x00008aa4
    34dc:	00003379 	.word	0x00003379
    34e0:	10000134 	.word	0x10000134

000034e4 <_cleanup_r>:
    34e4:	b5f8      	push	{r3, r4, r5, r6, r7, lr}
    34e6:	4607      	mov	r7, r0
    34e8:	f100 044c 	add.w	r4, r0, #76	; 0x4c
    34ec:	b194      	cbz	r4, 3514 <_cleanup_r+0x30>
    34ee:	68a5      	ldr	r5, [r4, #8]
    34f0:	6866      	ldr	r6, [r4, #4]
    34f2:	3e01      	subs	r6, #1
    34f4:	d40c      	bmi.n	3510 <_cleanup_r+0x2c>
    34f6:	f9b5 300c 	ldrsh.w	r3, [r5, #12]
    34fa:	b13b      	cbz	r3, 350c <_cleanup_r+0x28>
    34fc:	f9b5 000e 	ldrsh.w	r0, [r5, #14]
    3500:	1c43      	adds	r3, r0, #1
    3502:	d003      	beq.n	350c <_cleanup_r+0x28>
    3504:	4638      	mov	r0, r7
    3506:	4629      	mov	r1, r5
    3508:	f7ff ff36 	bl	3378 <_fflush_r>
    350c:	3568      	adds	r5, #104	; 0x68
    350e:	e7f0      	b.n	34f2 <_cleanup_r+0xe>
    3510:	6824      	ldr	r4, [r4, #0]
    3512:	e7eb      	b.n	34ec <_cleanup_r+0x8>
    3514:	bdf8      	pop	{r3, r4, r5, r6, r7, pc}
	...

00003518 <std.isra.0>:
    3518:	2300      	movs	r3, #0
    351a:	b510      	push	{r4, lr}
    351c:	4604      	mov	r4, r0
    351e:	6003      	str	r3, [r0, #0]
    3520:	6043      	str	r3, [r0, #4]
    3522:	6083      	str	r3, [r0, #8]
    3524:	8181      	strh	r1, [r0, #12]
    3526:	6643      	str	r3, [r0, #100]	; 0x64
    3528:	81c2      	strh	r2, [r0, #14]
    352a:	6103      	str	r3, [r0, #16]
    352c:	6143      	str	r3, [r0, #20]
    352e:	6183      	str	r3, [r0, #24]
    3530:	4619      	mov	r1, r3
    3532:	2208      	movs	r2, #8
    3534:	f100 005c 	add.w	r0, r0, #92	; 0x5c
    3538:	f000 fad7 	bl	3aea <memset>
    353c:	4804      	ldr	r0, [pc, #16]	; (3550 <std.isra.0+0x38>)
    353e:	4905      	ldr	r1, [pc, #20]	; (3554 <std.isra.0+0x3c>)
    3540:	4a05      	ldr	r2, [pc, #20]	; (3558 <std.isra.0+0x40>)
    3542:	4b06      	ldr	r3, [pc, #24]	; (355c <std.isra.0+0x44>)
    3544:	6224      	str	r4, [r4, #32]
    3546:	6260      	str	r0, [r4, #36]	; 0x24
    3548:	62a1      	str	r1, [r4, #40]	; 0x28
    354a:	62e2      	str	r2, [r4, #44]	; 0x2c
    354c:	6323      	str	r3, [r4, #48]	; 0x30
    354e:	bd10      	pop	{r4, pc}
    3550:	00003d59 	.word	0x00003d59
    3554:	00003d7f 	.word	0x00003d7f
    3558:	00003dbb 	.word	0x00003dbb
    355c:	00003ddf 	.word	0x00003ddf

00003560 <__sfmoreglue>:
    3560:	b570      	push	{r4, r5, r6, lr}
    3562:	2568      	movs	r5, #104	; 0x68
    3564:	434d      	muls	r5, r1
    3566:	460e      	mov	r6, r1
    3568:	f105 010c 	add.w	r1, r5, #12
    356c:	f000 fa5c 	bl	3a28 <_malloc_r>
    3570:	4604      	mov	r4, r0
    3572:	b140      	cbz	r0, 3586 <__sfmoreglue+0x26>
    3574:	f100 000c 	add.w	r0, r0, #12
    3578:	2100      	movs	r1, #0
    357a:	e884 0042 	stmia.w	r4, {r1, r6}
    357e:	60a0      	str	r0, [r4, #8]
    3580:	462a      	mov	r2, r5
    3582:	f000 fab2 	bl	3aea <memset>
    3586:	4620      	mov	r0, r4
    3588:	bd70      	pop	{r4, r5, r6, pc}
	...

0000358c <__sinit>:
    358c:	b570      	push	{r4, r5, r6, lr}
    358e:	6985      	ldr	r5, [r0, #24]
    3590:	4604      	mov	r4, r0
    3592:	2d00      	cmp	r5, #0
    3594:	d122      	bne.n	35dc <__sinit+0x50>
    3596:	4b12      	ldr	r3, [pc, #72]	; (35e0 <__sinit+0x54>)
    3598:	2601      	movs	r6, #1
    359a:	6283      	str	r3, [r0, #40]	; 0x28
    359c:	6186      	str	r6, [r0, #24]
    359e:	64c5      	str	r5, [r0, #76]	; 0x4c
    35a0:	6505      	str	r5, [r0, #80]	; 0x50
    35a2:	6545      	str	r5, [r0, #84]	; 0x54
    35a4:	f000 f81e 	bl	35e4 <__sfp>
    35a8:	6060      	str	r0, [r4, #4]
    35aa:	4620      	mov	r0, r4
    35ac:	f000 f81a 	bl	35e4 <__sfp>
    35b0:	60a0      	str	r0, [r4, #8]
    35b2:	4620      	mov	r0, r4
    35b4:	f000 f816 	bl	35e4 <__sfp>
    35b8:	2104      	movs	r1, #4
    35ba:	60e0      	str	r0, [r4, #12]
    35bc:	462a      	mov	r2, r5
    35be:	6860      	ldr	r0, [r4, #4]
    35c0:	f7ff ffaa 	bl	3518 <std.isra.0>
    35c4:	68a0      	ldr	r0, [r4, #8]
    35c6:	2109      	movs	r1, #9
    35c8:	4632      	mov	r2, r6
    35ca:	f7ff ffa5 	bl	3518 <std.isra.0>
    35ce:	68e0      	ldr	r0, [r4, #12]
    35d0:	2112      	movs	r1, #18
    35d2:	2202      	movs	r2, #2
    35d4:	e8bd 4070 	ldmia.w	sp!, {r4, r5, r6, lr}
    35d8:	f7ff bf9e 	b.w	3518 <std.isra.0>
    35dc:	bd70      	pop	{r4, r5, r6, pc}
    35de:	bf00      	nop
    35e0:	000034e5 	.word	0x000034e5

000035e4 <__sfp>:
    35e4:	b5f8      	push	{r3, r4, r5, r6, r7, lr}
    35e6:	4b1c      	ldr	r3, [pc, #112]	; (3658 <__sfp+0x74>)
    35e8:	4607      	mov	r7, r0
    35ea:	681e      	ldr	r6, [r3, #0]
    35ec:	69b0      	ldr	r0, [r6, #24]
    35ee:	b910      	cbnz	r0, 35f6 <__sfp+0x12>
    35f0:	4630      	mov	r0, r6
    35f2:	f7ff ffcb 	bl	358c <__sinit>
    35f6:	364c      	adds	r6, #76	; 0x4c
    35f8:	68b4      	ldr	r4, [r6, #8]
    35fa:	6871      	ldr	r1, [r6, #4]
    35fc:	3901      	subs	r1, #1
    35fe:	d404      	bmi.n	360a <__sfp+0x26>
    3600:	f9b4 500c 	ldrsh.w	r5, [r4, #12]
    3604:	b185      	cbz	r5, 3628 <__sfp+0x44>
    3606:	3468      	adds	r4, #104	; 0x68
    3608:	e7f8      	b.n	35fc <__sfp+0x18>
    360a:	6832      	ldr	r2, [r6, #0]
    360c:	b10a      	cbz	r2, 3612 <__sfp+0x2e>
    360e:	6836      	ldr	r6, [r6, #0]
    3610:	e7f2      	b.n	35f8 <__sfp+0x14>
    3612:	4638      	mov	r0, r7
    3614:	2104      	movs	r1, #4
    3616:	f7ff ffa3 	bl	3560 <__sfmoreglue>
    361a:	6030      	str	r0, [r6, #0]
    361c:	2800      	cmp	r0, #0
    361e:	d1f6      	bne.n	360e <__sfp+0x2a>
    3620:	240c      	movs	r4, #12
    3622:	603c      	str	r4, [r7, #0]
    3624:	4604      	mov	r4, r0
    3626:	e015      	b.n	3654 <__sfp+0x70>
    3628:	f64f 73ff 	movw	r3, #65535	; 0xffff
    362c:	2001      	movs	r0, #1
    362e:	81a0      	strh	r0, [r4, #12]
    3630:	81e3      	strh	r3, [r4, #14]
    3632:	6665      	str	r5, [r4, #100]	; 0x64
    3634:	6025      	str	r5, [r4, #0]
    3636:	60a5      	str	r5, [r4, #8]
    3638:	6065      	str	r5, [r4, #4]
    363a:	6125      	str	r5, [r4, #16]
    363c:	6165      	str	r5, [r4, #20]
    363e:	61a5      	str	r5, [r4, #24]
    3640:	f104 005c 	add.w	r0, r4, #92	; 0x5c
    3644:	4629      	mov	r1, r5
    3646:	2208      	movs	r2, #8
    3648:	f000 fa4f 	bl	3aea <memset>
    364c:	6365      	str	r5, [r4, #52]	; 0x34
    364e:	63a5      	str	r5, [r4, #56]	; 0x38
    3650:	64a5      	str	r5, [r4, #72]	; 0x48
    3652:	64e5      	str	r5, [r4, #76]	; 0x4c
    3654:	4620      	mov	r0, r4
    3656:	bdf8      	pop	{r3, r4, r5, r6, r7, pc}
    3658:	00008aa4 	.word	0x00008aa4

0000365c <__sfp_lock_acquire>:
    365c:	4770      	bx	lr

0000365e <__sfp_lock_release>:
    365e:	4770      	bx	lr

00003660 <_fopen_r>:
    3660:	b5f7      	push	{r0, r1, r2, r4, r5, r6, r7, lr}
    3662:	460f      	mov	r7, r1
    3664:	4611      	mov	r1, r2
    3666:	aa01      	add	r2, sp, #4
    3668:	4605      	mov	r5, r0
    366a:	f002 ff81 	bl	6570 <__sflags>
    366e:	4606      	mov	r6, r0
    3670:	b908      	cbnz	r0, 3676 <_fopen_r+0x16>
    3672:	2400      	movs	r4, #0
    3674:	e02a      	b.n	36cc <_fopen_r+0x6c>
    3676:	4628      	mov	r0, r5
    3678:	f7ff ffb4 	bl	35e4 <__sfp>
    367c:	4604      	mov	r4, r0
    367e:	2800      	cmp	r0, #0
    3680:	d0f7      	beq.n	3672 <_fopen_r+0x12>
    3682:	4628      	mov	r0, r5
    3684:	4639      	mov	r1, r7
    3686:	9a01      	ldr	r2, [sp, #4]
    3688:	f44f 73db 	mov.w	r3, #438	; 0x1b6
    368c:	f000 fa36 	bl	3afc <_open_r>
    3690:	2800      	cmp	r0, #0
    3692:	da06      	bge.n	36a2 <_fopen_r+0x42>
    3694:	2500      	movs	r5, #0
    3696:	f7ff ffe1 	bl	365c <__sfp_lock_acquire>
    369a:	81a5      	strh	r5, [r4, #12]
    369c:	f7ff ffdf 	bl	365e <__sfp_lock_release>
    36a0:	e7e7      	b.n	3672 <_fopen_r+0x12>
    36a2:	81e0      	strh	r0, [r4, #14]
    36a4:	81a6      	strh	r6, [r4, #12]
    36a6:	4b0a      	ldr	r3, [pc, #40]	; (36d0 <_fopen_r+0x70>)
    36a8:	480a      	ldr	r0, [pc, #40]	; (36d4 <_fopen_r+0x74>)
    36aa:	490b      	ldr	r1, [pc, #44]	; (36d8 <_fopen_r+0x78>)
    36ac:	4a0b      	ldr	r2, [pc, #44]	; (36dc <_fopen_r+0x7c>)
    36ae:	f406 7680 	and.w	r6, r6, #256	; 0x100
    36b2:	b236      	sxth	r6, r6
    36b4:	6224      	str	r4, [r4, #32]
    36b6:	6263      	str	r3, [r4, #36]	; 0x24
    36b8:	62a0      	str	r0, [r4, #40]	; 0x28
    36ba:	62e1      	str	r1, [r4, #44]	; 0x2c
    36bc:	6322      	str	r2, [r4, #48]	; 0x30
    36be:	b12e      	cbz	r6, 36cc <_fopen_r+0x6c>
    36c0:	4628      	mov	r0, r5
    36c2:	4621      	mov	r1, r4
    36c4:	2200      	movs	r2, #0
    36c6:	2302      	movs	r3, #2
    36c8:	f000 f86a 	bl	37a0 <_fseek_r>
    36cc:	4620      	mov	r0, r4
    36ce:	bdfe      	pop	{r1, r2, r3, r4, r5, r6, r7, pc}
    36d0:	00003d59 	.word	0x00003d59
    36d4:	00003d7f 	.word	0x00003d7f
    36d8:	00003dbb 	.word	0x00003dbb
    36dc:	00003ddf 	.word	0x00003ddf

000036e0 <fopen>:
    36e0:	460a      	mov	r2, r1
    36e2:	4903      	ldr	r1, [pc, #12]	; (36f0 <fopen+0x10>)
    36e4:	4603      	mov	r3, r0
    36e6:	6808      	ldr	r0, [r1, #0]
    36e8:	4619      	mov	r1, r3
    36ea:	f7ff bfb9 	b.w	3660 <_fopen_r>
    36ee:	bf00      	nop
    36f0:	10000134 	.word	0x10000134

000036f4 <fiprintf>:
    36f4:	b40e      	push	{r1, r2, r3}
    36f6:	b503      	push	{r0, r1, lr}
    36f8:	4601      	mov	r1, r0
    36fa:	ab03      	add	r3, sp, #12
    36fc:	4805      	ldr	r0, [pc, #20]	; (3714 <fiprintf+0x20>)
    36fe:	f853 2b04 	ldr.w	r2, [r3], #4
    3702:	6800      	ldr	r0, [r0, #0]
    3704:	9301      	str	r3, [sp, #4]
    3706:	f000 fefd 	bl	4504 <_vfiprintf_r>
    370a:	e8bd 400c 	ldmia.w	sp!, {r2, r3, lr}
    370e:	b003      	add	sp, #12
    3710:	4770      	bx	lr
    3712:	bf00      	nop
    3714:	10000134 	.word	0x10000134

00003718 <_free_r>:
    3718:	b530      	push	{r4, r5, lr}
    371a:	2900      	cmp	r1, #0
    371c:	d03c      	beq.n	3798 <_free_r+0x80>
    371e:	f851 2c04 	ldr.w	r2, [r1, #-4]
    3722:	1f0b      	subs	r3, r1, #4
    3724:	491d      	ldr	r1, [pc, #116]	; (379c <_free_r+0x84>)
    3726:	2a00      	cmp	r2, #0
    3728:	bfb8      	it	lt
    372a:	189b      	addlt	r3, r3, r2
    372c:	680a      	ldr	r2, [r1, #0]
    372e:	b912      	cbnz	r2, 3736 <_free_r+0x1e>
    3730:	605a      	str	r2, [r3, #4]
    3732:	600b      	str	r3, [r1, #0]
    3734:	bd30      	pop	{r4, r5, pc}
    3736:	4293      	cmp	r3, r2
    3738:	d20e      	bcs.n	3758 <_free_r+0x40>
    373a:	6819      	ldr	r1, [r3, #0]
    373c:	1858      	adds	r0, r3, r1
    373e:	4290      	cmp	r0, r2
    3740:	d103      	bne.n	374a <_free_r+0x32>
    3742:	585a      	ldr	r2, [r3, r1]
    3744:	1889      	adds	r1, r1, r2
    3746:	6842      	ldr	r2, [r0, #4]
    3748:	6019      	str	r1, [r3, #0]
    374a:	4814      	ldr	r0, [pc, #80]	; (379c <_free_r+0x84>)
    374c:	605a      	str	r2, [r3, #4]
    374e:	6003      	str	r3, [r0, #0]
    3750:	bd30      	pop	{r4, r5, pc}
    3752:	4299      	cmp	r1, r3
    3754:	d803      	bhi.n	375e <_free_r+0x46>
    3756:	460a      	mov	r2, r1
    3758:	6851      	ldr	r1, [r2, #4]
    375a:	2900      	cmp	r1, #0
    375c:	d1f9      	bne.n	3752 <_free_r+0x3a>
    375e:	6814      	ldr	r4, [r2, #0]
    3760:	1915      	adds	r5, r2, r4
    3762:	429d      	cmp	r5, r3
    3764:	d10a      	bne.n	377c <_free_r+0x64>
    3766:	6818      	ldr	r0, [r3, #0]
    3768:	1823      	adds	r3, r4, r0
    376a:	18d0      	adds	r0, r2, r3
    376c:	4288      	cmp	r0, r1
    376e:	6013      	str	r3, [r2, #0]
    3770:	d112      	bne.n	3798 <_free_r+0x80>
    3772:	6808      	ldr	r0, [r1, #0]
    3774:	181b      	adds	r3, r3, r0
    3776:	6013      	str	r3, [r2, #0]
    3778:	684b      	ldr	r3, [r1, #4]
    377a:	e00c      	b.n	3796 <_free_r+0x7e>
    377c:	d902      	bls.n	3784 <_free_r+0x6c>
    377e:	230c      	movs	r3, #12
    3780:	6003      	str	r3, [r0, #0]
    3782:	bd30      	pop	{r4, r5, pc}
    3784:	6818      	ldr	r0, [r3, #0]
    3786:	181c      	adds	r4, r3, r0
    3788:	428c      	cmp	r4, r1
    378a:	d103      	bne.n	3794 <_free_r+0x7c>
    378c:	680c      	ldr	r4, [r1, #0]
    378e:	6849      	ldr	r1, [r1, #4]
    3790:	1900      	adds	r0, r0, r4
    3792:	6018      	str	r0, [r3, #0]
    3794:	6059      	str	r1, [r3, #4]
    3796:	6053      	str	r3, [r2, #4]
    3798:	bd30      	pop	{r4, r5, pc}
    379a:	bf00      	nop
    379c:	1000038c 	.word	0x1000038c

000037a0 <_fseek_r>:
    37a0:	e92d 41f0 	stmdb	sp!, {r4, r5, r6, r7, r8, lr}
    37a4:	460c      	mov	r4, r1
    37a6:	4690      	mov	r8, r2
    37a8:	461e      	mov	r6, r3
    37aa:	4605      	mov	r5, r0
    37ac:	b118      	cbz	r0, 37b6 <_fseek_r+0x16>
    37ae:	6983      	ldr	r3, [r0, #24]
    37b0:	b90b      	cbnz	r3, 37b6 <_fseek_r+0x16>
    37b2:	f7ff feeb 	bl	358c <__sinit>
    37b6:	4843      	ldr	r0, [pc, #268]	; (38c4 <_fseek_r+0x124>)
    37b8:	4284      	cmp	r4, r0
    37ba:	d101      	bne.n	37c0 <_fseek_r+0x20>
    37bc:	686c      	ldr	r4, [r5, #4]
    37be:	e008      	b.n	37d2 <_fseek_r+0x32>
    37c0:	4941      	ldr	r1, [pc, #260]	; (38c8 <_fseek_r+0x128>)
    37c2:	428c      	cmp	r4, r1
    37c4:	d101      	bne.n	37ca <_fseek_r+0x2a>
    37c6:	68ac      	ldr	r4, [r5, #8]
    37c8:	e003      	b.n	37d2 <_fseek_r+0x32>
    37ca:	4a40      	ldr	r2, [pc, #256]	; (38cc <_fseek_r+0x12c>)
    37cc:	4294      	cmp	r4, r2
    37ce:	bf08      	it	eq
    37d0:	68ec      	ldreq	r4, [r5, #12]
    37d2:	f7ff ff43 	bl	365c <__sfp_lock_acquire>
    37d6:	89a7      	ldrh	r7, [r4, #12]
    37d8:	f407 7384 	and.w	r3, r7, #264	; 0x108
    37dc:	f5b3 7f84 	cmp.w	r3, #264	; 0x108
    37e0:	d103      	bne.n	37ea <_fseek_r+0x4a>
    37e2:	4628      	mov	r0, r5
    37e4:	4621      	mov	r1, r4
    37e6:	f7ff fdc7 	bl	3378 <_fflush_r>
    37ea:	6ae7      	ldr	r7, [r4, #44]	; 0x2c
    37ec:	201d      	movs	r0, #29
    37ee:	2f00      	cmp	r7, #0
    37f0:	d030      	beq.n	3854 <_fseek_r+0xb4>
    37f2:	2e01      	cmp	r6, #1
    37f4:	d005      	beq.n	3802 <_fseek_r+0x62>
    37f6:	2e02      	cmp	r6, #2
    37f8:	d033      	beq.n	3862 <_fseek_r+0xc2>
    37fa:	2e00      	cmp	r6, #0
    37fc:	d031      	beq.n	3862 <_fseek_r+0xc2>
    37fe:	2016      	movs	r0, #22
    3800:	e028      	b.n	3854 <_fseek_r+0xb4>
    3802:	4621      	mov	r1, r4
    3804:	4628      	mov	r0, r5
    3806:	f7ff fdb7 	bl	3378 <_fflush_r>
    380a:	89a1      	ldrh	r1, [r4, #12]
    380c:	f401 5280 	and.w	r2, r1, #4096	; 0x1000
    3810:	b212      	sxth	r2, r2
    3812:	b10a      	cbz	r2, 3818 <_fseek_r+0x78>
    3814:	6d60      	ldr	r0, [r4, #84]	; 0x54
    3816:	e005      	b.n	3824 <_fseek_r+0x84>
    3818:	4633      	mov	r3, r6
    381a:	4628      	mov	r0, r5
    381c:	6a21      	ldr	r1, [r4, #32]
    381e:	47b8      	blx	r7
    3820:	1c43      	adds	r3, r0, #1
    3822:	d018      	beq.n	3856 <_fseek_r+0xb6>
    3824:	89a6      	ldrh	r6, [r4, #12]
    3826:	f006 0304 	and.w	r3, r6, #4
    382a:	b219      	sxth	r1, r3
    382c:	b131      	cbz	r1, 383c <_fseek_r+0x9c>
    382e:	6866      	ldr	r6, [r4, #4]
    3830:	6b63      	ldr	r3, [r4, #52]	; 0x34
    3832:	1b80      	subs	r0, r0, r6
    3834:	b15b      	cbz	r3, 384e <_fseek_r+0xae>
    3836:	6c21      	ldr	r1, [r4, #64]	; 0x40
    3838:	1a40      	subs	r0, r0, r1
    383a:	e008      	b.n	384e <_fseek_r+0xae>
    383c:	f006 0208 	and.w	r2, r6, #8
    3840:	b216      	sxth	r6, r2
    3842:	b126      	cbz	r6, 384e <_fseek_r+0xae>
    3844:	6823      	ldr	r3, [r4, #0]
    3846:	b113      	cbz	r3, 384e <_fseek_r+0xae>
    3848:	6921      	ldr	r1, [r4, #16]
    384a:	1a5a      	subs	r2, r3, r1
    384c:	1880      	adds	r0, r0, r2
    384e:	4480      	add	r8, r0
    3850:	2600      	movs	r6, #0
    3852:	e006      	b.n	3862 <_fseek_r+0xc2>
    3854:	6028      	str	r0, [r5, #0]
    3856:	f7ff ff02 	bl	365e <__sfp_lock_release>
    385a:	f04f 30ff 	mov.w	r0, #4294967295
    385e:	e8bd 81f0 	ldmia.w	sp!, {r4, r5, r6, r7, r8, pc}
    3862:	6920      	ldr	r0, [r4, #16]
    3864:	b918      	cbnz	r0, 386e <_fseek_r+0xce>
    3866:	4628      	mov	r0, r5
    3868:	4621      	mov	r1, r4
    386a:	f000 f879 	bl	3960 <__smakebuf_r>
    386e:	4628      	mov	r0, r5
    3870:	4621      	mov	r1, r4
    3872:	f7ff fd81 	bl	3378 <_fflush_r>
    3876:	2800      	cmp	r0, #0
    3878:	d1ed      	bne.n	3856 <_fseek_r+0xb6>
    387a:	4628      	mov	r0, r5
    387c:	6a21      	ldr	r1, [r4, #32]
    387e:	4642      	mov	r2, r8
    3880:	4633      	mov	r3, r6
    3882:	47b8      	blx	r7
    3884:	3001      	adds	r0, #1
    3886:	d0e6      	beq.n	3856 <_fseek_r+0xb6>
    3888:	6b61      	ldr	r1, [r4, #52]	; 0x34
    388a:	b141      	cbz	r1, 389e <_fseek_r+0xfe>
    388c:	f104 0244 	add.w	r2, r4, #68	; 0x44
    3890:	4291      	cmp	r1, r2
    3892:	d002      	beq.n	389a <_fseek_r+0xfa>
    3894:	4628      	mov	r0, r5
    3896:	f7ff ff3f 	bl	3718 <_free_r>
    389a:	2500      	movs	r5, #0
    389c:	6365      	str	r5, [r4, #52]	; 0x34
    389e:	89a1      	ldrh	r1, [r4, #12]
    38a0:	6923      	ldr	r3, [r4, #16]
    38a2:	2500      	movs	r5, #0
    38a4:	f021 0020 	bic.w	r0, r1, #32
    38a8:	6023      	str	r3, [r4, #0]
    38aa:	81a0      	strh	r0, [r4, #12]
    38ac:	4629      	mov	r1, r5
    38ae:	2208      	movs	r2, #8
    38b0:	6065      	str	r5, [r4, #4]
    38b2:	f104 005c 	add.w	r0, r4, #92	; 0x5c
    38b6:	f000 f918 	bl	3aea <memset>
    38ba:	f7ff fed0 	bl	365e <__sfp_lock_release>
    38be:	4628      	mov	r0, r5
    38c0:	e8bd 81f0 	ldmia.w	sp!, {r4, r5, r6, r7, r8, pc}
    38c4:	00008a40 	.word	0x00008a40
    38c8:	00008a60 	.word	0x00008a60
    38cc:	00008a80 	.word	0x00008a80

000038d0 <_fwalk_reent>:
    38d0:	e92d 43f8 	stmdb	sp!, {r3, r4, r5, r6, r7, r8, r9, lr}
    38d4:	4680      	mov	r8, r0
    38d6:	4689      	mov	r9, r1
    38d8:	f7ff fec0 	bl	365c <__sfp_lock_acquire>
    38dc:	f108 044c 	add.w	r4, r8, #76	; 0x4c
    38e0:	2600      	movs	r6, #0
    38e2:	b194      	cbz	r4, 390a <_fwalk_reent+0x3a>
    38e4:	68a5      	ldr	r5, [r4, #8]
    38e6:	6867      	ldr	r7, [r4, #4]
    38e8:	3f01      	subs	r7, #1
    38ea:	d40c      	bmi.n	3906 <_fwalk_reent+0x36>
    38ec:	f9b5 300c 	ldrsh.w	r3, [r5, #12]
    38f0:	b13b      	cbz	r3, 3902 <_fwalk_reent+0x32>
    38f2:	f9b5 000e 	ldrsh.w	r0, [r5, #14]
    38f6:	1c43      	adds	r3, r0, #1
    38f8:	d003      	beq.n	3902 <_fwalk_reent+0x32>
    38fa:	4640      	mov	r0, r8
    38fc:	4629      	mov	r1, r5
    38fe:	47c8      	blx	r9
    3900:	4306      	orrs	r6, r0
    3902:	3568      	adds	r5, #104	; 0x68
    3904:	e7f0      	b.n	38e8 <_fwalk_reent+0x18>
    3906:	6824      	ldr	r4, [r4, #0]
    3908:	e7eb      	b.n	38e2 <_fwalk_reent+0x12>
    390a:	f7ff fea8 	bl	365e <__sfp_lock_release>
    390e:	4630      	mov	r0, r6
    3910:	e8bd 83f8 	ldmia.w	sp!, {r3, r4, r5, r6, r7, r8, r9, pc}

00003914 <__libc_init_array>:
    3914:	b538      	push	{r3, r4, r5, lr}
    3916:	4d0e      	ldr	r5, [pc, #56]	; (3950 <__libc_init_array+0x3c>)
    3918:	4b0e      	ldr	r3, [pc, #56]	; (3954 <__libc_init_array+0x40>)
    391a:	2400      	movs	r4, #0
    391c:	1ae8      	subs	r0, r5, r3
    391e:	1085      	asrs	r5, r0, #2
    3920:	42ac      	cmp	r4, r5
    3922:	d005      	beq.n	3930 <__libc_init_array+0x1c>
    3924:	490b      	ldr	r1, [pc, #44]	; (3954 <__libc_init_array+0x40>)
    3926:	f851 2024 	ldr.w	r2, [r1, r4, lsl #2]
    392a:	4790      	blx	r2
    392c:	3401      	adds	r4, #1
    392e:	e7f7      	b.n	3920 <__libc_init_array+0xc>
    3930:	f004 fd34 	bl	839c <_init>
    3934:	4908      	ldr	r1, [pc, #32]	; (3958 <__libc_init_array+0x44>)
    3936:	4a09      	ldr	r2, [pc, #36]	; (395c <__libc_init_array+0x48>)
    3938:	1a54      	subs	r4, r2, r1
    393a:	10a5      	asrs	r5, r4, #2
    393c:	2400      	movs	r4, #0
    393e:	42ac      	cmp	r4, r5
    3940:	d005      	beq.n	394e <__libc_init_array+0x3a>
    3942:	4b05      	ldr	r3, [pc, #20]	; (3958 <__libc_init_array+0x44>)
    3944:	f853 0024 	ldr.w	r0, [r3, r4, lsl #2]
    3948:	4780      	blx	r0
    394a:	3401      	adds	r4, #1
    394c:	e7f7      	b.n	393e <__libc_init_array+0x2a>
    394e:	bd38      	pop	{r3, r4, r5, pc}
    3950:	1000019c 	.word	0x1000019c
    3954:	1000019c 	.word	0x1000019c
    3958:	1000019c 	.word	0x1000019c
    395c:	100001a4 	.word	0x100001a4

00003960 <__smakebuf_r>:
    3960:	b5f0      	push	{r4, r5, r6, r7, lr}
    3962:	898b      	ldrh	r3, [r1, #12]
    3964:	460c      	mov	r4, r1
    3966:	f003 0102 	and.w	r1, r3, #2
    396a:	b20a      	sxth	r2, r1
    396c:	b091      	sub	sp, #68	; 0x44
    396e:	4605      	mov	r5, r0
    3970:	bb52      	cbnz	r2, 39c8 <__smakebuf_r+0x68>
    3972:	f9b4 100e 	ldrsh.w	r1, [r4, #14]
    3976:	2900      	cmp	r1, #0
    3978:	da0a      	bge.n	3990 <__smakebuf_r+0x30>
    397a:	89a1      	ldrh	r1, [r4, #12]
    397c:	2700      	movs	r7, #0
    397e:	f001 0280 	and.w	r2, r1, #128	; 0x80
    3982:	b210      	sxth	r0, r2
    3984:	42b8      	cmp	r0, r7
    3986:	bf14      	ite	ne
    3988:	2640      	movne	r6, #64	; 0x40
    398a:	f44f 6680 	moveq.w	r6, #1024	; 0x400
    398e:	e00e      	b.n	39ae <__smakebuf_r+0x4e>
    3990:	aa01      	add	r2, sp, #4
    3992:	f002 fe1f 	bl	65d4 <_fstat_r>
    3996:	2800      	cmp	r0, #0
    3998:	dbef      	blt.n	397a <__smakebuf_r+0x1a>
    399a:	9f02      	ldr	r7, [sp, #8]
    399c:	f407 4070 	and.w	r0, r7, #61440	; 0xf000
    39a0:	f5b0 5600 	subs.w	r6, r0, #8192	; 0x2000
    39a4:	4273      	negs	r3, r6
    39a6:	eb53 0706 	adcs.w	r7, r3, r6
    39aa:	f44f 6680 	mov.w	r6, #1024	; 0x400
    39ae:	4628      	mov	r0, r5
    39b0:	4631      	mov	r1, r6
    39b2:	f000 f839 	bl	3a28 <_malloc_r>
    39b6:	b970      	cbnz	r0, 39d6 <__smakebuf_r+0x76>
    39b8:	89a1      	ldrh	r1, [r4, #12]
    39ba:	f401 7200 	and.w	r2, r1, #512	; 0x200
    39be:	b210      	sxth	r0, r2
    39c0:	b9e8      	cbnz	r0, 39fe <__smakebuf_r+0x9e>
    39c2:	f041 0302 	orr.w	r3, r1, #2
    39c6:	81a3      	strh	r3, [r4, #12]
    39c8:	f104 0147 	add.w	r1, r4, #71	; 0x47
    39cc:	2201      	movs	r2, #1
    39ce:	6021      	str	r1, [r4, #0]
    39d0:	6121      	str	r1, [r4, #16]
    39d2:	6162      	str	r2, [r4, #20]
    39d4:	e013      	b.n	39fe <__smakebuf_r+0x9e>
    39d6:	89a1      	ldrh	r1, [r4, #12]
    39d8:	4b0a      	ldr	r3, [pc, #40]	; (3a04 <__smakebuf_r+0xa4>)
