
setAdressI2C.elf:     file format elf32-littlearm
architecture: arm, flags 0x00000112:
EXEC_P, HAS_SYMS, D_PAGED
start address 0x00000421


Disassembly of section .text:

00000000 <__isr_vector>:
       0:	10008000 	.word	0x10008000
       4:	00000421 	.word	0x00000421
       8:	00000455 	.word	0x00000455
       c:	00000457 	.word	0x00000457
      10:	00000459 	.word	0x00000459
      14:	0000045b 	.word	0x0000045b
      18:	0000045d 	.word	0x0000045d
	...
      2c:	0000045f 	.word	0x0000045f
      30:	00000461 	.word	0x00000461
      34:	00000000 	.word	0x00000000
      38:	00000463 	.word	0x00000463
      3c:	00000465 	.word	0x00000465
      40:	00000469 	.word	0x00000469
      44:	0000046b 	.word	0x0000046b
      48:	0000046d 	.word	0x0000046d
      4c:	0000046f 	.word	0x0000046f
      50:	00000471 	.word	0x00000471
      54:	00000473 	.word	0x00000473
      58:	00000475 	.word	0x00000475
      5c:	00000477 	.word	0x00000477
      60:	00000479 	.word	0x00000479
      64:	0000047b 	.word	0x0000047b
      68:	0000047d 	.word	0x0000047d
      6c:	0000047f 	.word	0x0000047f
      70:	00000481 	.word	0x00000481
      74:	00000483 	.word	0x00000483
      78:	00000485 	.word	0x00000485
      7c:	00000487 	.word	0x00000487
      80:	00000489 	.word	0x00000489
      84:	0000048b 	.word	0x0000048b
      88:	0000048d 	.word	0x0000048d
      8c:	0000048f 	.word	0x0000048f
      90:	00000491 	.word	0x00000491
      94:	00000493 	.word	0x00000493
      98:	00000495 	.word	0x00000495
      9c:	00000497 	.word	0x00000497
      a0:	00000499 	.word	0x00000499
      a4:	0000049b 	.word	0x0000049b
      a8:	0000049d 	.word	0x0000049d
      ac:	0000049f 	.word	0x0000049f
      b0:	000004a1 	.word	0x000004a1
      b4:	000004a3 	.word	0x000004a3
      b8:	000004a5 	.word	0x000004a5
      bc:	000004a7 	.word	0x000004a7
      c0:	000004a9 	.word	0x000004a9
      c4:	000004ab 	.word	0x000004ab
      c8:	000004ad 	.word	0x000004ad

000000cc <__do_global_dtors_aux>:
      cc:	b510      	push	{r4, lr}
      ce:	4c05      	ldr	r4, [pc, #20]	; (e4 <__do_global_dtors_aux+0x18>)
      d0:	7823      	ldrb	r3, [r4, #0]
      d2:	b933      	cbnz	r3, e2 <__do_global_dtors_aux+0x16>
      d4:	4804      	ldr	r0, [pc, #16]	; (e8 <__do_global_dtors_aux+0x1c>)
      d6:	b110      	cbz	r0, de <__do_global_dtors_aux+0x12>
      d8:	4804      	ldr	r0, [pc, #16]	; (ec <__do_global_dtors_aux+0x20>)
      da:	f3af 8000 	nop.w
      de:	2101      	movs	r1, #1
      e0:	7021      	strb	r1, [r4, #0]
      e2:	bd10      	pop	{r4, pc}
      e4:	100001a8 	.word	0x100001a8
      e8:	00000000 	.word	0x00000000
      ec:	00008d64 	.word	0x00008d64

000000f0 <frame_dummy>:
      f0:	b508      	push	{r3, lr}
      f2:	4b06      	ldr	r3, [pc, #24]	; (10c <frame_dummy+0x1c>)
      f4:	b11b      	cbz	r3, fe <frame_dummy+0xe>
      f6:	4806      	ldr	r0, [pc, #24]	; (110 <frame_dummy+0x20>)
      f8:	4906      	ldr	r1, [pc, #24]	; (114 <frame_dummy+0x24>)
      fa:	f3af 8000 	nop.w
      fe:	4806      	ldr	r0, [pc, #24]	; (118 <frame_dummy+0x28>)
     100:	6801      	ldr	r1, [r0, #0]
     102:	b111      	cbz	r1, 10a <frame_dummy+0x1a>
     104:	4a05      	ldr	r2, [pc, #20]	; (11c <frame_dummy+0x2c>)
     106:	b102      	cbz	r2, 10a <frame_dummy+0x1a>
     108:	4790      	blx	r2
     10a:	bd08      	pop	{r3, pc}
     10c:	00000000 	.word	0x00000000
     110:	00008d64 	.word	0x00008d64
     114:	100001ac 	.word	0x100001ac
     118:	100001a8 	.word	0x100001a8
     11c:	00000000 	.word	0x00000000

00000120 <_ZN4mbed6SerialD1Ev>:
     120:	4b05      	ldr	r3, [pc, #20]	; (138 <_ZN4mbed6SerialD1Ev+0x18>)
     122:	b510      	push	{r4, lr}
     124:	f103 0234 	add.w	r2, r3, #52	; 0x34
     128:	4604      	mov	r4, r0
     12a:	6003      	str	r3, [r0, #0]
     12c:	6042      	str	r2, [r0, #4]
     12e:	f000 fd45 	bl	bbc <_ZN4mbed6StreamD1Ev>
     132:	4620      	mov	r0, r4
     134:	bd10      	pop	{r4, pc}
     136:	bf00      	nop
     138:	00008410 	.word	0x00008410

0000013c <_ZThn4_N4mbed6SerialD1Ev>:
     13c:	f1a0 0004 	sub.w	r0, r0, #4
     140:	f7ff bfee 	b.w	120 <_ZN4mbed6SerialD1Ev>

00000144 <_ZN5SRF08D1Ev>:
     144:	4a04      	ldr	r2, [pc, #16]	; (158 <_ZN5SRF08D1Ev+0x14>)
     146:	b510      	push	{r4, lr}
     148:	4604      	mov	r4, r0
     14a:	f840 2f0c 	str.w	r2, [r0, #12]!
     14e:	f000 fe01 	bl	d54 <_ZN4mbed10TimerEventD1Ev>
     152:	4620      	mov	r0, r4
     154:	bd10      	pop	{r4, pc}
     156:	bf00      	nop
     158:	00008560 	.word	0x00008560

0000015c <main>:
     15c:	b538      	push	{r3, r4, r5, lr}
     15e:	4819      	ldr	r0, [pc, #100]	; (1c4 <main+0x68>)
     160:	4919      	ldr	r1, [pc, #100]	; (1c8 <main+0x6c>)
     162:	f000 fd75 	bl	c50 <_ZN4mbed6Stream6printfEPKcz>
     166:	4819      	ldr	r0, [pc, #100]	; (1cc <main+0x70>)
     168:	f000 f8ca 	bl	300 <_ZN5SRF0812startRangingEv>
     16c:	e005      	b.n	17a <main+0x1e>
     16e:	f24d 700a 	movw	r0, #55050	; 0xd70a
     172:	f6c3 4023 	movt	r0, #15395	; 0x3c23
     176:	f000 fa63 	bl	640 <wait>
     17a:	4814      	ldr	r0, [pc, #80]	; (1cc <main+0x70>)
     17c:	f000 f8ea 	bl	354 <_ZN5SRF0815rangingFinishedEv>
     180:	2800      	cmp	r0, #0
     182:	d0f4      	beq.n	16e <main+0x12>
     184:	4811      	ldr	r0, [pc, #68]	; (1cc <main+0x70>)
     186:	f000 f8eb 	bl	360 <_ZN5SRF088getRangeEv>
     18a:	4605      	mov	r5, r0
     18c:	480f      	ldr	r0, [pc, #60]	; (1cc <main+0x70>)
     18e:	f000 f909 	bl	3a4 <_ZN5SRF0817getLightIntensityEv>
     192:	490f      	ldr	r1, [pc, #60]	; (1d0 <main+0x74>)
     194:	4604      	mov	r4, r0
     196:	480b      	ldr	r0, [pc, #44]	; (1c4 <main+0x68>)
     198:	f000 fd5a 	bl	c50 <_ZN4mbed6Stream6printfEPKcz>
     19c:	462a      	mov	r2, r5
     19e:	490d      	ldr	r1, [pc, #52]	; (1d4 <main+0x78>)
     1a0:	4808      	ldr	r0, [pc, #32]	; (1c4 <main+0x68>)
     1a2:	f000 fd55 	bl	c50 <_ZN4mbed6Stream6printfEPKcz>
     1a6:	4622      	mov	r2, r4
     1a8:	490b      	ldr	r1, [pc, #44]	; (1d8 <main+0x7c>)
     1aa:	4806      	ldr	r0, [pc, #24]	; (1c4 <main+0x68>)
     1ac:	f000 fd50 	bl	c50 <_ZN4mbed6Stream6printfEPKcz>
     1b0:	490a      	ldr	r1, [pc, #40]	; (1dc <main+0x80>)
     1b2:	4804      	ldr	r0, [pc, #16]	; (1c4 <main+0x68>)
     1b4:	f000 fd4c 	bl	c50 <_ZN4mbed6Stream6printfEPKcz>
     1b8:	f04f 507e 	mov.w	r0, #1065353216	; 0x3f800000
     1bc:	f000 fa40 	bl	640 <wait>
     1c0:	e7d1      	b.n	166 <main+0xa>
     1c2:	bf00      	nop
     1c4:	100001c4 	.word	0x100001c4
     1c8:	000083b4 	.word	0x000083b4
     1cc:	1000021c 	.word	0x1000021c
     1d0:	000083cc 	.word	0x000083cc
     1d4:	000083d0 	.word	0x000083d0
     1d8:	000083e0 	.word	0x000083e0
     1dc:	000083f0 	.word	0x000083f0

000001e0 <_ZN4mbed6SerialD0Ev>:
     1e0:	4b06      	ldr	r3, [pc, #24]	; (1fc <_ZN4mbed6SerialD0Ev+0x1c>)
     1e2:	b510      	push	{r4, lr}
     1e4:	f103 0234 	add.w	r2, r3, #52	; 0x34
     1e8:	4604      	mov	r4, r0
     1ea:	6003      	str	r3, [r0, #0]
     1ec:	6042      	str	r2, [r0, #4]
     1ee:	f000 fce5 	bl	bbc <_ZN4mbed6StreamD1Ev>
     1f2:	4620      	mov	r0, r4
     1f4:	f001 fdde 	bl	1db4 <_ZdlPv>
     1f8:	4620      	mov	r0, r4
     1fa:	bd10      	pop	{r4, pc}
     1fc:	00008410 	.word	0x00008410

00000200 <_ZThn4_N4mbed6SerialD0Ev>:
     200:	f1a0 0004 	sub.w	r0, r0, #4
     204:	e7ec      	b.n	1e0 <_ZN4mbed6SerialD0Ev>
     206:	bf00      	nop

00000208 <_GLOBAL__sub_I_rangeMod1>:
     208:	b538      	push	{r3, r4, r5, lr}
     20a:	f240 251c 	movw	r5, #540	; 0x21c
     20e:	f2c1 0500 	movt	r5, #4096	; 0x1000
     212:	f44f 4140 	mov.w	r1, #49152	; 0xc000
     216:	f24c 0201 	movw	r2, #49153	; 0xc001
     21a:	23e0      	movs	r3, #224	; 0xe0
     21c:	f2c2 0109 	movt	r1, #8201	; 0x2009
     220:	f2c2 0209 	movt	r2, #8201	; 0x2009
     224:	4628      	mov	r0, r5
     226:	f240 04c8 	movw	r4, #200	; 0xc8
     22a:	f000 f841 	bl	2b0 <_ZN5SRF08C1E7PinNameS0_i>
     22e:	f2c1 0400 	movt	r4, #4096	; 0x1000
     232:	f240 1145 	movw	r1, #325	; 0x145
     236:	4622      	mov	r2, r4
     238:	f2c0 0100 	movt	r1, #0
     23c:	4628      	mov	r0, r5
     23e:	f240 15c4 	movw	r5, #452	; 0x1c4
     242:	f001 fe2b 	bl	1e9c <__aeabi_atexit>
     246:	f2c1 0500 	movt	r5, #4096	; 0x1000
     24a:	f24c 0102 	movw	r1, #49154	; 0xc002
     24e:	f24c 0203 	movw	r2, #49155	; 0xc003
     252:	f2c2 0109 	movt	r1, #8201	; 0x2009
     256:	f2c2 0209 	movt	r2, #8201	; 0x2009
     25a:	4628      	mov	r0, r5
     25c:	2300      	movs	r3, #0
     25e:	f000 fa71 	bl	744 <_ZN4mbed6SerialC1E7PinNameS1_PKc>
     262:	f240 1121 	movw	r1, #289	; 0x121
     266:	4628      	mov	r0, r5
     268:	f2c0 0100 	movt	r1, #0
     26c:	4622      	mov	r2, r4
     26e:	e8bd 4038 	ldmia.w	sp!, {r3, r4, r5, lr}
     272:	f001 be13 	b.w	1e9c <__aeabi_atexit>
     276:	bf00      	nop

00000278 <_ZN5SRF0818setRangingFinishedEv>:
     278:	2300      	movs	r3, #0
     27a:	f880 303c 	strb.w	r3, [r0, #60]	; 0x3c
     27e:	4770      	bx	lr

00000280 <_ZN4mbed15FunctionPointer12membercallerI5SRF08EEvPvPc>:
     280:	b500      	push	{lr}
     282:	460b      	mov	r3, r1
     284:	b083      	sub	sp, #12
     286:	6849      	ldr	r1, [r1, #4]
     288:	4602      	mov	r2, r0
     28a:	6818      	ldr	r0, [r3, #0]
     28c:	466b      	mov	r3, sp
     28e:	c303      	stmia	r3!, {r0, r1}
     290:	460b      	mov	r3, r1
     292:	07d9      	lsls	r1, r3, #31
     294:	d507      	bpl.n	2a6 <_ZN4mbed15FunctionPointer12membercallerI5SRF08EEvPvPc+0x26>
     296:	1058      	asrs	r0, r3, #1
     298:	5811      	ldr	r1, [r2, r0]
     29a:	1810      	adds	r0, r2, r0
     29c:	9a00      	ldr	r2, [sp, #0]
     29e:	5889      	ldr	r1, [r1, r2]
     2a0:	4788      	blx	r1
     2a2:	b003      	add	sp, #12
     2a4:	bd00      	pop	{pc}
     2a6:	4601      	mov	r1, r0
     2a8:	eb02 0063 	add.w	r0, r2, r3, asr #1
     2ac:	e7f8      	b.n	2a0 <_ZN4mbed15FunctionPointer12membercallerI5SRF08EEvPvPc+0x20>
     2ae:	bf00      	nop

000002b0 <_ZN5SRF08C1E7PinNameS0_i>:
     2b0:	b570      	push	{r4, r5, r6, lr}
     2b2:	4604      	mov	r4, r0
     2b4:	2500      	movs	r5, #0
     2b6:	461e      	mov	r6, r3
     2b8:	f000 f9e6 	bl	688 <_ZN4mbed3I2CC1E7PinNameS1_>
     2bc:	7226      	strb	r6, [r4, #8]
     2be:	60e5      	str	r5, [r4, #12]
     2c0:	6125      	str	r5, [r4, #16]
     2c2:	6165      	str	r5, [r4, #20]
     2c4:	61a5      	str	r5, [r4, #24]
     2c6:	61e5      	str	r5, [r4, #28]
     2c8:	6225      	str	r5, [r4, #32]
     2ca:	6265      	str	r5, [r4, #36]	; 0x24
     2cc:	62a5      	str	r5, [r4, #40]	; 0x28
     2ce:	62e5      	str	r5, [r4, #44]	; 0x2c
     2d0:	6325      	str	r5, [r4, #48]	; 0x30
     2d2:	6365      	str	r5, [r4, #52]	; 0x34
     2d4:	63a5      	str	r5, [r4, #56]	; 0x38
     2d6:	f104 000c 	add.w	r0, r4, #12
     2da:	f000 fd25 	bl	d28 <_ZN4mbed10TimerEventC1Ev>
     2de:	4b06      	ldr	r3, [pc, #24]	; (2f8 <_ZN5SRF08C1E7PinNameS0_i+0x48>)
     2e0:	f104 0020 	add.w	r0, r4, #32
     2e4:	60e3      	str	r3, [r4, #12]
     2e6:	4629      	mov	r1, r5
     2e8:	f000 f9be 	bl	668 <_ZN4mbed15FunctionPointerC1EPFvvE>
     2ec:	4803      	ldr	r0, [pc, #12]	; (2fc <_ZN5SRF08C1E7PinNameS0_i+0x4c>)
     2ee:	f884 503c 	strb.w	r5, [r4, #60]	; 0x3c
     2f2:	60e0      	str	r0, [r4, #12]
     2f4:	4620      	mov	r0, r4
     2f6:	bd70      	pop	{r4, r5, r6, pc}
     2f8:	00008560 	.word	0x00008560
     2fc:	00008588 	.word	0x00008588

00000300 <_ZN5SRF0812startRangingEv>:
     300:	b570      	push	{r4, r5, r6, lr}
     302:	2500      	movs	r5, #0
     304:	b084      	sub	sp, #16
     306:	7a01      	ldrb	r1, [r0, #8]
     308:	aa03      	add	r2, sp, #12
     30a:	2302      	movs	r3, #2
     30c:	9500      	str	r5, [sp, #0]
     30e:	2651      	movs	r6, #81	; 0x51
     310:	4604      	mov	r4, r0
     312:	f88d 500c 	strb.w	r5, [sp, #12]
     316:	f88d 600d 	strb.w	r6, [sp, #13]
     31a:	f000 f9d3 	bl	6c4 <_ZN4mbed3I2C5writeEiPKcib>
     31e:	2301      	movs	r3, #1
     320:	0419      	lsls	r1, r3, #16
     322:	f884 303c 	strb.w	r3, [r4, #60]	; 0x3c
     326:	f240 2079 	movw	r0, #633	; 0x279
     32a:	f240 2381 	movw	r3, #641	; 0x281
     32e:	f441 528b 	orr.w	r2, r1, #4448	; 0x1160
     332:	f2c0 0000 	movt	r0, #0
     336:	f2c0 0300 	movt	r3, #0
     33a:	62a0      	str	r0, [r4, #40]	; 0x28
     33c:	6264      	str	r4, [r4, #36]	; 0x24
     33e:	62e5      	str	r5, [r4, #44]	; 0x2c
     340:	63a3      	str	r3, [r4, #56]	; 0x38
     342:	6225      	str	r5, [r4, #32]
     344:	f104 000c 	add.w	r0, r4, #12
     348:	f042 0110 	orr.w	r1, r2, #16
     34c:	f000 fcbc 	bl	cc8 <_ZN4mbed6Ticker5setupEj>
     350:	b004      	add	sp, #16
     352:	bd70      	pop	{r4, r5, r6, pc}

00000354 <_ZN5SRF0815rangingFinishedEv>:
     354:	f890 003c 	ldrb.w	r0, [r0, #60]	; 0x3c
     358:	f080 0001 	eor.w	r0, r0, #1
     35c:	4770      	bx	lr
     35e:	bf00      	nop

00000360 <_ZN5SRF088getRangeEv>:
     360:	b5f0      	push	{r4, r5, r6, r7, lr}
     362:	2701      	movs	r7, #1
     364:	b085      	sub	sp, #20
     366:	4604      	mov	r4, r0
     368:	2500      	movs	r5, #0
     36a:	7a01      	ldrb	r1, [r0, #8]
     36c:	2602      	movs	r6, #2
     36e:	aa02      	add	r2, sp, #8
     370:	463b      	mov	r3, r7
     372:	9700      	str	r7, [sp, #0]
     374:	f88d 6008 	strb.w	r6, [sp, #8]
     378:	f88d 500c 	strb.w	r5, [sp, #12]
     37c:	f88d 500d 	strb.w	r5, [sp, #13]
     380:	f000 f9a0 	bl	6c4 <_ZN4mbed3I2C5writeEiPKcib>
     384:	7a21      	ldrb	r1, [r4, #8]
     386:	4633      	mov	r3, r6
     388:	9500      	str	r5, [sp, #0]
     38a:	4620      	mov	r0, r4
     38c:	aa03      	add	r2, sp, #12
     38e:	f000 f9af 	bl	6f0 <_ZN4mbed3I2C4readEiPcib>
     392:	f89d 000c 	ldrb.w	r0, [sp, #12]
     396:	f89d 300d 	ldrb.w	r3, [sp, #13]
     39a:	eb03 2000 	add.w	r0, r3, r0, lsl #8
     39e:	b005      	add	sp, #20
     3a0:	bdf0      	pop	{r4, r5, r6, r7, pc}
     3a2:	bf00      	nop

000003a4 <_ZN5SRF0817getLightIntensityEv>:
     3a4:	b570      	push	{r4, r5, r6, lr}
     3a6:	2401      	movs	r4, #1
     3a8:	b084      	sub	sp, #16
     3aa:	4605      	mov	r5, r0
     3ac:	7a01      	ldrb	r1, [r0, #8]
     3ae:	2600      	movs	r6, #0
     3b0:	aa02      	add	r2, sp, #8
     3b2:	4623      	mov	r3, r4
     3b4:	9400      	str	r4, [sp, #0]
     3b6:	f88d 4008 	strb.w	r4, [sp, #8]
     3ba:	f88d 600c 	strb.w	r6, [sp, #12]
     3be:	f000 f981 	bl	6c4 <_ZN4mbed3I2C5writeEiPKcib>
     3c2:	7a29      	ldrb	r1, [r5, #8]
     3c4:	4628      	mov	r0, r5
     3c6:	9600      	str	r6, [sp, #0]
     3c8:	aa03      	add	r2, sp, #12
     3ca:	4623      	mov	r3, r4
     3cc:	f000 f990 	bl	6f0 <_ZN4mbed3I2C4readEiPcib>
     3d0:	f89d 000c 	ldrb.w	r0, [sp, #12]
     3d4:	b004      	add	sp, #16
     3d6:	bd70      	pop	{r4, r5, r6, pc}

000003d8 <_start>:
     3d8:	f240 10a8 	movw	r0, #424	; 0x1a8
     3dc:	f240 42a0 	movw	r2, #1184	; 0x4a0
     3e0:	f2c1 0000 	movt	r0, #4096	; 0x1000
     3e4:	f2c1 0200 	movt	r2, #4096	; 0x1000
     3e8:	b508      	push	{r3, lr}
     3ea:	2100      	movs	r1, #0
     3ec:	1a12      	subs	r2, r2, r0
     3ee:	f003 fb7c 	bl	3aea <memset>
     3f2:	f3af 8000 	nop.w
     3f6:	f003 fa8d 	bl	3914 <__libc_init_array>
     3fa:	f7ff feaf 	bl	15c <main>
     3fe:	f000 f8f1 	bl	5e4 <exit>
     402:	bf00      	nop

00000404 <__wrap__isatty>:
     404:	2802      	cmp	r0, #2
     406:	dc01      	bgt.n	40c <__wrap__isatty+0x8>
     408:	2001      	movs	r0, #1
     40a:	4770      	bx	lr
     40c:	f007 bfaa 	b.w	8364 <_isatty>

00000410 <abort>:
     410:	b508      	push	{r3, lr}
     412:	2001      	movs	r0, #1
     414:	f000 f8e6 	bl	5e4 <exit>

00000418 <__cxa_pure_virtual>:
     418:	b508      	push	{r3, lr}
     41a:	f7ff fff9 	bl	410 <abort>
     41e:	bf00      	nop

00000420 <Reset_Handler>:
     420:	4907      	ldr	r1, [pc, #28]	; (440 <.flash_to_ram_loop+0x1a>)
     422:	4a08      	ldr	r2, [pc, #32]	; (444 <.flash_to_ram_loop+0x1e>)
     424:	4b08      	ldr	r3, [pc, #32]	; (448 <.flash_to_ram_loop+0x22>)

00000426 <.flash_to_ram_loop>:
     426:	429a      	cmp	r2, r3
     428:	bfbe      	ittt	lt
     42a:	f851 0b04 	ldrlt.w	r0, [r1], #4
     42e:	f842 0b04 	strlt.w	r0, [r2], #4
     432:	f7ff bff8 	blt.w	426 <.flash_to_ram_loop>
     436:	4805      	ldr	r0, [pc, #20]	; (44c <.flash_to_ram_loop+0x26>)
     438:	4780      	blx	r0
     43a:	4805      	ldr	r0, [pc, #20]	; (450 <.flash_to_ram_loop+0x2a>)
     43c:	4700      	bx	r0
     43e:	0000      	.short	0x0000
     440:	00008d68 	.word	0x00008d68
     444:	100000c8 	.word	0x100000c8
     448:	100001a8 	.word	0x100001a8
     44c:	00000509 	.word	0x00000509
     450:	000003d9 	.word	0x000003d9

00000454 <NMI_Handler>:
     454:	e7fe      	b.n	454 <NMI_Handler>

00000456 <HardFault_Handler>:
     456:	e7fe      	b.n	456 <HardFault_Handler>

00000458 <MemManage_Handler>:
     458:	e7fe      	b.n	458 <MemManage_Handler>

0000045a <BusFault_Handler>:
     45a:	e7fe      	b.n	45a <BusFault_Handler>

0000045c <UsageFault_Handler>:
     45c:	e7fe      	b.n	45c <UsageFault_Handler>

0000045e <SVC_Handler>:
     45e:	e7fe      	b.n	45e <SVC_Handler>

00000460 <DebugMon_Handler>:
     460:	e7fe      	b.n	460 <DebugMon_Handler>

00000462 <PendSV_Handler>:
     462:	e7fe      	b.n	462 <PendSV_Handler>

00000464 <SysTick_Handler>:
     464:	e7fe      	b.n	464 <SysTick_Handler>

00000466 <DEF_IRQHandler>:
     466:	e7fe      	b.n	466 <DEF_IRQHandler>

00000468 <WDT_IRQHandler>:
     468:	e7fe      	b.n	468 <WDT_IRQHandler>

0000046a <TIMER0_IRQHandler>:
     46a:	e7fe      	b.n	46a <TIMER0_IRQHandler>

0000046c <TIMER1_IRQHandler>:
     46c:	e7fe      	b.n	46c <TIMER1_IRQHandler>

0000046e <TIMER2_IRQHandler>:
     46e:	e7fe      	b.n	46e <TIMER2_IRQHandler>

00000470 <TIMER3_IRQHandler>:
     470:	e7fe      	b.n	470 <TIMER3_IRQHandler>

00000472 <UART0_IRQHandler>:
     472:	e7fe      	b.n	472 <UART0_IRQHandler>

00000474 <UART1_IRQHandler>:
     474:	e7fe      	b.n	474 <UART1_IRQHandler>

00000476 <UART2_IRQHandler>:
     476:	e7fe      	b.n	476 <UART2_IRQHandler>

00000478 <UART3_IRQHandler>:
     478:	e7fe      	b.n	478 <UART3_IRQHandler>

0000047a <PWM1_IRQHandler>:
     47a:	e7fe      	b.n	47a <PWM1_IRQHandler>

0000047c <I2C0_IRQHandler>:
     47c:	e7fe      	b.n	47c <I2C0_IRQHandler>

0000047e <I2C1_IRQHandler>:
     47e:	e7fe      	b.n	47e <I2C1_IRQHandler>

00000480 <I2C2_IRQHandler>:
     480:	e7fe      	b.n	480 <I2C2_IRQHandler>

00000482 <SPI_IRQHandler>:
     482:	e7fe      	b.n	482 <SPI_IRQHandler>

00000484 <SSP0_IRQHandler>:
     484:	e7fe      	b.n	484 <SSP0_IRQHandler>

00000486 <SSP1_IRQHandler>:
     486:	e7fe      	b.n	486 <SSP1_IRQHandler>

00000488 <PLL0_IRQHandler>:
     488:	e7fe      	b.n	488 <PLL0_IRQHandler>

0000048a <RTC_IRQHandler>:
     48a:	e7fe      	b.n	48a <RTC_IRQHandler>

0000048c <EINT0_IRQHandler>:
     48c:	e7fe      	b.n	48c <EINT0_IRQHandler>

0000048e <EINT1_IRQHandler>:
     48e:	e7fe      	b.n	48e <EINT1_IRQHandler>

00000490 <EINT2_IRQHandler>:
     490:	e7fe      	b.n	490 <EINT2_IRQHandler>

00000492 <EINT3_IRQHandler>:
     492:	e7fe      	b.n	492 <EINT3_IRQHandler>

00000494 <ADC_IRQHandler>:
     494:	e7fe      	b.n	494 <ADC_IRQHandler>

00000496 <BOD_IRQHandler>:
     496:	e7fe      	b.n	496 <BOD_IRQHandler>

00000498 <USB_IRQHandler>:
     498:	e7fe      	b.n	498 <USB_IRQHandler>

0000049a <CAN_IRQHandler>:
     49a:	e7fe      	b.n	49a <CAN_IRQHandler>

0000049c <DMA_IRQHandler>:
     49c:	e7fe      	b.n	49c <DMA_IRQHandler>

0000049e <I2S_IRQHandler>:
     49e:	e7fe      	b.n	49e <I2S_IRQHandler>

000004a0 <ENET_IRQHandler>:
     4a0:	e7fe      	b.n	4a0 <ENET_IRQHandler>

000004a2 <RIT_IRQHandler>:
     4a2:	e7fe      	b.n	4a2 <RIT_IRQHandler>

000004a4 <MCPWM_IRQHandler>:
     4a4:	e7fe      	b.n	4a4 <MCPWM_IRQHandler>

000004a6 <QEI_IRQHandler>:
     4a6:	e7fe      	b.n	4a6 <QEI_IRQHandler>

000004a8 <PLL1_IRQHandler>:
     4a8:	e7fe      	b.n	4a8 <PLL1_IRQHandler>

000004aa <USBActivity_IRQHandler>:
     4aa:	e7fe      	b.n	4aa <USBActivity_IRQHandler>

000004ac <CANActivity_IRQHandler>:
     4ac:	e7fe      	b.n	4ac <CANActivity_IRQHandler>
     4ae:	bf00      	nop

000004b0 <NVIC_SetVector>:
     4b0:	f44f 436d 	mov.w	r3, #60672	; 0xed00
     4b4:	f2ce 0300 	movt	r3, #57344	; 0xe000
     4b8:	689a      	ldr	r2, [r3, #8]
     4ba:	b470      	push	{r4, r5, r6}
     4bc:	f1b2 5f80 	cmp.w	r2, #268435456	; 0x10000000
     4c0:	d019      	beq.n	4f6 <NVIC_SetVector+0x46>
     4c2:	689e      	ldr	r6, [r3, #8]
     4c4:	f04f 5580 	mov.w	r5, #268435456	; 0x10000000
     4c8:	6832      	ldr	r2, [r6, #0]
     4ca:	f1c6 5480 	rsb	r4, r6, #268435456	; 0x10000000
     4ce:	4633      	mov	r3, r6
     4d0:	3404      	adds	r4, #4
     4d2:	36c0      	adds	r6, #192	; 0xc0
     4d4:	602a      	str	r2, [r5, #0]
     4d6:	685d      	ldr	r5, [r3, #4]
     4d8:	1d1a      	adds	r2, r3, #4
     4da:	50e5      	str	r5, [r4, r3]
     4dc:	689d      	ldr	r5, [r3, #8]
     4de:	3308      	adds	r3, #8
     4e0:	42b3      	cmp	r3, r6
     4e2:	50a5      	str	r5, [r4, r2]
     4e4:	d1f7      	bne.n	4d6 <NVIC_SetVector+0x26>
     4e6:	f44f 4c6d 	mov.w	r12, #60672	; 0xed00
     4ea:	f2ce 0c00 	movt	r12, #57344	; 0xe000
     4ee:	f04f 5380 	mov.w	r3, #268435456	; 0x10000000
     4f2:	f8cc 3008 	str.w	r3, [r12, #8]
     4f6:	f100 0010 	add.w	r0, r0, #16
     4fa:	0082      	lsls	r2, r0, #2
     4fc:	f102 5c80 	add.w	r12, r2, #268435456	; 0x10000000
     500:	f8cc 1000 	str.w	r1, [r12]
     504:	bc70      	pop	{r4, r5, r6}
     506:	4770      	bx	lr

00000508 <SystemInit>:
     508:	f44f 4240 	mov.w	r2, #49152	; 0xc000
     50c:	f2c4 020f 	movt	r2, #16399	; 0x400f
     510:	2320      	movs	r3, #32
     512:	b430      	push	{r4, r5}
     514:	f8c2 31a0 	str.w	r3, [r2, #416]	; 0x1a0
     518:	f8d2 01a0 	ldr.w	r0, [r2, #416]	; 0x1a0
     51c:	0680      	lsls	r0, r0, #26
     51e:	d456      	bmi.n	5ce <SystemInit+0xc6>
     520:	f44f 4c40 	mov.w	r12, #49152	; 0xc000
     524:	f2c4 0c0f 	movt	r12, #16399	; 0x400f
     528:	2500      	movs	r5, #0
     52a:	2002      	movs	r0, #2
     52c:	f8cc 0104 	str.w	r0, [r12, #260]	; 0x104
     530:	2401      	movs	r4, #1
     532:	f8cc 51a8 	str.w	r5, [r12, #424]	; 0x1a8
     536:	23aa      	movs	r3, #170	; 0xaa
     538:	f8cc 51ac 	str.w	r5, [r12, #428]	; 0x1ac
     53c:	2255      	movs	r2, #85	; 0x55
     53e:	250b      	movs	r5, #11
     540:	f8cc 410c 	str.w	r4, [r12, #268]	; 0x10c
     544:	4661      	mov	r1, r12
     546:	f8cc 5084 	str.w	r5, [r12, #132]	; 0x84
     54a:	f8cc 308c 	str.w	r3, [r12, #140]	; 0x8c
     54e:	f8cc 208c 	str.w	r2, [r12, #140]	; 0x8c
     552:	f8cc 4080 	str.w	r4, [r12, #128]	; 0x80
     556:	f8cc 308c 	str.w	r3, [r12, #140]	; 0x8c
     55a:	f8cc 208c 	str.w	r2, [r12, #140]	; 0x8c
     55e:	f8d1 2088 	ldr.w	r2, [r1, #136]	; 0x88
     562:	f44f 4c40 	mov.w	r12, #49152	; 0xc000
     566:	0152      	lsls	r2, r2, #5
     568:	f2c4 0c0f 	movt	r12, #16399	; 0x400f
     56c:	d5f7      	bpl.n	55e <SystemInit+0x56>
     56e:	2303      	movs	r3, #3
     570:	21aa      	movs	r1, #170	; 0xaa
     572:	2255      	movs	r2, #85	; 0x55
     574:	f8cc 3080 	str.w	r3, [r12, #128]	; 0x80
     578:	4660      	mov	r0, r12
     57a:	f8cc 108c 	str.w	r1, [r12, #140]	; 0x8c
     57e:	f8cc 208c 	str.w	r2, [r12, #140]	; 0x8c
     582:	f8d0 1088 	ldr.w	r1, [r0, #136]	; 0x88
     586:	f44f 4c40 	mov.w	r12, #49152	; 0xc000
     58a:	f011 7f40 	tst.w	r1, #50331648	; 0x3000000
     58e:	f2c4 0c0f 	movt	r12, #16399	; 0x400f
     592:	d0f6      	beq.n	582 <SystemInit+0x7a>
     594:	f248 73de 	movw	r3, #34782	; 0x87de
     598:	f2c0 4328 	movt	r3, #1064	; 0x428
     59c:	2005      	movs	r0, #5
     59e:	2200      	movs	r2, #0
     5a0:	f8cc 0108 	str.w	r0, [r12, #264]	; 0x108
     5a4:	f8cc 30c4 	str.w	r3, [r12, #196]	; 0xc4
     5a8:	f8cc 21c8 	str.w	r2, [r12, #456]	; 0x1c8
     5ac:	f8dc 1000 	ldr.w	r1, [r12]
     5b0:	f421 4370 	bic.w	r3, r1, #61440	; 0xf000
     5b4:	f023 003a 	bic.w	r0, r3, #58	; 0x3a
     5b8:	f440 5240 	orr.w	r2, r0, #12288	; 0x3000
     5bc:	4b08      	ldr	r3, [pc, #32]	; (5e0 <SystemInit+0xd8>)
     5be:	f042 013a 	orr.w	r1, r2, #58	; 0x3a
     5c2:	2001      	movs	r0, #1
     5c4:	f8cc 1000 	str.w	r1, [r12]
     5c8:	6018      	str	r0, [r3, #0]
     5ca:	bc30      	pop	{r4, r5}
     5cc:	4770      	bx	lr
     5ce:	f8d2 11a0 	ldr.w	r1, [r2, #416]	; 0x1a0
     5d2:	0649      	lsls	r1, r1, #25
     5d4:	d4a4      	bmi.n	520 <SystemInit+0x18>
     5d6:	f8d2 11a0 	ldr.w	r1, [r2, #416]	; 0x1a0
     5da:	0649      	lsls	r1, r1, #25
     5dc:	d5f7      	bpl.n	5ce <SystemInit+0xc6>
     5de:	e79f      	b.n	520 <SystemInit+0x18>
     5e0:	10000260 	.word	0x10000260

000005e4 <exit>:
     5e4:	b510      	push	{r4, lr}
     5e6:	4604      	mov	r4, r0
     5e8:	f000 f80a 	bl	600 <mbed_interface_connected>
     5ec:	b920      	cbnz	r0, 5f8 <exit+0x14>
     5ee:	b904      	cbnz	r4, 5f2 <exit+0xe>
     5f0:	e7fe      	b.n	5f0 <exit+0xc>
     5f2:	f000 fbc3 	bl	d7c <mbed_die>
     5f6:	e7fb      	b.n	5f0 <exit+0xc>
     5f8:	f000 f804 	bl	604 <semihost_exit>
     5fc:	e7f7      	b.n	5ee <exit+0xa>
     5fe:	bf00      	nop

00000600 <mbed_interface_connected>:
     600:	f000 be6a 	b.w	12d8 <semihost_connected>

00000604 <semihost_exit>:
     604:	b530      	push	{r4, r5, lr}
     606:	b085      	sub	sp, #20
     608:	466d      	mov	r5, sp
     60a:	2418      	movs	r4, #24
     60c:	4620      	mov	r0, r4
     60e:	4629      	mov	r1, r5
     610:	beab      	bkpt	0x00ab
     612:	4604      	mov	r4, r0
     614:	4620      	mov	r0, r4
     616:	b005      	add	sp, #20
     618:	bd30      	pop	{r4, r5, pc}
     61a:	bf00      	nop

0000061c <wait_us>:
     61c:	b538      	push	{r3, r4, r5, lr}
     61e:	4605      	mov	r5, r0
     620:	f001 f926 	bl	1870 <us_ticker_read>
     624:	4604      	mov	r4, r0
     626:	f001 f923 	bl	1870 <us_ticker_read>
     62a:	1b00      	subs	r0, r0, r4
     62c:	42a8      	cmp	r0, r5
     62e:	d3fa      	bcc.n	626 <wait_us+0xa>
     630:	bd38      	pop	{r3, r4, r5, pc}
     632:	bf00      	nop

00000634 <wait_ms>:
     634:	f44f 737a 	mov.w	r3, #1000	; 0x3e8
     638:	fb03 f000 	mul.w	r0, r3, r0
     63c:	f7ff bfee 	b.w	61c <wait_us>

00000640 <wait>:
     640:	b508      	push	{r3, lr}
     642:	f001 ffef 	bl	2624 <__aeabi_f2d>
     646:	a306      	add	r3, pc, #24	; (adr r3, 660 <wait+0x20>)
     648:	e9d3 2300 	ldrd	r2, r3, [r3]
     64c:	f002 f83e 	bl	26cc <__aeabi_dmul>
     650:	f002 fad6 	bl	2c00 <__aeabi_d2iz>
     654:	e8bd 4008 	ldmia.w	sp!, {r3, lr}
     658:	f7ff bfe0 	b.w	61c <wait_us>
     65c:	f3af 8000 	nop.w
     660:	00000000 	.word	0x00000000
     664:	412e8480 	.word	0x412e8480

00000668 <_ZN4mbed15FunctionPointerC1EPFvvE>:
     668:	2200      	movs	r2, #0
     66a:	6001      	str	r1, [r0, #0]
     66c:	6042      	str	r2, [r0, #4]
     66e:	4770      	bx	lr

00000670 <_ZN4mbed15FunctionPointer4callEv>:
     670:	b508      	push	{r3, lr}
     672:	6803      	ldr	r3, [r0, #0]
     674:	4601      	mov	r1, r0
     676:	b10b      	cbz	r3, 67c <_ZN4mbed15FunctionPointer4callEv+0xc>
     678:	4798      	blx	r3
     67a:	bd08      	pop	{r3, pc}
     67c:	6840      	ldr	r0, [r0, #4]
     67e:	b110      	cbz	r0, 686 <_ZN4mbed15FunctionPointer4callEv+0x16>
     680:	698a      	ldr	r2, [r1, #24]
     682:	3108      	adds	r1, #8
     684:	4790      	blx	r2
     686:	bd08      	pop	{r3, pc}

00000688 <_ZN4mbed3I2CC1E7PinNameS1_>:
     688:	b510      	push	{r4, lr}
     68a:	4604      	mov	r4, r0
     68c:	f000 fc48 	bl	f20 <i2c_init>
     690:	f248 62a0 	movw	r2, #34464	; 0x86a0
     694:	f240 235c 	movw	r3, #604	; 0x25c
     698:	f2c0 0201 	movt	r2, #1
     69c:	f2c1 0300 	movt	r3, #4096	; 0x1000
     6a0:	6062      	str	r2, [r4, #4]
     6a2:	601c      	str	r4, [r3, #0]
     6a4:	4620      	mov	r0, r4
     6a6:	bd10      	pop	{r4, pc}

000006a8 <_ZN4mbed3I2C6aquireEv>:
     6a8:	b538      	push	{r3, r4, r5, lr}
     6aa:	4d05      	ldr	r5, [pc, #20]	; (6c0 <_ZN4mbed3I2C6aquireEv+0x18>)
     6ac:	4604      	mov	r4, r0
     6ae:	682b      	ldr	r3, [r5, #0]
     6b0:	4283      	cmp	r3, r0
     6b2:	d003      	beq.n	6bc <_ZN4mbed3I2C6aquireEv+0x14>
     6b4:	6841      	ldr	r1, [r0, #4]
     6b6:	f000 fcc7 	bl	1048 <i2c_frequency>
     6ba:	602c      	str	r4, [r5, #0]
     6bc:	bd38      	pop	{r3, r4, r5, pc}
     6be:	bf00      	nop
     6c0:	1000025c 	.word	0x1000025c

000006c4 <_ZN4mbed3I2C5writeEiPKcib>:
     6c4:	e92d 41f0 	stmdb	sp!, {r4, r5, r6, r7, r8, lr}
     6c8:	4604      	mov	r4, r0
     6ca:	f89d 5018 	ldrb.w	r5, [sp, #24]
     6ce:	4688      	mov	r8, r1
     6d0:	4617      	mov	r7, r2
     6d2:	461e      	mov	r6, r3
     6d4:	f7ff ffe8 	bl	6a8 <_ZN4mbed3I2C6aquireEv>
     6d8:	f085 0501 	eor.w	r5, r5, #1
     6dc:	4620      	mov	r0, r4
     6de:	4641      	mov	r1, r8
     6e0:	463a      	mov	r2, r7
     6e2:	4633      	mov	r3, r6
     6e4:	9506      	str	r5, [sp, #24]
     6e6:	e8bd 41f0 	ldmia.w	sp!, {r4, r5, r6, r7, r8, lr}
     6ea:	f000 bd3b 	b.w	1164 <i2c_write>
     6ee:	bf00      	nop

000006f0 <_ZN4mbed3I2C4readEiPcib>:
     6f0:	e92d 41f0 	stmdb	sp!, {r4, r5, r6, r7, r8, lr}
     6f4:	4604      	mov	r4, r0
     6f6:	f89d 5018 	ldrb.w	r5, [sp, #24]
     6fa:	4688      	mov	r8, r1
     6fc:	4617      	mov	r7, r2
     6fe:	461e      	mov	r6, r3
     700:	f7ff ffd2 	bl	6a8 <_ZN4mbed3I2C6aquireEv>
     704:	f085 0501 	eor.w	r5, r5, #1
     708:	4620      	mov	r0, r4
     70a:	4641      	mov	r1, r8
     70c:	463a      	mov	r2, r7
     70e:	4633      	mov	r3, r6
     710:	9506      	str	r5, [sp, #24]
     712:	e8bd 41f0 	ldmia.w	sp!, {r4, r5, r6, r7, r8, lr}
     716:	f000 bca5 	b.w	1064 <i2c_read>
     71a:	bf00      	nop

0000071c <_ZN4mbed6Serial5_putcEi>:
     71c:	b510      	push	{r4, lr}
     71e:	3018      	adds	r0, #24
     720:	460c      	mov	r4, r1
     722:	f001 f89b 	bl	185c <serial_putc>
     726:	4620      	mov	r0, r4
     728:	bd10      	pop	{r4, pc}
     72a:	bf00      	nop

0000072c <_ZN4mbed6Serial5_getcEv>:
     72c:	3018      	adds	r0, #24
     72e:	f001 b88f 	b.w	1850 <serial_getc>
     732:	bf00      	nop

00000734 <_ZN4mbed6Serial12_irq_handlerEm9SerialIrq>:
     734:	ebc1 01c1 	rsb	r1, r1, r1, lsl #3
     738:	eb00 0081 	add.w	r0, r0, r1, lsl #2
     73c:	3020      	adds	r0, #32
     73e:	f7ff bf97 	b.w	670 <_ZN4mbed15FunctionPointer4callEv>
     742:	bf00      	nop

00000744 <_ZN4mbed6SerialC1E7PinNameS1_PKc>:
     744:	b5f8      	push	{r3, r4, r5, r6, r7, lr}
     746:	460e      	mov	r6, r1
     748:	4619      	mov	r1, r3
     74a:	4604      	mov	r4, r0
     74c:	4617      	mov	r7, r2
     74e:	f000 fa5b 	bl	c08 <_ZN4mbed6StreamC1EPKc>
     752:	f248 4308 	movw	r3, #33800	; 0x8408
     756:	f2c0 0300 	movt	r3, #0
     75a:	f103 0208 	add.w	r2, r3, #8
     75e:	333c      	adds	r3, #60	; 0x3c
     760:	e884 000c 	stmia.w	r4, {r2, r3}
     764:	2100      	movs	r1, #0
     766:	f104 0020 	add.w	r0, r4, #32
     76a:	f7ff ff7d 	bl	668 <_ZN4mbed15FunctionPointerC1EPFvvE>
     76e:	f104 0518 	add.w	r5, r4, #24
     772:	2100      	movs	r1, #0
     774:	f104 003c 	add.w	r0, r4, #60	; 0x3c
     778:	f7ff ff76 	bl	668 <_ZN4mbed15FunctionPointerC1EPFvvE>
     77c:	4628      	mov	r0, r5
     77e:	4631      	mov	r1, r6
     780:	463a      	mov	r2, r7
     782:	f000 ff29 	bl	15d8 <serial_init>
     786:	f240 7135 	movw	r1, #1845	; 0x735
     78a:	4628      	mov	r0, r5
     78c:	f2c0 0100 	movt	r1, #0
     790:	4622      	mov	r2, r4
     792:	f001 f84d 	bl	1830 <serial_irq_handler>
     796:	4620      	mov	r0, r4
     798:	bdf8      	pop	{r3, r4, r5, r6, r7, pc}
     79a:	bf00      	nop

0000079c <_ZN4mbed10FileHandle4flenEv>:
     79c:	6803      	ldr	r3, [r0, #0]
     79e:	b570      	push	{r4, r5, r6, lr}
     7a0:	2100      	movs	r1, #0
     7a2:	691d      	ldr	r5, [r3, #16]
     7a4:	2201      	movs	r2, #1
     7a6:	4604      	mov	r4, r0
     7a8:	47a8      	blx	r5
     7aa:	1c43      	adds	r3, r0, #1
     7ac:	4605      	mov	r5, r0
     7ae:	d00e      	beq.n	7ce <_ZN4mbed10FileHandle4flenEv+0x32>
     7b0:	6821      	ldr	r1, [r4, #0]
     7b2:	2202      	movs	r2, #2
     7b4:	690e      	ldr	r6, [r1, #16]
     7b6:	4620      	mov	r0, r4
     7b8:	2100      	movs	r1, #0
     7ba:	47b0      	blx	r6
     7bc:	6822      	ldr	r2, [r4, #0]
     7be:	4606      	mov	r6, r0
     7c0:	6913      	ldr	r3, [r2, #16]
     7c2:	4620      	mov	r0, r4
     7c4:	4629      	mov	r1, r5
     7c6:	2200      	movs	r2, #0
     7c8:	4798      	blx	r3
     7ca:	4630      	mov	r0, r6
     7cc:	bd70      	pop	{r4, r5, r6, pc}
     7ce:	4606      	mov	r6, r0
     7d0:	e7fb      	b.n	7ca <_ZN4mbed10FileHandle4flenEv+0x2e>
     7d2:	bf00      	nop

000007d4 <_ZN4mbed10FileHandleD1Ev>:
     7d4:	4b0d      	ldr	r3, [pc, #52]	; (80c <Heap_Size+0xc>)
     7d6:	4a0e      	ldr	r2, [pc, #56]	; (810 <Heap_Size+0x10>)
     7d8:	b430      	push	{r4, r5}
     7da:	6002      	str	r2, [r0, #0]
     7dc:	f503 7480 	add.w	r4, r3, #256	; 0x100
     7e0:	2500      	movs	r5, #0
     7e2:	e001      	b.n	7e8 <_ZN4mbed10FileHandleD1Ev+0x14>
     7e4:	42a3      	cmp	r3, r4
     7e6:	d00f      	beq.n	808 <Heap_Size+0x8>
     7e8:	469c      	mov	r12, r3
     7ea:	f85c 1b04 	ldr.w	r1, [r12], #4
     7ee:	4281      	cmp	r1, r0
     7f0:	bf08      	it	eq
     7f2:	f84c 5c04 	streq.w	r5, [r12, #-4]
     7f6:	4663      	mov	r3, r12
     7f8:	f853 2b04 	ldr.w	r2, [r3], #4
     7fc:	4282      	cmp	r2, r0
     7fe:	d1f1      	bne.n	7e4 <_ZN4mbed10FileHandleD1Ev+0x10>
     800:	42a3      	cmp	r3, r4
     802:	f843 5c04 	str.w	r5, [r3, #-4]
     806:	d1ef      	bne.n	7e8 <_ZN4mbed10FileHandleD1Ev+0x14>
     808:	bc30      	pop	{r4, r5}
     80a:	4770      	bx	lr
     80c:	10000264 	.word	0x10000264
     810:	00008498 	.word	0x00008498

00000814 <_ZN4mbed10FileHandleD0Ev>:
     814:	b538      	push	{r3, r4, r5, lr}
     816:	4a0f      	ldr	r2, [pc, #60]	; (854 <_ZN4mbed10FileHandleD0Ev+0x40>)
     818:	4b0f      	ldr	r3, [pc, #60]	; (858 <_ZN4mbed10FileHandleD0Ev+0x44>)
     81a:	4604      	mov	r4, r0
     81c:	6002      	str	r2, [r0, #0]
     81e:	2500      	movs	r5, #0
     820:	f503 7080 	add.w	r0, r3, #256	; 0x100
     824:	e001      	b.n	82a <_ZN4mbed10FileHandleD0Ev+0x16>
     826:	4283      	cmp	r3, r0
     828:	d00f      	beq.n	84a <_ZN4mbed10FileHandleD0Ev+0x36>
     82a:	469c      	mov	r12, r3
     82c:	f85c 1b04 	ldr.w	r1, [r12], #4
     830:	428c      	cmp	r4, r1
     832:	bf08      	it	eq
     834:	f84c 5c04 	streq.w	r5, [r12, #-4]
     838:	4663      	mov	r3, r12
     83a:	f853 2b04 	ldr.w	r2, [r3], #4
     83e:	4294      	cmp	r4, r2
     840:	d1f1      	bne.n	826 <_ZN4mbed10FileHandleD0Ev+0x12>
     842:	4283      	cmp	r3, r0
     844:	f843 5c04 	str.w	r5, [r3, #-4]
     848:	d1ef      	bne.n	82a <_ZN4mbed10FileHandleD0Ev+0x16>
     84a:	4620      	mov	r0, r4
     84c:	f001 fab2 	bl	1db4 <_ZdlPv>
     850:	4620      	mov	r0, r4
     852:	bd38      	pop	{r3, r4, r5, pc}
     854:	00008498 	.word	0x00008498
     858:	10000264 	.word	0x10000264

0000085c <_ZL11init_serialv>:
     85c:	4b0e      	ldr	r3, [pc, #56]	; (898 <_ZL11init_serialv+0x3c>)
     85e:	b510      	push	{r4, lr}
     860:	681c      	ldr	r4, [r3, #0]
     862:	b104      	cbz	r4, 866 <_ZL11init_serialv+0xa>
     864:	bd10      	pop	{r4, pc}
     866:	f24c 0102 	movw	r1, #49154	; 0xc002
     86a:	f24c 0203 	movw	r2, #49155	; 0xc003
     86e:	480b      	ldr	r0, [pc, #44]	; (89c <_ZL11init_serialv+0x40>)
     870:	f2c2 0109 	movt	r1, #8201	; 0x2009
     874:	f2c2 0209 	movt	r2, #8201	; 0x2009
     878:	f000 feae 	bl	15d8 <serial_init>
     87c:	2108      	movs	r1, #8
     87e:	4807      	ldr	r0, [pc, #28]	; (89c <_ZL11init_serialv+0x40>)
     880:	4622      	mov	r2, r4
     882:	2301      	movs	r3, #1
     884:	f000 fe64 	bl	1550 <serial_format>
     888:	4804      	ldr	r0, [pc, #16]	; (89c <_ZL11init_serialv+0x40>)
     88a:	f44f 5116 	mov.w	r1, #9600	; 0x2580
     88e:	e8bd 4010 	ldmia.w	sp!, {r4, lr}
     892:	f000 bd29 	b.w	12e8 <serial_baud>
     896:	bf00      	nop
     898:	10000364 	.word	0x10000364
     89c:	10000394 	.word	0x10000394

000008a0 <_open>:
     8a0:	b5f0      	push	{r4, r5, r6, r7, lr}
     8a2:	460f      	mov	r7, r1
     8a4:	b085      	sub	sp, #20
     8a6:	492e      	ldr	r1, [pc, #184]	; (960 <_open+0xc0>)
     8a8:	4606      	mov	r6, r0
     8aa:	f003 fa9c 	bl	3de6 <strcmp>
     8ae:	4604      	mov	r4, r0
     8b0:	2800      	cmp	r0, #0
     8b2:	d033      	beq.n	91c <_open+0x7c>
     8b4:	4630      	mov	r0, r6
     8b6:	492b      	ldr	r1, [pc, #172]	; (964 <_open+0xc4>)
     8b8:	f003 fa95 	bl	3de6 <strcmp>
     8bc:	b348      	cbz	r0, 912 <_open+0x72>
     8be:	4630      	mov	r0, r6
     8c0:	4929      	ldr	r1, [pc, #164]	; (968 <_open+0xc8>)
     8c2:	f003 fa90 	bl	3de6 <strcmp>
     8c6:	2800      	cmp	r0, #0
     8c8:	d02c      	beq.n	924 <_open+0x84>
     8ca:	4828      	ldr	r0, [pc, #160]	; (96c <_open+0xcc>)
     8cc:	2400      	movs	r4, #0
     8ce:	e006      	b.n	8de <_open+0x3e>
     8d0:	685d      	ldr	r5, [r3, #4]
     8d2:	3401      	adds	r4, #1
     8d4:	1d18      	adds	r0, r3, #4
     8d6:	b135      	cbz	r5, 8e6 <_open+0x46>
     8d8:	3401      	adds	r4, #1
     8da:	2c40      	cmp	r4, #64	; 0x40
     8dc:	d036      	beq.n	94c <_open+0xac>
     8de:	6845      	ldr	r5, [r0, #4]
     8e0:	1d03      	adds	r3, r0, #4
     8e2:	2d00      	cmp	r5, #0
     8e4:	d1f4      	bne.n	8d0 <_open+0x30>
     8e6:	7831      	ldrb	r1, [r6, #0]
     8e8:	293a      	cmp	r1, #58	; 0x3a
     8ea:	d032      	beq.n	952 <_open+0xb2>
     8ec:	a802      	add	r0, sp, #8
     8ee:	4631      	mov	r1, r6
     8f0:	f001 f924 	bl	1b3c <_ZN4mbed8FilePathC1EPKc>
     8f4:	a802      	add	r0, sp, #8
     8f6:	f001 f965 	bl	1bc4 <_ZN4mbed8FilePath6isFileEv>
     8fa:	b1b8      	cbz	r0, 92c <_open+0x8c>
     8fc:	a802      	add	r0, sp, #8
     8fe:	f001 f96b 	bl	1bd8 <_ZN4mbed8FilePath4fileEv>
     902:	4603      	mov	r3, r0
     904:	2b00      	cmp	r3, #0
     906:	d021      	beq.n	94c <_open+0xac>
     908:	4919      	ldr	r1, [pc, #100]	; (970 <_open+0xd0>)
     90a:	1ce0      	adds	r0, r4, #3
     90c:	f841 3024 	str.w	r3, [r1, r4, lsl #2]
     910:	e002      	b.n	918 <_open+0x78>
     912:	f7ff ffa3 	bl	85c <_ZL11init_serialv>
     916:	2001      	movs	r0, #1
     918:	b005      	add	sp, #20
     91a:	bdf0      	pop	{r4, r5, r6, r7, pc}
     91c:	f7ff ff9e 	bl	85c <_ZL11init_serialv>
     920:	4620      	mov	r0, r4
     922:	e7f9      	b.n	918 <_open+0x78>
     924:	f7ff ff9a 	bl	85c <_ZL11init_serialv>
     928:	2002      	movs	r0, #2
     92a:	e7f5      	b.n	918 <_open+0x78>
     92c:	a802      	add	r0, sp, #8
     92e:	f001 f941 	bl	1bb4 <_ZN4mbed8FilePath10fileSystemEv>
     932:	4605      	mov	r5, r0
     934:	b150      	cbz	r0, 94c <_open+0xac>
     936:	6802      	ldr	r2, [r0, #0]
     938:	a802      	add	r0, sp, #8
     93a:	6896      	ldr	r6, [r2, #8]
     93c:	f001 f930 	bl	1ba0 <_ZN4mbed8FilePath8fileNameEv>
     940:	463a      	mov	r2, r7
     942:	4601      	mov	r1, r0
     944:	4628      	mov	r0, r5
     946:	47b0      	blx	r6
     948:	4603      	mov	r3, r0
     94a:	e7db      	b.n	904 <_open+0x64>
     94c:	f04f 30ff 	mov.w	r0, #4294967295
     950:	e7e2      	b.n	918 <_open+0x78>
     952:	4630      	mov	r0, r6
     954:	4907      	ldr	r1, [pc, #28]	; (974 <_open+0xd4>)
     956:	aa01      	add	r2, sp, #4
     958:	f003 f9d4 	bl	3d04 <siscanf>
     95c:	9b01      	ldr	r3, [sp, #4]
     95e:	e7d1      	b.n	904 <_open+0x64>
     960:	0000845c 	.word	0x0000845c
     964:	00008480 	.word	0x00008480
     968:	00008464 	.word	0x00008464
     96c:	10000260 	.word	0x10000260
     970:	10000264 	.word	0x10000264
     974:	000084c0 	.word	0x000084c0

00000978 <_close>:
     978:	2802      	cmp	r0, #2
     97a:	b508      	push	{r3, lr}
     97c:	dd0b      	ble.n	996 <_close+0x1e>
     97e:	4b08      	ldr	r3, [pc, #32]	; (9a0 <_close+0x28>)
     980:	1ec2      	subs	r2, r0, #3
     982:	f853 0022 	ldr.w	r0, [r3, r2, lsl #2]
     986:	2100      	movs	r1, #0
     988:	f843 1022 	str.w	r1, [r3, r2, lsl #2]
     98c:	b128      	cbz	r0, 99a <_close+0x22>
     98e:	6803      	ldr	r3, [r0, #0]
     990:	685a      	ldr	r2, [r3, #4]
     992:	4790      	blx	r2
     994:	bd08      	pop	{r3, pc}
     996:	2000      	movs	r0, #0
     998:	bd08      	pop	{r3, pc}
     99a:	f04f 30ff 	mov.w	r0, #4294967295
     99e:	bd08      	pop	{r3, pc}
     9a0:	10000264 	.word	0x10000264

000009a4 <_write>:
     9a4:	2802      	cmp	r0, #2
     9a6:	b5f8      	push	{r3, r4, r5, r6, r7, lr}
     9a8:	460d      	mov	r5, r1
     9aa:	4617      	mov	r7, r2
     9ac:	dc28      	bgt.n	a00 <_write+0x5c>
     9ae:	491d      	ldr	r1, [pc, #116]	; (a24 <_write+0x80>)
     9b0:	680a      	ldr	r2, [r1, #0]
     9b2:	2a00      	cmp	r2, #0
     9b4:	d02d      	beq.n	a12 <_write+0x6e>
     9b6:	b30f      	cbz	r7, 9fc <_write+0x58>
     9b8:	462c      	mov	r4, r5
     9ba:	19ee      	adds	r6, r5, r7
     9bc:	f814 1b01 	ldrb.w	r1, [r4], #1
     9c0:	43ed      	mvns	r5, r5
     9c2:	19ab      	adds	r3, r5, r6
     9c4:	4818      	ldr	r0, [pc, #96]	; (a28 <_write+0x84>)
     9c6:	f003 0501 	and.w	r5, r3, #1
     9ca:	f000 ff47 	bl	185c <serial_putc>
     9ce:	42b4      	cmp	r4, r6
     9d0:	d014      	beq.n	9fc <_write+0x58>
     9d2:	b135      	cbz	r5, 9e2 <_write+0x3e>
     9d4:	f814 1b01 	ldrb.w	r1, [r4], #1
     9d8:	4813      	ldr	r0, [pc, #76]	; (a28 <_write+0x84>)
     9da:	f000 ff3f 	bl	185c <serial_putc>
     9de:	42b4      	cmp	r4, r6
     9e0:	d00c      	beq.n	9fc <_write+0x58>
     9e2:	4625      	mov	r5, r4
     9e4:	f815 1b01 	ldrb.w	r1, [r5], #1
     9e8:	480f      	ldr	r0, [pc, #60]	; (a28 <_write+0x84>)
     9ea:	f000 ff37 	bl	185c <serial_putc>
     9ee:	7861      	ldrb	r1, [r4, #1]
     9f0:	480d      	ldr	r0, [pc, #52]	; (a28 <_write+0x84>)
     9f2:	1c6c      	adds	r4, r5, #1
     9f4:	f000 ff32 	bl	185c <serial_putc>
     9f8:	42b4      	cmp	r4, r6
     9fa:	d1f2      	bne.n	9e2 <_write+0x3e>
     9fc:	4638      	mov	r0, r7
     9fe:	bdf8      	pop	{r3, r4, r5, r6, r7, pc}
     a00:	4b0a      	ldr	r3, [pc, #40]	; (a2c <_write+0x88>)
     a02:	3803      	subs	r0, #3
     a04:	f853 0020 	ldr.w	r0, [r3, r0, lsl #2]
     a08:	b140      	cbz	r0, a1c <_write+0x78>
     a0a:	6803      	ldr	r3, [r0, #0]
     a0c:	681b      	ldr	r3, [r3, #0]
     a0e:	4798      	blx	r3
     a10:	bdf8      	pop	{r3, r4, r5, r6, r7, pc}
     a12:	f7ff ff23 	bl	85c <_ZL11init_serialv>
     a16:	2f00      	cmp	r7, #0
     a18:	d1ce      	bne.n	9b8 <_write+0x14>
     a1a:	e7ef      	b.n	9fc <_write+0x58>
     a1c:	f04f 30ff 	mov.w	r0, #4294967295
     a20:	bdf8      	pop	{r3, r4, r5, r6, r7, pc}
     a22:	bf00      	nop
     a24:	10000364 	.word	0x10000364
     a28:	10000394 	.word	0x10000394
     a2c:	10000264 	.word	0x10000264

00000a30 <_read>:
     a30:	2802      	cmp	r0, #2
     a32:	b510      	push	{r4, lr}
     a34:	460c      	mov	r4, r1
     a36:	dd0a      	ble.n	a4e <_read+0x1e>
     a38:	4b0a      	ldr	r3, [pc, #40]	; (a64 <_read+0x34>)
     a3a:	3803      	subs	r0, #3
     a3c:	f853 0020 	ldr.w	r0, [r3, r0, lsl #2]
     a40:	b160      	cbz	r0, a5c <_read+0x2c>
     a42:	6803      	ldr	r3, [r0, #0]
     a44:	689b      	ldr	r3, [r3, #8]
     a46:	4798      	blx	r3
     a48:	4601      	mov	r1, r0
     a4a:	4608      	mov	r0, r1
     a4c:	bd10      	pop	{r4, pc}
     a4e:	4806      	ldr	r0, [pc, #24]	; (a68 <_read+0x38>)
     a50:	f000 fefe 	bl	1850 <serial_getc>
     a54:	2101      	movs	r1, #1
     a56:	7020      	strb	r0, [r4, #0]
     a58:	4608      	mov	r0, r1
     a5a:	bd10      	pop	{r4, pc}
     a5c:	f04f 31ff 	mov.w	r1, #4294967295
     a60:	e7f3      	b.n	a4a <_read+0x1a>
     a62:	bf00      	nop
     a64:	10000264 	.word	0x10000264
     a68:	10000394 	.word	0x10000394

00000a6c <_lseek>:
     a6c:	2802      	cmp	r0, #2
     a6e:	b508      	push	{r3, lr}
     a70:	dd08      	ble.n	a84 <_lseek+0x18>
     a72:	4b07      	ldr	r3, [pc, #28]	; (a90 <_lseek+0x24>)
     a74:	3803      	subs	r0, #3
     a76:	f853 0020 	ldr.w	r0, [r3, r0, lsl #2]
     a7a:	b128      	cbz	r0, a88 <_lseek+0x1c>
     a7c:	6803      	ldr	r3, [r0, #0]
     a7e:	691b      	ldr	r3, [r3, #16]
     a80:	4798      	blx	r3
     a82:	bd08      	pop	{r3, pc}
     a84:	2000      	movs	r0, #0
     a86:	bd08      	pop	{r3, pc}
     a88:	f04f 30ff 	mov.w	r0, #4294967295
     a8c:	bd08      	pop	{r3, pc}
     a8e:	bf00      	nop
     a90:	10000264 	.word	0x10000264

00000a94 <_fstat>:
     a94:	2802      	cmp	r0, #2
     a96:	b508      	push	{r3, lr}
     a98:	d804      	bhi.n	aa4 <_fstat+0x10>
     a9a:	f44f 5000 	mov.w	r0, #8192	; 0x2000
     a9e:	6048      	str	r0, [r1, #4]
     aa0:	2000      	movs	r0, #0
     aa2:	bd08      	pop	{r3, pc}
     aa4:	f002 fc04 	bl	32b0 <__errno>
     aa8:	2309      	movs	r3, #9
     aaa:	6003      	str	r3, [r0, #0]
     aac:	f04f 30ff 	mov.w	r0, #4294967295
     ab0:	bd08      	pop	{r3, pc}
     ab2:	bf00      	nop

00000ab4 <_ZN4mbed6Stream5closeEv>:
     ab4:	2000      	movs	r0, #0
     ab6:	4770      	bx	lr

00000ab8 <_ZN4mbed6Stream5writeEPKvj>:
     ab8:	e92d 41f0 	stmdb	sp!, {r4, r5, r6, r7, r8, lr}
     abc:	188e      	adds	r6, r1, r2
     abe:	42b1      	cmp	r1, r6
     ac0:	460f      	mov	r7, r1
     ac2:	4605      	mov	r5, r0
     ac4:	d030      	beq.n	b28 <_ZN4mbed6Stream5writeEPKvj+0x70>
     ac6:	6803      	ldr	r3, [r0, #0]
     ac8:	1b8a      	subs	r2, r1, r6
     aca:	460c      	mov	r4, r1
     acc:	43d2      	mvns	r2, r2
     ace:	6a5b      	ldr	r3, [r3, #36]	; 0x24
     ad0:	f814 1b01 	ldrb.w	r1, [r4], #1
     ad4:	f002 0801 	and.w	r8, r2, #1
     ad8:	4798      	blx	r3
     ada:	3001      	adds	r0, #1
     adc:	d01e      	beq.n	b1c <_ZN4mbed6Stream5writeEPKvj+0x64>
     ade:	42a6      	cmp	r6, r4
     ae0:	d01f      	beq.n	b22 <_ZN4mbed6Stream5writeEPKvj+0x6a>
     ae2:	f1b8 0f00 	cmp.w	r8, #0
     ae6:	d009      	beq.n	afc <_ZN4mbed6Stream5writeEPKvj+0x44>
     ae8:	6829      	ldr	r1, [r5, #0]
     aea:	4628      	mov	r0, r5
     aec:	6a4a      	ldr	r2, [r1, #36]	; 0x24
     aee:	f814 1b01 	ldrb.w	r1, [r4], #1
     af2:	4790      	blx	r2
     af4:	3001      	adds	r0, #1
     af6:	d011      	beq.n	b1c <_ZN4mbed6Stream5writeEPKvj+0x64>
     af8:	42a6      	cmp	r6, r4
     afa:	d012      	beq.n	b22 <_ZN4mbed6Stream5writeEPKvj+0x6a>
     afc:	6828      	ldr	r0, [r5, #0]
     afe:	f814 1b01 	ldrb.w	r1, [r4], #1
     b02:	6a43      	ldr	r3, [r0, #36]	; 0x24
     b04:	4628      	mov	r0, r5
     b06:	4798      	blx	r3
     b08:	3001      	adds	r0, #1
     b0a:	4628      	mov	r0, r5
     b0c:	d006      	beq.n	b1c <_ZN4mbed6Stream5writeEPKvj+0x64>
     b0e:	682a      	ldr	r2, [r5, #0]
     b10:	f814 1b01 	ldrb.w	r1, [r4], #1
     b14:	6a53      	ldr	r3, [r2, #36]	; 0x24
     b16:	4798      	blx	r3
     b18:	3001      	adds	r0, #1
     b1a:	d1ed      	bne.n	af8 <_ZN4mbed6Stream5writeEPKvj+0x40>
     b1c:	1be0      	subs	r0, r4, r7
     b1e:	e8bd 81f0 	ldmia.w	sp!, {r4, r5, r6, r7, r8, pc}
     b22:	1bf0      	subs	r0, r6, r7
     b24:	e8bd 81f0 	ldmia.w	sp!, {r4, r5, r6, r7, r8, pc}
     b28:	2000      	movs	r0, #0
     b2a:	e8bd 81f0 	ldmia.w	sp!, {r4, r5, r6, r7, r8, pc}
     b2e:	bf00      	nop

00000b30 <_ZN4mbed6Stream4readEPvj>:
     b30:	e92d 41f0 	stmdb	sp!, {r4, r5, r6, r7, r8, lr}
     b34:	188e      	adds	r6, r1, r2
     b36:	42b1      	cmp	r1, r6
     b38:	460f      	mov	r7, r1
     b3a:	4605      	mov	r5, r0
     b3c:	d032      	beq.n	ba4 <_ZN4mbed6Stream4readEPvj+0x74>
     b3e:	6803      	ldr	r3, [r0, #0]
     b40:	1b8a      	subs	r2, r1, r6
     b42:	43d1      	mvns	r1, r2
     b44:	6a9c      	ldr	r4, [r3, #40]	; 0x28
     b46:	f001 0801 	and.w	r8, r1, #1
     b4a:	47a0      	blx	r4
     b4c:	1c43      	adds	r3, r0, #1
     b4e:	463c      	mov	r4, r7
     b50:	d025      	beq.n	b9e <_ZN4mbed6Stream4readEPvj+0x6e>
     b52:	463c      	mov	r4, r7
     b54:	f804 0b01 	strb.w	r0, [r4], #1
     b58:	42a6      	cmp	r6, r4
     b5a:	d01d      	beq.n	b98 <_ZN4mbed6Stream4readEPvj+0x68>
     b5c:	f1b8 0f00 	cmp.w	r8, #0
     b60:	d006      	beq.n	b70 <_ZN4mbed6Stream4readEPvj+0x40>
     b62:	682b      	ldr	r3, [r5, #0]
     b64:	4628      	mov	r0, r5
     b66:	6a9a      	ldr	r2, [r3, #40]	; 0x28
     b68:	4790      	blx	r2
     b6a:	1c43      	adds	r3, r0, #1
     b6c:	d110      	bne.n	b90 <_ZN4mbed6Stream4readEPvj+0x60>
     b6e:	e016      	b.n	b9e <_ZN4mbed6Stream4readEPvj+0x6e>
     b70:	6829      	ldr	r1, [r5, #0]
     b72:	4628      	mov	r0, r5
     b74:	6a8b      	ldr	r3, [r1, #40]	; 0x28
     b76:	4798      	blx	r3
     b78:	4684      	mov	r12, r0
     b7a:	f11c 0101 	adds.w	r1, r12, #1
     b7e:	4628      	mov	r0, r5
     b80:	d00d      	beq.n	b9e <_ZN4mbed6Stream4readEPvj+0x6e>
     b82:	f804 cb01 	strb.w	r12, [r4], #1
     b86:	682a      	ldr	r2, [r5, #0]
     b88:	6a91      	ldr	r1, [r2, #40]	; 0x28
     b8a:	4788      	blx	r1
     b8c:	1c42      	adds	r2, r0, #1
     b8e:	d006      	beq.n	b9e <_ZN4mbed6Stream4readEPvj+0x6e>
     b90:	f804 0b01 	strb.w	r0, [r4], #1
     b94:	42a6      	cmp	r6, r4
     b96:	d1eb      	bne.n	b70 <_ZN4mbed6Stream4readEPvj+0x40>
     b98:	1bf0      	subs	r0, r6, r7
     b9a:	e8bd 81f0 	ldmia.w	sp!, {r4, r5, r6, r7, r8, pc}
     b9e:	1be0      	subs	r0, r4, r7
     ba0:	e8bd 81f0 	ldmia.w	sp!, {r4, r5, r6, r7, r8, pc}
     ba4:	2000      	movs	r0, #0
     ba6:	e8bd 81f0 	ldmia.w	sp!, {r4, r5, r6, r7, r8, pc}
     baa:	bf00      	nop

00000bac <_ZN4mbed6Stream5lseekEli>:
     bac:	2000      	movs	r0, #0
     bae:	4770      	bx	lr

00000bb0 <_ZN4mbed6Stream6isattyEv>:
     bb0:	2000      	movs	r0, #0
     bb2:	4770      	bx	lr

00000bb4 <_ZN4mbed6Stream5fsyncEv>:
     bb4:	2000      	movs	r0, #0
     bb6:	4770      	bx	lr

00000bb8 <_ZN4mbed6Stream4flenEv>:
     bb8:	2000      	movs	r0, #0
     bba:	4770      	bx	lr

00000bbc <_ZN4mbed6StreamD1Ev>:
     bbc:	f248 43d0 	movw	r3, #34000	; 0x84d0
     bc0:	f2c0 0300 	movt	r3, #0
     bc4:	f103 0208 	add.w	r2, r3, #8
     bc8:	333c      	adds	r3, #60	; 0x3c
     bca:	b510      	push	{r4, lr}
     bcc:	4604      	mov	r4, r0
     bce:	e880 000c 	stmia.w	r0, {r2, r3}
     bd2:	6940      	ldr	r0, [r0, #20]
     bd4:	f002 fbc8 	bl	3368 <fclose>
     bd8:	4620      	mov	r0, r4
     bda:	f000 ff73 	bl	1ac4 <_ZN4mbed8FileLikeD1Ev>
     bde:	4620      	mov	r0, r4
     be0:	bd10      	pop	{r4, pc}
     be2:	bf00      	nop

00000be4 <_ZThn4_N4mbed6StreamD1Ev>:
     be4:	f1a0 0004 	sub.w	r0, r0, #4
     be8:	f7ff bfe8 	b.w	bbc <_ZN4mbed6StreamD1Ev>

00000bec <_ZN4mbed6StreamD0Ev>:
     bec:	b510      	push	{r4, lr}
     bee:	4604      	mov	r4, r0
     bf0:	f7ff ffe4 	bl	bbc <_ZN4mbed6StreamD1Ev>
     bf4:	4620      	mov	r0, r4
     bf6:	f001 f8dd 	bl	1db4 <_ZdlPv>
     bfa:	4620      	mov	r0, r4
     bfc:	bd10      	pop	{r4, pc}
     bfe:	bf00      	nop

00000c00 <_ZThn4_N4mbed6StreamD0Ev>:
     c00:	f1a0 0004 	sub.w	r0, r0, #4
     c04:	f7ff bff2 	b.w	bec <_ZN4mbed6StreamD0Ev>

00000c08 <_ZN4mbed6StreamC1EPKc>:
     c08:	b510      	push	{r4, lr}
     c0a:	b084      	sub	sp, #16
     c0c:	4604      	mov	r4, r0
     c0e:	f000 ff7f 	bl	1b10 <_ZN4mbed8FileLikeC1EPKc>
     c12:	f248 43d0 	movw	r3, #34000	; 0x84d0
     c16:	f2c0 0300 	movt	r3, #0
     c1a:	f103 0008 	add.w	r0, r3, #8
     c1e:	f248 41c0 	movw	r1, #33984	; 0x84c0
     c22:	333c      	adds	r3, #60	; 0x3c
     c24:	e884 0009 	stmia.w	r4, {r0, r3}
     c28:	4622      	mov	r2, r4
     c2a:	f2c0 0100 	movt	r1, #0
     c2e:	a801      	add	r0, sp, #4
     c30:	f003 f844 	bl	3cbc <siprintf>
     c34:	f248 5124 	movw	r1, #34084	; 0x8524
     c38:	f2c0 0100 	movt	r1, #0
     c3c:	a801      	add	r0, sp, #4
     c3e:	f002 fd4f 	bl	36e0 <fopen>
     c42:	2100      	movs	r1, #0
     c44:	6160      	str	r0, [r4, #20]
     c46:	f002 ff9f 	bl	3b88 <setbuf>
     c4a:	4620      	mov	r0, r4
     c4c:	b004      	add	sp, #16
     c4e:	bd10      	pop	{r4, pc}

00000c50 <_ZN4mbed6Stream6printfEPKcz>:
     c50:	b40e      	push	{r1, r2, r3}
     c52:	b530      	push	{r4, r5, lr}
     c54:	b082      	sub	sp, #8
     c56:	ab05      	add	r3, sp, #20
     c58:	f853 5b04 	ldr.w	r5, [r3], #4
     c5c:	4604      	mov	r4, r0
     c5e:	6940      	ldr	r0, [r0, #20]
     c60:	9301      	str	r3, [sp, #4]
     c62:	f002 fc2d 	bl	34c0 <fflush>
     c66:	6960      	ldr	r0, [r4, #20]
     c68:	4629      	mov	r1, r5
     c6a:	9a01      	ldr	r2, [sp, #4]
     c6c:	f003 fd60 	bl	4730 <vfiprintf>
     c70:	b002      	add	sp, #8
     c72:	e8bd 4030 	ldmia.w	sp!, {r4, r5, lr}
     c76:	b003      	add	sp, #12
     c78:	4770      	bx	lr
     c7a:	bf00      	nop

00000c7c <_ZN4mbed6TickerD1Ev>:
     c7c:	4b03      	ldr	r3, [pc, #12]	; (c8c <_ZN4mbed6TickerD1Ev+0x10>)
     c7e:	b510      	push	{r4, lr}
     c80:	4604      	mov	r4, r0
     c82:	6003      	str	r3, [r0, #0]
     c84:	f000 f866 	bl	d54 <_ZN4mbed10TimerEventD1Ev>
     c88:	4620      	mov	r0, r4
     c8a:	bd10      	pop	{r4, pc}
     c8c:	00008560 	.word	0x00008560

00000c90 <_ZN4mbed6Ticker7handlerEv>:
     c90:	6843      	ldr	r3, [r0, #4]
     c92:	6901      	ldr	r1, [r0, #16]
     c94:	b510      	push	{r4, lr}
     c96:	18c9      	adds	r1, r1, r3
     c98:	4604      	mov	r4, r0
     c9a:	f000 f853 	bl	d44 <_ZN4mbed10TimerEvent6insertEj>
     c9e:	f104 0014 	add.w	r0, r4, #20
     ca2:	e8bd 4010 	ldmia.w	sp!, {r4, lr}
     ca6:	f7ff bce3 	b.w	670 <_ZN4mbed15FunctionPointer4callEv>
     caa:	bf00      	nop

00000cac <_ZN4mbed6TickerD0Ev>:
     cac:	4b05      	ldr	r3, [pc, #20]	; (cc4 <_ZN4mbed6TickerD0Ev+0x18>)
     cae:	b510      	push	{r4, lr}
     cb0:	4604      	mov	r4, r0
     cb2:	6003      	str	r3, [r0, #0]
     cb4:	f000 f84e 	bl	d54 <_ZN4mbed10TimerEventD1Ev>
     cb8:	4620      	mov	r0, r4
     cba:	f001 f87b 	bl	1db4 <_ZdlPv>
     cbe:	4620      	mov	r0, r4
     cc0:	bd10      	pop	{r4, pc}
     cc2:	bf00      	nop
     cc4:	00008560 	.word	0x00008560

00000cc8 <_ZN4mbed6Ticker5setupEj>:
     cc8:	b538      	push	{r3, r4, r5, lr}
     cca:	460d      	mov	r5, r1
     ccc:	4604      	mov	r4, r0
     cce:	f000 f83d 	bl	d4c <_ZN4mbed10TimerEvent6removeEv>
     cd2:	6125      	str	r5, [r4, #16]
     cd4:	f000 fdcc 	bl	1870 <us_ticker_read>
     cd8:	1941      	adds	r1, r0, r5
     cda:	4620      	mov	r0, r4
     cdc:	e8bd 4038 	ldmia.w	sp!, {r3, r4, r5, lr}
     ce0:	f000 b830 	b.w	d44 <_ZN4mbed10TimerEvent6insertEj>

00000ce4 <_ZN4mbed7Timeout7handlerEv>:
     ce4:	3014      	adds	r0, #20
     ce6:	f7ff bcc3 	b.w	670 <_ZN4mbed15FunctionPointer4callEv>
     cea:	bf00      	nop

00000cec <_ZN4mbed7TimeoutD1Ev>:
     cec:	4b03      	ldr	r3, [pc, #12]	; (cfc <_ZN4mbed7TimeoutD1Ev+0x10>)
     cee:	b510      	push	{r4, lr}
     cf0:	4604      	mov	r4, r0
     cf2:	6003      	str	r3, [r0, #0]
     cf4:	f000 f82e 	bl	d54 <_ZN4mbed10TimerEventD1Ev>
     cf8:	4620      	mov	r0, r4
     cfa:	bd10      	pop	{r4, pc}
     cfc:	00008560 	.word	0x00008560

00000d00 <_ZN4mbed7TimeoutD0Ev>:
     d00:	4b05      	ldr	r3, [pc, #20]	; (d18 <_ZN4mbed7TimeoutD0Ev+0x18>)
     d02:	b510      	push	{r4, lr}
     d04:	4604      	mov	r4, r0
     d06:	6003      	str	r3, [r0, #0]
     d08:	f000 f824 	bl	d54 <_ZN4mbed10TimerEventD1Ev>
     d0c:	4620      	mov	r0, r4
     d0e:	f001 f851 	bl	1db4 <_ZdlPv>
     d12:	4620      	mov	r0, r4
     d14:	bd10      	pop	{r4, pc}
     d16:	bf00      	nop
     d18:	00008560 	.word	0x00008560

00000d1c <_ZN4mbed10TimerEvent3irqEm>:
     d1c:	b508      	push	{r3, lr}
     d1e:	6803      	ldr	r3, [r0, #0]
     d20:	6899      	ldr	r1, [r3, #8]
     d22:	4788      	blx	r1
     d24:	bd08      	pop	{r3, pc}
     d26:	bf00      	nop

00000d28 <_ZN4mbed10TimerEventC1Ev>:
     d28:	4b05      	ldr	r3, [pc, #20]	; (d40 <_ZN4mbed10TimerEventC1Ev+0x18>)
     d2a:	b510      	push	{r4, lr}
     d2c:	4604      	mov	r4, r0
     d2e:	6003      	str	r3, [r0, #0]
     d30:	f640 501d 	movw	r0, #3357	; 0xd1d
     d34:	f2c0 0000 	movt	r0, #0
     d38:	f000 fdfe 	bl	1938 <us_ticker_set_handler>
     d3c:	4620      	mov	r0, r4
     d3e:	bd10      	pop	{r4, pc}
     d40:	000085b8 	.word	0x000085b8

00000d44 <_ZN4mbed10TimerEvent6insertEj>:
     d44:	4602      	mov	r2, r0
     d46:	3004      	adds	r0, #4
     d48:	f000 be0a 	b.w	1960 <us_ticker_insert_event>

00000d4c <_ZN4mbed10TimerEvent6removeEv>:
     d4c:	3004      	adds	r0, #4
     d4e:	f000 be31 	b.w	19b4 <us_ticker_remove_event>
     d52:	bf00      	nop

00000d54 <_ZN4mbed10TimerEventD1Ev>:
     d54:	4b03      	ldr	r3, [pc, #12]	; (d64 <_ZN4mbed10TimerEventD1Ev+0x10>)
     d56:	b510      	push	{r4, lr}
     d58:	4604      	mov	r4, r0
     d5a:	6003      	str	r3, [r0, #0]
     d5c:	f7ff fff6 	bl	d4c <_ZN4mbed10TimerEvent6removeEv>
     d60:	4620      	mov	r0, r4
     d62:	bd10      	pop	{r4, pc}
     d64:	000085b8 	.word	0x000085b8

00000d68 <_ZN4mbed10TimerEventD0Ev>:
     d68:	b510      	push	{r4, lr}
     d6a:	4604      	mov	r4, r0
     d6c:	f7ff fff2 	bl	d54 <_ZN4mbed10TimerEventD1Ev>
     d70:	4620      	mov	r0, r4
     d72:	f001 f81f 	bl	1db4 <_ZdlPv>
     d76:	4620      	mov	r0, r4
     d78:	bd10      	pop	{r4, pc}
     d7a:	bf00      	nop

00000d7c <mbed_die>:
     d7c:	b500      	push	{lr}
     d7e:	f24c 0132 	movw	r1, #49202	; 0xc032
     d82:	b099      	sub	sp, #100	; 0x64
     d84:	4668      	mov	r0, sp
     d86:	f2c2 0109 	movt	r1, #8201	; 0x2009
     d8a:	2201      	movs	r2, #1
     d8c:	f000 f856 	bl	e3c <gpio_init>
     d90:	f24c 0134 	movw	r1, #49204	; 0xc034
     d94:	a806      	add	r0, sp, #24
     d96:	f2c2 0109 	movt	r1, #8201	; 0x2009
     d9a:	2201      	movs	r2, #1
     d9c:	f000 f84e 	bl	e3c <gpio_init>
     da0:	f24c 0135 	movw	r1, #49205	; 0xc035
     da4:	a80c      	add	r0, sp, #48	; 0x30
     da6:	f2c2 0109 	movt	r1, #8201	; 0x2009
     daa:	2201      	movs	r2, #1
     dac:	f000 f846 	bl	e3c <gpio_init>
     db0:	f24c 0137 	movw	r1, #49207	; 0xc037
     db4:	a812      	add	r0, sp, #72	; 0x48
     db6:	f2c2 0109 	movt	r1, #8201	; 0x2009
     dba:	2201      	movs	r2, #1
     dbc:	f000 f83e 	bl	e3c <gpio_init>
     dc0:	9a01      	ldr	r2, [sp, #4]
     dc2:	9b03      	ldr	r3, [sp, #12]
     dc4:	990a      	ldr	r1, [sp, #40]	; 0x28
     dc6:	601a      	str	r2, [r3, #0]
     dc8:	9807      	ldr	r0, [sp, #28]
     dca:	9b10      	ldr	r3, [sp, #64]	; 0x40
     dcc:	6008      	str	r0, [r1, #0]
     dce:	9a0d      	ldr	r2, [sp, #52]	; 0x34
     dd0:	2096      	movs	r0, #150	; 0x96
     dd2:	601a      	str	r2, [r3, #0]
     dd4:	9913      	ldr	r1, [sp, #76]	; 0x4c
     dd6:	9a15      	ldr	r2, [sp, #84]	; 0x54
     dd8:	6011      	str	r1, [r2, #0]
     dda:	f7ff fc2b 	bl	634 <wait_ms>
     dde:	9801      	ldr	r0, [sp, #4]
     de0:	9b04      	ldr	r3, [sp, #16]
     de2:	9a09      	ldr	r2, [sp, #36]	; 0x24
     de4:	6018      	str	r0, [r3, #0]
     de6:	9907      	ldr	r1, [sp, #28]
     de8:	9b0f      	ldr	r3, [sp, #60]	; 0x3c
     dea:	6011      	str	r1, [r2, #0]
     dec:	980d      	ldr	r0, [sp, #52]	; 0x34
     dee:	9a16      	ldr	r2, [sp, #88]	; 0x58
     df0:	6018      	str	r0, [r3, #0]
     df2:	9913      	ldr	r1, [sp, #76]	; 0x4c
     df4:	2096      	movs	r0, #150	; 0x96
     df6:	6011      	str	r1, [r2, #0]
     df8:	f7ff fc1c 	bl	634 <wait_ms>
     dfc:	e7e0      	b.n	dc0 <mbed_die+0x44>
     dfe:	bf00      	nop

00000e00 <gpio_set>:
     e00:	b510      	push	{r4, lr}
     e02:	2100      	movs	r1, #0
     e04:	4604      	mov	r4, r0
     e06:	f004 041f 	and.w	r4, r4, #31
     e0a:	f000 fa0b 	bl	1224 <pin_function>
     e0e:	2001      	movs	r0, #1
     e10:	fa00 f004 	lsl.w	r0, r0, r4
     e14:	bd10      	pop	{r4, pc}
     e16:	bf00      	nop

00000e18 <gpio_dir>:
     e18:	b931      	cbnz	r1, e28 <gpio_dir+0x10>
     e1a:	6883      	ldr	r3, [r0, #8]
     e1c:	6841      	ldr	r1, [r0, #4]
     e1e:	681a      	ldr	r2, [r3, #0]
     e20:	ea22 0001 	bic.w	r0, r2, r1
     e24:	6018      	str	r0, [r3, #0]
     e26:	4770      	bx	lr
     e28:	2901      	cmp	r1, #1
     e2a:	d000      	beq.n	e2e <gpio_dir+0x16>
     e2c:	4770      	bx	lr
     e2e:	6883      	ldr	r3, [r0, #8]
     e30:	6842      	ldr	r2, [r0, #4]
     e32:	6819      	ldr	r1, [r3, #0]
     e34:	ea41 0002 	orr.w	r0, r1, r2
     e38:	6018      	str	r0, [r3, #0]
     e3a:	4770      	bx	lr

00000e3c <gpio_init>:
     e3c:	b5f8      	push	{r3, r4, r5, r6, r7, lr}
     e3e:	1c4b      	adds	r3, r1, #1
     e40:	460d      	mov	r5, r1
     e42:	4604      	mov	r4, r0
     e44:	4616      	mov	r6, r2
     e46:	d01d      	beq.n	e84 <gpio_init+0x48>
     e48:	6021      	str	r1, [r4, #0]
     e4a:	4608      	mov	r0, r1
     e4c:	f7ff ffd8 	bl	e00 <gpio_set>
     e50:	f025 031f 	bic.w	r3, r5, #31
     e54:	f103 011c 	add.w	r1, r3, #28
     e58:	f103 0718 	add.w	r7, r3, #24
     e5c:	f103 0214 	add.w	r2, r3, #20
     e60:	6060      	str	r0, [r4, #4]
     e62:	6121      	str	r1, [r4, #16]
     e64:	60e7      	str	r7, [r4, #12]
     e66:	6162      	str	r2, [r4, #20]
     e68:	60a3      	str	r3, [r4, #8]
     e6a:	4620      	mov	r0, r4
     e6c:	4631      	mov	r1, r6
     e6e:	f7ff ffd3 	bl	e18 <gpio_dir>
     e72:	b92e      	cbnz	r6, e80 <gpio_init+0x44>
     e74:	4628      	mov	r0, r5
     e76:	2103      	movs	r1, #3
     e78:	e8bd 40f8 	ldmia.w	sp!, {r3, r4, r5, r6, r7, lr}
     e7c:	f000 b9f4 	b.w	1268 <pin_mode>
     e80:	2e01      	cmp	r6, #1
     e82:	d000      	beq.n	e86 <gpio_init+0x4a>
     e84:	bdf8      	pop	{r3, r4, r5, r6, r7, pc}
     e86:	4628      	mov	r0, r5
     e88:	2102      	movs	r1, #2
     e8a:	e8bd 40f8 	ldmia.w	sp!, {r3, r4, r5, r6, r7, lr}
     e8e:	f000 b9eb 	b.w	1268 <pin_mode>
     e92:	bf00      	nop

00000e94 <i2c_do_write>:
     e94:	6802      	ldr	r2, [r0, #0]
     e96:	f242 7310 	movw	r3, #10000	; 0x2710
     e9a:	6091      	str	r1, [r2, #8]
     e9c:	2108      	movs	r1, #8
     e9e:	6191      	str	r1, [r2, #24]
     ea0:	e004      	b.n	eac <i2c_do_write+0x18>
     ea2:	6811      	ldr	r1, [r2, #0]
     ea4:	0709      	lsls	r1, r1, #28
     ea6:	d405      	bmi.n	eb4 <i2c_do_write+0x20>
     ea8:	3b01      	subs	r3, #1
     eaa:	d00c      	beq.n	ec6 <i2c_do_write+0x32>
     eac:	6810      	ldr	r0, [r2, #0]
     eae:	3b01      	subs	r3, #1
     eb0:	0700      	lsls	r0, r0, #28
     eb2:	d5f6      	bpl.n	ea2 <i2c_do_write+0xe>
     eb4:	6850      	ldr	r0, [r2, #4]
     eb6:	2840      	cmp	r0, #64	; 0x40
     eb8:	d007      	beq.n	eca <i2c_do_write+0x36>
     eba:	6851      	ldr	r1, [r2, #4]
     ebc:	2918      	cmp	r1, #24
     ebe:	d004      	beq.n	eca <i2c_do_write+0x36>
     ec0:	6852      	ldr	r2, [r2, #4]
     ec2:	2a28      	cmp	r2, #40	; 0x28
     ec4:	d001      	beq.n	eca <i2c_do_write+0x36>
     ec6:	2001      	movs	r0, #1
     ec8:	4770      	bx	lr
     eca:	2000      	movs	r0, #0
     ecc:	4770      	bx	lr
     ece:	bf00      	nop

00000ed0 <i2c_do_read>:
     ed0:	b302      	cbz	r2, f14 <i2c_do_read+0x44>
     ed2:	6802      	ldr	r2, [r0, #0]
     ed4:	2004      	movs	r0, #4
     ed6:	6190      	str	r0, [r2, #24]
     ed8:	2308      	movs	r3, #8
     eda:	6193      	str	r3, [r2, #24]
     edc:	6810      	ldr	r0, [r2, #0]
     ede:	0703      	lsls	r3, r0, #28
     ee0:	d40d      	bmi.n	efe <i2c_do_read+0x2e>
     ee2:	f248 63a0 	movw	r3, #34464	; 0x86a0
     ee6:	f2c0 0301 	movt	r3, #1
     eea:	e004      	b.n	ef6 <i2c_do_read+0x26>
     eec:	6810      	ldr	r0, [r2, #0]
     eee:	0700      	lsls	r0, r0, #28
     ef0:	d405      	bmi.n	efe <i2c_do_read+0x2e>
     ef2:	3b01      	subs	r3, #1
     ef4:	d003      	beq.n	efe <i2c_do_read+0x2e>
     ef6:	6810      	ldr	r0, [r2, #0]
     ef8:	3b01      	subs	r3, #1
     efa:	0700      	lsls	r0, r0, #28
     efc:	d5f6      	bpl.n	eec <i2c_do_read+0x1c>
     efe:	6850      	ldr	r0, [r2, #4]
     f00:	2850      	cmp	r0, #80	; 0x50
     f02:	d00b      	beq.n	f1c <i2c_do_read+0x4c>
     f04:	6853      	ldr	r3, [r2, #4]
     f06:	f1b3 0058 	subs.w	r0, r3, #88	; 0x58
     f0a:	bf18      	it	ne
     f0c:	2001      	movne	r0, #1
     f0e:	6892      	ldr	r2, [r2, #8]
     f10:	700a      	strb	r2, [r1, #0]
     f12:	4770      	bx	lr
     f14:	6802      	ldr	r2, [r0, #0]
     f16:	2304      	movs	r3, #4
     f18:	6013      	str	r3, [r2, #0]
     f1a:	e7dd      	b.n	ed8 <i2c_do_read+0x8>
     f1c:	2000      	movs	r0, #0
     f1e:	e7f6      	b.n	f0e <i2c_do_read+0x3e>

00000f20 <i2c_init>:
     f20:	b5f8      	push	{r3, r4, r5, r6, r7, lr}
     f22:	460d      	mov	r5, r1
     f24:	4606      	mov	r6, r0
     f26:	4932      	ldr	r1, [pc, #200]	; (ff0 <i2c_init+0xd0>)
     f28:	4628      	mov	r0, r5
     f2a:	4614      	mov	r4, r2
     f2c:	f000 fdac 	bl	1a88 <pinmap_peripheral>
     f30:	4930      	ldr	r1, [pc, #192]	; (ff4 <i2c_init+0xd4>)
     f32:	4607      	mov	r7, r0
     f34:	4620      	mov	r0, r4
     f36:	f000 fda7 	bl	1a88 <pinmap_peripheral>
     f3a:	4601      	mov	r1, r0
     f3c:	4638      	mov	r0, r7
     f3e:	f000 fd8b 	bl	1a58 <pinmap_merge>
     f42:	1c42      	adds	r2, r0, #1
     f44:	4603      	mov	r3, r0
     f46:	6030      	str	r0, [r6, #0]
     f48:	d049      	beq.n	fde <i2c_init+0xbe>
     f4a:	f44f 4240 	mov.w	r2, #49152	; 0xc000
     f4e:	f2c4 0205 	movt	r2, #16389	; 0x4005
     f52:	4290      	cmp	r0, r2
     f54:	d038      	beq.n	fc8 <i2c_init+0xa8>
     f56:	2000      	movs	r0, #0
     f58:	f2c4 000a 	movt	r0, #16394	; 0x400a
     f5c:	4283      	cmp	r3, r0
     f5e:	f44f 4c40 	mov.w	r12, #49152	; 0xc000
     f62:	d028      	beq.n	fb6 <i2c_init+0x96>
     f64:	f2c4 0c01 	movt	r12, #16385	; 0x4001
     f68:	4563      	cmp	r3, r12
     f6a:	d019      	beq.n	fa0 <i2c_init+0x80>
     f6c:	4922      	ldr	r1, [pc, #136]	; (ff8 <i2c_init+0xd8>)
     f6e:	f642 5e63 	movw	lr, #11619	; 0x2d63
     f72:	680a      	ldr	r2, [r1, #0]
     f74:	f2c0 5e3e 	movt	lr, #1342	; 0x53e
     f78:	0a10      	lsrs	r0, r2, #8
     f7a:	fbae 0100 	umull	r0, r1, lr, r0
     f7e:	098a      	lsrs	r2, r1, #6
     f80:	615a      	str	r2, [r3, #20]
     f82:	611a      	str	r2, [r3, #16]
     f84:	223c      	movs	r2, #60	; 0x3c
     f86:	619a      	str	r2, [r3, #24]
     f88:	2240      	movs	r2, #64	; 0x40
     f8a:	4628      	mov	r0, r5
     f8c:	4918      	ldr	r1, [pc, #96]	; (ff0 <i2c_init+0xd0>)
     f8e:	601a      	str	r2, [r3, #0]
     f90:	f000 fd3c 	bl	1a0c <pinmap_pinout>
     f94:	4917      	ldr	r1, [pc, #92]	; (ff4 <i2c_init+0xd4>)
     f96:	4620      	mov	r0, r4
     f98:	e8bd 40f8 	ldmia.w	sp!, {r3, r4, r5, r6, r7, lr}
     f9c:	f000 bd36 	b.w	1a0c <pinmap_pinout>
     fa0:	f44f 4e40 	mov.w	lr, #49152	; 0xc000
     fa4:	f2c4 0e0f 	movt	lr, #16399	; 0x400f
     fa8:	f8de 10c4 	ldr.w	r1, [lr, #196]	; 0xc4
     fac:	f041 0280 	orr.w	r2, r1, #128	; 0x80
     fb0:	f8ce 20c4 	str.w	r2, [lr, #196]	; 0xc4
     fb4:	e7da      	b.n	f6c <i2c_init+0x4c>
     fb6:	f2c4 0c0f 	movt	r12, #16399	; 0x400f
     fba:	f8dc 00c4 	ldr.w	r0, [r12, #196]	; 0xc4
     fbe:	f040 6180 	orr.w	r1, r0, #67108864	; 0x4000000
     fc2:	f8cc 10c4 	str.w	r1, [r12, #196]	; 0xc4
     fc6:	e7d1      	b.n	f6c <i2c_init+0x4c>
     fc8:	f44f 4c40 	mov.w	r12, #49152	; 0xc000
     fcc:	f2c4 0c0f 	movt	r12, #16399	; 0x400f
     fd0:	f8dc 20c4 	ldr.w	r2, [r12, #196]	; 0xc4
     fd4:	f442 2000 	orr.w	r0, r2, #524288	; 0x80000
     fd8:	f8cc 00c4 	str.w	r0, [r12, #196]	; 0xc4
     fdc:	e7c6      	b.n	f6c <i2c_init+0x4c>
     fde:	4c07      	ldr	r4, [pc, #28]	; (ffc <i2c_init+0xdc>)
     fe0:	4907      	ldr	r1, [pc, #28]	; (1000 <i2c_init+0xe0>)
     fe2:	6825      	ldr	r5, [r4, #0]
     fe4:	68e8      	ldr	r0, [r5, #12]
     fe6:	f002 fb85 	bl	36f4 <fiprintf>
     fea:	2001      	movs	r0, #1
     fec:	f7ff fafa 	bl	5e4 <exit>
     ff0:	000085dc 	.word	0x000085dc
     ff4:	00008630 	.word	0x00008630
     ff8:	100000cc 	.word	0x100000cc
     ffc:	10000134 	.word	0x10000134
    1000:	00008618 	.word	0x00008618

00001004 <i2c_start>:
    1004:	6802      	ldr	r2, [r0, #0]
    1006:	233c      	movs	r3, #60	; 0x3c
    1008:	2024      	movs	r0, #36	; 0x24
    100a:	6193      	str	r3, [r2, #24]
    100c:	6010      	str	r0, [r2, #0]
    100e:	6811      	ldr	r1, [r2, #0]
    1010:	070b      	lsls	r3, r1, #28
    1012:	d40d      	bmi.n	1030 <i2c_start+0x2c>
    1014:	f248 63a0 	movw	r3, #34464	; 0x86a0
    1018:	f2c0 0301 	movt	r3, #1
    101c:	e004      	b.n	1028 <i2c_start+0x24>
    101e:	6811      	ldr	r1, [r2, #0]
    1020:	0708      	lsls	r0, r1, #28
    1022:	d405      	bmi.n	1030 <i2c_start+0x2c>
    1024:	3b01      	subs	r3, #1
    1026:	d003      	beq.n	1030 <i2c_start+0x2c>
    1028:	6810      	ldr	r0, [r2, #0]
    102a:	3b01      	subs	r3, #1
    102c:	0701      	lsls	r1, r0, #28
    102e:	d5f6      	bpl.n	101e <i2c_start+0x1a>
    1030:	6850      	ldr	r0, [r2, #4]
    1032:	2120      	movs	r1, #32
    1034:	2808      	cmp	r0, #8
    1036:	6191      	str	r1, [r2, #24]
    1038:	d003      	beq.n	1042 <i2c_start+0x3e>
    103a:	3810      	subs	r0, #16
    103c:	bf18      	it	ne
    103e:	2001      	movne	r0, #1
    1040:	4770      	bx	lr
    1042:	2000      	movs	r0, #0
    1044:	4770      	bx	lr
    1046:	bf00      	nop

00001048 <i2c_frequency>:
    1048:	f240 03cc 	movw	r3, #204	; 0xcc
    104c:	f2c1 0300 	movt	r3, #4096	; 0x1000
    1050:	681a      	ldr	r2, [r3, #0]
    1052:	6800      	ldr	r0, [r0, #0]
    1054:	0893      	lsrs	r3, r2, #2
    1056:	0049      	lsls	r1, r1, #1
    1058:	fbb3 f2f1 	udiv	r2, r3, r1
    105c:	6142      	str	r2, [r0, #20]
    105e:	6102      	str	r2, [r0, #16]
    1060:	4770      	bx	lr
    1062:	bf00      	nop

00001064 <i2c_read>:
    1064:	e92d 43f8 	stmdb	sp!, {r3, r4, r5, r6, r7, r8, r9, lr}
    1068:	4604      	mov	r4, r0
    106a:	460d      	mov	r5, r1
    106c:	4616      	mov	r6, r2
    106e:	4699      	mov	r9, r3
    1070:	f7ff ffc8 	bl	1004 <i2c_start>
    1074:	b150      	cbz	r0, 108c <i2c_read+0x28>
    1076:	6821      	ldr	r1, [r4, #0]
    1078:	2010      	movs	r0, #16
    107a:	2308      	movs	r3, #8
    107c:	6008      	str	r0, [r1, #0]
    107e:	618b      	str	r3, [r1, #24]
    1080:	680a      	ldr	r2, [r1, #0]
    1082:	06d3      	lsls	r3, r2, #27
    1084:	d4fc      	bmi.n	1080 <i2c_read+0x1c>
    1086:	2001      	movs	r0, #1
    1088:	e8bd 83f8 	ldmia.w	sp!, {r3, r4, r5, r6, r7, r8, r9, pc}
    108c:	4620      	mov	r0, r4
    108e:	f045 0101 	orr.w	r1, r5, #1
    1092:	f7ff feff 	bl	e94 <i2c_do_write>
    1096:	4602      	mov	r2, r0
    1098:	2800      	cmp	r0, #0
    109a:	d13a      	bne.n	1112 <i2c_read+0xae>
    109c:	f109 39ff 	add.w	r9, r9, #4294967295
    10a0:	f1b9 0f00 	cmp.w	r9, #0
    10a4:	bfd8      	it	le
    10a6:	4601      	movle	r1, r0
    10a8:	dd3f      	ble.n	112a <i2c_read+0xc6>
    10aa:	f109 33ff 	add.w	r3, r9, #4294967295
    10ae:	4620      	mov	r0, r4
    10b0:	4631      	mov	r1, r6
    10b2:	f003 0701 	and.w	r7, r3, #1
    10b6:	f7ff ff0b 	bl	ed0 <i2c_do_read>
    10ba:	4602      	mov	r2, r0
    10bc:	bb00      	cbnz	r0, 1100 <i2c_read+0x9c>
    10be:	2501      	movs	r5, #1
    10c0:	454d      	cmp	r5, r9
    10c2:	d031      	beq.n	1128 <i2c_read+0xc4>
    10c4:	b16f      	cbz	r7, 10e2 <i2c_read+0x7e>
    10c6:	4620      	mov	r0, r4
    10c8:	1971      	adds	r1, r6, r5
    10ca:	f7ff ff01 	bl	ed0 <i2c_do_read>
    10ce:	b9b8      	cbnz	r0, 1100 <i2c_read+0x9c>
    10d0:	2502      	movs	r5, #2
    10d2:	454d      	cmp	r5, r9
    10d4:	d105      	bne.n	10e2 <i2c_read+0x7e>
    10d6:	e027      	b.n	1128 <i2c_read+0xc4>
    10d8:	f7ff fefa 	bl	ed0 <i2c_do_read>
    10dc:	b980      	cbnz	r0, 1100 <i2c_read+0x9c>
    10de:	454d      	cmp	r5, r9
    10e0:	d022      	beq.n	1128 <i2c_read+0xc4>
    10e2:	1971      	adds	r1, r6, r5
    10e4:	2200      	movs	r2, #0
    10e6:	4620      	mov	r0, r4
    10e8:	f7ff fef2 	bl	ed0 <i2c_do_read>
    10ec:	f105 0801 	add.w	r8, r5, #1
    10f0:	4607      	mov	r7, r0
    10f2:	3502      	adds	r5, #2
    10f4:	eb06 0108 	add.w	r1, r6, r8
    10f8:	4620      	mov	r0, r4
    10fa:	463a      	mov	r2, r7
    10fc:	2f00      	cmp	r7, #0
    10fe:	d0eb      	beq.n	10d8 <i2c_read+0x74>
    1100:	6822      	ldr	r2, [r4, #0]
    1102:	2010      	movs	r0, #16
    1104:	2108      	movs	r1, #8
    1106:	6010      	str	r0, [r2, #0]
    1108:	6191      	str	r1, [r2, #24]
    110a:	6813      	ldr	r3, [r2, #0]
    110c:	06d9      	lsls	r1, r3, #27
    110e:	d4fc      	bmi.n	110a <i2c_read+0xa6>
    1110:	e7b9      	b.n	1086 <i2c_read+0x22>
    1112:	6821      	ldr	r1, [r4, #0]
    1114:	2010      	movs	r0, #16
    1116:	2308      	movs	r3, #8
    1118:	6008      	str	r0, [r1, #0]
    111a:	618b      	str	r3, [r1, #24]
    111c:	680a      	ldr	r2, [r1, #0]
    111e:	06d0      	lsls	r0, r2, #27
    1120:	d4fc      	bmi.n	111c <i2c_read+0xb8>
    1122:	2001      	movs	r0, #1
    1124:	e8bd 83f8 	ldmia.w	sp!, {r3, r4, r5, r6, r7, r8, r9, pc}
    1128:	4629      	mov	r1, r5
    112a:	4620      	mov	r0, r4
    112c:	1871      	adds	r1, r6, r1
    112e:	2201      	movs	r2, #1
    1130:	f7ff fece 	bl	ed0 <i2c_do_read>
    1134:	b960      	cbnz	r0, 1150 <i2c_read+0xec>
    1136:	9a08      	ldr	r2, [sp, #32]
    1138:	b13a      	cbz	r2, 114a <i2c_read+0xe6>
    113a:	6821      	ldr	r1, [r4, #0]
    113c:	2010      	movs	r0, #16
    113e:	2308      	movs	r3, #8
    1140:	6008      	str	r0, [r1, #0]
    1142:	618b      	str	r3, [r1, #24]
    1144:	680a      	ldr	r2, [r1, #0]
    1146:	06d0      	lsls	r0, r2, #27
    1148:	d4fc      	bmi.n	1144 <i2c_read+0xe0>
    114a:	2000      	movs	r0, #0
    114c:	e8bd 83f8 	ldmia.w	sp!, {r3, r4, r5, r6, r7, r8, r9, pc}
    1150:	6821      	ldr	r1, [r4, #0]
    1152:	2010      	movs	r0, #16
    1154:	2308      	movs	r3, #8
    1156:	6008      	str	r0, [r1, #0]
    1158:	618b      	str	r3, [r1, #24]
    115a:	680a      	ldr	r2, [r1, #0]
    115c:	06d3      	lsls	r3, r2, #27
    115e:	d4fc      	bmi.n	115a <i2c_read+0xf6>
    1160:	e791      	b.n	1086 <i2c_read+0x22>
    1162:	bf00      	nop

00001164 <i2c_write>:
    1164:	b5f8      	push	{r3, r4, r5, r6, r7, lr}
    1166:	4604      	mov	r4, r0
    1168:	460e      	mov	r6, r1
    116a:	4615      	mov	r5, r2
    116c:	461f      	mov	r7, r3
    116e:	f7ff ff49 	bl	1004 <i2c_start>
    1172:	b148      	cbz	r0, 1188 <i2c_write+0x24>
    1174:	6820      	ldr	r0, [r4, #0]
    1176:	2110      	movs	r1, #16
    1178:	2208      	movs	r2, #8
    117a:	6001      	str	r1, [r0, #0]
    117c:	6182      	str	r2, [r0, #24]
    117e:	6803      	ldr	r3, [r0, #0]
    1180:	06d9      	lsls	r1, r3, #27
    1182:	d4fc      	bmi.n	117e <i2c_write+0x1a>
    1184:	2001      	movs	r0, #1
    1186:	bdf8      	pop	{r3, r4, r5, r6, r7, pc}
    1188:	4620      	mov	r0, r4
    118a:	f006 01fe 	and.w	r1, r6, #254	; 0xfe
    118e:	f7ff fe81 	bl	e94 <i2c_do_write>
    1192:	2800      	cmp	r0, #0
    1194:	d133      	bne.n	11fe <i2c_write+0x9a>
    1196:	2f00      	cmp	r7, #0
    1198:	dd24      	ble.n	11e4 <i2c_write+0x80>
    119a:	19ef      	adds	r7, r5, r7
    119c:	43eb      	mvns	r3, r5
    119e:	19da      	adds	r2, r3, r7
    11a0:	4620      	mov	r0, r4
    11a2:	f815 1b01 	ldrb.w	r1, [r5], #1
    11a6:	f002 0601 	and.w	r6, r2, #1
    11aa:	f7ff fe73 	bl	e94 <i2c_do_write>
    11ae:	2800      	cmp	r0, #0
    11b0:	d12f      	bne.n	1212 <i2c_write+0xae>
    11b2:	42bd      	cmp	r5, r7
    11b4:	d016      	beq.n	11e4 <i2c_write+0x80>
    11b6:	b136      	cbz	r6, 11c6 <i2c_write+0x62>
    11b8:	4620      	mov	r0, r4
    11ba:	f815 1b01 	ldrb.w	r1, [r5], #1
    11be:	f7ff fe69 	bl	e94 <i2c_do_write>
    11c2:	b168      	cbz	r0, 11e0 <i2c_write+0x7c>
    11c4:	e025      	b.n	1212 <i2c_write+0xae>
    11c6:	462e      	mov	r6, r5
    11c8:	f816 1b01 	ldrb.w	r1, [r6], #1
    11cc:	4620      	mov	r0, r4
    11ce:	f7ff fe61 	bl	e94 <i2c_do_write>
    11d2:	b9f0      	cbnz	r0, 1212 <i2c_write+0xae>
    11d4:	7869      	ldrb	r1, [r5, #1]
    11d6:	4620      	mov	r0, r4
    11d8:	1c75      	adds	r5, r6, #1
    11da:	f7ff fe5b 	bl	e94 <i2c_do_write>
    11de:	b9c0      	cbnz	r0, 1212 <i2c_write+0xae>
    11e0:	42bd      	cmp	r5, r7
    11e2:	d1f0      	bne.n	11c6 <i2c_write+0x62>
    11e4:	6820      	ldr	r0, [r4, #0]
    11e6:	9906      	ldr	r1, [sp, #24]
    11e8:	2308      	movs	r3, #8
    11ea:	6183      	str	r3, [r0, #24]
    11ec:	b129      	cbz	r1, 11fa <i2c_write+0x96>
    11ee:	2210      	movs	r2, #16
    11f0:	6002      	str	r2, [r0, #0]
    11f2:	6183      	str	r3, [r0, #24]
    11f4:	6803      	ldr	r3, [r0, #0]
    11f6:	06d9      	lsls	r1, r3, #27
    11f8:	d4fc      	bmi.n	11f4 <i2c_write+0x90>
    11fa:	2000      	movs	r0, #0
    11fc:	bdf8      	pop	{r3, r4, r5, r6, r7, pc}
    11fe:	6821      	ldr	r1, [r4, #0]
    1200:	2010      	movs	r0, #16
    1202:	2208      	movs	r2, #8
    1204:	6008      	str	r0, [r1, #0]
    1206:	618a      	str	r2, [r1, #24]
    1208:	680b      	ldr	r3, [r1, #0]
    120a:	06db      	lsls	r3, r3, #27
    120c:	d4fc      	bmi.n	1208 <i2c_write+0xa4>
    120e:	2001      	movs	r0, #1
    1210:	bdf8      	pop	{r3, r4, r5, r6, r7, pc}
    1212:	6821      	ldr	r1, [r4, #0]
    1214:	2010      	movs	r0, #16
    1216:	2208      	movs	r2, #8
    1218:	6008      	str	r0, [r1, #0]
    121a:	618a      	str	r2, [r1, #24]
    121c:	680b      	ldr	r3, [r1, #0]
    121e:	06d8      	lsls	r0, r3, #27
    1220:	d4fc      	bmi.n	121c <i2c_write+0xb8>
    1222:	e7af      	b.n	1184 <i2c_write+0x20>

00001224 <pin_function>:
    1224:	1c43      	adds	r3, r0, #1
    1226:	b410      	push	{r4}
    1228:	d01b      	beq.n	1262 <pin_function+0x3e>
    122a:	f100 4060 	add.w	r0, r0, #3758096384	; 0xe0000000
    122e:	f5a0 241c 	sub.w	r4, r0, #638976	; 0x9c000
    1232:	f004 030f 	and.w	r3, r4, #15
    1236:	0058      	lsls	r0, r3, #1
    1238:	2203      	movs	r2, #3
    123a:	fa02 fc00 	lsl.w	r12, r2, r0
    123e:	fa01 f100 	lsl.w	r1, r1, r0
    1242:	f44f 4340 	mov.w	r3, #49152	; 0xc000
    1246:	0920      	lsrs	r0, r4, #4
    1248:	f2c4 0302 	movt	r3, #16386	; 0x4002
    124c:	f853 4020 	ldr.w	r4, [r3, r0, lsl #2]
    1250:	ea24 020c 	bic.w	r2, r4, r12
    1254:	f843 2020 	str.w	r2, [r3, r0, lsl #2]
    1258:	f853 2020 	ldr.w	r2, [r3, r0, lsl #2]
    125c:	4311      	orrs	r1, r2
    125e:	f843 1020 	str.w	r1, [r3, r0, lsl #2]
    1262:	bc10      	pop	{r4}
    1264:	4770      	bx	lr
    1266:	bf00      	nop

00001268 <pin_mode>:
    1268:	1c42      	adds	r2, r0, #1
    126a:	b470      	push	{r4, r5, r6}
    126c:	d032      	beq.n	12d4 <pin_mode+0x6c>
    126e:	f100 4060 	add.w	r0, r0, #3758096384	; 0xe0000000
    1272:	f5a0 201c 	sub.w	r0, r0, #638976	; 0x9c000
    1276:	f000 051f 	and.w	r5, r0, #31
    127a:	f3c1 0480 	ubfx	r4, r1, #2, #1
    127e:	fa04 fc05 	lsl.w	r12, r4, r5
    1282:	0942      	lsrs	r2, r0, #5
    1284:	f44f 4340 	mov.w	r3, #49152	; 0xc000
    1288:	f2c4 0302 	movt	r3, #16386	; 0x4002
    128c:	321a      	adds	r2, #26
    128e:	f853 6022 	ldr.w	r6, [r3, r2, lsl #2]
    1292:	ea26 050c 	bic.w	r5, r6, r12
    1296:	f843 5022 	str.w	r5, [r3, r2, lsl #2]
    129a:	f853 6022 	ldr.w	r6, [r3, r2, lsl #2]
    129e:	ea46 050c 	orr.w	r5, r6, r12
    12a2:	f843 5022 	str.w	r5, [r3, r2, lsl #2]
    12a6:	b9ac      	cbnz	r4, 12d4 <pin_mode+0x6c>
    12a8:	f000 040f 	and.w	r4, r0, #15
    12ac:	0062      	lsls	r2, r4, #1
    12ae:	2503      	movs	r5, #3
    12b0:	fa05 f502 	lsl.w	r5, r5, r2
    12b4:	fa01 fc02 	lsl.w	r12, r1, r2
    12b8:	0900      	lsrs	r0, r0, #4
    12ba:	3010      	adds	r0, #16
    12bc:	f853 1020 	ldr.w	r1, [r3, r0, lsl #2]
    12c0:	ea21 0405 	bic.w	r4, r1, r5
    12c4:	f843 4020 	str.w	r4, [r3, r0, lsl #2]
    12c8:	f853 4020 	ldr.w	r4, [r3, r0, lsl #2]
    12cc:	ea4c 0204 	orr.w	r2, r12, r4
    12d0:	f843 2020 	str.w	r2, [r3, r0, lsl #2]
    12d4:	bc70      	pop	{r4, r5, r6}
    12d6:	4770      	bx	lr

000012d8 <semihost_connected>:
    12d8:	f64e 53f0 	movw	r3, #60912	; 0xedf0
    12dc:	f2ce 0300 	movt	r3, #57344	; 0xe000
    12e0:	6818      	ldr	r0, [r3, #0]
    12e2:	f000 0001 	and.w	r0, r0, #1
    12e6:	4770      	bx	lr

000012e8 <serial_baud>:
    12e8:	e92d 4ff0 	stmdb	sp!, {r4, r5, r6, r7, r8, r9, r10, r11, lr}
    12ec:	2300      	movs	r3, #0
    12ee:	6804      	ldr	r4, [r0, #0]
    12f0:	f2c4 0301 	movt	r3, #16385	; 0x4001
    12f4:	b08b      	sub	sp, #44	; 0x2c
    12f6:	429c      	cmp	r4, r3
    12f8:	9009      	str	r0, [sp, #36]	; 0x24
    12fa:	f000 80fb 	beq.w	14f4 <serial_baud+0x20c>
    12fe:	f340 80d9 	ble.w	14b4 <serial_baud+0x1cc>
    1302:	f44f 4c00 	mov.w	r12, #32768	; 0x8000
    1306:	f2c4 0c09 	movt	r12, #16393	; 0x4009
    130a:	4564      	cmp	r4, r12
    130c:	f44f 4340 	mov.w	r3, #49152	; 0xc000
    1310:	f000 80e1 	beq.w	14d6 <serial_baud+0x1ee>
    1314:	f2c4 0309 	movt	r3, #16393	; 0x4009
    1318:	429c      	cmp	r4, r3
    131a:	f040 80d1 	bne.w	14c0 <serial_baud+0x1d8>
    131e:	f44f 4040 	mov.w	r0, #49152	; 0xc000
    1322:	f2c4 000f 	movt	r0, #16399	; 0x400f
    1326:	f8d0 21ac 	ldr.w	r2, [r0, #428]	; 0x1ac
    132a:	f422 2340 	bic.w	r3, r2, #786432	; 0xc0000
    132e:	f8c0 31ac 	str.w	r3, [r0, #428]	; 0x1ac
    1332:	f8d0 21ac 	ldr.w	r2, [r0, #428]	; 0x1ac
    1336:	f442 2380 	orr.w	r3, r2, #262144	; 0x40000
    133a:	f8c0 31ac 	str.w	r3, [r0, #428]	; 0x1ac
    133e:	4880      	ldr	r0, [pc, #512]	; (1540 <serial_baud+0x258>)
    1340:	010a      	lsls	r2, r1, #4
    1342:	6803      	ldr	r3, [r0, #0]
    1344:	9308      	str	r3, [sp, #32]
    1346:	9808      	ldr	r0, [sp, #32]
    1348:	fbb3 fcf2 	udiv	r12, r3, r2
    134c:	fb02 021c 	mls	r2, r2, r12, r0
    1350:	fa1f f38c 	uxth.w	r3, r12
    1354:	9307      	str	r3, [sp, #28]
    1356:	2a00      	cmp	r2, #0
    1358:	f000 80bb 	beq.w	14d2 <serial_baud+0x1ea>
    135c:	4608      	mov	r0, r1
    135e:	0859      	lsrs	r1, r3, #1
    1360:	9102      	str	r1, [sp, #8]
    1362:	f001 fd7f 	bl	2e64 <__aeabi_i2f>
    1366:	9a02      	ldr	r2, [sp, #8]
    1368:	4683      	mov	r11, r0
    136a:	9807      	ldr	r0, [sp, #28]
    136c:	4290      	cmp	r0, r2
    136e:	f0c0 80b0 	bcc.w	14d2 <serial_baud+0x1ea>
    1372:	9f07      	ldr	r7, [sp, #28]
    1374:	2401      	movs	r4, #1
    1376:	2100      	movs	r1, #0
    1378:	46da      	mov	r10, r11
    137a:	9703      	str	r7, [sp, #12]
    137c:	9405      	str	r4, [sp, #20]
    137e:	9104      	str	r1, [sp, #16]
    1380:	f04f 0901 	mov.w	r9, #1
    1384:	f109 0201 	add.w	r2, r9, #1
    1388:	fa5f f982 	uxtb.w	r9, r2
    138c:	2000      	movs	r0, #0
    138e:	f1b9 0f10 	cmp.w	r9, #16
    1392:	9006      	str	r0, [sp, #24]
    1394:	9f08      	ldr	r7, [sp, #32]
    1396:	d061      	beq.n	145c <serial_baud+0x174>
    1398:	9802      	ldr	r0, [sp, #8]
    139a:	f001 fd5f 	bl	2e5c <__aeabi_ui2f>
    139e:	f001 f941 	bl	2624 <__aeabi_f2d>
    13a2:	2300      	movs	r3, #0
    13a4:	2200      	movs	r2, #0
    13a6:	f2c4 0330 	movt	r3, #16432	; 0x4030
    13aa:	f001 f98f 	bl	26cc <__aeabi_dmul>
    13ae:	e9cd 0100 	strd	r0, r1, [sp]
    13b2:	2601      	movs	r6, #1
    13b4:	4638      	mov	r0, r7
    13b6:	f001 fd51 	bl	2e5c <__aeabi_ui2f>
    13ba:	f001 f933 	bl	2624 <__aeabi_f2d>
    13be:	4604      	mov	r4, r0
    13c0:	4630      	mov	r0, r6
    13c2:	460d      	mov	r5, r1
    13c4:	f001 fd4a 	bl	2e5c <__aeabi_ui2f>
    13c8:	4680      	mov	r8, r0
    13ca:	4648      	mov	r0, r9
    13cc:	f001 fd46 	bl	2e5c <__aeabi_ui2f>
    13d0:	4601      	mov	r1, r0
    13d2:	4640      	mov	r0, r8
    13d4:	f001 fe4e 	bl	3074 <__aeabi_fdiv>
    13d8:	f04f 517e 	mov.w	r1, #1065353216	; 0x3f800000
    13dc:	f001 fc8e 	bl	2cfc <__addsf3>
    13e0:	f001 f920 	bl	2624 <__aeabi_f2d>
    13e4:	4602      	mov	r2, r0
    13e6:	460b      	mov	r3, r1
    13e8:	e9dd 0100 	ldrd	r0, r1, [sp]
    13ec:	f001 f96e 	bl	26cc <__aeabi_dmul>
    13f0:	4602      	mov	r2, r0
    13f2:	460b      	mov	r3, r1
    13f4:	4620      	mov	r0, r4
    13f6:	4629      	mov	r1, r5
    13f8:	f001 fa92 	bl	2920 <__aeabi_ddiv>
    13fc:	f001 fc28 	bl	2c50 <__aeabi_d2f>
    1400:	4601      	mov	r1, r0
    1402:	4658      	mov	r0, r11
    1404:	f001 fc78 	bl	2cf8 <__aeabi_fsub>
    1408:	4659      	mov	r1, r11
    140a:	f001 fe33 	bl	3074 <__aeabi_fdiv>
    140e:	f001 f909 	bl	2624 <__aeabi_f2d>
    1412:	f006 ffbf 	bl	8394 <fabs>
    1416:	f001 fc1b 	bl	2c50 <__aeabi_d2f>
    141a:	4651      	mov	r1, r10
    141c:	4604      	mov	r4, r0
    141e:	f001 ff13 	bl	3248 <__aeabi_fcmplt>
    1422:	b180      	cbz	r0, 1446 <serial_baud+0x15e>
    1424:	4620      	mov	r0, r4
    1426:	f001 f8fd 	bl	2624 <__aeabi_f2d>
    142a:	a343      	add	r3, pc, #268	; (adr r3, 1538 <serial_baud+0x250>)
    142c:	e9d3 2300 	ldrd	r2, r3, [r3]
    1430:	f001 fbbe 	bl	2bb0 <__aeabi_dcmplt>
    1434:	9a02      	ldr	r2, [sp, #8]
    1436:	46a2      	mov	r10, r4
    1438:	f8cd 9014 	str.w	r9, [sp, #20]
    143c:	9604      	str	r6, [sp, #16]
    143e:	9203      	str	r2, [sp, #12]
    1440:	b108      	cbz	r0, 1446 <serial_baud+0x15e>
    1442:	2301      	movs	r3, #1
    1444:	9306      	str	r3, [sp, #24]
    1446:	3601      	adds	r6, #1
    1448:	b2f6      	uxtb	r6, r6
    144a:	454e      	cmp	r6, r9
    144c:	d1b2      	bne.n	13b4 <serial_baud+0xcc>
    144e:	f109 0201 	add.w	r2, r9, #1
    1452:	fa5f f982 	uxtb.w	r9, r2
    1456:	f1b9 0f10 	cmp.w	r9, #16
    145a:	d19d      	bne.n	1398 <serial_baud+0xb0>
    145c:	9b02      	ldr	r3, [sp, #8]
    145e:	9807      	ldr	r0, [sp, #28]
    1460:	1c5c      	adds	r4, r3, #1
    1462:	b2a1      	uxth	r1, r4
    1464:	4288      	cmp	r0, r1
    1466:	9102      	str	r1, [sp, #8]
    1468:	d302      	bcc.n	1470 <serial_baud+0x188>
    146a:	9a06      	ldr	r2, [sp, #24]
    146c:	2a00      	cmp	r2, #0
    146e:	d087      	beq.n	1380 <serial_baud+0x98>
    1470:	9b04      	ldr	r3, [sp, #16]
    1472:	9c05      	ldr	r4, [sp, #20]
    1474:	9a09      	ldr	r2, [sp, #36]	; 0x24
    1476:	9803      	ldr	r0, [sp, #12]
    1478:	ea43 1104 	orr.w	r1, r3, r4, lsl #4
    147c:	6814      	ldr	r4, [r2, #0]
    147e:	b2cb      	uxtb	r3, r1
    1480:	9007      	str	r0, [sp, #28]
    1482:	f894 c00c 	ldrb.w	r12, [r4, #12]
    1486:	9907      	ldr	r1, [sp, #28]
    1488:	f04c 0280 	orr.w	r2, r12, #128	; 0x80
    148c:	7322      	strb	r2, [r4, #12]
    148e:	9c09      	ldr	r4, [sp, #36]	; 0x24
    1490:	0a08      	lsrs	r0, r1, #8
    1492:	6822      	ldr	r2, [r4, #0]
    1494:	9c09      	ldr	r4, [sp, #36]	; 0x24
    1496:	7110      	strb	r0, [r2, #4]
    1498:	6820      	ldr	r0, [r4, #0]
    149a:	b2c9      	uxtb	r1, r1
    149c:	7001      	strb	r1, [r0, #0]
    149e:	6822      	ldr	r2, [r4, #0]
    14a0:	f882 3028 	strb.w	r3, [r2, #40]	; 0x28
    14a4:	6823      	ldr	r3, [r4, #0]
    14a6:	7b19      	ldrb	r1, [r3, #12]
    14a8:	f001 007f 	and.w	r0, r1, #127	; 0x7f
    14ac:	7318      	strb	r0, [r3, #12]
    14ae:	b00b      	add	sp, #44	; 0x2c
    14b0:	e8bd 8ff0 	ldmia.w	sp!, {r4, r5, r6, r7, r8, r9, r10, r11, pc}
    14b4:	f44f 4040 	mov.w	r0, #49152	; 0xc000
    14b8:	f2c4 0000 	movt	r0, #16384	; 0x4000
    14bc:	4284      	cmp	r4, r0
    14be:	d02a      	beq.n	1516 <serial_baud+0x22e>
    14c0:	4d20      	ldr	r5, [pc, #128]	; (1544 <serial_baud+0x25c>)
    14c2:	4921      	ldr	r1, [pc, #132]	; (1548 <serial_baud+0x260>)
    14c4:	682e      	ldr	r6, [r5, #0]
    14c6:	68f0      	ldr	r0, [r6, #12]
    14c8:	f002 f914 	bl	36f4 <fiprintf>
    14cc:	2001      	movs	r0, #1
    14ce:	f7ff f889 	bl	5e4 <exit>
    14d2:	2310      	movs	r3, #16
    14d4:	e7d5      	b.n	1482 <serial_baud+0x19a>
    14d6:	f2c4 030f 	movt	r3, #16399	; 0x400f
    14da:	f8d3 01ac 	ldr.w	r0, [r3, #428]	; 0x1ac
    14de:	f420 3240 	bic.w	r2, r0, #196608	; 0x30000
    14e2:	f8c3 21ac 	str.w	r2, [r3, #428]	; 0x1ac
    14e6:	f8d3 01ac 	ldr.w	r0, [r3, #428]	; 0x1ac
    14ea:	f440 3280 	orr.w	r2, r0, #65536	; 0x10000
    14ee:	f8c3 21ac 	str.w	r2, [r3, #428]	; 0x1ac
    14f2:	e724      	b.n	133e <serial_baud+0x56>
    14f4:	f44f 4c40 	mov.w	r12, #49152	; 0xc000
    14f8:	f2c4 0c0f 	movt	r12, #16399	; 0x400f
    14fc:	f8dc 31a8 	ldr.w	r3, [r12, #424]	; 0x1a8
    1500:	f423 7040 	bic.w	r0, r3, #768	; 0x300
    1504:	f8cc 01a8 	str.w	r0, [r12, #424]	; 0x1a8
    1508:	f8dc 21a8 	ldr.w	r2, [r12, #424]	; 0x1a8
    150c:	f442 7380 	orr.w	r3, r2, #256	; 0x100
    1510:	f8cc 31a8 	str.w	r3, [r12, #424]	; 0x1a8
    1514:	e713      	b.n	133e <serial_baud+0x56>
    1516:	f44f 4c40 	mov.w	r12, #49152	; 0xc000
    151a:	f2c4 0c0f 	movt	r12, #16399	; 0x400f
    151e:	f8dc 21a8 	ldr.w	r2, [r12, #424]	; 0x1a8
    1522:	f022 03c0 	bic.w	r3, r2, #192	; 0xc0
    1526:	f8cc 31a8 	str.w	r3, [r12, #424]	; 0x1a8
    152a:	f8dc 01a8 	ldr.w	r0, [r12, #424]	; 0x1a8
    152e:	f040 0240 	orr.w	r2, r0, #64	; 0x40
    1532:	f8cc 21a8 	str.w	r2, [r12, #424]	; 0x1a8
    1536:	e702      	b.n	133e <serial_baud+0x56>
    1538:	d2f1a9fc 	.word	0xd2f1a9fc
    153c:	3f50624d 	.word	0x3f50624d
    1540:	100000cc 	.word	0x100000cc
    1544:	10000134 	.word	0x10000134
    1548:	000086d8 	.word	0x000086d8
    154c:	f3af 8000 	nop.w

00001550 <serial_format>:
    1550:	b538      	push	{r3, r4, r5, lr}
    1552:	1f4c      	subs	r4, r1, #5
    1554:	2c03      	cmp	r4, #3
    1556:	460d      	mov	r5, r1
    1558:	d82a      	bhi.n	15b0 <serial_format+0x60>
    155a:	2a04      	cmp	r2, #4
    155c:	d813      	bhi.n	1586 <serial_format+0x36>
    155e:	e8df f002 	tbb	[pc, r2]
    1562:	1e1b      	.short	0x1e1b
    1564:	2421      	.short	0x2421
    1566:	03          	.byte	0x03
    1567:	00          	.byte	0x00
    1568:	2203      	movs	r2, #3
    156a:	2101      	movs	r1, #1
    156c:	3b01      	subs	r3, #1
    156e:	2b01      	cmp	r3, #1
    1570:	d828      	bhi.n	15c4 <serial_format+0x74>
    1572:	ea44 0483 	orr.w	r4, r4, r3, lsl #2
    1576:	ea44 0cc1 	orr.w	r12, r4, r1, lsl #3
    157a:	6800      	ldr	r0, [r0, #0]
    157c:	ea4c 1202 	orr.w	r2, r12, r2, lsl #4
    1580:	b2d1      	uxtb	r1, r2
    1582:	7301      	strb	r1, [r0, #12]
    1584:	bd38      	pop	{r3, r4, r5, pc}
    1586:	4910      	ldr	r1, [pc, #64]	; (15c8 <serial_format+0x78>)
    1588:	4d10      	ldr	r5, [pc, #64]	; (15cc <serial_format+0x7c>)
    158a:	682c      	ldr	r4, [r5, #0]
    158c:	68e0      	ldr	r0, [r4, #12]
    158e:	f002 f8b1 	bl	36f4 <fiprintf>
    1592:	2001      	movs	r0, #1
    1594:	f7ff f826 	bl	5e4 <exit>
    1598:	2200      	movs	r2, #0
    159a:	4611      	mov	r1, r2
    159c:	e7e6      	b.n	156c <serial_format+0x1c>
    159e:	2200      	movs	r2, #0
    15a0:	2101      	movs	r1, #1
    15a2:	e7e3      	b.n	156c <serial_format+0x1c>
    15a4:	2201      	movs	r2, #1
    15a6:	4611      	mov	r1, r2
    15a8:	e7e0      	b.n	156c <serial_format+0x1c>
    15aa:	2202      	movs	r2, #2
    15ac:	2101      	movs	r1, #1
    15ae:	e7dd      	b.n	156c <serial_format+0x1c>
    15b0:	4b06      	ldr	r3, [pc, #24]	; (15cc <serial_format+0x7c>)
    15b2:	4907      	ldr	r1, [pc, #28]	; (15d0 <serial_format+0x80>)
    15b4:	6818      	ldr	r0, [r3, #0]
    15b6:	462a      	mov	r2, r5
    15b8:	68c0      	ldr	r0, [r0, #12]
    15ba:	f002 f89b 	bl	36f4 <fiprintf>
    15be:	2001      	movs	r0, #1
    15c0:	f7ff f810 	bl	5e4 <exit>
    15c4:	4903      	ldr	r1, [pc, #12]	; (15d4 <serial_format+0x84>)
    15c6:	e7df      	b.n	1588 <serial_format+0x38>
    15c8:	00008724 	.word	0x00008724
    15cc:	10000134 	.word	0x10000134
    15d0:	000086e4 	.word	0x000086e4
    15d4:	00008744 	.word	0x00008744

000015d8 <serial_init>:
    15d8:	e92d 43f8 	stmdb	sp!, {r3, r4, r5, r6, r7, r8, r9, lr}
    15dc:	460f      	mov	r7, r1
    15de:	4605      	mov	r5, r0
    15e0:	498d      	ldr	r1, [pc, #564]	; (1818 <serial_init+0x240>)
    15e2:	4638      	mov	r0, r7
    15e4:	4616      	mov	r6, r2
    15e6:	f000 fa4f 	bl	1a88 <pinmap_peripheral>
    15ea:	498c      	ldr	r1, [pc, #560]	; (181c <serial_init+0x244>)
    15ec:	4604      	mov	r4, r0
    15ee:	4630      	mov	r0, r6
    15f0:	f000 fa4a 	bl	1a88 <pinmap_peripheral>
    15f4:	4601      	mov	r1, r0
    15f6:	4620      	mov	r0, r4
    15f8:	f000 fa2e 	bl	1a58 <pinmap_merge>
    15fc:	1c43      	adds	r3, r0, #1
    15fe:	4604      	mov	r4, r0
    1600:	f000 8101 	beq.w	1806 <serial_init+0x22e>
    1604:	2300      	movs	r3, #0
    1606:	f2c4 0301 	movt	r3, #16385	; 0x4001
    160a:	4298      	cmp	r0, r3
    160c:	6028      	str	r0, [r5, #0]
    160e:	d06c      	beq.n	16ea <serial_init+0x112>
    1610:	d934      	bls.n	167c <serial_init+0xa4>
    1612:	f44f 4200 	mov.w	r2, #32768	; 0x8000
    1616:	f2c4 0209 	movt	r2, #16393	; 0x4009
    161a:	4290      	cmp	r0, r2
    161c:	f000 80bd 	beq.w	179a <serial_init+0x1c2>
    1620:	f44f 4140 	mov.w	r1, #49152	; 0xc000
    1624:	f2c4 0109 	movt	r1, #16393	; 0x4009
    1628:	4288      	cmp	r0, r1
    162a:	d12d      	bne.n	1688 <serial_init+0xb0>
    162c:	f44f 4c40 	mov.w	r12, #49152	; 0xc000
    1630:	f2c4 0c0f 	movt	r12, #16399	; 0x400f
    1634:	f8dc 00c4 	ldr.w	r0, [r12, #196]	; 0xc4
    1638:	f04f 0801 	mov.w	r8, #1
    163c:	f040 7200 	orr.w	r2, r0, #33554432	; 0x2000000
    1640:	f8cc 20c4 	str.w	r2, [r12, #196]	; 0xc4
    1644:	f884 8008 	strb.w	r8, [r4, #8]
    1648:	6829      	ldr	r1, [r5, #0]
    164a:	2400      	movs	r4, #0
    164c:	604c      	str	r4, [r1, #4]
    164e:	4628      	mov	r0, r5
    1650:	f44f 5116 	mov.w	r1, #9600	; 0x2580
    1654:	f7ff fe48 	bl	12e8 <serial_baud>
    1658:	4628      	mov	r0, r5
    165a:	4622      	mov	r2, r4
    165c:	4643      	mov	r3, r8
    165e:	2108      	movs	r1, #8
    1660:	f7ff ff76 	bl	1550 <serial_format>
    1664:	4638      	mov	r0, r7
    1666:	496c      	ldr	r1, [pc, #432]	; (1818 <serial_init+0x240>)
    1668:	f000 f9d0 	bl	1a0c <pinmap_pinout>
    166c:	4630      	mov	r0, r6
    166e:	496b      	ldr	r1, [pc, #428]	; (181c <serial_init+0x244>)
    1670:	f000 f9cc 	bl	1a0c <pinmap_pinout>
    1674:	2303      	movs	r3, #3
    1676:	606b      	str	r3, [r5, #4]
    1678:	e8bd 83f8 	ldmia.w	sp!, {r3, r4, r5, r6, r7, r8, r9, pc}
    167c:	f44f 4040 	mov.w	r0, #49152	; 0xc000
    1680:	f2c4 0000 	movt	r0, #16384	; 0x4000
    1684:	4284      	cmp	r4, r0
    1686:	d058      	beq.n	173a <serial_init+0x162>
    1688:	f04f 0801 	mov.w	r8, #1
    168c:	f884 8008 	strb.w	r8, [r4, #8]
    1690:	682b      	ldr	r3, [r5, #0]
    1692:	f04f 0900 	mov.w	r9, #0
    1696:	f44f 5116 	mov.w	r1, #9600	; 0x2580
    169a:	f8c3 9004 	str.w	r9, [r3, #4]
    169e:	4628      	mov	r0, r5
    16a0:	f7ff fe22 	bl	12e8 <serial_baud>
    16a4:	464a      	mov	r2, r9
    16a6:	4643      	mov	r3, r8
    16a8:	2108      	movs	r1, #8
    16aa:	4628      	mov	r0, r5
    16ac:	f7ff ff50 	bl	1550 <serial_format>
    16b0:	4638      	mov	r0, r7
    16b2:	4959      	ldr	r1, [pc, #356]	; (1818 <serial_init+0x240>)
    16b4:	f000 f9aa 	bl	1a0c <pinmap_pinout>
    16b8:	4630      	mov	r0, r6
    16ba:	4958      	ldr	r1, [pc, #352]	; (181c <serial_init+0x244>)
    16bc:	f000 f9a6 	bl	1a0c <pinmap_pinout>
    16c0:	46cc      	mov	r12, r9
    16c2:	f2c4 0c01 	movt	r12, #16385	; 0x4001
    16c6:	4564      	cmp	r4, r12
    16c8:	d033      	beq.n	1732 <serial_init+0x15a>
    16ca:	f200 808e 	bhi.w	17ea <serial_init+0x212>
    16ce:	f44f 4040 	mov.w	r0, #49152	; 0xc000
    16d2:	f2c4 0000 	movt	r0, #16384	; 0x4000
    16d6:	4284      	cmp	r4, r0
    16d8:	d053      	beq.n	1782 <serial_init+0x1aa>
    16da:	f44f 4e40 	mov.w	lr, #49152	; 0xc000
    16de:	f2c4 0e00 	movt	lr, #16384	; 0x4000
    16e2:	4574      	cmp	r4, lr
    16e4:	d04f      	beq.n	1786 <serial_init+0x1ae>
    16e6:	e8bd 83f8 	ldmia.w	sp!, {r3, r4, r5, r6, r7, r8, r9, pc}
    16ea:	f44f 4c40 	mov.w	r12, #49152	; 0xc000
    16ee:	f2c4 0c0f 	movt	r12, #16399	; 0x400f
    16f2:	f8dc 00c4 	ldr.w	r0, [r12, #196]	; 0xc4
    16f6:	f04f 0801 	mov.w	r8, #1
    16fa:	f040 0210 	orr.w	r2, r0, #16
    16fe:	f8cc 20c4 	str.w	r2, [r12, #196]	; 0xc4
    1702:	f884 8008 	strb.w	r8, [r4, #8]
    1706:	6829      	ldr	r1, [r5, #0]
    1708:	2400      	movs	r4, #0
    170a:	604c      	str	r4, [r1, #4]
    170c:	4628      	mov	r0, r5
    170e:	f44f 5116 	mov.w	r1, #9600	; 0x2580
    1712:	f7ff fde9 	bl	12e8 <serial_baud>
    1716:	4628      	mov	r0, r5
    1718:	4622      	mov	r2, r4
    171a:	4643      	mov	r3, r8
    171c:	2108      	movs	r1, #8
    171e:	f7ff ff17 	bl	1550 <serial_format>
    1722:	4638      	mov	r0, r7
    1724:	493c      	ldr	r1, [pc, #240]	; (1818 <serial_init+0x240>)
    1726:	f000 f971 	bl	1a0c <pinmap_pinout>
    172a:	4630      	mov	r0, r6
    172c:	493b      	ldr	r1, [pc, #236]	; (181c <serial_init+0x244>)
    172e:	f000 f96d 	bl	1a0c <pinmap_pinout>
    1732:	2301      	movs	r3, #1
    1734:	606b      	str	r3, [r5, #4]
    1736:	e8bd 83f8 	ldmia.w	sp!, {r3, r4, r5, r6, r7, r8, r9, pc}
    173a:	f44f 4240 	mov.w	r2, #49152	; 0xc000
    173e:	f2c4 020f 	movt	r2, #16399	; 0x400f
    1742:	f8d2 10c4 	ldr.w	r1, [r2, #196]	; 0xc4
    1746:	f04f 0801 	mov.w	r8, #1
    174a:	f041 0308 	orr.w	r3, r1, #8
    174e:	f8c2 30c4 	str.w	r3, [r2, #196]	; 0xc4
    1752:	f884 8008 	strb.w	r8, [r4, #8]
    1756:	6828      	ldr	r0, [r5, #0]
    1758:	2400      	movs	r4, #0
    175a:	6044      	str	r4, [r0, #4]
    175c:	f44f 5116 	mov.w	r1, #9600	; 0x2580
    1760:	4628      	mov	r0, r5
    1762:	f7ff fdc1 	bl	12e8 <serial_baud>
    1766:	4628      	mov	r0, r5
    1768:	4622      	mov	r2, r4
    176a:	4643      	mov	r3, r8
    176c:	2108      	movs	r1, #8
    176e:	f7ff feef 	bl	1550 <serial_format>
    1772:	4638      	mov	r0, r7
    1774:	4928      	ldr	r1, [pc, #160]	; (1818 <serial_init+0x240>)
    1776:	f000 f949 	bl	1a0c <pinmap_pinout>
    177a:	4630      	mov	r0, r6
    177c:	4927      	ldr	r1, [pc, #156]	; (181c <serial_init+0x244>)
    177e:	f000 f945 	bl	1a0c <pinmap_pinout>
    1782:	2400      	movs	r4, #0
    1784:	606c      	str	r4, [r5, #4]
    1786:	4b26      	ldr	r3, [pc, #152]	; (1820 <serial_init+0x248>)
    1788:	4826      	ldr	r0, [pc, #152]	; (1824 <serial_init+0x24c>)
    178a:	2401      	movs	r4, #1
    178c:	4629      	mov	r1, r5
    178e:	2208      	movs	r2, #8
    1790:	601c      	str	r4, [r3, #0]
    1792:	e8bd 43f8 	ldmia.w	sp!, {r3, r4, r5, r6, r7, r8, r9, lr}
    1796:	f002 b99f 	b.w	3ad8 <memcpy>
    179a:	f44f 4e40 	mov.w	lr, #49152	; 0xc000
    179e:	f2c4 0e0f 	movt	lr, #16399	; 0x400f
    17a2:	f8de 00c4 	ldr.w	r0, [lr, #196]	; 0xc4
    17a6:	f04f 0801 	mov.w	r8, #1
    17aa:	f040 7280 	orr.w	r2, r0, #16777216	; 0x1000000
    17ae:	f8ce 20c4 	str.w	r2, [lr, #196]	; 0xc4
    17b2:	f884 8008 	strb.w	r8, [r4, #8]
    17b6:	6829      	ldr	r1, [r5, #0]
    17b8:	2400      	movs	r4, #0
    17ba:	604c      	str	r4, [r1, #4]
    17bc:	4628      	mov	r0, r5
    17be:	f44f 5116 	mov.w	r1, #9600	; 0x2580
    17c2:	f7ff fd91 	bl	12e8 <serial_baud>
    17c6:	4628      	mov	r0, r5
    17c8:	4622      	mov	r2, r4
    17ca:	4643      	mov	r3, r8
    17cc:	2108      	movs	r1, #8
    17ce:	f7ff febf 	bl	1550 <serial_format>
    17d2:	4638      	mov	r0, r7
    17d4:	4910      	ldr	r1, [pc, #64]	; (1818 <serial_init+0x240>)
    17d6:	f000 f919 	bl	1a0c <pinmap_pinout>
    17da:	4630      	mov	r0, r6
    17dc:	490f      	ldr	r1, [pc, #60]	; (181c <serial_init+0x244>)
    17de:	f000 f915 	bl	1a0c <pinmap_pinout>
    17e2:	2302      	movs	r3, #2
    17e4:	606b      	str	r3, [r5, #4]
    17e6:	e8bd 83f8 	ldmia.w	sp!, {r3, r4, r5, r6, r7, r8, r9, pc}
    17ea:	f44f 4200 	mov.w	r2, #32768	; 0x8000
    17ee:	f2c4 0209 	movt	r2, #16393	; 0x4009
    17f2:	4294      	cmp	r4, r2
    17f4:	d0f5      	beq.n	17e2 <serial_init+0x20a>
    17f6:	f44f 4140 	mov.w	r1, #49152	; 0xc000
    17fa:	f2c4 0109 	movt	r1, #16393	; 0x4009
    17fe:	428c      	cmp	r4, r1
    1800:	f47f af6b 	bne.w	16da <serial_init+0x102>
    1804:	e736      	b.n	1674 <serial_init+0x9c>
    1806:	4d08      	ldr	r5, [pc, #32]	; (1828 <serial_init+0x250>)
    1808:	4908      	ldr	r1, [pc, #32]	; (182c <serial_init+0x254>)
    180a:	682e      	ldr	r6, [r5, #0]
    180c:	68f0      	ldr	r0, [r6, #12]
    180e:	f001 ff71 	bl	36f4 <fiprintf>
    1812:	2001      	movs	r0, #1
    1814:	f7fe fee6 	bl	5e4 <exit>
    1818:	00008780 	.word	0x00008780
    181c:	0000866c 	.word	0x0000866c
    1820:	10000364 	.word	0x10000364
    1824:	10000394 	.word	0x10000394
    1828:	10000134 	.word	0x10000134
    182c:	00008760 	.word	0x00008760

00001830 <serial_irq_handler>:
    1830:	b410      	push	{r4}
    1832:	f240 3368 	movw	r3, #872	; 0x368
    1836:	f240 3478 	movw	r4, #888	; 0x378
    183a:	6840      	ldr	r0, [r0, #4]
    183c:	f2c1 0400 	movt	r4, #4096	; 0x1000
    1840:	f2c1 0300 	movt	r3, #4096	; 0x1000
    1844:	6021      	str	r1, [r4, #0]
    1846:	f843 2020 	str.w	r2, [r3, r0, lsl #2]
    184a:	bc10      	pop	{r4}
    184c:	4770      	bx	lr
    184e:	bf00      	nop

00001850 <serial_getc>:
    1850:	6802      	ldr	r2, [r0, #0]
    1852:	7d13      	ldrb	r3, [r2, #20]
    1854:	07d9      	lsls	r1, r3, #31
    1856:	d5fc      	bpl.n	1852 <serial_getc+0x2>
    1858:	7810      	ldrb	r0, [r2, #0]
    185a:	4770      	bx	lr

0000185c <serial_putc>:
    185c:	6802      	ldr	r2, [r0, #0]
    185e:	7d13      	ldrb	r3, [r2, #20]
    1860:	f003 0020 	and.w	r0, r3, #32
    1864:	b2c3      	uxtb	r3, r0
    1866:	2b00      	cmp	r3, #0
    1868:	d0f9      	beq.n	185e <serial_putc+0x2>
    186a:	b2c9      	uxtb	r1, r1
    186c:	7011      	strb	r1, [r2, #0]
    186e:	4770      	bx	lr

00001870 <us_ticker_read>:
    1870:	4915      	ldr	r1, [pc, #84]	; (18c8 <us_ticker_read+0x58>)
    1872:	b430      	push	{r4, r5}
    1874:	680a      	ldr	r2, [r1, #0]
    1876:	b9fa      	cbnz	r2, 18b8 <us_ticker_read+0x48>
    1878:	f44f 4040 	mov.w	r0, #49152	; 0xc000
    187c:	f2c4 000f 	movt	r0, #16399	; 0x400f
    1880:	f8d0 50c4 	ldr.w	r5, [r0, #196]	; 0xc4
    1884:	2401      	movs	r4, #1
    1886:	f44f 4380 	mov.w	r3, #16384	; 0x4000
    188a:	600c      	str	r4, [r1, #0]
    188c:	f2c4 0309 	movt	r3, #16393	; 0x4009
    1890:	490e      	ldr	r1, [pc, #56]	; (18cc <us_ticker_read+0x5c>)
    1892:	f445 0500 	orr.w	r5, r5, #8388608	; 0x800000
    1896:	f8c0 50c4 	str.w	r5, [r0, #196]	; 0xc4
    189a:	671a      	str	r2, [r3, #112]	; 0x70
    189c:	6808      	ldr	r0, [r1, #0]
    189e:	f64d 6c83 	movw	r12, #56963	; 0xde83
    18a2:	0882      	lsrs	r2, r0, #2
    18a4:	f2c4 3c1b 	movt	r12, #17179	; 0x431b
    18a8:	fbac 0102 	umull	r0, r1, r12, r2
    18ac:	0c88      	lsrs	r0, r1, #18
    18ae:	1e42      	subs	r2, r0, #1
    18b0:	2102      	movs	r1, #2
    18b2:	6059      	str	r1, [r3, #4]
    18b4:	60da      	str	r2, [r3, #12]
    18b6:	605c      	str	r4, [r3, #4]
    18b8:	f44f 4380 	mov.w	r3, #16384	; 0x4000
    18bc:	f2c4 0309 	movt	r3, #16393	; 0x4009
    18c0:	6898      	ldr	r0, [r3, #8]
    18c2:	bc30      	pop	{r4, r5}
    18c4:	4770      	bx	lr
    18c6:	bf00      	nop
    18c8:	1000037c 	.word	0x1000037c
    18cc:	100000cc 	.word	0x100000cc

000018d0 <irq_handler>:
    18d0:	b5f8      	push	{r3, r4, r5, r6, r7, lr}
    18d2:	4d17      	ldr	r5, [pc, #92]	; (1930 <irq_handler+0x60>)
    18d4:	f44f 4380 	mov.w	r3, #16384	; 0x4000
    18d8:	682c      	ldr	r4, [r5, #0]
    18da:	f2c4 0309 	movt	r3, #16393	; 0x4009
    18de:	2201      	movs	r2, #1
    18e0:	601a      	str	r2, [r3, #0]
    18e2:	b1e4      	cbz	r4, 191e <irq_handler+0x4e>
    18e4:	4f13      	ldr	r7, [pc, #76]	; (1934 <irq_handler+0x64>)
    18e6:	e006      	b.n	18f6 <irq_handler+0x26>
    18e8:	68a1      	ldr	r1, [r4, #8]
    18ea:	6860      	ldr	r0, [r4, #4]
    18ec:	683c      	ldr	r4, [r7, #0]
    18ee:	6029      	str	r1, [r5, #0]
    18f0:	47a0      	blx	r4
    18f2:	682c      	ldr	r4, [r5, #0]
    18f4:	b19c      	cbz	r4, 191e <irq_handler+0x4e>
    18f6:	6826      	ldr	r6, [r4, #0]
    18f8:	f7ff ffba 	bl	1870 <us_ticker_read>
    18fc:	1a30      	subs	r0, r6, r0
    18fe:	2800      	cmp	r0, #0
    1900:	ddf2      	ble.n	18e8 <irq_handler+0x18>
    1902:	6821      	ldr	r1, [r4, #0]
    1904:	f44f 4c80 	mov.w	r12, #16384	; 0x4000
    1908:	f2c4 0c09 	movt	r12, #16393	; 0x4009
    190c:	f8cc 1018 	str.w	r1, [r12, #24]
    1910:	f8dc 3014 	ldr.w	r3, [r12, #20]
    1914:	f043 0201 	orr.w	r2, r3, #1
    1918:	f8cc 2014 	str.w	r2, [r12, #20]
    191c:	bdf8      	pop	{r3, r4, r5, r6, r7, pc}
    191e:	f44f 4080 	mov.w	r0, #16384	; 0x4000
    1922:	f2c4 0009 	movt	r0, #16393	; 0x4009
    1926:	6943      	ldr	r3, [r0, #20]
    1928:	f023 0201 	bic.w	r2, r3, #1
    192c:	6142      	str	r2, [r0, #20]
    192e:	bdf8      	pop	{r3, r4, r5, r6, r7, pc}
    1930:	10000380 	.word	0x10000380
    1934:	10000384 	.word	0x10000384

00001938 <us_ticker_set_handler>:
    1938:	b508      	push	{r3, lr}
    193a:	f240 3384 	movw	r3, #900	; 0x384
    193e:	f2c1 0300 	movt	r3, #4096	; 0x1000
    1942:	f641 01d1 	movw	r1, #6353	; 0x18d1
    1946:	6018      	str	r0, [r3, #0]
    1948:	f2c0 0100 	movt	r1, #0
    194c:	2004      	movs	r0, #4
    194e:	f7fe fdaf 	bl	4b0 <NVIC_SetVector>
    1952:	f44f 4061 	mov.w	r0, #57600	; 0xe100
    1956:	f2ce 0000 	movt	r0, #57344	; 0xe000
    195a:	2210      	movs	r2, #16
    195c:	6002      	str	r2, [r0, #0]
    195e:	bd08      	pop	{r3, pc}

00001960 <us_ticker_insert_event>:
    1960:	b410      	push	{r4}
    1962:	b672      	cpsid	i
    1964:	4b12      	ldr	r3, [pc, #72]	; (19b0 <us_ticker_insert_event+0x50>)
    1966:	6001      	str	r1, [r0, #0]
    1968:	681c      	ldr	r4, [r3, #0]
    196a:	6042      	str	r2, [r0, #4]
    196c:	b18c      	cbz	r4, 1992 <us_ticker_insert_event+0x32>
    196e:	6822      	ldr	r2, [r4, #0]
    1970:	1a8a      	subs	r2, r1, r2
    1972:	2a00      	cmp	r2, #0
    1974:	dc05      	bgt.n	1982 <us_ticker_insert_event+0x22>
    1976:	e00c      	b.n	1992 <us_ticker_insert_event+0x32>
    1978:	681a      	ldr	r2, [r3, #0]
    197a:	1a8a      	subs	r2, r1, r2
    197c:	2a00      	cmp	r2, #0
    197e:	dd03      	ble.n	1988 <us_ticker_insert_event+0x28>
    1980:	461c      	mov	r4, r3
    1982:	68a3      	ldr	r3, [r4, #8]
    1984:	2b00      	cmp	r3, #0
    1986:	d1f7      	bne.n	1978 <us_ticker_insert_event+0x18>
    1988:	60a0      	str	r0, [r4, #8]
    198a:	6083      	str	r3, [r0, #8]
    198c:	b662      	cpsie	i
    198e:	bc10      	pop	{r4}
    1990:	4770      	bx	lr
    1992:	f44f 4c80 	mov.w	r12, #16384	; 0x4000
    1996:	f2c4 0c09 	movt	r12, #16393	; 0x4009
    199a:	6018      	str	r0, [r3, #0]
    199c:	f8cc 1018 	str.w	r1, [r12, #24]
    19a0:	f8dc 1014 	ldr.w	r1, [r12, #20]
    19a4:	4623      	mov	r3, r4
    19a6:	f041 0201 	orr.w	r2, r1, #1
    19aa:	f8cc 2014 	str.w	r2, [r12, #20]
    19ae:	e7ec      	b.n	198a <us_ticker_insert_event+0x2a>
    19b0:	10000380 	.word	0x10000380

000019b4 <us_ticker_remove_event>:
    19b4:	b672      	cpsid	i
    19b6:	4b14      	ldr	r3, [pc, #80]	; (1a08 <us_ticker_remove_event+0x54>)
    19b8:	681a      	ldr	r2, [r3, #0]
    19ba:	4282      	cmp	r2, r0
    19bc:	d011      	beq.n	19e2 <us_ticker_remove_event+0x2e>
    19be:	b14a      	cbz	r2, 19d4 <us_ticker_remove_event+0x20>
    19c0:	6891      	ldr	r1, [r2, #8]
    19c2:	4281      	cmp	r1, r0
    19c4:	d008      	beq.n	19d8 <us_ticker_remove_event+0x24>
    19c6:	b129      	cbz	r1, 19d4 <us_ticker_remove_event+0x20>
    19c8:	688b      	ldr	r3, [r1, #8]
    19ca:	4283      	cmp	r3, r0
    19cc:	d005      	beq.n	19da <us_ticker_remove_event+0x26>
    19ce:	4619      	mov	r1, r3
    19d0:	2900      	cmp	r1, #0
    19d2:	d1f9      	bne.n	19c8 <us_ticker_remove_event+0x14>
    19d4:	b662      	cpsie	i
    19d6:	4770      	bx	lr
    19d8:	4611      	mov	r1, r2
    19da:	6880      	ldr	r0, [r0, #8]
    19dc:	6088      	str	r0, [r1, #8]
    19de:	b662      	cpsie	i
    19e0:	4770      	bx	lr
    19e2:	6892      	ldr	r2, [r2, #8]
    19e4:	601a      	str	r2, [r3, #0]
    19e6:	2a00      	cmp	r2, #0
    19e8:	d0f4      	beq.n	19d4 <us_ticker_remove_event+0x20>
    19ea:	6811      	ldr	r1, [r2, #0]
    19ec:	f44f 4c80 	mov.w	r12, #16384	; 0x4000
    19f0:	f2c4 0c09 	movt	r12, #16393	; 0x4009
    19f4:	f8cc 1018 	str.w	r1, [r12, #24]
    19f8:	f8dc 3014 	ldr.w	r3, [r12, #20]
    19fc:	f043 0001 	orr.w	r0, r3, #1
    1a00:	f8cc 0014 	str.w	r0, [r12, #20]
    1a04:	b662      	cpsie	i
    1a06:	4770      	bx	lr
    1a08:	10000380 	.word	0x10000380

00001a0c <pinmap_pinout>:
    1a0c:	1c43      	adds	r3, r0, #1
    1a0e:	b510      	push	{r4, lr}
    1a10:	4604      	mov	r4, r0
    1a12:	d013      	beq.n	1a3c <pinmap_pinout+0x30>
    1a14:	680b      	ldr	r3, [r1, #0]
    1a16:	1c58      	adds	r0, r3, #1
    1a18:	d104      	bne.n	1a24 <pinmap_pinout+0x18>
    1a1a:	e010      	b.n	1a3e <pinmap_pinout+0x32>
    1a1c:	f851 3f0c 	ldr.w	r3, [r1, #12]!
    1a20:	1c5a      	adds	r2, r3, #1
    1a22:	d00c      	beq.n	1a3e <pinmap_pinout+0x32>
    1a24:	429c      	cmp	r4, r3
    1a26:	d1f9      	bne.n	1a1c <pinmap_pinout+0x10>
    1a28:	4620      	mov	r0, r4
    1a2a:	6889      	ldr	r1, [r1, #8]
    1a2c:	f7ff fbfa 	bl	1224 <pin_function>
    1a30:	4620      	mov	r0, r4
    1a32:	2102      	movs	r1, #2
    1a34:	e8bd 4010 	ldmia.w	sp!, {r4, lr}
    1a38:	f7ff bc16 	b.w	1268 <pin_mode>
    1a3c:	bd10      	pop	{r4, pc}
    1a3e:	4804      	ldr	r0, [pc, #16]	; (1a50 <pinmap_pinout+0x44>)
    1a40:	4904      	ldr	r1, [pc, #16]	; (1a54 <pinmap_pinout+0x48>)
    1a42:	6802      	ldr	r2, [r0, #0]
    1a44:	68d0      	ldr	r0, [r2, #12]
    1a46:	f001 fe55 	bl	36f4 <fiprintf>
    1a4a:	2001      	movs	r0, #1
    1a4c:	f7fe fdca 	bl	5e4 <exit>
    1a50:	10000134 	.word	0x10000134
    1a54:	000087ec 	.word	0x000087ec

00001a58 <pinmap_merge>:
    1a58:	4288      	cmp	r0, r1
    1a5a:	b508      	push	{r3, lr}
    1a5c:	d003      	beq.n	1a66 <pinmap_merge+0xe>
    1a5e:	1c42      	adds	r2, r0, #1
    1a60:	d002      	beq.n	1a68 <pinmap_merge+0x10>
    1a62:	3101      	adds	r1, #1
    1a64:	d102      	bne.n	1a6c <pinmap_merge+0x14>
    1a66:	bd08      	pop	{r3, pc}
    1a68:	4608      	mov	r0, r1
    1a6a:	bd08      	pop	{r3, pc}
    1a6c:	4b04      	ldr	r3, [pc, #16]	; (1a80 <pinmap_merge+0x28>)
    1a6e:	4905      	ldr	r1, [pc, #20]	; (1a84 <pinmap_merge+0x2c>)
    1a70:	6818      	ldr	r0, [r3, #0]
    1a72:	68c0      	ldr	r0, [r0, #12]
    1a74:	f001 fe3e 	bl	36f4 <fiprintf>
    1a78:	2001      	movs	r0, #1
    1a7a:	f7fe fdb3 	bl	5e4 <exit>
    1a7e:	bf00      	nop
    1a80:	10000134 	.word	0x10000134
    1a84:	00008800 	.word	0x00008800

00001a88 <pinmap_peripheral>:
    1a88:	b508      	push	{r3, lr}
    1a8a:	1c43      	adds	r3, r0, #1
    1a8c:	d00b      	beq.n	1aa6 <pinmap_peripheral+0x1e>
    1a8e:	680b      	ldr	r3, [r1, #0]
    1a90:	1c5a      	adds	r2, r3, #1
    1a92:	d104      	bne.n	1a9e <pinmap_peripheral+0x16>
    1a94:	e008      	b.n	1aa8 <pinmap_peripheral+0x20>
    1a96:	f851 3f0c 	ldr.w	r3, [r1, #12]!
    1a9a:	1c5a      	adds	r2, r3, #1
    1a9c:	d004      	beq.n	1aa8 <pinmap_peripheral+0x20>
    1a9e:	4298      	cmp	r0, r3
    1aa0:	d1f9      	bne.n	1a96 <pinmap_peripheral+0xe>
    1aa2:	6848      	ldr	r0, [r1, #4]
    1aa4:	bd08      	pop	{r3, pc}
    1aa6:	bd08      	pop	{r3, pc}
    1aa8:	4804      	ldr	r0, [pc, #16]	; (1abc <pinmap_peripheral+0x34>)
    1aaa:	4905      	ldr	r1, [pc, #20]	; (1ac0 <pinmap_peripheral+0x38>)
    1aac:	6802      	ldr	r2, [r0, #0]
    1aae:	68d0      	ldr	r0, [r2, #12]
    1ab0:	f001 fe20 	bl	36f4 <fiprintf>
    1ab4:	2001      	movs	r0, #1
    1ab6:	f7fe fd95 	bl	5e4 <exit>
    1aba:	bf00      	nop
    1abc:	10000134 	.word	0x10000134
    1ac0:	00008814 	.word	0x00008814

00001ac4 <_ZN4mbed8FileLikeD1Ev>:
    1ac4:	f648 0368 	movw	r3, #34920	; 0x8868
    1ac8:	f2c0 0300 	movt	r3, #0
    1acc:	b510      	push	{r4, lr}
    1ace:	f103 0234 	add.w	r2, r3, #52	; 0x34
    1ad2:	4604      	mov	r4, r0
    1ad4:	3308      	adds	r3, #8
    1ad6:	f840 2f04 	str.w	r2, [r0, #4]!
    1ada:	6023      	str	r3, [r4, #0]
    1adc:	f000 f886 	bl	1bec <_ZN4mbed8FileBaseD1Ev>
    1ae0:	4620      	mov	r0, r4
    1ae2:	f7fe fe77 	bl	7d4 <_ZN4mbed10FileHandleD1Ev>
    1ae6:	4620      	mov	r0, r4
    1ae8:	bd10      	pop	{r4, pc}
    1aea:	bf00      	nop

00001aec <_ZThn4_N4mbed8FileLikeD1Ev>:
    1aec:	f1a0 0004 	sub.w	r0, r0, #4
    1af0:	f7ff bfe8 	b.w	1ac4 <_ZN4mbed8FileLikeD1Ev>

00001af4 <_ZN4mbed8FileLikeD0Ev>:
    1af4:	b510      	push	{r4, lr}
    1af6:	4604      	mov	r4, r0
    1af8:	f7ff ffe4 	bl	1ac4 <_ZN4mbed8FileLikeD1Ev>
    1afc:	4620      	mov	r0, r4
    1afe:	f000 f959 	bl	1db4 <_ZdlPv>
    1b02:	4620      	mov	r0, r4
    1b04:	bd10      	pop	{r4, pc}
    1b06:	bf00      	nop

00001b08 <_ZThn4_N4mbed8FileLikeD0Ev>:
    1b08:	f1a0 0004 	sub.w	r0, r0, #4
    1b0c:	f7ff bff2 	b.w	1af4 <_ZN4mbed8FileLikeD0Ev>

00001b10 <_ZN4mbed8FileLikeC1EPKc>:
    1b10:	4b09      	ldr	r3, [pc, #36]	; (1b38 <_ZN4mbed8FileLikeC1EPKc+0x28>)
    1b12:	b510      	push	{r4, lr}
    1b14:	2200      	movs	r2, #0
    1b16:	4604      	mov	r4, r0
    1b18:	f840 3b04 	str.w	r3, [r0], #4
    1b1c:	f000 f89c 	bl	1c58 <_ZN4mbed8FileBaseC1EPKcNS_8PathTypeE>
    1b20:	f648 0368 	movw	r3, #34920	; 0x8868
    1b24:	f2c0 0300 	movt	r3, #0
    1b28:	f103 0208 	add.w	r2, r3, #8
    1b2c:	3334      	adds	r3, #52	; 0x34
    1b2e:	e884 000c 	stmia.w	r4, {r2, r3}
    1b32:	4620      	mov	r0, r4
    1b34:	bd10      	pop	{r4, pc}
    1b36:	bf00      	nop
    1b38:	00008498 	.word	0x00008498

00001b3c <_ZN4mbed8FilePathC1EPKc>:
    1b3c:	b570      	push	{r4, r5, r6, lr}
    1b3e:	2200      	movs	r2, #0
    1b40:	6002      	str	r2, [r0, #0]
    1b42:	6042      	str	r2, [r0, #4]
    1b44:	780b      	ldrb	r3, [r1, #0]
    1b46:	4604      	mov	r4, r0
    1b48:	2b2f      	cmp	r3, #47	; 0x2f
    1b4a:	d001      	beq.n	1b50 <_ZN4mbed8FilePathC1EPKc+0x14>
    1b4c:	4620      	mov	r0, r4
    1b4e:	bd70      	pop	{r4, r5, r6, pc}
    1b50:	7848      	ldrb	r0, [r1, #1]
    1b52:	2800      	cmp	r0, #0
    1b54:	d0fa      	beq.n	1b4c <_ZN4mbed8FilePathC1EPKc+0x10>
    1b56:	1c4e      	adds	r6, r1, #1
    1b58:	6026      	str	r6, [r4, #0]
    1b5a:	784d      	ldrb	r5, [r1, #1]
    1b5c:	2d2f      	cmp	r5, #47	; 0x2f
    1b5e:	d01b      	beq.n	1b98 <_ZN4mbed8FilePathC1EPKc+0x5c>
    1b60:	b16d      	cbz	r5, 1b7e <_ZN4mbed8FilePathC1EPKc+0x42>
    1b62:	1c8d      	adds	r5, r1, #2
    1b64:	4611      	mov	r1, r2
    1b66:	e000      	b.n	1b6a <_ZN4mbed8FilePathC1EPKc+0x2e>
    1b68:	b1a2      	cbz	r2, 1b94 <_ZN4mbed8FilePathC1EPKc+0x58>
    1b6a:	6025      	str	r5, [r4, #0]
    1b6c:	782a      	ldrb	r2, [r5, #0]
    1b6e:	462b      	mov	r3, r5
    1b70:	3101      	adds	r1, #1
    1b72:	3501      	adds	r5, #1
    1b74:	2a2f      	cmp	r2, #47	; 0x2f
    1b76:	d1f7      	bne.n	1b68 <_ZN4mbed8FilePathC1EPKc+0x2c>
    1b78:	460d      	mov	r5, r1
    1b7a:	1c58      	adds	r0, r3, #1
    1b7c:	6020      	str	r0, [r4, #0]
    1b7e:	4629      	mov	r1, r5
    1b80:	4630      	mov	r0, r6
    1b82:	f000 f879 	bl	1c78 <_ZN4mbed8FileBase6lookupEPKcj>
    1b86:	4630      	mov	r0, r6
    1b88:	4629      	mov	r1, r5
    1b8a:	f000 f875 	bl	1c78 <_ZN4mbed8FileBase6lookupEPKcj>
    1b8e:	6060      	str	r0, [r4, #4]
    1b90:	4620      	mov	r0, r4
    1b92:	bd70      	pop	{r4, r5, r6, pc}
    1b94:	460d      	mov	r5, r1
    1b96:	e7f2      	b.n	1b7e <_ZN4mbed8FilePathC1EPKc+0x42>
    1b98:	4633      	mov	r3, r6
    1b9a:	4615      	mov	r5, r2
    1b9c:	e7ed      	b.n	1b7a <_ZN4mbed8FilePathC1EPKc+0x3e>
    1b9e:	bf00      	nop

00001ba0 <_ZN4mbed8FilePath8fileNameEv>:
    1ba0:	6800      	ldr	r0, [r0, #0]
    1ba2:	4770      	bx	lr

00001ba4 <_ZN4mbed8FilePath12isFileSystemEv>:
    1ba4:	b508      	push	{r3, lr}
    1ba6:	6840      	ldr	r0, [r0, #4]
    1ba8:	f000 f886 	bl	1cb8 <_ZN4mbed8FileBase11getPathTypeEv>
    1bac:	1e43      	subs	r3, r0, #1
    1bae:	4258      	negs	r0, r3
    1bb0:	4158      	adcs	r0, r3
    1bb2:	bd08      	pop	{r3, pc}

00001bb4 <_ZN4mbed8FilePath10fileSystemEv>:
    1bb4:	b510      	push	{r4, lr}
    1bb6:	4604      	mov	r4, r0
    1bb8:	f7ff fff4 	bl	1ba4 <_ZN4mbed8FilePath12isFileSystemEv>
    1bbc:	b100      	cbz	r0, 1bc0 <_ZN4mbed8FilePath10fileSystemEv+0xc>
    1bbe:	6860      	ldr	r0, [r4, #4]
    1bc0:	bd10      	pop	{r4, pc}
    1bc2:	bf00      	nop

00001bc4 <_ZN4mbed8FilePath6isFileEv>:
    1bc4:	b508      	push	{r3, lr}
    1bc6:	6840      	ldr	r0, [r0, #4]
    1bc8:	f000 f876 	bl	1cb8 <_ZN4mbed8FileBase11getPathTypeEv>
    1bcc:	f1d0 0001 	rsbs	r0, r0, #1
    1bd0:	bf38      	it	cc
    1bd2:	2000      	movcc	r0, #0
    1bd4:	bd08      	pop	{r3, pc}
    1bd6:	bf00      	nop

00001bd8 <_ZN4mbed8FilePath4fileEv>:
    1bd8:	b510      	push	{r4, lr}
    1bda:	4604      	mov	r4, r0
    1bdc:	f7ff fff2 	bl	1bc4 <_ZN4mbed8FilePath6isFileEv>
    1be0:	b110      	cbz	r0, 1be8 <_ZN4mbed8FilePath4fileEv+0x10>
    1be2:	6860      	ldr	r0, [r4, #4]
    1be4:	b100      	cbz	r0, 1be8 <_ZN4mbed8FilePath4fileEv+0x10>
    1be6:	3804      	subs	r0, #4
    1be8:	bd10      	pop	{r4, pc}
    1bea:	bf00      	nop

00001bec <_ZN4mbed8FileBaseD1Ev>:
    1bec:	4a09      	ldr	r2, [pc, #36]	; (1c14 <_ZN4mbed8FileBaseD1Ev+0x28>)
    1bee:	6883      	ldr	r3, [r0, #8]
    1bf0:	6002      	str	r2, [r0, #0]
    1bf2:	b153      	cbz	r3, 1c0a <_ZN4mbed8FileBaseD1Ev+0x1e>
    1bf4:	4908      	ldr	r1, [pc, #32]	; (1c18 <_ZN4mbed8FileBaseD1Ev+0x2c>)
    1bf6:	680a      	ldr	r2, [r1, #0]
    1bf8:	4282      	cmp	r2, r0
    1bfa:	d101      	bne.n	1c00 <_ZN4mbed8FileBaseD1Ev+0x14>
    1bfc:	e006      	b.n	1c0c <_ZN4mbed8FileBaseD1Ev+0x20>
    1bfe:	461a      	mov	r2, r3
    1c00:	6853      	ldr	r3, [r2, #4]
    1c02:	4298      	cmp	r0, r3
    1c04:	d1fb      	bne.n	1bfe <_ZN4mbed8FileBaseD1Ev+0x12>
    1c06:	6841      	ldr	r1, [r0, #4]
    1c08:	6051      	str	r1, [r2, #4]
    1c0a:	4770      	bx	lr
    1c0c:	6843      	ldr	r3, [r0, #4]
    1c0e:	600b      	str	r3, [r1, #0]
    1c10:	4770      	bx	lr
    1c12:	bf00      	nop
    1c14:	000088c8 	.word	0x000088c8
    1c18:	10000388 	.word	0x10000388

00001c1c <_ZN4mbed8FileBaseD0Ev>:
    1c1c:	4a0c      	ldr	r2, [pc, #48]	; (1c50 <_ZN4mbed8FileBaseD0Ev+0x34>)
    1c1e:	6883      	ldr	r3, [r0, #8]
    1c20:	b510      	push	{r4, lr}
    1c22:	4604      	mov	r4, r0
    1c24:	6002      	str	r2, [r0, #0]
    1c26:	b153      	cbz	r3, 1c3e <_ZN4mbed8FileBaseD0Ev+0x22>
    1c28:	480a      	ldr	r0, [pc, #40]	; (1c54 <_ZN4mbed8FileBaseD0Ev+0x38>)
    1c2a:	6802      	ldr	r2, [r0, #0]
    1c2c:	4294      	cmp	r4, r2
    1c2e:	d101      	bne.n	1c34 <_ZN4mbed8FileBaseD0Ev+0x18>
    1c30:	e00a      	b.n	1c48 <_ZN4mbed8FileBaseD0Ev+0x2c>
    1c32:	460a      	mov	r2, r1
    1c34:	6851      	ldr	r1, [r2, #4]
    1c36:	428c      	cmp	r4, r1
    1c38:	d1fb      	bne.n	1c32 <_ZN4mbed8FileBaseD0Ev+0x16>
    1c3a:	6863      	ldr	r3, [r4, #4]
    1c3c:	6053      	str	r3, [r2, #4]
    1c3e:	4620      	mov	r0, r4
    1c40:	f000 f8b8 	bl	1db4 <_ZdlPv>
    1c44:	4620      	mov	r0, r4
    1c46:	bd10      	pop	{r4, pc}
    1c48:	6861      	ldr	r1, [r4, #4]
    1c4a:	6001      	str	r1, [r0, #0]
    1c4c:	e7f7      	b.n	1c3e <_ZN4mbed8FileBaseD0Ev+0x22>
    1c4e:	bf00      	nop
    1c50:	000088c8 	.word	0x000088c8
    1c54:	10000388 	.word	0x10000388

00001c58 <_ZN4mbed8FileBaseC1EPKcNS_8PathTypeE>:
    1c58:	4b05      	ldr	r3, [pc, #20]	; (1c70 <_ZN4mbed8FileBaseC1EPKcNS_8PathTypeE+0x18>)
    1c5a:	6081      	str	r1, [r0, #8]
    1c5c:	6003      	str	r3, [r0, #0]
    1c5e:	7302      	strb	r2, [r0, #12]
    1c60:	b121      	cbz	r1, 1c6c <_ZN4mbed8FileBaseC1EPKcNS_8PathTypeE+0x14>
    1c62:	4904      	ldr	r1, [pc, #16]	; (1c74 <_ZN4mbed8FileBaseC1EPKcNS_8PathTypeE+0x1c>)
    1c64:	680a      	ldr	r2, [r1, #0]
    1c66:	6008      	str	r0, [r1, #0]
    1c68:	6042      	str	r2, [r0, #4]
    1c6a:	4770      	bx	lr
    1c6c:	6041      	str	r1, [r0, #4]
    1c6e:	4770      	bx	lr
    1c70:	000088c8 	.word	0x000088c8
    1c74:	10000388 	.word	0x10000388

00001c78 <_ZN4mbed8FileBase6lookupEPKcj>:
    1c78:	4b0e      	ldr	r3, [pc, #56]	; (1cb4 <_ZN4mbed8FileBase6lookupEPKcj+0x3c>)
    1c7a:	b570      	push	{r4, r5, r6, lr}
    1c7c:	681c      	ldr	r4, [r3, #0]
    1c7e:	4606      	mov	r6, r0
    1c80:	460d      	mov	r5, r1
    1c82:	b914      	cbnz	r4, 1c8a <_ZN4mbed8FileBase6lookupEPKcj+0x12>
    1c84:	e012      	b.n	1cac <_ZN4mbed8FileBase6lookupEPKcj+0x34>
    1c86:	6864      	ldr	r4, [r4, #4]
    1c88:	b184      	cbz	r4, 1cac <_ZN4mbed8FileBase6lookupEPKcj+0x34>
    1c8a:	68a3      	ldr	r3, [r4, #8]
    1c8c:	4631      	mov	r1, r6
    1c8e:	462a      	mov	r2, r5
    1c90:	4618      	mov	r0, r3
    1c92:	2b00      	cmp	r3, #0
    1c94:	d0f7      	beq.n	1c86 <_ZN4mbed8FileBase6lookupEPKcj+0xe>
    1c96:	f002 f8b9 	bl	3e0c <strncmp>
    1c9a:	2800      	cmp	r0, #0
    1c9c:	d1f3      	bne.n	1c86 <_ZN4mbed8FileBase6lookupEPKcj+0xe>
    1c9e:	68a0      	ldr	r0, [r4, #8]
    1ca0:	f002 f8ac 	bl	3dfc <strlen>
    1ca4:	42a8      	cmp	r0, r5
    1ca6:	d1ee      	bne.n	1c86 <_ZN4mbed8FileBase6lookupEPKcj+0xe>
    1ca8:	4620      	mov	r0, r4
    1caa:	bd70      	pop	{r4, r5, r6, pc}
    1cac:	2400      	movs	r4, #0
    1cae:	4620      	mov	r0, r4
    1cb0:	bd70      	pop	{r4, r5, r6, pc}
    1cb2:	bf00      	nop
    1cb4:	10000388 	.word	0x10000388

00001cb8 <_ZN4mbed8FileBase11getPathTypeEv>:
    1cb8:	7b00      	ldrb	r0, [r0, #12]
    1cba:	4770      	bx	lr

00001cbc <_ZNK10__cxxabiv120__si_class_type_info12__do_dyncastEiNS_17__class_type_info10__sub_kindEPKS1_PKvS4_S6_RNS1_16__dyncast_resultE>:
    1cbc:	e92d 4ff0 	stmdb	sp!, {r4, r5, r6, r7, r8, r9, r10, r11, lr}
    1cc0:	460e      	mov	r6, r1
    1cc2:	b085      	sub	sp, #20
    1cc4:	4619      	mov	r1, r3
    1cc6:	4683      	mov	r11, r0
    1cc8:	4690      	mov	r8, r2
    1cca:	4699      	mov	r9, r3
    1ccc:	9d0e      	ldr	r5, [sp, #56]	; 0x38
    1cce:	9f10      	ldr	r7, [sp, #64]	; 0x40
    1cd0:	9c11      	ldr	r4, [sp, #68]	; 0x44
    1cd2:	f000 fb2d 	bl	2330 <_ZNKSt9type_infoeqERKS_>
    1cd6:	4682      	mov	r10, r0
    1cd8:	b180      	cbz	r0, 1cfc <_ZNK10__cxxabiv120__si_class_type_info12__do_dyncastEiNS_17__class_type_info10__sub_kindEPKS1_PKvS4_S6_RNS1_16__dyncast_resultE+0x40>
    1cda:	2e00      	cmp	r6, #0
    1cdc:	6025      	str	r5, [r4, #0]
    1cde:	f884 8004 	strb.w	r8, [r4, #4]
    1ce2:	db06      	blt.n	1cf2 <_ZNK10__cxxabiv120__si_class_type_info12__do_dyncastEiNS_17__class_type_info10__sub_kindEPKS1_PKvS4_S6_RNS1_16__dyncast_resultE+0x36>
    1ce4:	19ad      	adds	r5, r5, r6
    1ce6:	42af      	cmp	r7, r5
    1ce8:	bf14      	ite	ne
    1cea:	2701      	movne	r7, #1
    1cec:	2706      	moveq	r7, #6
    1cee:	71a7      	strb	r7, [r4, #6]
    1cf0:	e00c      	b.n	1d0c <_ZNK10__cxxabiv120__si_class_type_info12__do_dyncastEiNS_17__class_type_info10__sub_kindEPKS1_PKvS4_S6_RNS1_16__dyncast_resultE+0x50>
    1cf2:	1cb3      	adds	r3, r6, #2
    1cf4:	d10a      	bne.n	1d0c <_ZNK10__cxxabiv120__si_class_type_info12__do_dyncastEiNS_17__class_type_info10__sub_kindEPKS1_PKvS4_S6_RNS1_16__dyncast_resultE+0x50>
    1cf6:	2001      	movs	r0, #1
    1cf8:	71a0      	strb	r0, [r4, #6]
    1cfa:	e007      	b.n	1d0c <_ZNK10__cxxabiv120__si_class_type_info12__do_dyncastEiNS_17__class_type_info10__sub_kindEPKS1_PKvS4_S6_RNS1_16__dyncast_resultE+0x50>
    1cfc:	42bd      	cmp	r5, r7
    1cfe:	d107      	bne.n	1d10 <_ZNK10__cxxabiv120__si_class_type_info12__do_dyncastEiNS_17__class_type_info10__sub_kindEPKS1_PKvS4_S6_RNS1_16__dyncast_resultE+0x54>
    1d00:	4658      	mov	r0, r11
    1d02:	990f      	ldr	r1, [sp, #60]	; 0x3c
    1d04:	f000 fb14 	bl	2330 <_ZNKSt9type_infoeqERKS_>
    1d08:	b980      	cbnz	r0, 1d2c <_ZNK10__cxxabiv120__si_class_type_info12__do_dyncastEiNS_17__class_type_info10__sub_kindEPKS1_PKvS4_S6_RNS1_16__dyncast_resultE+0x70>
    1d0a:	e001      	b.n	1d10 <_ZNK10__cxxabiv120__si_class_type_info12__do_dyncastEiNS_17__class_type_info10__sub_kindEPKS1_PKvS4_S6_RNS1_16__dyncast_resultE+0x54>
    1d0c:	2000      	movs	r0, #0
    1d0e:	e010      	b.n	1d32 <_ZNK10__cxxabiv120__si_class_type_info12__do_dyncastEiNS_17__class_type_info10__sub_kindEPKS1_PKvS4_S6_RNS1_16__dyncast_resultE+0x76>
    1d10:	f8db 0008 	ldr.w	r0, [r11, #8]
    1d14:	9a0f      	ldr	r2, [sp, #60]	; 0x3c
    1d16:	6803      	ldr	r3, [r0, #0]
    1d18:	9201      	str	r2, [sp, #4]
    1d1a:	9500      	str	r5, [sp, #0]
    1d1c:	9702      	str	r7, [sp, #8]
    1d1e:	9403      	str	r4, [sp, #12]
    1d20:	69dc      	ldr	r4, [r3, #28]
    1d22:	4631      	mov	r1, r6
    1d24:	4642      	mov	r2, r8
    1d26:	464b      	mov	r3, r9
    1d28:	47a0      	blx	r4
    1d2a:	e002      	b.n	1d32 <_ZNK10__cxxabiv120__si_class_type_info12__do_dyncastEiNS_17__class_type_info10__sub_kindEPKS1_PKvS4_S6_RNS1_16__dyncast_resultE+0x76>
    1d2c:	f884 8005 	strb.w	r8, [r4, #5]
    1d30:	4650      	mov	r0, r10
    1d32:	b005      	add	sp, #20
    1d34:	e8bd 8ff0 	ldmia.w	sp!, {r4, r5, r6, r7, r8, r9, r10, r11, pc}

00001d38 <_ZN10__cxxabiv120__si_class_type_infoD1Ev>:
    1d38:	4b03      	ldr	r3, [pc, #12]	; (1d48 <_ZN10__cxxabiv120__si_class_type_infoD1Ev+0x10>)
    1d3a:	b510      	push	{r4, lr}
    1d3c:	4604      	mov	r4, r0
    1d3e:	6003      	str	r3, [r0, #0]
    1d40:	f000 f86a 	bl	1e18 <_ZN10__cxxabiv117__class_type_infoD1Ev>
    1d44:	4620      	mov	r0, r4
    1d46:	bd10      	pop	{r4, pc}
    1d48:	000088e0 	.word	0x000088e0

00001d4c <_ZN10__cxxabiv120__si_class_type_infoD0Ev>:
    1d4c:	b510      	push	{r4, lr}
    1d4e:	4604      	mov	r4, r0
    1d50:	f7ff fff2 	bl	1d38 <_ZN10__cxxabiv120__si_class_type_infoD1Ev>
    1d54:	4620      	mov	r0, r4
    1d56:	f000 f82d 	bl	1db4 <_ZdlPv>
    1d5a:	4620      	mov	r0, r4
    1d5c:	bd10      	pop	{r4, pc}

00001d5e <_ZNK10__cxxabiv120__si_class_type_info11__do_upcastEPKNS_17__class_type_infoEPKvRNS1_15__upcast_resultE>:
    1d5e:	b5f8      	push	{r3, r4, r5, r6, r7, lr}
    1d60:	4604      	mov	r4, r0
    1d62:	460f      	mov	r7, r1
    1d64:	4616      	mov	r6, r2
    1d66:	461d      	mov	r5, r3
    1d68:	f000 f849 	bl	1dfe <_ZNK10__cxxabiv117__class_type_info11__do_upcastEPKS0_PKvRNS0_15__upcast_resultE>
    1d6c:	b938      	cbnz	r0, 1d7e <_ZNK10__cxxabiv120__si_class_type_info11__do_upcastEPKNS_17__class_type_infoEPKvRNS1_15__upcast_resultE+0x20>
    1d6e:	68a0      	ldr	r0, [r4, #8]
    1d70:	4639      	mov	r1, r7
    1d72:	6804      	ldr	r4, [r0, #0]
    1d74:	4632      	mov	r2, r6
    1d76:	69a4      	ldr	r4, [r4, #24]
    1d78:	462b      	mov	r3, r5
    1d7a:	47a0      	blx	r4
    1d7c:	bdf8      	pop	{r3, r4, r5, r6, r7, pc}
    1d7e:	2001      	movs	r0, #1
    1d80:	bdf8      	pop	{r3, r4, r5, r6, r7, pc}

00001d82 <_ZNK10__cxxabiv120__si_class_type_info20__do_find_public_srcEiPKvPKNS_17__class_type_infoES2_>:
    1d82:	e92d 41f3 	stmdb	sp!, {r0, r1, r4, r5, r6, r7, r8, lr}
    1d86:	9c08      	ldr	r4, [sp, #32]
    1d88:	4607      	mov	r7, r0
    1d8a:	4294      	cmp	r4, r2
    1d8c:	4688      	mov	r8, r1
    1d8e:	4616      	mov	r6, r2
    1d90:	461d      	mov	r5, r3
    1d92:	d105      	bne.n	1da0 <_ZNK10__cxxabiv120__si_class_type_info20__do_find_public_srcEiPKvPKNS_17__class_type_infoES2_+0x1e>
    1d94:	4619      	mov	r1, r3
    1d96:	f000 facb 	bl	2330 <_ZNKSt9type_infoeqERKS_>
    1d9a:	b108      	cbz	r0, 1da0 <_ZNK10__cxxabiv120__si_class_type_info20__do_find_public_srcEiPKvPKNS_17__class_type_infoES2_+0x1e>
    1d9c:	2006      	movs	r0, #6
    1d9e:	e007      	b.n	1db0 <_ZNK10__cxxabiv120__si_class_type_info20__do_find_public_srcEiPKvPKNS_17__class_type_infoES2_+0x2e>
    1da0:	68b8      	ldr	r0, [r7, #8]
    1da2:	4641      	mov	r1, r8
    1da4:	6803      	ldr	r3, [r0, #0]
    1da6:	9400      	str	r4, [sp, #0]
    1da8:	6a1c      	ldr	r4, [r3, #32]
    1daa:	4632      	mov	r2, r6
    1dac:	462b      	mov	r3, r5
    1dae:	47a0      	blx	r4
    1db0:	e8bd 81fc 	ldmia.w	sp!, {r2, r3, r4, r5, r6, r7, r8, pc}

00001db4 <_ZdlPv>:
    1db4:	b108      	cbz	r0, 1dba <_ZdlPv+0x6>
    1db6:	f001 be2f 	b.w	3a18 <free>
    1dba:	4770      	bx	lr

00001dbc <_ZNK10__cxxabiv117__class_type_info11__do_upcastEPKS0_PPv>:
    1dbc:	b57f      	push	{r0, r1, r2, r3, r4, r5, r6, lr}
    1dbe:	4615      	mov	r5, r2
    1dc0:	6802      	ldr	r2, [r0, #0]
    1dc2:	2400      	movs	r4, #0
    1dc4:	2310      	movs	r3, #16
    1dc6:	9302      	str	r3, [sp, #8]
    1dc8:	6996      	ldr	r6, [r2, #24]
    1dca:	9400      	str	r4, [sp, #0]
    1dcc:	f88d 4004 	strb.w	r4, [sp, #4]
    1dd0:	9403      	str	r4, [sp, #12]
    1dd2:	682a      	ldr	r2, [r5, #0]
    1dd4:	466b      	mov	r3, sp
    1dd6:	47b0      	blx	r6
    1dd8:	f89d 0004 	ldrb.w	r0, [sp, #4]
    1ddc:	f000 0106 	and.w	r1, r0, #6
    1de0:	2906      	cmp	r1, #6
    1de2:	d103      	bne.n	1dec <_ZNK10__cxxabiv117__class_type_info11__do_upcastEPKS0_PPv+0x30>
    1de4:	9b00      	ldr	r3, [sp, #0]
    1de6:	2001      	movs	r0, #1
    1de8:	602b      	str	r3, [r5, #0]
    1dea:	e000      	b.n	1dee <_ZNK10__cxxabiv117__class_type_info11__do_upcastEPKS0_PPv+0x32>
    1dec:	4620      	mov	r0, r4
    1dee:	b004      	add	sp, #16
    1df0:	bd70      	pop	{r4, r5, r6, pc}

00001df2 <_ZNK10__cxxabiv117__class_type_info20__do_find_public_srcEiPKvPKS0_S2_>:
    1df2:	9800      	ldr	r0, [sp, #0]
    1df4:	4290      	cmp	r0, r2
    1df6:	bf14      	ite	ne
    1df8:	2001      	movne	r0, #1
    1dfa:	2006      	moveq	r0, #6
    1dfc:	4770      	bx	lr

00001dfe <_ZNK10__cxxabiv117__class_type_info11__do_upcastEPKS0_PKvRNS0_15__upcast_resultE>:
    1dfe:	b538      	push	{r3, r4, r5, lr}
    1e00:	4615      	mov	r5, r2
    1e02:	461c      	mov	r4, r3
    1e04:	f000 fa94 	bl	2330 <_ZNKSt9type_infoeqERKS_>
    1e08:	b128      	cbz	r0, 1e16 <_ZNK10__cxxabiv117__class_type_info11__do_upcastEPKS0_PKvRNS0_15__upcast_resultE+0x18>
    1e0a:	2006      	movs	r0, #6
    1e0c:	2308      	movs	r3, #8
    1e0e:	7120      	strb	r0, [r4, #4]
    1e10:	6025      	str	r5, [r4, #0]
    1e12:	60e3      	str	r3, [r4, #12]
    1e14:	2001      	movs	r0, #1
    1e16:	bd38      	pop	{r3, r4, r5, pc}

00001e18 <_ZN10__cxxabiv117__class_type_infoD1Ev>:
    1e18:	4b03      	ldr	r3, [pc, #12]	; (1e28 <_ZN10__cxxabiv117__class_type_infoD1Ev+0x10>)
    1e1a:	b510      	push	{r4, lr}
    1e1c:	4604      	mov	r4, r0
    1e1e:	6003      	str	r3, [r0, #0]
    1e20:	f000 fa70 	bl	2304 <_ZNSt9type_infoD1Ev>
    1e24:	4620      	mov	r0, r4
    1e26:	bd10      	pop	{r4, pc}
    1e28:	00008948 	.word	0x00008948

00001e2c <_ZN10__cxxabiv117__class_type_infoD0Ev>:
    1e2c:	b510      	push	{r4, lr}
    1e2e:	4604      	mov	r4, r0
    1e30:	f7ff fff2 	bl	1e18 <_ZN10__cxxabiv117__class_type_infoD1Ev>
    1e34:	4620      	mov	r0, r4
    1e36:	f7ff ffbd 	bl	1db4 <_ZdlPv>
    1e3a:	4620      	mov	r0, r4
    1e3c:	bd10      	pop	{r4, pc}

00001e3e <_ZNK10__cxxabiv117__class_type_info12__do_dyncastEiNS0_10__sub_kindEPKS0_PKvS3_S5_RNS0_16__dyncast_resultE>:
    1e3e:	e92d 41f0 	stmdb	sp!, {r4, r5, r6, r7, r8, lr}
    1e42:	9e06      	ldr	r6, [sp, #24]
    1e44:	4615      	mov	r5, r2
    1e46:	9a08      	ldr	r2, [sp, #32]
    1e48:	4607      	mov	r7, r0
    1e4a:	4296      	cmp	r6, r2
    1e4c:	4698      	mov	r8, r3
    1e4e:	9c09      	ldr	r4, [sp, #36]	; 0x24
    1e50:	d103      	bne.n	1e5a <_ZNK10__cxxabiv117__class_type_info12__do_dyncastEiNS0_10__sub_kindEPKS0_PKvS3_S5_RNS0_16__dyncast_resultE+0x1c>
    1e52:	9907      	ldr	r1, [sp, #28]
    1e54:	f000 fa6c 	bl	2330 <_ZNKSt9type_infoeqERKS_>
    1e58:	b948      	cbnz	r0, 1e6e <_ZNK10__cxxabiv117__class_type_info12__do_dyncastEiNS0_10__sub_kindEPKS0_PKvS3_S5_RNS0_16__dyncast_resultE+0x30>
    1e5a:	4638      	mov	r0, r7
    1e5c:	4641      	mov	r1, r8
    1e5e:	f000 fa67 	bl	2330 <_ZNKSt9type_infoeqERKS_>
    1e62:	b128      	cbz	r0, 1e70 <_ZNK10__cxxabiv117__class_type_info12__do_dyncastEiNS0_10__sub_kindEPKS0_PKvS3_S5_RNS0_16__dyncast_resultE+0x32>
    1e64:	2301      	movs	r3, #1
    1e66:	6026      	str	r6, [r4, #0]
    1e68:	7125      	strb	r5, [r4, #4]
    1e6a:	71a3      	strb	r3, [r4, #6]
    1e6c:	e000      	b.n	1e70 <_ZNK10__cxxabiv117__class_type_info12__do_dyncastEiNS0_10__sub_kindEPKS0_PKvS3_S5_RNS0_16__dyncast_resultE+0x32>
    1e6e:	7165      	strb	r5, [r4, #5]
    1e70:	2000      	movs	r0, #0
    1e72:	e8bd 81f0 	ldmia.w	sp!, {r4, r5, r6, r7, r8, pc}

00001e76 <_ZNK10__cxxabiv117__class_type_info10__do_catchEPKSt9type_infoPPvj>:
    1e76:	b5f8      	push	{r3, r4, r5, r6, r7, lr}
    1e78:	4605      	mov	r5, r0
    1e7a:	460c      	mov	r4, r1
    1e7c:	4616      	mov	r6, r2
    1e7e:	461f      	mov	r7, r3
    1e80:	f000 fa56 	bl	2330 <_ZNKSt9type_infoeqERKS_>
    1e84:	b940      	cbnz	r0, 1e98 <_ZNK10__cxxabiv117__class_type_info10__do_catchEPKSt9type_infoPPvj+0x22>
    1e86:	2f03      	cmp	r7, #3
    1e88:	d807      	bhi.n	1e9a <_ZNK10__cxxabiv117__class_type_info10__do_catchEPKSt9type_infoPPvj+0x24>
    1e8a:	6823      	ldr	r3, [r4, #0]
    1e8c:	4620      	mov	r0, r4
    1e8e:	695b      	ldr	r3, [r3, #20]
    1e90:	4629      	mov	r1, r5
    1e92:	4632      	mov	r2, r6
    1e94:	4798      	blx	r3
    1e96:	bdf8      	pop	{r3, r4, r5, r6, r7, pc}
    1e98:	2001      	movs	r0, #1
    1e9a:	bdf8      	pop	{r3, r4, r5, r6, r7, pc}

00001e9c <__aeabi_atexit>:
    1e9c:	4603      	mov	r3, r0
    1e9e:	4608      	mov	r0, r1
    1ea0:	4619      	mov	r1, r3
    1ea2:	f001 b9f9 	b.w	3298 <__cxa_atexit>
	...

00001ea8 <_ZN10__cxxabiv121__vmi_class_type_infoD1Ev>:
    1ea8:	4b03      	ldr	r3, [pc, #12]	; (1eb8 <_ZN10__cxxabiv121__vmi_class_type_infoD1Ev+0x10>)
    1eaa:	b510      	push	{r4, lr}
    1eac:	4604      	mov	r4, r0
    1eae:	6003      	str	r3, [r0, #0]
    1eb0:	f7ff ffb2 	bl	1e18 <_ZN10__cxxabiv117__class_type_infoD1Ev>
    1eb4:	4620      	mov	r0, r4
    1eb6:	bd10      	pop	{r4, pc}
    1eb8:	000089e0 	.word	0x000089e0

00001ebc <_ZN10__cxxabiv121__vmi_class_type_infoD0Ev>:
    1ebc:	b510      	push	{r4, lr}
    1ebe:	4604      	mov	r4, r0
    1ec0:	f7ff fff2 	bl	1ea8 <_ZN10__cxxabiv121__vmi_class_type_infoD1Ev>
    1ec4:	4620      	mov	r0, r4
    1ec6:	f7ff ff75 	bl	1db4 <_ZdlPv>
    1eca:	4620      	mov	r0, r4
    1ecc:	bd10      	pop	{r4, pc}

00001ece <_ZNK10__cxxabiv121__vmi_class_type_info20__do_find_public_srcEiPKvPKNS_17__class_type_infoES2_>:
    1ece:	e92d 47f3 	stmdb	sp!, {r0, r1, r4, r5, r6, r7, r8, r9, r10, lr}
    1ed2:	f8dd 9028 	ldr.w	r9, [sp, #40]	; 0x28
    1ed6:	4605      	mov	r5, r0
    1ed8:	454a      	cmp	r2, r9
    1eda:	460f      	mov	r7, r1
    1edc:	4616      	mov	r6, r2
    1ede:	4698      	mov	r8, r3
    1ee0:	d105      	bne.n	1eee <_ZNK10__cxxabiv121__vmi_class_type_info20__do_find_public_srcEiPKvPKNS_17__class_type_infoES2_+0x20>
    1ee2:	4619      	mov	r1, r3
    1ee4:	f000 fa24 	bl	2330 <_ZNKSt9type_infoeqERKS_>
    1ee8:	b108      	cbz	r0, 1eee <_ZNK10__cxxabiv121__vmi_class_type_info20__do_find_public_srcEiPKvPKNS_17__class_type_infoES2_+0x20>
    1eea:	2006      	movs	r0, #6
    1eec:	e026      	b.n	1f3c <_ZNK10__cxxabiv121__vmi_class_type_info20__do_find_public_srcEiPKvPKNS_17__class_type_infoES2_+0x6e>
    1eee:	68ec      	ldr	r4, [r5, #12]
    1ef0:	f104 3aff 	add.w	r10, r4, #4294967295
    1ef4:	b30c      	cbz	r4, 1f3a <_ZNK10__cxxabiv121__vmi_class_type_info20__do_find_public_srcEiPKvPKNS_17__class_type_infoES2_+0x6c>
    1ef6:	eb05 04c4 	add.w	r4, r5, r4, lsl #3
    1efa:	68e0      	ldr	r0, [r4, #12]
    1efc:	0782      	lsls	r2, r0, #30
    1efe:	d51a      	bpl.n	1f36 <_ZNK10__cxxabiv121__vmi_class_type_info20__do_find_public_srcEiPKvPKNS_17__class_type_infoES2_+0x68>
    1f00:	1202      	asrs	r2, r0, #8
    1f02:	f010 0401 	ands.w	r4, r0, #1
    1f06:	d003      	beq.n	1f10 <_ZNK10__cxxabiv121__vmi_class_type_info20__do_find_public_srcEiPKvPKNS_17__class_type_infoES2_+0x42>
    1f08:	1cfb      	adds	r3, r7, #3
    1f0a:	d014      	beq.n	1f36 <_ZNK10__cxxabiv121__vmi_class_type_info20__do_find_public_srcEiPKvPKNS_17__class_type_infoES2_+0x68>
    1f0c:	6833      	ldr	r3, [r6, #0]
    1f0e:	589a      	ldr	r2, [r3, r2]
    1f10:	eb05 01ca 	add.w	r1, r5, r10, lsl #3
    1f14:	6908      	ldr	r0, [r1, #16]
    1f16:	18b2      	adds	r2, r6, r2
    1f18:	6803      	ldr	r3, [r0, #0]
    1f1a:	f8cd 9000 	str.w	r9, [sp]
    1f1e:	f8d3 c020 	ldr.w	r12, [r3, #32]
    1f22:	4639      	mov	r1, r7
    1f24:	4643      	mov	r3, r8
    1f26:	47e0      	blx	r12
    1f28:	2803      	cmp	r0, #3
    1f2a:	d904      	bls.n	1f36 <_ZNK10__cxxabiv121__vmi_class_type_info20__do_find_public_srcEiPKvPKNS_17__class_type_infoES2_+0x68>
    1f2c:	b134      	cbz	r4, 1f3c <_ZNK10__cxxabiv121__vmi_class_type_info20__do_find_public_srcEiPKvPKNS_17__class_type_infoES2_+0x6e>
    1f2e:	f040 0001 	orr.w	r0, r0, #1
    1f32:	b2c0      	uxtb	r0, r0
    1f34:	e002      	b.n	1f3c <_ZNK10__cxxabiv121__vmi_class_type_info20__do_find_public_srcEiPKvPKNS_17__class_type_infoES2_+0x6e>
    1f36:	4654      	mov	r4, r10
    1f38:	e7da      	b.n	1ef0 <_ZNK10__cxxabiv121__vmi_class_type_info20__do_find_public_srcEiPKvPKNS_17__class_type_infoES2_+0x22>
    1f3a:	2001      	movs	r0, #1
    1f3c:	e8bd 87fc 	ldmia.w	sp!, {r2, r3, r4, r5, r6, r7, r8, r9, r10, pc}

00001f40 <_ZNK10__cxxabiv121__vmi_class_type_info11__do_upcastEPKNS_17__class_type_infoEPKvRNS1_15__upcast_resultE>:
    1f40:	e92d 4ff0 	stmdb	sp!, {r4, r5, r6, r7, r8, r9, r10, r11, lr}
    1f44:	b087      	sub	sp, #28
    1f46:	4605      	mov	r5, r0
    1f48:	9101      	str	r1, [sp, #4]
    1f4a:	4616      	mov	r6, r2
    1f4c:	461c      	mov	r4, r3
    1f4e:	f7ff ff56 	bl	1dfe <_ZNK10__cxxabiv117__class_type_info11__do_upcastEPKS0_PKvRNS0_15__upcast_resultE>
    1f52:	2800      	cmp	r0, #0
    1f54:	d17d      	bne.n	2052 <_ZNK10__cxxabiv121__vmi_class_type_info11__do_upcastEPKNS_17__class_type_infoEPKvRNS1_15__upcast_resultE+0x112>
    1f56:	68a7      	ldr	r7, [r4, #8]
    1f58:	68eb      	ldr	r3, [r5, #12]
    1f5a:	06fa      	lsls	r2, r7, #27
    1f5c:	f103 0802 	add.w	r8, r3, #2
    1f60:	bf48      	it	mi
    1f62:	68af      	ldrmi	r7, [r5, #8]
    1f64:	f103 39ff 	add.w	r9, r3, #4294967295
    1f68:	eb05 08c8 	add.w	r8, r5, r8, lsl #3
    1f6c:	f1b9 3fff 	cmp.w	r9, #4294967295
    1f70:	d068      	beq.n	2044 <_ZNK10__cxxabiv121__vmi_class_type_info11__do_upcastEPKNS_17__class_type_infoEPKvRNS1_15__upcast_resultE+0x104>
    1f72:	eb05 02c9 	add.w	r2, r5, r9, lsl #3
    1f76:	6950      	ldr	r0, [r2, #20]
    1f78:	2100      	movs	r1, #0
    1f7a:	f3c0 0a40 	ubfx	r10, r0, #1, #1
    1f7e:	9102      	str	r1, [sp, #8]
    1f80:	f88d 100c 	strb.w	r1, [sp, #12]
    1f84:	9704      	str	r7, [sp, #16]
    1f86:	9105      	str	r1, [sp, #20]
    1f88:	f000 0b01 	and.w	r11, r0, #1
    1f8c:	f1ba 0f00 	cmp.w	r10, #0
    1f90:	d101      	bne.n	1f96 <_ZNK10__cxxabiv121__vmi_class_type_info11__do_upcastEPKNS_17__class_type_infoEPKvRNS1_15__upcast_resultE+0x56>
    1f92:	07fb      	lsls	r3, r7, #31
    1f94:	d551      	bpl.n	203a <_ZNK10__cxxabiv121__vmi_class_type_info11__do_upcastEPKNS_17__class_type_infoEPKvRNS1_15__upcast_resultE+0xfa>
    1f96:	b13e      	cbz	r6, 1fa8 <_ZNK10__cxxabiv121__vmi_class_type_info11__do_upcastEPKNS_17__class_type_infoEPKvRNS1_15__upcast_resultE+0x68>
    1f98:	1201      	asrs	r1, r0, #8
    1f9a:	f1bb 0f00 	cmp.w	r11, #0
    1f9e:	d001      	beq.n	1fa4 <_ZNK10__cxxabiv121__vmi_class_type_info11__do_upcastEPKNS_17__class_type_infoEPKvRNS1_15__upcast_resultE+0x64>
    1fa0:	6833      	ldr	r3, [r6, #0]
    1fa2:	5859      	ldr	r1, [r3, r1]
    1fa4:	1872      	adds	r2, r6, r1
    1fa6:	e000      	b.n	1faa <_ZNK10__cxxabiv121__vmi_class_type_info11__do_upcastEPKNS_17__class_type_infoEPKvRNS1_15__upcast_resultE+0x6a>
    1fa8:	4632      	mov	r2, r6
    1faa:	f858 0c08 	ldr.w	r0, [r8, #-8]
    1fae:	9901      	ldr	r1, [sp, #4]
    1fb0:	6803      	ldr	r3, [r0, #0]
    1fb2:	f8d3 c018 	ldr.w	r12, [r3, #24]
    1fb6:	ab02      	add	r3, sp, #8
    1fb8:	47e0      	blx	r12
    1fba:	2800      	cmp	r0, #0
    1fbc:	d03d      	beq.n	203a <_ZNK10__cxxabiv121__vmi_class_type_info11__do_upcastEPKNS_17__class_type_infoEPKvRNS1_15__upcast_resultE+0xfa>
    1fbe:	9a05      	ldr	r2, [sp, #20]
    1fc0:	2a08      	cmp	r2, #8
    1fc2:	d105      	bne.n	1fd0 <_ZNK10__cxxabiv121__vmi_class_type_info11__do_upcastEPKNS_17__class_type_infoEPKvRNS1_15__upcast_resultE+0x90>
    1fc4:	f1bb 0f00 	cmp.w	r11, #0
    1fc8:	d002      	beq.n	1fd0 <_ZNK10__cxxabiv121__vmi_class_type_info11__do_upcastEPKNS_17__class_type_infoEPKvRNS1_15__upcast_resultE+0x90>
    1fca:	f858 0c08 	ldr.w	r0, [r8, #-8]
    1fce:	9005      	str	r0, [sp, #20]
    1fd0:	f89d 100c 	ldrb.w	r1, [sp, #12]
    1fd4:	2903      	cmp	r1, #3
    1fd6:	d902      	bls.n	1fde <_ZNK10__cxxabiv121__vmi_class_type_info11__do_upcastEPKNS_17__class_type_infoEPKvRNS1_15__upcast_resultE+0x9e>
    1fd8:	f1ba 0f00 	cmp.w	r10, #0
    1fdc:	d03b      	beq.n	2056 <_ZNK10__cxxabiv121__vmi_class_type_info11__do_upcastEPKNS_17__class_type_infoEPKvRNS1_15__upcast_resultE+0x116>
    1fde:	68e1      	ldr	r1, [r4, #12]
    1fe0:	b9a9      	cbnz	r1, 200e <_ZNK10__cxxabiv121__vmi_class_type_info11__do_upcastEPKNS_17__class_type_infoEPKvRNS1_15__upcast_resultE+0xce>
    1fe2:	f10d 0e18 	add.w	lr, sp, #24
    1fe6:	e91e 000f 	ldmdb	lr, {r0, r1, r2, r3}
    1fea:	e884 000f 	stmia.w	r4, {r0, r1, r2, r3}
    1fee:	7923      	ldrb	r3, [r4, #4]
    1ff0:	2b03      	cmp	r3, #3
    1ff2:	d92e      	bls.n	2052 <_ZNK10__cxxabiv121__vmi_class_type_info11__do_upcastEPKNS_17__class_type_infoEPKvRNS1_15__upcast_resultE+0x112>
    1ff4:	0798      	lsls	r0, r3, #30
    1ff6:	d503      	bpl.n	2000 <_ZNK10__cxxabiv121__vmi_class_type_info11__do_upcastEPKNS_17__class_type_infoEPKvRNS1_15__upcast_resultE+0xc0>
    1ff8:	68aa      	ldr	r2, [r5, #8]
    1ffa:	f012 0f01 	tst.w	r2, #1
    1ffe:	e004      	b.n	200a <_ZNK10__cxxabiv121__vmi_class_type_info11__do_upcastEPKNS_17__class_type_infoEPKvRNS1_15__upcast_resultE+0xca>
    2000:	07d9      	lsls	r1, r3, #31
    2002:	d526      	bpl.n	2052 <_ZNK10__cxxabiv121__vmi_class_type_info11__do_upcastEPKNS_17__class_type_infoEPKvRNS1_15__upcast_resultE+0x112>
    2004:	68a8      	ldr	r0, [r5, #8]
    2006:	f010 0f02 	tst.w	r0, #2
    200a:	d116      	bne.n	203a <_ZNK10__cxxabiv121__vmi_class_type_info11__do_upcastEPKNS_17__class_type_infoEPKvRNS1_15__upcast_resultE+0xfa>
    200c:	e021      	b.n	2052 <_ZNK10__cxxabiv121__vmi_class_type_info11__do_upcastEPKNS_17__class_type_infoEPKvRNS1_15__upcast_resultE+0x112>
    200e:	6820      	ldr	r0, [r4, #0]
    2010:	9a02      	ldr	r2, [sp, #8]
    2012:	4290      	cmp	r0, r2
    2014:	d002      	beq.n	201c <_ZNK10__cxxabiv121__vmi_class_type_info11__do_upcastEPKNS_17__class_type_infoEPKvRNS1_15__upcast_resultE+0xdc>
    2016:	2200      	movs	r2, #0
    2018:	6022      	str	r2, [r4, #0]
    201a:	e018      	b.n	204e <_ZNK10__cxxabiv121__vmi_class_type_info11__do_upcastEPKNS_17__class_type_infoEPKvRNS1_15__upcast_resultE+0x10e>
    201c:	b938      	cbnz	r0, 202e <_ZNK10__cxxabiv121__vmi_class_type_info11__do_upcastEPKNS_17__class_type_infoEPKvRNS1_15__upcast_resultE+0xee>
    201e:	9805      	ldr	r0, [sp, #20]
    2020:	2808      	cmp	r0, #8
    2022:	d014      	beq.n	204e <_ZNK10__cxxabiv121__vmi_class_type_info11__do_upcastEPKNS_17__class_type_infoEPKvRNS1_15__upcast_resultE+0x10e>
    2024:	2908      	cmp	r1, #8
    2026:	d012      	beq.n	204e <_ZNK10__cxxabiv121__vmi_class_type_info11__do_upcastEPKNS_17__class_type_infoEPKvRNS1_15__upcast_resultE+0x10e>
    2028:	f000 f982 	bl	2330 <_ZNKSt9type_infoeqERKS_>
    202c:	b178      	cbz	r0, 204e <_ZNK10__cxxabiv121__vmi_class_type_info11__do_upcastEPKNS_17__class_type_infoEPKvRNS1_15__upcast_resultE+0x10e>
    202e:	7923      	ldrb	r3, [r4, #4]
    2030:	f89d 100c 	ldrb.w	r1, [sp, #12]
    2034:	ea41 0003 	orr.w	r0, r1, r3
    2038:	7120      	strb	r0, [r4, #4]
    203a:	f109 39ff 	add.w	r9, r9, #4294967295
    203e:	f1a8 0808 	sub.w	r8, r8, #8
    2042:	e793      	b.n	1f6c <_ZNK10__cxxabiv121__vmi_class_type_info11__do_upcastEPKNS_17__class_type_infoEPKvRNS1_15__upcast_resultE+0x2c>
    2044:	7920      	ldrb	r0, [r4, #4]
    2046:	3000      	adds	r0, #0
    2048:	bf18      	it	ne
    204a:	2001      	movne	r0, #1
    204c:	e008      	b.n	2060 <_ZNK10__cxxabiv121__vmi_class_type_info11__do_upcastEPKNS_17__class_type_infoEPKvRNS1_15__upcast_resultE+0x120>
    204e:	2102      	movs	r1, #2
    2050:	7121      	strb	r1, [r4, #4]
    2052:	2001      	movs	r0, #1
    2054:	e004      	b.n	2060 <_ZNK10__cxxabiv121__vmi_class_type_info11__do_upcastEPKNS_17__class_type_infoEPKvRNS1_15__upcast_resultE+0x120>
    2056:	f021 0302 	bic.w	r3, r1, #2
    205a:	f88d 300c 	strb.w	r3, [sp, #12]
    205e:	e7be      	b.n	1fde <_ZNK10__cxxabiv121__vmi_class_type_info11__do_upcastEPKNS_17__class_type_infoEPKvRNS1_15__upcast_resultE+0x9e>
    2060:	b007      	add	sp, #28
    2062:	e8bd 8ff0 	ldmia.w	sp!, {r4, r5, r6, r7, r8, r9, r10, r11, pc}

00002066 <_ZNK10__cxxabiv121__vmi_class_type_info12__do_dyncastEiNS_17__class_type_info10__sub_kindEPKS1_PKvS4_S6_RNS1_16__dyncast_resultE>:
    2066:	e92d 4ff0 	stmdb	sp!, {r4, r5, r6, r7, r8, r9, r10, r11, lr}
    206a:	b08f      	sub	sp, #60	; 0x3c
    206c:	9c1b      	ldr	r4, [sp, #108]	; 0x6c
    206e:	469a      	mov	r10, r3
    2070:	68a3      	ldr	r3, [r4, #8]
    2072:	4688      	mov	r8, r1
    2074:	06d9      	lsls	r1, r3, #27
    2076:	bf48      	it	mi
    2078:	6883      	ldrmi	r3, [r0, #8]
    207a:	f8dd 9068 	ldr.w	r9, [sp, #104]	; 0x68
    207e:	9e18      	ldr	r6, [sp, #96]	; 0x60
    2080:	bf48      	it	mi
    2082:	60a3      	strmi	r3, [r4, #8]
    2084:	454e      	cmp	r6, r9
    2086:	4683      	mov	r11, r0
    2088:	9205      	str	r2, [sp, #20]
    208a:	d107      	bne.n	209c <_ZNK10__cxxabiv121__vmi_class_type_info12__do_dyncastEiNS_17__class_type_info10__sub_kindEPKS1_PKvS4_S6_RNS1_16__dyncast_resultE+0x36>
    208c:	9919      	ldr	r1, [sp, #100]	; 0x64
    208e:	f000 f94f 	bl	2330 <_ZNKSt9type_infoeqERKS_>
    2092:	b118      	cbz	r0, 209c <_ZNK10__cxxabiv121__vmi_class_type_info12__do_dyncastEiNS_17__class_type_info10__sub_kindEPKS1_PKvS4_S6_RNS1_16__dyncast_resultE+0x36>
    2094:	9e05      	ldr	r6, [sp, #20]
    2096:	7166      	strb	r6, [r4, #5]
    2098:	2700      	movs	r7, #0
    209a:	e12f      	b.n	22fc <_ZNK10__cxxabiv121__vmi_class_type_info12__do_dyncastEiNS_17__class_type_info10__sub_kindEPKS1_PKvS4_S6_RNS1_16__dyncast_resultE+0x296>
    209c:	4658      	mov	r0, r11
    209e:	4651      	mov	r1, r10
    20a0:	f000 f946 	bl	2330 <_ZNKSt9type_infoeqERKS_>
    20a4:	b1b8      	cbz	r0, 20d6 <_ZNK10__cxxabiv121__vmi_class_type_info12__do_dyncastEiNS_17__class_type_info10__sub_kindEPKS1_PKvS4_S6_RNS1_16__dyncast_resultE+0x70>
    20a6:	9818      	ldr	r0, [sp, #96]	; 0x60
    20a8:	9e05      	ldr	r6, [sp, #20]
    20aa:	f1b8 0f00 	cmp.w	r8, #0
    20ae:	6020      	str	r0, [r4, #0]
    20b0:	7126      	strb	r6, [r4, #4]
    20b2:	db0a      	blt.n	20ca <_ZNK10__cxxabiv121__vmi_class_type_info12__do_dyncastEiNS_17__class_type_info10__sub_kindEPKS1_PKvS4_S6_RNS1_16__dyncast_resultE+0x64>
    20b4:	9e18      	ldr	r6, [sp, #96]	; 0x60
    20b6:	44b0      	add	r8, r6
    20b8:	45c1      	cmp	r9, r8
    20ba:	bf14      	ite	ne
    20bc:	f04f 0901 	movne.w	r9, #1
    20c0:	f04f 0906 	moveq.w	r9, #6
    20c4:	f884 9006 	strb.w	r9, [r4, #6]
    20c8:	e7e6      	b.n	2098 <_ZNK10__cxxabiv121__vmi_class_type_info12__do_dyncastEiNS_17__class_type_info10__sub_kindEPKS1_PKvS4_S6_RNS1_16__dyncast_resultE+0x32>
    20ca:	f118 0f02 	cmn.w	r8, #2
    20ce:	d1e3      	bne.n	2098 <_ZNK10__cxxabiv121__vmi_class_type_info12__do_dyncastEiNS_17__class_type_info10__sub_kindEPKS1_PKvS4_S6_RNS1_16__dyncast_resultE+0x32>
    20d0:	2201      	movs	r2, #1
    20d2:	71a2      	strb	r2, [r4, #6]
    20d4:	e7e0      	b.n	2098 <_ZNK10__cxxabiv121__vmi_class_type_info12__do_dyncastEiNS_17__class_type_info10__sub_kindEPKS1_PKvS4_S6_RNS1_16__dyncast_resultE+0x32>
    20d6:	f1b8 0f00 	cmp.w	r8, #0
    20da:	bfa6      	itte	ge
    20dc:	ebc8 0609 	rsbge	r6, r8, r9
    20e0:	9606      	strge	r6, [sp, #24]
    20e2:	9006      	strlt	r0, [sp, #24]
    20e4:	2700      	movs	r7, #0
    20e6:	2101      	movs	r1, #1
    20e8:	9709      	str	r7, [sp, #36]	; 0x24
    20ea:	9107      	str	r1, [sp, #28]
    20ec:	f8db 300c 	ldr.w	r3, [r11, #12]
    20f0:	1e5a      	subs	r2, r3, #1
    20f2:	9208      	str	r2, [sp, #32]
    20f4:	2b00      	cmp	r3, #0
    20f6:	f000 80b0 	beq.w	225a <_ZNK10__cxxabiv121__vmi_class_type_info12__do_dyncastEiNS_17__class_type_info10__sub_kindEPKS1_PKvS4_S6_RNS1_16__dyncast_resultE+0x1f4>
    20fa:	eb0b 03c3 	add.w	r3, r11, r3, lsl #3
    20fe:	68db      	ldr	r3, [r3, #12]
    2100:	68a5      	ldr	r5, [r4, #8]
    2102:	2600      	movs	r6, #0
    2104:	1219      	asrs	r1, r3, #8
    2106:	07da      	lsls	r2, r3, #31
    2108:	960b      	str	r6, [sp, #44]	; 0x2c
    210a:	f88d 6030 	strb.w	r6, [sp, #48]	; 0x30
    210e:	f88d 6031 	strb.w	r6, [sp, #49]	; 0x31
    2112:	f88d 6032 	strb.w	r6, [sp, #50]	; 0x32
    2116:	950d      	str	r5, [sp, #52]	; 0x34
    2118:	d506      	bpl.n	2128 <_ZNK10__cxxabiv121__vmi_class_type_info12__do_dyncastEiNS_17__class_type_info10__sub_kindEPKS1_PKvS4_S6_RNS1_16__dyncast_resultE+0xc2>
    211a:	9805      	ldr	r0, [sp, #20]
    211c:	9e18      	ldr	r6, [sp, #96]	; 0x60
    211e:	f040 0201 	orr.w	r2, r0, #1
    2122:	6830      	ldr	r0, [r6, #0]
    2124:	5841      	ldr	r1, [r0, r1]
    2126:	e000      	b.n	212a <_ZNK10__cxxabiv121__vmi_class_type_info12__do_dyncastEiNS_17__class_type_info10__sub_kindEPKS1_PKvS4_S6_RNS1_16__dyncast_resultE+0xc4>
    2128:	9a05      	ldr	r2, [sp, #20]
    212a:	9e18      	ldr	r6, [sp, #96]	; 0x60
    212c:	1871      	adds	r1, r6, r1
    212e:	9e06      	ldr	r6, [sp, #24]
    2130:	b136      	cbz	r6, 2140 <_ZNK10__cxxabiv121__vmi_class_type_info12__do_dyncastEiNS_17__class_type_info10__sub_kindEPKS1_PKvS4_S6_RNS1_16__dyncast_resultE+0xda>
    2132:	42b1      	cmp	r1, r6
    2134:	9e07      	ldr	r6, [sp, #28]
    2136:	bf94      	ite	ls
    2138:	2000      	movls	r0, #0
    213a:	2001      	movhi	r0, #1
    213c:	42b0      	cmp	r0, r6
    213e:	d07b      	beq.n	2238 <_ZNK10__cxxabiv121__vmi_class_type_info12__do_dyncastEiNS_17__class_type_info10__sub_kindEPKS1_PKvS4_S6_RNS1_16__dyncast_resultE+0x1d2>
    2140:	079b      	lsls	r3, r3, #30
    2142:	d407      	bmi.n	2154 <_ZNK10__cxxabiv121__vmi_class_type_info12__do_dyncastEiNS_17__class_type_info10__sub_kindEPKS1_PKvS4_S6_RNS1_16__dyncast_resultE+0xee>
    2144:	f118 0f02 	cmn.w	r8, #2
    2148:	d102      	bne.n	2150 <_ZNK10__cxxabiv121__vmi_class_type_info12__do_dyncastEiNS_17__class_type_info10__sub_kindEPKS1_PKvS4_S6_RNS1_16__dyncast_resultE+0xea>
    214a:	07ae      	lsls	r6, r5, #30
    214c:	f000 8083 	beq.w	2256 <_ZNK10__cxxabiv121__vmi_class_type_info12__do_dyncastEiNS_17__class_type_info10__sub_kindEPKS1_PKvS4_S6_RNS1_16__dyncast_resultE+0x1f0>
    2150:	f002 02fd 	and.w	r2, r2, #253	; 0xfd
    2154:	9d08      	ldr	r5, [sp, #32]
    2156:	ae0b      	add	r6, sp, #44	; 0x2c
    2158:	eb0b 03c5 	add.w	r3, r11, r5, lsl #3
    215c:	6918      	ldr	r0, [r3, #16]
    215e:	4653      	mov	r3, r10
    2160:	6805      	ldr	r5, [r0, #0]
    2162:	9100      	str	r1, [sp, #0]
    2164:	9919      	ldr	r1, [sp, #100]	; 0x64
    2166:	9603      	str	r6, [sp, #12]
    2168:	9101      	str	r1, [sp, #4]
    216a:	f8cd 9008 	str.w	r9, [sp, #8]
    216e:	69ed      	ldr	r5, [r5, #28]
    2170:	4641      	mov	r1, r8
    2172:	47a8      	blx	r5
    2174:	7963      	ldrb	r3, [r4, #5]
    2176:	f89d 2031 	ldrb.w	r2, [sp, #49]	; 0x31
    217a:	f89d 6032 	ldrb.w	r6, [sp, #50]	; 0x32
    217e:	4313      	orrs	r3, r2
    2180:	2e06      	cmp	r6, #6
    2182:	7163      	strb	r3, [r4, #5]
    2184:	d001      	beq.n	218a <_ZNK10__cxxabiv121__vmi_class_type_info12__do_dyncastEiNS_17__class_type_info10__sub_kindEPKS1_PKvS4_S6_RNS1_16__dyncast_resultE+0x124>
    2186:	2e02      	cmp	r6, #2
    2188:	d106      	bne.n	2198 <_ZNK10__cxxabiv121__vmi_class_type_info12__do_dyncastEiNS_17__class_type_info10__sub_kindEPKS1_PKvS4_S6_RNS1_16__dyncast_resultE+0x132>
    218a:	9f0b      	ldr	r7, [sp, #44]	; 0x2c
    218c:	f89d 1030 	ldrb.w	r1, [sp, #48]	; 0x30
    2190:	6027      	str	r7, [r4, #0]
    2192:	7121      	strb	r1, [r4, #4]
    2194:	71a6      	strb	r6, [r4, #6]
    2196:	e05c      	b.n	2252 <_ZNK10__cxxabiv121__vmi_class_type_info12__do_dyncastEiNS_17__class_type_info10__sub_kindEPKS1_PKvS4_S6_RNS1_16__dyncast_resultE+0x1ec>
    2198:	6822      	ldr	r2, [r4, #0]
    219a:	b977      	cbnz	r7, 21ba <_ZNK10__cxxabiv121__vmi_class_type_info12__do_dyncastEiNS_17__class_type_info10__sub_kindEPKS1_PKvS4_S6_RNS1_16__dyncast_resultE+0x154>
    219c:	b96a      	cbnz	r2, 21ba <_ZNK10__cxxabiv121__vmi_class_type_info12__do_dyncastEiNS_17__class_type_info10__sub_kindEPKS1_PKvS4_S6_RNS1_16__dyncast_resultE+0x154>
    219e:	9f0b      	ldr	r7, [sp, #44]	; 0x2c
    21a0:	f89d 1030 	ldrb.w	r1, [sp, #48]	; 0x30
    21a4:	6027      	str	r7, [r4, #0]
    21a6:	7121      	strb	r1, [r4, #4]
    21a8:	2f00      	cmp	r7, #0
    21aa:	d040      	beq.n	222e <_ZNK10__cxxabiv121__vmi_class_type_info12__do_dyncastEiNS_17__class_type_info10__sub_kindEPKS1_PKvS4_S6_RNS1_16__dyncast_resultE+0x1c8>
    21ac:	2b00      	cmp	r3, #0
    21ae:	d03e      	beq.n	222e <_ZNK10__cxxabiv121__vmi_class_type_info12__do_dyncastEiNS_17__class_type_info10__sub_kindEPKS1_PKvS4_S6_RNS1_16__dyncast_resultE+0x1c8>
    21b0:	f8db 3008 	ldr.w	r3, [r11, #8]
    21b4:	07da      	lsls	r2, r3, #31
    21b6:	d43a      	bmi.n	222e <_ZNK10__cxxabiv121__vmi_class_type_info12__do_dyncastEiNS_17__class_type_info10__sub_kindEPKS1_PKvS4_S6_RNS1_16__dyncast_resultE+0x1c8>
    21b8:	e04b      	b.n	2252 <_ZNK10__cxxabiv121__vmi_class_type_info12__do_dyncastEiNS_17__class_type_info10__sub_kindEPKS1_PKvS4_S6_RNS1_16__dyncast_resultE+0x1ec>
    21ba:	b15a      	cbz	r2, 21d4 <_ZNK10__cxxabiv121__vmi_class_type_info12__do_dyncastEiNS_17__class_type_info10__sub_kindEPKS1_PKvS4_S6_RNS1_16__dyncast_resultE+0x16e>
    21bc:	990b      	ldr	r1, [sp, #44]	; 0x2c
    21be:	428a      	cmp	r2, r1
    21c0:	d106      	bne.n	21d0 <_ZNK10__cxxabiv121__vmi_class_type_info12__do_dyncastEiNS_17__class_type_info10__sub_kindEPKS1_PKvS4_S6_RNS1_16__dyncast_resultE+0x16a>
    21c2:	7922      	ldrb	r2, [r4, #4]
    21c4:	f89d 1030 	ldrb.w	r1, [sp, #48]	; 0x30
    21c8:	ea41 0002 	orr.w	r0, r1, r2
    21cc:	7120      	strb	r0, [r4, #4]
    21ce:	e02d      	b.n	222c <_ZNK10__cxxabiv121__vmi_class_type_info12__do_dyncastEiNS_17__class_type_info10__sub_kindEPKS1_PKvS4_S6_RNS1_16__dyncast_resultE+0x1c6>
    21d0:	b919      	cbnz	r1, 21da <_ZNK10__cxxabiv121__vmi_class_type_info12__do_dyncastEiNS_17__class_type_info10__sub_kindEPKS1_PKvS4_S6_RNS1_16__dyncast_resultE+0x174>
    21d2:	b910      	cbnz	r0, 21da <_ZNK10__cxxabiv121__vmi_class_type_info12__do_dyncastEiNS_17__class_type_info10__sub_kindEPKS1_PKvS4_S6_RNS1_16__dyncast_resultE+0x174>
    21d4:	980b      	ldr	r0, [sp, #44]	; 0x2c
    21d6:	b348      	cbz	r0, 222c <_ZNK10__cxxabiv121__vmi_class_type_info12__do_dyncastEiNS_17__class_type_info10__sub_kindEPKS1_PKvS4_S6_RNS1_16__dyncast_resultE+0x1c6>
    21d8:	b347      	cbz	r7, 222c <_ZNK10__cxxabiv121__vmi_class_type_info12__do_dyncastEiNS_17__class_type_info10__sub_kindEPKS1_PKvS4_S6_RNS1_16__dyncast_resultE+0x1c6>
    21da:	2b03      	cmp	r3, #3
    21dc:	79a5      	ldrb	r5, [r4, #6]
    21de:	d904      	bls.n	21ea <_ZNK10__cxxabiv121__vmi_class_type_info12__do_dyncastEiNS_17__class_type_info10__sub_kindEPKS1_PKvS4_S6_RNS1_16__dyncast_resultE+0x184>
    21e0:	07db      	lsls	r3, r3, #31
    21e2:	d542      	bpl.n	226a <_ZNK10__cxxabiv121__vmi_class_type_info12__do_dyncastEiNS_17__class_type_info10__sub_kindEPKS1_PKvS4_S6_RNS1_16__dyncast_resultE+0x204>
    21e4:	68a3      	ldr	r3, [r4, #8]
    21e6:	0798      	lsls	r0, r3, #30
    21e8:	d53f      	bpl.n	226a <_ZNK10__cxxabiv121__vmi_class_type_info12__do_dyncastEiNS_17__class_type_info10__sub_kindEPKS1_PKvS4_S6_RNS1_16__dyncast_resultE+0x204>
    21ea:	b94d      	cbnz	r5, 2200 <_ZNK10__cxxabiv121__vmi_class_type_info12__do_dyncastEiNS_17__class_type_info10__sub_kindEPKS1_PKvS4_S6_RNS1_16__dyncast_resultE+0x19a>
    21ec:	2e03      	cmp	r6, #3
    21ee:	d848      	bhi.n	2282 <_ZNK10__cxxabiv121__vmi_class_type_info12__do_dyncastEiNS_17__class_type_info10__sub_kindEPKS1_PKvS4_S6_RNS1_16__dyncast_resultE+0x21c>
    21f0:	f1b8 0f00 	cmp.w	r8, #0
    21f4:	db59      	blt.n	22aa <_ZNK10__cxxabiv121__vmi_class_type_info12__do_dyncastEiNS_17__class_type_info10__sub_kindEPKS1_PKvS4_S6_RNS1_16__dyncast_resultE+0x244>
    21f6:	4442      	add	r2, r8
    21f8:	4591      	cmp	r9, r2
    21fa:	bf0c      	ite	eq
    21fc:	2506      	moveq	r5, #6
    21fe:	2501      	movne	r5, #1
    2200:	2e00      	cmp	r6, #0
    2202:	d045      	beq.n	2290 <_ZNK10__cxxabiv121__vmi_class_type_info12__do_dyncastEiNS_17__class_type_info10__sub_kindEPKS1_PKvS4_S6_RNS1_16__dyncast_resultE+0x22a>
    2204:	ea85 0106 	eor.w	r1, r5, r6
    2208:	b2ca      	uxtb	r2, r1
    220a:	2a03      	cmp	r2, #3
    220c:	d917      	bls.n	223e <_ZNK10__cxxabiv121__vmi_class_type_info12__do_dyncastEiNS_17__class_type_info10__sub_kindEPKS1_PKvS4_S6_RNS1_16__dyncast_resultE+0x1d8>
    220e:	2e03      	cmp	r6, #3
    2210:	d906      	bls.n	2220 <_ZNK10__cxxabiv121__vmi_class_type_info12__do_dyncastEiNS_17__class_type_info10__sub_kindEPKS1_PKvS4_S6_RNS1_16__dyncast_resultE+0x1ba>
    2212:	9d0b      	ldr	r5, [sp, #44]	; 0x2c
    2214:	f89d 3030 	ldrb.w	r3, [sp, #48]	; 0x30
    2218:	6025      	str	r5, [r4, #0]
    221a:	7123      	strb	r3, [r4, #4]
    221c:	4635      	mov	r5, r6
    221e:	2700      	movs	r7, #0
    2220:	07a9      	lsls	r1, r5, #30
    2222:	71a5      	strb	r5, [r4, #6]
    2224:	d42b      	bmi.n	227e <_ZNK10__cxxabiv121__vmi_class_type_info12__do_dyncastEiNS_17__class_type_info10__sub_kindEPKS1_PKvS4_S6_RNS1_16__dyncast_resultE+0x218>
    2226:	f015 0001 	ands.w	r0, r5, #1
    222a:	d012      	beq.n	2252 <_ZNK10__cxxabiv121__vmi_class_type_info12__do_dyncastEiNS_17__class_type_info10__sub_kindEPKS1_PKvS4_S6_RNS1_16__dyncast_resultE+0x1ec>
    222c:	4638      	mov	r0, r7
    222e:	7962      	ldrb	r2, [r4, #5]
    2230:	2a04      	cmp	r2, #4
    2232:	d00e      	beq.n	2252 <_ZNK10__cxxabiv121__vmi_class_type_info12__do_dyncastEiNS_17__class_type_info10__sub_kindEPKS1_PKvS4_S6_RNS1_16__dyncast_resultE+0x1ec>
    2234:	4607      	mov	r7, r0
    2236:	e00e      	b.n	2256 <_ZNK10__cxxabiv121__vmi_class_type_info12__do_dyncastEiNS_17__class_type_info10__sub_kindEPKS1_PKvS4_S6_RNS1_16__dyncast_resultE+0x1f0>
    2238:	2601      	movs	r6, #1
    223a:	9609      	str	r6, [sp, #36]	; 0x24
    223c:	e00b      	b.n	2256 <_ZNK10__cxxabiv121__vmi_class_type_info12__do_dyncastEiNS_17__class_type_info10__sub_kindEPKS1_PKvS4_S6_RNS1_16__dyncast_resultE+0x1f0>
    223e:	4035      	ands	r5, r6
    2240:	b2ed      	uxtb	r5, r5
    2242:	f04f 0700 	mov.w	r7, #0
    2246:	2d03      	cmp	r5, #3
    2248:	6027      	str	r7, [r4, #0]
    224a:	d915      	bls.n	2278 <_ZNK10__cxxabiv121__vmi_class_type_info12__do_dyncastEiNS_17__class_type_info10__sub_kindEPKS1_PKvS4_S6_RNS1_16__dyncast_resultE+0x212>
    224c:	2002      	movs	r0, #2
    224e:	71a0      	strb	r0, [r4, #6]
    2250:	2001      	movs	r0, #1
    2252:	4607      	mov	r7, r0
    2254:	e052      	b.n	22fc <_ZNK10__cxxabiv121__vmi_class_type_info12__do_dyncastEiNS_17__class_type_info10__sub_kindEPKS1_PKvS4_S6_RNS1_16__dyncast_resultE+0x296>
    2256:	9b08      	ldr	r3, [sp, #32]
    2258:	e74a      	b.n	20f0 <_ZNK10__cxxabiv121__vmi_class_type_info12__do_dyncastEiNS_17__class_type_info10__sub_kindEPKS1_PKvS4_S6_RNS1_16__dyncast_resultE+0x8a>
    225a:	9e09      	ldr	r6, [sp, #36]	; 0x24
    225c:	2e00      	cmp	r6, #0
    225e:	d04d      	beq.n	22fc <_ZNK10__cxxabiv121__vmi_class_type_info12__do_dyncastEiNS_17__class_type_info10__sub_kindEPKS1_PKvS4_S6_RNS1_16__dyncast_resultE+0x296>
    2260:	9e07      	ldr	r6, [sp, #28]
    2262:	2e00      	cmp	r6, #0
    2264:	d04a      	beq.n	22fc <_ZNK10__cxxabiv121__vmi_class_type_info12__do_dyncastEiNS_17__class_type_info10__sub_kindEPKS1_PKvS4_S6_RNS1_16__dyncast_resultE+0x296>
    2266:	9307      	str	r3, [sp, #28]
    2268:	e740      	b.n	20ec <_ZNK10__cxxabiv121__vmi_class_type_info12__do_dyncastEiNS_17__class_type_info10__sub_kindEPKS1_PKvS4_S6_RNS1_16__dyncast_resultE+0x86>
    226a:	2d00      	cmp	r5, #0
    226c:	bf08      	it	eq
    226e:	2501      	moveq	r5, #1
    2270:	2e00      	cmp	r6, #0
    2272:	bf08      	it	eq
    2274:	2601      	moveq	r6, #1
    2276:	e7c5      	b.n	2204 <_ZNK10__cxxabiv121__vmi_class_type_info12__do_dyncastEiNS_17__class_type_info10__sub_kindEPKS1_PKvS4_S6_RNS1_16__dyncast_resultE+0x19e>
    2278:	2001      	movs	r0, #1
    227a:	71a0      	strb	r0, [r4, #6]
    227c:	e7d7      	b.n	222e <_ZNK10__cxxabiv121__vmi_class_type_info12__do_dyncastEiNS_17__class_type_info10__sub_kindEPKS1_PKvS4_S6_RNS1_16__dyncast_resultE+0x1c8>
    227e:	2000      	movs	r0, #0
    2280:	e7e7      	b.n	2252 <_ZNK10__cxxabiv121__vmi_class_type_info12__do_dyncastEiNS_17__class_type_info10__sub_kindEPKS1_PKvS4_S6_RNS1_16__dyncast_resultE+0x1ec>
    2282:	07f1      	lsls	r1, r6, #31
    2284:	d50d      	bpl.n	22a2 <_ZNK10__cxxabiv121__vmi_class_type_info12__do_dyncastEiNS_17__class_type_info10__sub_kindEPKS1_PKvS4_S6_RNS1_16__dyncast_resultE+0x23c>
    2286:	f8db 5008 	ldr.w	r5, [r11, #8]
    228a:	07ab      	lsls	r3, r5, #30
    228c:	d509      	bpl.n	22a2 <_ZNK10__cxxabiv121__vmi_class_type_info12__do_dyncastEiNS_17__class_type_info10__sub_kindEPKS1_PKvS4_S6_RNS1_16__dyncast_resultE+0x23c>
    228e:	e7af      	b.n	21f0 <_ZNK10__cxxabiv121__vmi_class_type_info12__do_dyncastEiNS_17__class_type_info10__sub_kindEPKS1_PKvS4_S6_RNS1_16__dyncast_resultE+0x18a>
    2290:	2d03      	cmp	r5, #3
    2292:	d91a      	bls.n	22ca <_ZNK10__cxxabiv121__vmi_class_type_info12__do_dyncastEiNS_17__class_type_info10__sub_kindEPKS1_PKvS4_S6_RNS1_16__dyncast_resultE+0x264>
    2294:	07ee      	lsls	r6, r5, #31
    2296:	d506      	bpl.n	22a6 <_ZNK10__cxxabiv121__vmi_class_type_info12__do_dyncastEiNS_17__class_type_info10__sub_kindEPKS1_PKvS4_S6_RNS1_16__dyncast_resultE+0x240>
    2298:	f8db 6008 	ldr.w	r6, [r11, #8]
    229c:	07b0      	lsls	r0, r6, #30
    229e:	d502      	bpl.n	22a6 <_ZNK10__cxxabiv121__vmi_class_type_info12__do_dyncastEiNS_17__class_type_info10__sub_kindEPKS1_PKvS4_S6_RNS1_16__dyncast_resultE+0x240>
    22a0:	e013      	b.n	22ca <_ZNK10__cxxabiv121__vmi_class_type_info12__do_dyncastEiNS_17__class_type_info10__sub_kindEPKS1_PKvS4_S6_RNS1_16__dyncast_resultE+0x264>
    22a2:	2501      	movs	r5, #1
    22a4:	e7ae      	b.n	2204 <_ZNK10__cxxabiv121__vmi_class_type_info12__do_dyncastEiNS_17__class_type_info10__sub_kindEPKS1_PKvS4_S6_RNS1_16__dyncast_resultE+0x19e>
    22a6:	2601      	movs	r6, #1
    22a8:	e7ac      	b.n	2204 <_ZNK10__cxxabiv121__vmi_class_type_info12__do_dyncastEiNS_17__class_type_info10__sub_kindEPKS1_PKvS4_S6_RNS1_16__dyncast_resultE+0x19e>
    22aa:	f118 0f02 	cmn.w	r8, #2
    22ae:	d00a      	beq.n	22c6 <_ZNK10__cxxabiv121__vmi_class_type_info12__do_dyncastEiNS_17__class_type_info10__sub_kindEPKS1_PKvS4_S6_RNS1_16__dyncast_resultE+0x260>
    22b0:	f8da 1000 	ldr.w	r1, [r10]
    22b4:	f8cd 9000 	str.w	r9, [sp]
    22b8:	6a0d      	ldr	r5, [r1, #32]
    22ba:	4650      	mov	r0, r10
    22bc:	4641      	mov	r1, r8
    22be:	9b19      	ldr	r3, [sp, #100]	; 0x64
    22c0:	47a8      	blx	r5
    22c2:	4605      	mov	r5, r0
    22c4:	e79c      	b.n	2200 <_ZNK10__cxxabiv121__vmi_class_type_info12__do_dyncastEiNS_17__class_type_info10__sub_kindEPKS1_PKvS4_S6_RNS1_16__dyncast_resultE+0x19a>
    22c6:	2501      	movs	r5, #1
    22c8:	e79a      	b.n	2200 <_ZNK10__cxxabiv121__vmi_class_type_info12__do_dyncastEiNS_17__class_type_info10__sub_kindEPKS1_PKvS4_S6_RNS1_16__dyncast_resultE+0x19a>
    22ca:	f1b8 0f00 	cmp.w	r8, #0
    22ce:	9a0b      	ldr	r2, [sp, #44]	; 0x2c
    22d0:	db06      	blt.n	22e0 <_ZNK10__cxxabiv121__vmi_class_type_info12__do_dyncastEiNS_17__class_type_info10__sub_kindEPKS1_PKvS4_S6_RNS1_16__dyncast_resultE+0x27a>
    22d2:	eb02 0308 	add.w	r3, r2, r8
    22d6:	4599      	cmp	r9, r3
    22d8:	bf14      	ite	ne
    22da:	2601      	movne	r6, #1
    22dc:	2606      	moveq	r6, #6
    22de:	e791      	b.n	2204 <_ZNK10__cxxabiv121__vmi_class_type_info12__do_dyncastEiNS_17__class_type_info10__sub_kindEPKS1_PKvS4_S6_RNS1_16__dyncast_resultE+0x19e>
    22e0:	f118 0f02 	cmn.w	r8, #2
    22e4:	d0df      	beq.n	22a6 <_ZNK10__cxxabiv121__vmi_class_type_info12__do_dyncastEiNS_17__class_type_info10__sub_kindEPKS1_PKvS4_S6_RNS1_16__dyncast_resultE+0x240>
    22e6:	f8da 0000 	ldr.w	r0, [r10]
    22ea:	f8cd 9000 	str.w	r9, [sp]
    22ee:	6a06      	ldr	r6, [r0, #32]
    22f0:	4641      	mov	r1, r8
    22f2:	4650      	mov	r0, r10
    22f4:	9b19      	ldr	r3, [sp, #100]	; 0x64
    22f6:	47b0      	blx	r6
    22f8:	4606      	mov	r6, r0
    22fa:	e783      	b.n	2204 <_ZNK10__cxxabiv121__vmi_class_type_info12__do_dyncastEiNS_17__class_type_info10__sub_kindEPKS1_PKvS4_S6_RNS1_16__dyncast_resultE+0x19e>
    22fc:	4638      	mov	r0, r7
    22fe:	b00f      	add	sp, #60	; 0x3c
    2300:	e8bd 8ff0 	ldmia.w	sp!, {r4, r5, r6, r7, r8, r9, r10, r11, pc}

00002304 <_ZNSt9type_infoD1Ev>:
    2304:	4b01      	ldr	r3, [pc, #4]	; (230c <_ZNSt9type_infoD1Ev+0x8>)
    2306:	6003      	str	r3, [r0, #0]
    2308:	4770      	bx	lr
    230a:	bf00      	nop
    230c:	00008a28 	.word	0x00008a28

00002310 <_ZNKSt9type_info14__is_pointer_pEv>:
    2310:	2000      	movs	r0, #0
    2312:	4770      	bx	lr

00002314 <_ZNKSt9type_info15__is_function_pEv>:
    2314:	2000      	movs	r0, #0
    2316:	4770      	bx	lr

00002318 <_ZNKSt9type_info11__do_upcastEPKN10__cxxabiv117__class_type_infoEPPv>:
    2318:	2000      	movs	r0, #0
    231a:	4770      	bx	lr

0000231c <_ZNSt9type_infoD0Ev>:
    231c:	4b03      	ldr	r3, [pc, #12]	; (232c <_ZNSt9type_infoD0Ev+0x10>)
    231e:	b510      	push	{r4, lr}
    2320:	4604      	mov	r4, r0
    2322:	6003      	str	r3, [r0, #0]
    2324:	f7ff fd46 	bl	1db4 <_ZdlPv>
    2328:	4620      	mov	r0, r4
    232a:	bd10      	pop	{r4, pc}
    232c:	00008a28 	.word	0x00008a28

00002330 <_ZNKSt9type_infoeqERKS_>:
    2330:	4281      	cmp	r1, r0
    2332:	b508      	push	{r3, lr}
    2334:	d00e      	beq.n	2354 <_ZNKSt9type_infoeqERKS_+0x24>
    2336:	6840      	ldr	r0, [r0, #4]
    2338:	7803      	ldrb	r3, [r0, #0]
    233a:	2b2a      	cmp	r3, #42	; 0x2a
    233c:	d101      	bne.n	2342 <_ZNKSt9type_infoeqERKS_+0x12>
    233e:	2000      	movs	r0, #0
    2340:	bd08      	pop	{r3, pc}
    2342:	6849      	ldr	r1, [r1, #4]
    2344:	780a      	ldrb	r2, [r1, #0]
    2346:	2a2a      	cmp	r2, #42	; 0x2a
    2348:	bf08      	it	eq
    234a:	3101      	addeq	r1, #1
    234c:	f001 fd4b 	bl	3de6 <strcmp>
    2350:	2800      	cmp	r0, #0
    2352:	d1f4      	bne.n	233e <_ZNKSt9type_infoeqERKS_+0xe>
    2354:	2001      	movs	r0, #1
    2356:	bd08      	pop	{r3, pc}

00002358 <_ZNKSt9type_info10__do_catchEPKS_PPvj>:
    2358:	f7ff bfea 	b.w	2330 <_ZNKSt9type_infoeqERKS_>

0000235c <__aeabi_drsub>:
    235c:	f081 4100 	eor.w	r1, r1, #2147483648	; 0x80000000
    2360:	e002      	b.n	2368 <__adddf3>
    2362:	bf00      	nop

00002364 <__aeabi_dsub>:
    2364:	f083 4300 	eor.w	r3, r3, #2147483648	; 0x80000000

00002368 <__adddf3>:
    2368:	b530      	push	{r4, r5, lr}
    236a:	ea4f 0441 	mov.w	r4, r1, lsl #1
    236e:	ea4f 0543 	mov.w	r5, r3, lsl #1
    2372:	ea94 0f05 	teq	r4, r5
    2376:	bf08      	it	eq
    2378:	ea90 0f02 	teqeq	r0, r2
    237c:	bf1f      	itttt	ne
    237e:	ea54 0c00 	orrsne.w	r12, r4, r0
    2382:	ea55 0c02 	orrsne.w	r12, r5, r2
    2386:	ea7f 5c64 	mvnsne.w	r12, r4, asr #21
    238a:	ea7f 5c65 	mvnsne.w	r12, r5, asr #21
    238e:	f000 80e2 	beq.w	2556 <__adddf3+0x1ee>
    2392:	ea4f 5454 	mov.w	r4, r4, lsr #21
    2396:	ebd4 5555 	rsbs	r5, r4, r5, lsr #21
    239a:	bfb8      	it	lt
    239c:	426d      	neglt	r5, r5
    239e:	dd0c      	ble.n	23ba <__adddf3+0x52>
    23a0:	442c      	add	r4, r5
    23a2:	ea80 0202 	eor.w	r2, r0, r2
    23a6:	ea81 0303 	eor.w	r3, r1, r3
    23aa:	ea82 0000 	eor.w	r0, r2, r0
    23ae:	ea83 0101 	eor.w	r1, r3, r1
    23b2:	ea80 0202 	eor.w	r2, r0, r2
    23b6:	ea81 0303 	eor.w	r3, r1, r3
    23ba:	2d36      	cmp	r5, #54	; 0x36
    23bc:	bf88      	it	hi
    23be:	bd30      	pophi	{r4, r5, pc}
    23c0:	f011 4f00 	tst.w	r1, #2147483648	; 0x80000000
    23c4:	ea4f 3101 	mov.w	r1, r1, lsl #12
    23c8:	f44f 1c80 	mov.w	r12, #1048576	; 0x100000
    23cc:	ea4c 3111 	orr.w	r1, r12, r1, lsr #12
    23d0:	d002      	beq.n	23d8 <__adddf3+0x70>
    23d2:	4240      	negs	r0, r0
    23d4:	eb61 0141 	sbc.w	r1, r1, r1, lsl #1
    23d8:	f013 4f00 	tst.w	r3, #2147483648	; 0x80000000
    23dc:	ea4f 3303 	mov.w	r3, r3, lsl #12
    23e0:	ea4c 3313 	orr.w	r3, r12, r3, lsr #12
    23e4:	d002      	beq.n	23ec <__adddf3+0x84>
    23e6:	4252      	negs	r2, r2
    23e8:	eb63 0343 	sbc.w	r3, r3, r3, lsl #1
    23ec:	ea94 0f05 	teq	r4, r5
    23f0:	f000 80a7 	beq.w	2542 <__adddf3+0x1da>
    23f4:	f1a4 0401 	sub.w	r4, r4, #1
    23f8:	f1d5 0e20 	rsbs	lr, r5, #32
    23fc:	db0d      	blt.n	241a <__adddf3+0xb2>
    23fe:	fa02 fc0e 	lsl.w	r12, r2, lr
    2402:	fa22 f205 	lsr.w	r2, r2, r5
    2406:	1880      	adds	r0, r0, r2
    2408:	f141 0100 	adc.w	r1, r1, #0
    240c:	fa03 f20e 	lsl.w	r2, r3, lr
    2410:	1880      	adds	r0, r0, r2
    2412:	fa43 f305 	asr.w	r3, r3, r5
    2416:	4159      	adcs	r1, r3
    2418:	e00e      	b.n	2438 <__adddf3+0xd0>
    241a:	f1a5 0520 	sub.w	r5, r5, #32
    241e:	f10e 0e20 	add.w	lr, lr, #32
    2422:	2a01      	cmp	r2, #1
    2424:	fa03 fc0e 	lsl.w	r12, r3, lr
    2428:	bf28      	it	cs
    242a:	f04c 0c02 	orrcs.w	r12, r12, #2
    242e:	fa43 f305 	asr.w	r3, r3, r5
    2432:	18c0      	adds	r0, r0, r3
    2434:	eb51 71e3 	adcs.w	r1, r1, r3, asr #31
    2438:	f001 4500 	and.w	r5, r1, #2147483648	; 0x80000000
    243c:	d507      	bpl.n	244e <__adddf3+0xe6>
    243e:	f04f 0e00 	mov.w	lr, #0
    2442:	f1dc 0c00 	rsbs	r12, r12, #0
    2446:	eb7e 0000 	sbcs.w	r0, lr, r0
    244a:	eb6e 0101 	sbc.w	r1, lr, r1
    244e:	f5b1 1f80 	cmp.w	r1, #1048576	; 0x100000
    2452:	d31b      	bcc.n	248c <__adddf3+0x124>
    2454:	f5b1 1f00 	cmp.w	r1, #2097152	; 0x200000
    2458:	d30c      	bcc.n	2474 <__adddf3+0x10c>
    245a:	0849      	lsrs	r1, r1, #1
    245c:	ea5f 0030 	movs.w	r0, r0, rrx
    2460:	ea4f 0c3c 	mov.w	r12, r12, rrx
    2464:	f104 0401 	add.w	r4, r4, #1
    2468:	ea4f 5244 	mov.w	r2, r4, lsl #21
    246c:	f512 0f80 	cmn.w	r2, #4194304	; 0x400000
    2470:	f080 809a 	bcs.w	25a8 <__adddf3+0x240>
    2474:	f1bc 4f00 	cmp.w	r12, #2147483648	; 0x80000000
    2478:	bf08      	it	eq
    247a:	ea5f 0c50 	movseq.w	r12, r0, lsr #1
    247e:	f150 0000 	adcs.w	r0, r0, #0
    2482:	eb41 5104 	adc.w	r1, r1, r4, lsl #20
    2486:	ea41 0105 	orr.w	r1, r1, r5
    248a:	bd30      	pop	{r4, r5, pc}
    248c:	ea5f 0c4c 	movs.w	r12, r12, lsl #1
    2490:	4140      	adcs	r0, r0
    2492:	eb41 0101 	adc.w	r1, r1, r1
    2496:	f411 1f80 	tst.w	r1, #1048576	; 0x100000
    249a:	f1a4 0401 	sub.w	r4, r4, #1
    249e:	d1e9      	bne.n	2474 <__adddf3+0x10c>
    24a0:	f091 0f00 	teq	r1, #0
    24a4:	bf04      	itt	eq
    24a6:	4601      	moveq	r1, r0
    24a8:	2000      	moveq	r0, #0
    24aa:	fab1 f381 	clz	r3, r1
    24ae:	bf08      	it	eq
    24b0:	3320      	addeq	r3, #32
    24b2:	f1a3 030b 	sub.w	r3, r3, #11
    24b6:	f1b3 0220 	subs.w	r2, r3, #32
    24ba:	da0c      	bge.n	24d6 <__adddf3+0x16e>
    24bc:	320c      	adds	r2, #12
    24be:	dd08      	ble.n	24d2 <__adddf3+0x16a>
    24c0:	f102 0c14 	add.w	r12, r2, #20
    24c4:	f1c2 020c 	rsb	r2, r2, #12
    24c8:	fa01 f00c 	lsl.w	r0, r1, r12
    24cc:	fa21 f102 	lsr.w	r1, r1, r2
    24d0:	e00c      	b.n	24ec <__adddf3+0x184>
    24d2:	f102 0214 	add.w	r2, r2, #20
    24d6:	bfd8      	it	le
    24d8:	f1c2 0c20 	rsble	r12, r2, #32
    24dc:	fa01 f102 	lsl.w	r1, r1, r2
    24e0:	fa20 fc0c 	lsr.w	r12, r0, r12
    24e4:	bfdc      	itt	le
    24e6:	ea41 010c 	orrle.w	r1, r1, r12
    24ea:	4090      	lslle	r0, r2
    24ec:	1ae4      	subs	r4, r4, r3
    24ee:	bfa2      	ittt	ge
    24f0:	eb01 5104 	addge.w	r1, r1, r4, lsl #20
    24f4:	4329      	orrge	r1, r5
    24f6:	bd30      	popge	{r4, r5, pc}
    24f8:	ea6f 0404 	mvn.w	r4, r4
    24fc:	3c1f      	subs	r4, #31
    24fe:	da1c      	bge.n	253a <__adddf3+0x1d2>
    2500:	340c      	adds	r4, #12
    2502:	dc0e      	bgt.n	2522 <__adddf3+0x1ba>
    2504:	f104 0414 	add.w	r4, r4, #20
    2508:	f1c4 0220 	rsb	r2, r4, #32
    250c:	fa20 f004 	lsr.w	r0, r0, r4
    2510:	fa01 f302 	lsl.w	r3, r1, r2
    2514:	ea40 0003 	orr.w	r0, r0, r3
    2518:	fa21 f304 	lsr.w	r3, r1, r4
    251c:	ea45 0103 	orr.w	r1, r5, r3
    2520:	bd30      	pop	{r4, r5, pc}
    2522:	f1c4 040c 	rsb	r4, r4, #12
    2526:	f1c4 0220 	rsb	r2, r4, #32
    252a:	fa20 f002 	lsr.w	r0, r0, r2
    252e:	fa01 f304 	lsl.w	r3, r1, r4
    2532:	ea40 0003 	orr.w	r0, r0, r3
    2536:	4629      	mov	r1, r5
    2538:	bd30      	pop	{r4, r5, pc}
    253a:	fa21 f004 	lsr.w	r0, r1, r4
    253e:	4629      	mov	r1, r5
    2540:	bd30      	pop	{r4, r5, pc}
    2542:	f094 0f00 	teq	r4, #0
    2546:	f483 1380 	eor.w	r3, r3, #1048576	; 0x100000
    254a:	bf06      	itte	eq
    254c:	f481 1180 	eoreq.w	r1, r1, #1048576	; 0x100000
    2550:	3401      	addeq	r4, #1
    2552:	3d01      	subne	r5, #1
    2554:	e74e      	b.n	23f4 <__adddf3+0x8c>
    2556:	ea7f 5c64 	mvns.w	r12, r4, asr #21
    255a:	bf18      	it	ne
    255c:	ea7f 5c65 	mvnsne.w	r12, r5, asr #21
    2560:	d029      	beq.n	25b6 <__adddf3+0x24e>
    2562:	ea94 0f05 	teq	r4, r5
    2566:	bf08      	it	eq
    2568:	ea90 0f02 	teqeq	r0, r2
    256c:	d005      	beq.n	257a <__adddf3+0x212>
    256e:	ea54 0c00 	orrs.w	r12, r4, r0
    2572:	bf04      	itt	eq
    2574:	4619      	moveq	r1, r3
    2576:	4610      	moveq	r0, r2
    2578:	bd30      	pop	{r4, r5, pc}
    257a:	ea91 0f03 	teq	r1, r3
    257e:	bf1e      	ittt	ne
    2580:	2100      	movne	r1, #0
    2582:	2000      	movne	r0, #0
    2584:	bd30      	popne	{r4, r5, pc}
    2586:	ea5f 5c54 	movs.w	r12, r4, lsr #21
    258a:	d105      	bne.n	2598 <__adddf3+0x230>
    258c:	0040      	lsls	r0, r0, #1
    258e:	4149      	adcs	r1, r1
    2590:	bf28      	it	cs
    2592:	f041 4100 	orrcs.w	r1, r1, #2147483648	; 0x80000000
    2596:	bd30      	pop	{r4, r5, pc}
    2598:	f514 0480 	adds.w	r4, r4, #4194304	; 0x400000
    259c:	bf3c      	itt	cc
    259e:	f501 1180 	addcc.w	r1, r1, #1048576	; 0x100000
    25a2:	bd30      	popcc	{r4, r5, pc}
    25a4:	f001 4500 	and.w	r5, r1, #2147483648	; 0x80000000
    25a8:	f045 41fe 	orr.w	r1, r5, #2130706432	; 0x7f000000
    25ac:	f441 0170 	orr.w	r1, r1, #15728640	; 0xf00000
    25b0:	f04f 0000 	mov.w	r0, #0
    25b4:	bd30      	pop	{r4, r5, pc}
    25b6:	ea7f 5c64 	mvns.w	r12, r4, asr #21
    25ba:	bf1a      	itte	ne
    25bc:	4619      	movne	r1, r3
    25be:	4610      	movne	r0, r2
    25c0:	ea7f 5c65 	mvnseq.w	r12, r5, asr #21
    25c4:	bf1c      	itt	ne
    25c6:	460b      	movne	r3, r1
    25c8:	4602      	movne	r2, r0
    25ca:	ea50 3401 	orrs.w	r4, r0, r1, lsl #12
    25ce:	bf06      	itte	eq
    25d0:	ea52 3503 	orrseq.w	r5, r2, r3, lsl #12
    25d4:	ea91 0f03 	teqeq	r1, r3
    25d8:	f441 2100 	orrne.w	r1, r1, #524288	; 0x80000
    25dc:	bd30      	pop	{r4, r5, pc}
    25de:	bf00      	nop

000025e0 <__aeabi_ui2d>:
    25e0:	f090 0f00 	teq	r0, #0
    25e4:	bf04      	itt	eq
    25e6:	2100      	moveq	r1, #0
    25e8:	4770      	bxeq	lr
    25ea:	b530      	push	{r4, r5, lr}
    25ec:	f44f 6480 	mov.w	r4, #1024	; 0x400
    25f0:	f104 0432 	add.w	r4, r4, #50	; 0x32
    25f4:	f04f 0500 	mov.w	r5, #0
    25f8:	f04f 0100 	mov.w	r1, #0
    25fc:	e750      	b.n	24a0 <__adddf3+0x138>
    25fe:	bf00      	nop

00002600 <__aeabi_i2d>:
    2600:	f090 0f00 	teq	r0, #0
    2604:	bf04      	itt	eq
    2606:	2100      	moveq	r1, #0
    2608:	4770      	bxeq	lr
    260a:	b530      	push	{r4, r5, lr}
    260c:	f44f 6480 	mov.w	r4, #1024	; 0x400
    2610:	f104 0432 	add.w	r4, r4, #50	; 0x32
    2614:	f010 4500 	ands.w	r5, r0, #2147483648	; 0x80000000
    2618:	bf48      	it	mi
    261a:	4240      	negmi	r0, r0
    261c:	f04f 0100 	mov.w	r1, #0
    2620:	e73e      	b.n	24a0 <__adddf3+0x138>
    2622:	bf00      	nop

00002624 <__aeabi_f2d>:
    2624:	0042      	lsls	r2, r0, #1
    2626:	ea4f 01e2 	mov.w	r1, r2, asr #3
    262a:	ea4f 0131 	mov.w	r1, r1, rrx
    262e:	ea4f 7002 	mov.w	r0, r2, lsl #28
    2632:	bf1f      	itttt	ne
    2634:	f012 437f 	andsne.w	r3, r2, #4278190080	; 0xff000000
    2638:	f093 4f7f 	teqne	r3, #4278190080	; 0xff000000
    263c:	f081 5160 	eorne.w	r1, r1, #939524096	; 0x38000000
    2640:	4770      	bxne	lr
    2642:	f092 0f00 	teq	r2, #0
    2646:	bf14      	ite	ne
    2648:	f093 4f7f 	teqne	r3, #4278190080	; 0xff000000
    264c:	4770      	bxeq	lr
    264e:	b530      	push	{r4, r5, lr}
    2650:	f44f 7460 	mov.w	r4, #896	; 0x380
    2654:	f001 4500 	and.w	r5, r1, #2147483648	; 0x80000000
    2658:	f021 4100 	bic.w	r1, r1, #2147483648	; 0x80000000
    265c:	e720      	b.n	24a0 <__adddf3+0x138>
    265e:	bf00      	nop

00002660 <__aeabi_ul2d>:
    2660:	ea50 0201 	orrs.w	r2, r0, r1
    2664:	bf08      	it	eq
    2666:	4770      	bxeq	lr
    2668:	b530      	push	{r4, r5, lr}
    266a:	f04f 0500 	mov.w	r5, #0
    266e:	e00a      	b.n	2686 <__aeabi_l2d+0x16>

00002670 <__aeabi_l2d>:
    2670:	ea50 0201 	orrs.w	r2, r0, r1
    2674:	bf08      	it	eq
    2676:	4770      	bxeq	lr
    2678:	b530      	push	{r4, r5, lr}
    267a:	f011 4500 	ands.w	r5, r1, #2147483648	; 0x80000000
    267e:	d502      	bpl.n	2686 <__aeabi_l2d+0x16>
    2680:	4240      	negs	r0, r0
    2682:	eb61 0141 	sbc.w	r1, r1, r1, lsl #1
    2686:	f44f 6480 	mov.w	r4, #1024	; 0x400
    268a:	f104 0432 	add.w	r4, r4, #50	; 0x32
    268e:	ea5f 5c91 	movs.w	r12, r1, lsr #22
    2692:	f43f aedc 	beq.w	244e <__adddf3+0xe6>
    2696:	f04f 0203 	mov.w	r2, #3
    269a:	ea5f 0cdc 	movs.w	r12, r12, lsr #3
    269e:	bf18      	it	ne
    26a0:	3203      	addne	r2, #3
    26a2:	ea5f 0cdc 	movs.w	r12, r12, lsr #3
    26a6:	bf18      	it	ne
    26a8:	3203      	addne	r2, #3
    26aa:	eb02 02dc 	add.w	r2, r2, r12, lsr #3
    26ae:	f1c2 0320 	rsb	r3, r2, #32
    26b2:	fa00 fc03 	lsl.w	r12, r0, r3
    26b6:	fa20 f002 	lsr.w	r0, r0, r2
    26ba:	fa01 fe03 	lsl.w	lr, r1, r3
    26be:	ea40 000e 	orr.w	r0, r0, lr
    26c2:	fa21 f102 	lsr.w	r1, r1, r2
    26c6:	4414      	add	r4, r2
    26c8:	e6c1      	b.n	244e <__adddf3+0xe6>
    26ca:	bf00      	nop

000026cc <__aeabi_dmul>:
    26cc:	b570      	push	{r4, r5, r6, lr}
    26ce:	f04f 0cff 	mov.w	r12, #255	; 0xff
    26d2:	f44c 6ce0 	orr.w	r12, r12, #1792	; 0x700
    26d6:	ea1c 5411 	ands.w	r4, r12, r1, lsr #20
    26da:	bf1d      	ittte	ne
    26dc:	ea1c 5513 	andsne.w	r5, r12, r3, lsr #20
    26e0:	ea94 0f0c 	teqne	r4, r12
    26e4:	ea95 0f0c 	teqne	r5, r12
    26e8:	f000 f8de 	bleq	28a8 <__aeabi_dmul+0x1dc>
    26ec:	442c      	add	r4, r5
    26ee:	ea81 0603 	eor.w	r6, r1, r3
    26f2:	ea21 514c 	bic.w	r1, r1, r12, lsl #21
    26f6:	ea23 534c 	bic.w	r3, r3, r12, lsl #21
    26fa:	ea50 3501 	orrs.w	r5, r0, r1, lsl #12
    26fe:	bf18      	it	ne
    2700:	ea52 3503 	orrsne.w	r5, r2, r3, lsl #12
    2704:	f441 1180 	orr.w	r1, r1, #1048576	; 0x100000
    2708:	f443 1380 	orr.w	r3, r3, #1048576	; 0x100000
    270c:	d038      	beq.n	2780 <__aeabi_dmul+0xb4>
    270e:	fba0 ce02 	umull	r12, lr, r0, r2
    2712:	f04f 0500 	mov.w	r5, #0
    2716:	fbe1 e502 	umlal	lr, r5, r1, r2
    271a:	f006 4200 	and.w	r2, r6, #2147483648	; 0x80000000
    271e:	fbe0 e503 	umlal	lr, r5, r0, r3
    2722:	f04f 0600 	mov.w	r6, #0
    2726:	fbe1 5603 	umlal	r5, r6, r1, r3
    272a:	f09c 0f00 	teq	r12, #0
    272e:	bf18      	it	ne
    2730:	f04e 0e01 	orrne.w	lr, lr, #1
    2734:	f1a4 04ff 	sub.w	r4, r4, #255	; 0xff
    2738:	f5b6 7f00 	cmp.w	r6, #512	; 0x200
    273c:	f564 7440 	sbc.w	r4, r4, #768	; 0x300
    2740:	d204      	bcs.n	274c <__aeabi_dmul+0x80>
    2742:	ea5f 0e4e 	movs.w	lr, lr, lsl #1
    2746:	416d      	adcs	r5, r5
    2748:	eb46 0606 	adc.w	r6, r6, r6
    274c:	ea42 21c6 	orr.w	r1, r2, r6, lsl #11
    2750:	ea41 5155 	orr.w	r1, r1, r5, lsr #21
    2754:	ea4f 20c5 	mov.w	r0, r5, lsl #11
    2758:	ea40 505e 	orr.w	r0, r0, lr, lsr #21
    275c:	ea4f 2ece 	mov.w	lr, lr, lsl #11
    2760:	f1b4 0cfd 	subs.w	r12, r4, #253	; 0xfd
    2764:	bf88      	it	hi
    2766:	f5bc 6fe0 	cmphi.w	r12, #1792	; 0x700
    276a:	d81e      	bhi.n	27aa <__aeabi_dmul+0xde>
    276c:	f1be 4f00 	cmp.w	lr, #2147483648	; 0x80000000
    2770:	bf08      	it	eq
    2772:	ea5f 0e50 	movseq.w	lr, r0, lsr #1
    2776:	f150 0000 	adcs.w	r0, r0, #0
    277a:	eb41 5104 	adc.w	r1, r1, r4, lsl #20
    277e:	bd70      	pop	{r4, r5, r6, pc}
    2780:	f006 4600 	and.w	r6, r6, #2147483648	; 0x80000000
    2784:	ea46 0101 	orr.w	r1, r6, r1
    2788:	ea40 0002 	orr.w	r0, r0, r2
    278c:	ea81 0103 	eor.w	r1, r1, r3
    2790:	ebb4 045c 	subs.w	r4, r4, r12, lsr #1
    2794:	bfc2      	ittt	gt
    2796:	ebd4 050c 	rsbsgt	r5, r4, r12
    279a:	ea41 5104 	orrgt.w	r1, r1, r4, lsl #20
    279e:	bd70      	popgt	{r4, r5, r6, pc}
    27a0:	f441 1180 	orr.w	r1, r1, #1048576	; 0x100000
    27a4:	f04f 0e00 	mov.w	lr, #0
    27a8:	3c01      	subs	r4, #1
    27aa:	f300 80ab 	bgt.w	2904 <__aeabi_dmul+0x238>
    27ae:	f114 0f36 	cmn.w	r4, #54	; 0x36
    27b2:	bfde      	ittt	le
    27b4:	2000      	movle	r0, #0
    27b6:	f001 4100 	andle.w	r1, r1, #2147483648	; 0x80000000
    27ba:	bd70      	pople	{r4, r5, r6, pc}
    27bc:	f1c4 0400 	rsb	r4, r4, #0
    27c0:	3c20      	subs	r4, #32
    27c2:	da35      	bge.n	2830 <__aeabi_dmul+0x164>
    27c4:	340c      	adds	r4, #12
    27c6:	dc1b      	bgt.n	2800 <__aeabi_dmul+0x134>
    27c8:	f104 0414 	add.w	r4, r4, #20
    27cc:	f1c4 0520 	rsb	r5, r4, #32
    27d0:	fa00 f305 	lsl.w	r3, r0, r5
    27d4:	fa20 f004 	lsr.w	r0, r0, r4
    27d8:	fa01 f205 	lsl.w	r2, r1, r5
    27dc:	ea40 0002 	orr.w	r0, r0, r2
    27e0:	f001 4200 	and.w	r2, r1, #2147483648	; 0x80000000
    27e4:	f021 4100 	bic.w	r1, r1, #2147483648	; 0x80000000
    27e8:	eb10 70d3 	adds.w	r0, r0, r3, lsr #31
    27ec:	fa21 f604 	lsr.w	r6, r1, r4
    27f0:	eb42 0106 	adc.w	r1, r2, r6
    27f4:	ea5e 0e43 	orrs.w	lr, lr, r3, lsl #1
    27f8:	bf08      	it	eq
    27fa:	ea20 70d3 	biceq.w	r0, r0, r3, lsr #31
    27fe:	bd70      	pop	{r4, r5, r6, pc}
    2800:	f1c4 040c 	rsb	r4, r4, #12
    2804:	f1c4 0520 	rsb	r5, r4, #32
    2808:	fa00 f304 	lsl.w	r3, r0, r4
    280c:	fa20 f005 	lsr.w	r0, r0, r5
    2810:	fa01 f204 	lsl.w	r2, r1, r4
    2814:	ea40 0002 	orr.w	r0, r0, r2
    2818:	f001 4100 	and.w	r1, r1, #2147483648	; 0x80000000
    281c:	eb10 70d3 	adds.w	r0, r0, r3, lsr #31
    2820:	f141 0100 	adc.w	r1, r1, #0
    2824:	ea5e 0e43 	orrs.w	lr, lr, r3, lsl #1
    2828:	bf08      	it	eq
    282a:	ea20 70d3 	biceq.w	r0, r0, r3, lsr #31
    282e:	bd70      	pop	{r4, r5, r6, pc}
    2830:	f1c4 0520 	rsb	r5, r4, #32
    2834:	fa00 f205 	lsl.w	r2, r0, r5
    2838:	ea4e 0e02 	orr.w	lr, lr, r2
    283c:	fa20 f304 	lsr.w	r3, r0, r4
    2840:	fa01 f205 	lsl.w	r2, r1, r5
    2844:	ea43 0302 	orr.w	r3, r3, r2
    2848:	fa21 f004 	lsr.w	r0, r1, r4
    284c:	f001 4100 	and.w	r1, r1, #2147483648	; 0x80000000
    2850:	fa21 f204 	lsr.w	r2, r1, r4
    2854:	ea20 0002 	bic.w	r0, r0, r2
    2858:	eb00 70d3 	add.w	r0, r0, r3, lsr #31
    285c:	ea5e 0e43 	orrs.w	lr, lr, r3, lsl #1
    2860:	bf08      	it	eq
    2862:	ea20 70d3 	biceq.w	r0, r0, r3, lsr #31
    2866:	bd70      	pop	{r4, r5, r6, pc}
    2868:	f094 0f00 	teq	r4, #0
    286c:	d10f      	bne.n	288e <__aeabi_dmul+0x1c2>
    286e:	f001 4600 	and.w	r6, r1, #2147483648	; 0x80000000
    2872:	0040      	lsls	r0, r0, #1
    2874:	eb41 0101 	adc.w	r1, r1, r1
    2878:	f411 1f80 	tst.w	r1, #1048576	; 0x100000
    287c:	bf08      	it	eq
    287e:	3c01      	subeq	r4, #1
    2880:	d0f7      	beq.n	2872 <__aeabi_dmul+0x1a6>
    2882:	ea41 0106 	orr.w	r1, r1, r6
    2886:	f095 0f00 	teq	r5, #0
    288a:	bf18      	it	ne
    288c:	4770      	bxne	lr
    288e:	f003 4600 	and.w	r6, r3, #2147483648	; 0x80000000
    2892:	0052      	lsls	r2, r2, #1
    2894:	eb43 0303 	adc.w	r3, r3, r3
    2898:	f413 1f80 	tst.w	r3, #1048576	; 0x100000
    289c:	bf08      	it	eq
    289e:	3d01      	subeq	r5, #1
    28a0:	d0f7      	beq.n	2892 <__aeabi_dmul+0x1c6>
    28a2:	ea43 0306 	orr.w	r3, r3, r6
    28a6:	4770      	bx	lr
    28a8:	ea94 0f0c 	teq	r4, r12
    28ac:	ea0c 5513 	and.w	r5, r12, r3, lsr #20
    28b0:	bf18      	it	ne
    28b2:	ea95 0f0c 	teqne	r5, r12
    28b6:	d00c      	beq.n	28d2 <__aeabi_dmul+0x206>
    28b8:	ea50 0641 	orrs.w	r6, r0, r1, lsl #1
    28bc:	bf18      	it	ne
    28be:	ea52 0643 	orrsne.w	r6, r2, r3, lsl #1
    28c2:	d1d1      	bne.n	2868 <__aeabi_dmul+0x19c>
    28c4:	ea81 0103 	eor.w	r1, r1, r3
    28c8:	f001 4100 	and.w	r1, r1, #2147483648	; 0x80000000
    28cc:	f04f 0000 	mov.w	r0, #0
    28d0:	bd70      	pop	{r4, r5, r6, pc}
    28d2:	ea50 0641 	orrs.w	r6, r0, r1, lsl #1
    28d6:	bf06      	itte	eq
    28d8:	4610      	moveq	r0, r2
    28da:	4619      	moveq	r1, r3
    28dc:	ea52 0643 	orrsne.w	r6, r2, r3, lsl #1
    28e0:	d019      	beq.n	2916 <__aeabi_dmul+0x24a>
    28e2:	ea94 0f0c 	teq	r4, r12
    28e6:	d102      	bne.n	28ee <__aeabi_dmul+0x222>
    28e8:	ea50 3601 	orrs.w	r6, r0, r1, lsl #12
    28ec:	d113      	bne.n	2916 <__aeabi_dmul+0x24a>
    28ee:	ea95 0f0c 	teq	r5, r12
    28f2:	d105      	bne.n	2900 <__aeabi_dmul+0x234>
    28f4:	ea52 3603 	orrs.w	r6, r2, r3, lsl #12
    28f8:	bf1c      	itt	ne
    28fa:	4610      	movne	r0, r2
    28fc:	4619      	movne	r1, r3
    28fe:	d10a      	bne.n	2916 <__aeabi_dmul+0x24a>
    2900:	ea81 0103 	eor.w	r1, r1, r3
    2904:	f001 4100 	and.w	r1, r1, #2147483648	; 0x80000000
    2908:	f041 41fe 	orr.w	r1, r1, #2130706432	; 0x7f000000
    290c:	f441 0170 	orr.w	r1, r1, #15728640	; 0xf00000
    2910:	f04f 0000 	mov.w	r0, #0
    2914:	bd70      	pop	{r4, r5, r6, pc}
    2916:	f041 41fe 	orr.w	r1, r1, #2130706432	; 0x7f000000
    291a:	f441 0178 	orr.w	r1, r1, #16252928	; 0xf80000
    291e:	bd70      	pop	{r4, r5, r6, pc}

00002920 <__aeabi_ddiv>:
    2920:	b570      	push	{r4, r5, r6, lr}
    2922:	f04f 0cff 	mov.w	r12, #255	; 0xff
    2926:	f44c 6ce0 	orr.w	r12, r12, #1792	; 0x700
    292a:	ea1c 5411 	ands.w	r4, r12, r1, lsr #20
    292e:	bf1d      	ittte	ne
    2930:	ea1c 5513 	andsne.w	r5, r12, r3, lsr #20
    2934:	ea94 0f0c 	teqne	r4, r12
    2938:	ea95 0f0c 	teqne	r5, r12
    293c:	f000 f8a7 	bleq	2a8e <__aeabi_ddiv+0x16e>
    2940:	eba4 0405 	sub.w	r4, r4, r5
    2944:	ea81 0e03 	eor.w	lr, r1, r3
    2948:	ea52 3503 	orrs.w	r5, r2, r3, lsl #12
    294c:	ea4f 3101 	mov.w	r1, r1, lsl #12
    2950:	f000 8088 	beq.w	2a64 <__aeabi_ddiv+0x144>
    2954:	ea4f 3303 	mov.w	r3, r3, lsl #12
    2958:	f04f 5580 	mov.w	r5, #268435456	; 0x10000000
    295c:	ea45 1313 	orr.w	r3, r5, r3, lsr #4
    2960:	ea43 6312 	orr.w	r3, r3, r2, lsr #24
    2964:	ea4f 2202 	mov.w	r2, r2, lsl #8
    2968:	ea45 1511 	orr.w	r5, r5, r1, lsr #4
    296c:	ea45 6510 	orr.w	r5, r5, r0, lsr #24
    2970:	ea4f 2600 	mov.w	r6, r0, lsl #8
    2974:	f00e 4100 	and.w	r1, lr, #2147483648	; 0x80000000
    2978:	429d      	cmp	r5, r3
    297a:	bf08      	it	eq
    297c:	4296      	cmpeq	r6, r2
    297e:	f144 04fd 	adc.w	r4, r4, #253	; 0xfd
    2982:	f504 7440 	add.w	r4, r4, #768	; 0x300
    2986:	d202      	bcs.n	298e <__aeabi_ddiv+0x6e>
    2988:	085b      	lsrs	r3, r3, #1
    298a:	ea4f 0232 	mov.w	r2, r2, rrx
    298e:	1ab6      	subs	r6, r6, r2
    2990:	eb65 0503 	sbc.w	r5, r5, r3
    2994:	085b      	lsrs	r3, r3, #1
    2996:	ea4f 0232 	mov.w	r2, r2, rrx
    299a:	f44f 1080 	mov.w	r0, #1048576	; 0x100000
    299e:	f44f 2c00 	mov.w	r12, #524288	; 0x80000
    29a2:	ebb6 0e02 	subs.w	lr, r6, r2
    29a6:	eb75 0e03 	sbcs.w	lr, r5, r3
    29aa:	bf22      	ittt	cs
    29ac:	1ab6      	subcs	r6, r6, r2
    29ae:	4675      	movcs	r5, lr
    29b0:	ea40 000c 	orrcs.w	r0, r0, r12
    29b4:	085b      	lsrs	r3, r3, #1
    29b6:	ea4f 0232 	mov.w	r2, r2, rrx
    29ba:	ebb6 0e02 	subs.w	lr, r6, r2
    29be:	eb75 0e03 	sbcs.w	lr, r5, r3
    29c2:	bf22      	ittt	cs
    29c4:	1ab6      	subcs	r6, r6, r2
    29c6:	4675      	movcs	r5, lr
    29c8:	ea40 005c 	orrcs.w	r0, r0, r12, lsr #1
    29cc:	085b      	lsrs	r3, r3, #1
    29ce:	ea4f 0232 	mov.w	r2, r2, rrx
    29d2:	ebb6 0e02 	subs.w	lr, r6, r2
    29d6:	eb75 0e03 	sbcs.w	lr, r5, r3
    29da:	bf22      	ittt	cs
    29dc:	1ab6      	subcs	r6, r6, r2
    29de:	4675      	movcs	r5, lr
    29e0:	ea40 009c 	orrcs.w	r0, r0, r12, lsr #2
    29e4:	085b      	lsrs	r3, r3, #1
    29e6:	ea4f 0232 	mov.w	r2, r2, rrx
    29ea:	ebb6 0e02 	subs.w	lr, r6, r2
    29ee:	eb75 0e03 	sbcs.w	lr, r5, r3
    29f2:	bf22      	ittt	cs
    29f4:	1ab6      	subcs	r6, r6, r2
    29f6:	4675      	movcs	r5, lr
    29f8:	ea40 00dc 	orrcs.w	r0, r0, r12, lsr #3
    29fc:	ea55 0e06 	orrs.w	lr, r5, r6
    2a00:	d018      	beq.n	2a34 <__aeabi_ddiv+0x114>
    2a02:	ea4f 1505 	mov.w	r5, r5, lsl #4
    2a06:	ea45 7516 	orr.w	r5, r5, r6, lsr #28
    2a0a:	ea4f 1606 	mov.w	r6, r6, lsl #4
    2a0e:	ea4f 03c3 	mov.w	r3, r3, lsl #3
    2a12:	ea43 7352 	orr.w	r3, r3, r2, lsr #29
    2a16:	ea4f 02c2 	mov.w	r2, r2, lsl #3
    2a1a:	ea5f 1c1c 	movs.w	r12, r12, lsr #4
    2a1e:	d1c0      	bne.n	29a2 <__aeabi_ddiv+0x82>
    2a20:	f411 1f80 	tst.w	r1, #1048576	; 0x100000
    2a24:	d10b      	bne.n	2a3e <__aeabi_ddiv+0x11e>
    2a26:	ea41 0100 	orr.w	r1, r1, r0
    2a2a:	f04f 0000 	mov.w	r0, #0
    2a2e:	f04f 4c00 	mov.w	r12, #2147483648	; 0x80000000
    2a32:	e7b6      	b.n	29a2 <__aeabi_ddiv+0x82>
    2a34:	f411 1f80 	tst.w	r1, #1048576	; 0x100000
    2a38:	bf04      	itt	eq
    2a3a:	4301      	orreq	r1, r0
    2a3c:	2000      	moveq	r0, #0
    2a3e:	f1b4 0cfd 	subs.w	r12, r4, #253	; 0xfd
    2a42:	bf88      	it	hi
    2a44:	f5bc 6fe0 	cmphi.w	r12, #1792	; 0x700
    2a48:	f63f aeaf 	bhi.w	27aa <__aeabi_dmul+0xde>
    2a4c:	ebb5 0c03 	subs.w	r12, r5, r3
    2a50:	bf04      	itt	eq
    2a52:	ebb6 0c02 	subseq.w	r12, r6, r2
    2a56:	ea5f 0c50 	movseq.w	r12, r0, lsr #1
    2a5a:	f150 0000 	adcs.w	r0, r0, #0
    2a5e:	eb41 5104 	adc.w	r1, r1, r4, lsl #20
    2a62:	bd70      	pop	{r4, r5, r6, pc}
    2a64:	f00e 4e00 	and.w	lr, lr, #2147483648	; 0x80000000
    2a68:	ea4e 3111 	orr.w	r1, lr, r1, lsr #12
    2a6c:	eb14 045c 	adds.w	r4, r4, r12, lsr #1
    2a70:	bfc2      	ittt	gt
    2a72:	ebd4 050c 	rsbsgt	r5, r4, r12
    2a76:	ea41 5104 	orrgt.w	r1, r1, r4, lsl #20
    2a7a:	bd70      	popgt	{r4, r5, r6, pc}
    2a7c:	f441 1180 	orr.w	r1, r1, #1048576	; 0x100000
    2a80:	f04f 0e00 	mov.w	lr, #0
    2a84:	3c01      	subs	r4, #1
    2a86:	e690      	b.n	27aa <__aeabi_dmul+0xde>
    2a88:	ea45 0e06 	orr.w	lr, r5, r6
    2a8c:	e68d      	b.n	27aa <__aeabi_dmul+0xde>
    2a8e:	ea0c 5513 	and.w	r5, r12, r3, lsr #20
    2a92:	ea94 0f0c 	teq	r4, r12
    2a96:	bf08      	it	eq
    2a98:	ea95 0f0c 	teqeq	r5, r12
    2a9c:	f43f af3b 	beq.w	2916 <__aeabi_dmul+0x24a>
    2aa0:	ea94 0f0c 	teq	r4, r12
    2aa4:	d10a      	bne.n	2abc <__aeabi_ddiv+0x19c>
    2aa6:	ea50 3401 	orrs.w	r4, r0, r1, lsl #12
    2aaa:	f47f af34 	bne.w	2916 <__aeabi_dmul+0x24a>
    2aae:	ea95 0f0c 	teq	r5, r12
    2ab2:	f47f af25 	bne.w	2900 <__aeabi_dmul+0x234>
    2ab6:	4610      	mov	r0, r2
    2ab8:	4619      	mov	r1, r3
    2aba:	e72c      	b.n	2916 <__aeabi_dmul+0x24a>
    2abc:	ea95 0f0c 	teq	r5, r12
    2ac0:	d106      	bne.n	2ad0 <__aeabi_ddiv+0x1b0>
    2ac2:	ea52 3503 	orrs.w	r5, r2, r3, lsl #12
    2ac6:	f43f aefd 	beq.w	28c4 <__aeabi_dmul+0x1f8>
    2aca:	4610      	mov	r0, r2
    2acc:	4619      	mov	r1, r3
    2ace:	e722      	b.n	2916 <__aeabi_dmul+0x24a>
    2ad0:	ea50 0641 	orrs.w	r6, r0, r1, lsl #1
    2ad4:	bf18      	it	ne
    2ad6:	ea52 0643 	orrsne.w	r6, r2, r3, lsl #1
    2ada:	f47f aec5 	bne.w	2868 <__aeabi_dmul+0x19c>
    2ade:	ea50 0441 	orrs.w	r4, r0, r1, lsl #1
    2ae2:	f47f af0d 	bne.w	2900 <__aeabi_dmul+0x234>
    2ae6:	ea52 0543 	orrs.w	r5, r2, r3, lsl #1
    2aea:	f47f aeeb 	bne.w	28c4 <__aeabi_dmul+0x1f8>
    2aee:	e712      	b.n	2916 <__aeabi_dmul+0x24a>

00002af0 <__gedf2>:
    2af0:	f04f 3cff 	mov.w	r12, #4294967295
    2af4:	e006      	b.n	2b04 <__cmpdf2+0x4>
    2af6:	bf00      	nop

00002af8 <__ledf2>:
    2af8:	f04f 0c01 	mov.w	r12, #1
    2afc:	e002      	b.n	2b04 <__cmpdf2+0x4>
    2afe:	bf00      	nop

00002b00 <__cmpdf2>:
    2b00:	f04f 0c01 	mov.w	r12, #1
    2b04:	f84d cd04 	str.w	r12, [sp, #-4]!
    2b08:	ea4f 0c41 	mov.w	r12, r1, lsl #1
    2b0c:	ea7f 5c6c 	mvns.w	r12, r12, asr #21
    2b10:	ea4f 0c43 	mov.w	r12, r3, lsl #1
    2b14:	bf18      	it	ne
    2b16:	ea7f 5c6c 	mvnsne.w	r12, r12, asr #21
    2b1a:	d01b      	beq.n	2b54 <__cmpdf2+0x54>
    2b1c:	b001      	add	sp, #4
    2b1e:	ea50 0c41 	orrs.w	r12, r0, r1, lsl #1
    2b22:	bf0c      	ite	eq
    2b24:	ea52 0c43 	orrseq.w	r12, r2, r3, lsl #1
    2b28:	ea91 0f03 	teqne	r1, r3
    2b2c:	bf02      	ittt	eq
    2b2e:	ea90 0f02 	teqeq	r0, r2
    2b32:	2000      	moveq	r0, #0
    2b34:	4770      	bxeq	lr
    2b36:	f110 0f00 	cmn.w	r0, #0
    2b3a:	ea91 0f03 	teq	r1, r3
    2b3e:	bf58      	it	pl
    2b40:	4299      	cmppl	r1, r3
    2b42:	bf08      	it	eq
    2b44:	4290      	cmpeq	r0, r2
    2b46:	bf2c      	ite	cs
    2b48:	17d8      	asrcs	r0, r3, #31
    2b4a:	ea6f 70e3 	mvncc.w	r0, r3, asr #31
    2b4e:	f040 0001 	orr.w	r0, r0, #1
    2b52:	4770      	bx	lr
    2b54:	ea4f 0c41 	mov.w	r12, r1, lsl #1
    2b58:	ea7f 5c6c 	mvns.w	r12, r12, asr #21
    2b5c:	d102      	bne.n	2b64 <__cmpdf2+0x64>
    2b5e:	ea50 3c01 	orrs.w	r12, r0, r1, lsl #12
    2b62:	d107      	bne.n	2b74 <__cmpdf2+0x74>
    2b64:	ea4f 0c43 	mov.w	r12, r3, lsl #1
    2b68:	ea7f 5c6c 	mvns.w	r12, r12, asr #21
    2b6c:	d1d6      	bne.n	2b1c <__cmpdf2+0x1c>
    2b6e:	ea52 3c03 	orrs.w	r12, r2, r3, lsl #12
    2b72:	d0d3      	beq.n	2b1c <__cmpdf2+0x1c>
    2b74:	f85d 0b04 	ldr.w	r0, [sp], #4
    2b78:	4770      	bx	lr
    2b7a:	bf00      	nop

00002b7c <__aeabi_cdrcmple>:
    2b7c:	4684      	mov	r12, r0
    2b7e:	4610      	mov	r0, r2
    2b80:	4662      	mov	r2, r12
    2b82:	468c      	mov	r12, r1
    2b84:	4619      	mov	r1, r3
    2b86:	4663      	mov	r3, r12
    2b88:	e000      	b.n	2b8c <__aeabi_cdcmpeq>
    2b8a:	bf00      	nop

00002b8c <__aeabi_cdcmpeq>:
    2b8c:	b501      	push	{r0, lr}
    2b8e:	f7ff ffb7 	bl	2b00 <__cmpdf2>
    2b92:	2800      	cmp	r0, #0
    2b94:	bf48      	it	mi
    2b96:	f110 0f00 	cmnmi.w	r0, #0
    2b9a:	bd01      	pop	{r0, pc}

00002b9c <__aeabi_dcmpeq>:
    2b9c:	f84d ed08 	str.w	lr, [sp, #-8]!
    2ba0:	f7ff fff4 	bl	2b8c <__aeabi_cdcmpeq>
    2ba4:	bf0c      	ite	eq
    2ba6:	2001      	moveq	r0, #1
    2ba8:	2000      	movne	r0, #0
    2baa:	f85d fb08 	ldr.w	pc, [sp], #8
    2bae:	bf00      	nop

00002bb0 <__aeabi_dcmplt>:
    2bb0:	f84d ed08 	str.w	lr, [sp, #-8]!
    2bb4:	f7ff ffea 	bl	2b8c <__aeabi_cdcmpeq>
    2bb8:	bf34      	ite	cc
    2bba:	2001      	movcc	r0, #1
    2bbc:	2000      	movcs	r0, #0
    2bbe:	f85d fb08 	ldr.w	pc, [sp], #8
    2bc2:	bf00      	nop

00002bc4 <__aeabi_dcmple>:
    2bc4:	f84d ed08 	str.w	lr, [sp, #-8]!
    2bc8:	f7ff ffe0 	bl	2b8c <__aeabi_cdcmpeq>
    2bcc:	bf94      	ite	ls
    2bce:	2001      	movls	r0, #1
    2bd0:	2000      	movhi	r0, #0
    2bd2:	f85d fb08 	ldr.w	pc, [sp], #8
    2bd6:	bf00      	nop

00002bd8 <__aeabi_dcmpge>:
    2bd8:	f84d ed08 	str.w	lr, [sp, #-8]!
    2bdc:	f7ff ffce 	bl	2b7c <__aeabi_cdrcmple>
    2be0:	bf94      	ite	ls
    2be2:	2001      	movls	r0, #1
    2be4:	2000      	movhi	r0, #0
    2be6:	f85d fb08 	ldr.w	pc, [sp], #8
    2bea:	bf00      	nop

00002bec <__aeabi_dcmpgt>:
    2bec:	f84d ed08 	str.w	lr, [sp, #-8]!
    2bf0:	f7ff ffc4 	bl	2b7c <__aeabi_cdrcmple>
    2bf4:	bf34      	ite	cc
    2bf6:	2001      	movcc	r0, #1
    2bf8:	2000      	movcs	r0, #0
    2bfa:	f85d fb08 	ldr.w	pc, [sp], #8
    2bfe:	bf00      	nop

00002c00 <__aeabi_d2iz>:
    2c00:	ea4f 0241 	mov.w	r2, r1, lsl #1
    2c04:	f512 1200 	adds.w	r2, r2, #2097152	; 0x200000
    2c08:	d215      	bcs.n	2c36 <__aeabi_d2iz+0x36>
    2c0a:	d511      	bpl.n	2c30 <__aeabi_d2iz+0x30>
    2c0c:	f46f 7378 	mvn.w	r3, #992	; 0x3e0
    2c10:	ebb3 5262 	subs.w	r2, r3, r2, asr #21
    2c14:	d912      	bls.n	2c3c <__aeabi_d2iz+0x3c>
    2c16:	ea4f 23c1 	mov.w	r3, r1, lsl #11
    2c1a:	f043 4300 	orr.w	r3, r3, #2147483648	; 0x80000000
    2c1e:	ea43 5350 	orr.w	r3, r3, r0, lsr #21
    2c22:	f011 4f00 	tst.w	r1, #2147483648	; 0x80000000
    2c26:	fa23 f002 	lsr.w	r0, r3, r2
    2c2a:	bf18      	it	ne
    2c2c:	4240      	negne	r0, r0
    2c2e:	4770      	bx	lr
    2c30:	f04f 0000 	mov.w	r0, #0
    2c34:	4770      	bx	lr
    2c36:	ea50 3001 	orrs.w	r0, r0, r1, lsl #12
    2c3a:	d105      	bne.n	2c48 <__aeabi_d2iz+0x48>
    2c3c:	f011 4000 	ands.w	r0, r1, #2147483648	; 0x80000000
    2c40:	bf08      	it	eq
    2c42:	f06f 4000 	mvneq.w	r0, #2147483648	; 0x80000000
    2c46:	4770      	bx	lr
    2c48:	f04f 0000 	mov.w	r0, #0
    2c4c:	4770      	bx	lr
    2c4e:	bf00      	nop

00002c50 <__aeabi_d2f>:
    2c50:	ea4f 0241 	mov.w	r2, r1, lsl #1
    2c54:	f1b2 43e0 	subs.w	r3, r2, #1879048192	; 0x70000000
    2c58:	bf24      	itt	cs
    2c5a:	f5b3 1c00 	subscs.w	r12, r3, #2097152	; 0x200000
    2c5e:	f1dc 5cfe 	rsbscs	r12, r12, #532676608	; 0x1fc00000
    2c62:	d90d      	bls.n	2c80 <__aeabi_d2f+0x30>
    2c64:	f001 4c00 	and.w	r12, r1, #2147483648	; 0x80000000
    2c68:	ea4f 02c0 	mov.w	r2, r0, lsl #3
    2c6c:	ea4c 7050 	orr.w	r0, r12, r0, lsr #29
    2c70:	f1b2 4f00 	cmp.w	r2, #2147483648	; 0x80000000
    2c74:	eb40 0083 	adc.w	r0, r0, r3, lsl #2
    2c78:	bf08      	it	eq
    2c7a:	f020 0001 	biceq.w	r0, r0, #1
    2c7e:	4770      	bx	lr
    2c80:	f011 4f80 	tst.w	r1, #1073741824	; 0x40000000
    2c84:	d121      	bne.n	2cca <__aeabi_d2f+0x7a>
    2c86:	f113 7238 	adds.w	r2, r3, #48234496	; 0x2e00000
    2c8a:	bfbc      	itt	lt
    2c8c:	f001 4000 	andlt.w	r0, r1, #2147483648	; 0x80000000
    2c90:	4770      	bxlt	lr
    2c92:	f441 1180 	orr.w	r1, r1, #1048576	; 0x100000
    2c96:	ea4f 5252 	mov.w	r2, r2, lsr #21
    2c9a:	f1c2 0218 	rsb	r2, r2, #24
    2c9e:	f1c2 0c20 	rsb	r12, r2, #32
    2ca2:	fa10 f30c 	lsls.w	r3, r0, r12
    2ca6:	fa20 f002 	lsr.w	r0, r0, r2
    2caa:	bf18      	it	ne
    2cac:	f040 0001 	orrne.w	r0, r0, #1
    2cb0:	ea4f 23c1 	mov.w	r3, r1, lsl #11
    2cb4:	ea4f 23d3 	mov.w	r3, r3, lsr #11
    2cb8:	fa03 fc0c 	lsl.w	r12, r3, r12
    2cbc:	ea40 000c 	orr.w	r0, r0, r12
    2cc0:	fa23 f302 	lsr.w	r3, r3, r2
    2cc4:	ea4f 0343 	mov.w	r3, r3, lsl #1
    2cc8:	e7cc      	b.n	2c64 <__aeabi_d2f+0x14>
    2cca:	ea7f 5362 	mvns.w	r3, r2, asr #21
    2cce:	d107      	bne.n	2ce0 <__aeabi_d2f+0x90>
    2cd0:	ea50 3301 	orrs.w	r3, r0, r1, lsl #12
    2cd4:	bf1e      	ittt	ne
    2cd6:	f04f 40fe 	movne.w	r0, #2130706432	; 0x7f000000
    2cda:	f440 0040 	orrne.w	r0, r0, #12582912	; 0xc00000
    2cde:	4770      	bxne	lr
    2ce0:	f001 4000 	and.w	r0, r1, #2147483648	; 0x80000000
    2ce4:	f040 40fe 	orr.w	r0, r0, #2130706432	; 0x7f000000
    2ce8:	f440 0000 	orr.w	r0, r0, #8388608	; 0x800000
    2cec:	4770      	bx	lr
    2cee:	bf00      	nop

00002cf0 <__aeabi_frsub>:
    2cf0:	f080 4000 	eor.w	r0, r0, #2147483648	; 0x80000000
    2cf4:	e002      	b.n	2cfc <__addsf3>
    2cf6:	bf00      	nop

00002cf8 <__aeabi_fsub>:
    2cf8:	f081 4100 	eor.w	r1, r1, #2147483648	; 0x80000000

00002cfc <__addsf3>:
    2cfc:	0042      	lsls	r2, r0, #1
    2cfe:	bf1f      	itttt	ne
    2d00:	ea5f 0341 	movsne.w	r3, r1, lsl #1
    2d04:	ea92 0f03 	teqne	r2, r3
    2d08:	ea7f 6c22 	mvnsne.w	r12, r2, asr #24
    2d0c:	ea7f 6c23 	mvnsne.w	r12, r3, asr #24
    2d10:	d06a      	beq.n	2de8 <__addsf3+0xec>
    2d12:	ea4f 6212 	mov.w	r2, r2, lsr #24
    2d16:	ebd2 6313 	rsbs	r3, r2, r3, lsr #24
    2d1a:	bfc1      	itttt	gt
    2d1c:	18d2      	addgt	r2, r2, r3
    2d1e:	4041      	eorgt	r1, r0
    2d20:	4048      	eorgt	r0, r1
    2d22:	4041      	eorgt	r1, r0
    2d24:	bfb8      	it	lt
    2d26:	425b      	neglt	r3, r3
    2d28:	2b19      	cmp	r3, #25
    2d2a:	bf88      	it	hi
    2d2c:	4770      	bxhi	lr
    2d2e:	f010 4f00 	tst.w	r0, #2147483648	; 0x80000000
    2d32:	f440 0000 	orr.w	r0, r0, #8388608	; 0x800000
    2d36:	f020 407f 	bic.w	r0, r0, #4278190080	; 0xff000000
    2d3a:	bf18      	it	ne
    2d3c:	4240      	negne	r0, r0
    2d3e:	f011 4f00 	tst.w	r1, #2147483648	; 0x80000000
    2d42:	f441 0100 	orr.w	r1, r1, #8388608	; 0x800000
    2d46:	f021 417f 	bic.w	r1, r1, #4278190080	; 0xff000000
    2d4a:	bf18      	it	ne
    2d4c:	4249      	negne	r1, r1
    2d4e:	ea92 0f03 	teq	r2, r3
    2d52:	d03f      	beq.n	2dd4 <__addsf3+0xd8>
    2d54:	f1a2 0201 	sub.w	r2, r2, #1
    2d58:	fa41 fc03 	asr.w	r12, r1, r3
    2d5c:	eb10 000c 	adds.w	r0, r0, r12
    2d60:	f1c3 0320 	rsb	r3, r3, #32
    2d64:	fa01 f103 	lsl.w	r1, r1, r3
    2d68:	f000 4300 	and.w	r3, r0, #2147483648	; 0x80000000
    2d6c:	d502      	bpl.n	2d74 <__addsf3+0x78>
    2d6e:	4249      	negs	r1, r1
    2d70:	eb60 0040 	sbc.w	r0, r0, r0, lsl #1
    2d74:	f5b0 0f00 	cmp.w	r0, #8388608	; 0x800000
    2d78:	d313      	bcc.n	2da2 <__addsf3+0xa6>
    2d7a:	f1b0 7f80 	cmp.w	r0, #16777216	; 0x1000000
    2d7e:	d306      	bcc.n	2d8e <__addsf3+0x92>
    2d80:	0840      	lsrs	r0, r0, #1
    2d82:	ea4f 0131 	mov.w	r1, r1, rrx
    2d86:	f102 0201 	add.w	r2, r2, #1
    2d8a:	2afe      	cmp	r2, #254	; 0xfe
    2d8c:	d251      	bcs.n	2e32 <__addsf3+0x136>
    2d8e:	f1b1 4f00 	cmp.w	r1, #2147483648	; 0x80000000
    2d92:	eb40 50c2 	adc.w	r0, r0, r2, lsl #23
    2d96:	bf08      	it	eq
    2d98:	f020 0001 	biceq.w	r0, r0, #1
    2d9c:	ea40 0003 	orr.w	r0, r0, r3
    2da0:	4770      	bx	lr
    2da2:	0049      	lsls	r1, r1, #1
    2da4:	eb40 0000 	adc.w	r0, r0, r0
    2da8:	f410 0f00 	tst.w	r0, #8388608	; 0x800000
    2dac:	f1a2 0201 	sub.w	r2, r2, #1
    2db0:	d1ed      	bne.n	2d8e <__addsf3+0x92>
    2db2:	fab0 fc80 	clz	r12, r0
    2db6:	f1ac 0c08 	sub.w	r12, r12, #8
    2dba:	ebb2 020c 	subs.w	r2, r2, r12
    2dbe:	fa00 f00c 	lsl.w	r0, r0, r12
    2dc2:	bfaa      	itet	ge
    2dc4:	eb00 50c2 	addge.w	r0, r0, r2, lsl #23
    2dc8:	4252      	neglt	r2, r2
    2dca:	4318      	orrge	r0, r3
    2dcc:	bfbc      	itt	lt
    2dce:	40d0      	lsrlt	r0, r2
    2dd0:	4318      	orrlt	r0, r3
    2dd2:	4770      	bx	lr
    2dd4:	f092 0f00 	teq	r2, #0
    2dd8:	f481 0100 	eor.w	r1, r1, #8388608	; 0x800000
    2ddc:	bf06      	itte	eq
    2dde:	f480 0000 	eoreq.w	r0, r0, #8388608	; 0x800000
    2de2:	3201      	addeq	r2, #1
    2de4:	3b01      	subne	r3, #1
    2de6:	e7b5      	b.n	2d54 <__addsf3+0x58>
    2de8:	ea4f 0341 	mov.w	r3, r1, lsl #1
    2dec:	ea7f 6c22 	mvns.w	r12, r2, asr #24
    2df0:	bf18      	it	ne
    2df2:	ea7f 6c23 	mvnsne.w	r12, r3, asr #24
    2df6:	d021      	beq.n	2e3c <__addsf3+0x140>
    2df8:	ea92 0f03 	teq	r2, r3
    2dfc:	d004      	beq.n	2e08 <__addsf3+0x10c>
    2dfe:	f092 0f00 	teq	r2, #0
    2e02:	bf08      	it	eq
    2e04:	4608      	moveq	r0, r1
    2e06:	4770      	bx	lr
    2e08:	ea90 0f01 	teq	r0, r1
    2e0c:	bf1c      	itt	ne
    2e0e:	2000      	movne	r0, #0
    2e10:	4770      	bxne	lr
    2e12:	f012 4f7f 	tst.w	r2, #4278190080	; 0xff000000
    2e16:	d104      	bne.n	2e22 <__addsf3+0x126>
    2e18:	0040      	lsls	r0, r0, #1
    2e1a:	bf28      	it	cs
    2e1c:	f040 4000 	orrcs.w	r0, r0, #2147483648	; 0x80000000
    2e20:	4770      	bx	lr
    2e22:	f112 7200 	adds.w	r2, r2, #33554432	; 0x2000000
    2e26:	bf3c      	itt	cc
    2e28:	f500 0000 	addcc.w	r0, r0, #8388608	; 0x800000
    2e2c:	4770      	bxcc	lr
    2e2e:	f000 4300 	and.w	r3, r0, #2147483648	; 0x80000000
    2e32:	f043 40fe 	orr.w	r0, r3, #2130706432	; 0x7f000000
    2e36:	f440 0000 	orr.w	r0, r0, #8388608	; 0x800000
    2e3a:	4770      	bx	lr
    2e3c:	ea7f 6222 	mvns.w	r2, r2, asr #24
    2e40:	bf16      	itet	ne
    2e42:	4608      	movne	r0, r1
    2e44:	ea7f 6323 	mvnseq.w	r3, r3, asr #24
    2e48:	4601      	movne	r1, r0
    2e4a:	0242      	lsls	r2, r0, #9
    2e4c:	bf06      	itte	eq
    2e4e:	ea5f 2341 	movseq.w	r3, r1, lsl #9
    2e52:	ea90 0f01 	teqeq	r0, r1
    2e56:	f440 0080 	orrne.w	r0, r0, #4194304	; 0x400000
    2e5a:	4770      	bx	lr

00002e5c <__aeabi_ui2f>:
    2e5c:	f04f 0300 	mov.w	r3, #0
    2e60:	e004      	b.n	2e6c <__aeabi_i2f+0x8>
    2e62:	bf00      	nop

00002e64 <__aeabi_i2f>:
    2e64:	f010 4300 	ands.w	r3, r0, #2147483648	; 0x80000000
    2e68:	bf48      	it	mi
    2e6a:	4240      	negmi	r0, r0
    2e6c:	ea5f 0c00 	movs.w	r12, r0
    2e70:	bf08      	it	eq
    2e72:	4770      	bxeq	lr
    2e74:	f043 4396 	orr.w	r3, r3, #1258291200	; 0x4b000000
    2e78:	4601      	mov	r1, r0
    2e7a:	f04f 0000 	mov.w	r0, #0
    2e7e:	e01c      	b.n	2eba <__aeabi_l2f+0x2a>

00002e80 <__aeabi_ul2f>:
    2e80:	ea50 0201 	orrs.w	r2, r0, r1
    2e84:	bf08      	it	eq
    2e86:	4770      	bxeq	lr
    2e88:	f04f 0300 	mov.w	r3, #0
    2e8c:	e00a      	b.n	2ea4 <__aeabi_l2f+0x14>
    2e8e:	bf00      	nop

00002e90 <__aeabi_l2f>:
    2e90:	ea50 0201 	orrs.w	r2, r0, r1
    2e94:	bf08      	it	eq
    2e96:	4770      	bxeq	lr
    2e98:	f011 4300 	ands.w	r3, r1, #2147483648	; 0x80000000
    2e9c:	d502      	bpl.n	2ea4 <__aeabi_l2f+0x14>
    2e9e:	4240      	negs	r0, r0
    2ea0:	eb61 0141 	sbc.w	r1, r1, r1, lsl #1
    2ea4:	ea5f 0c01 	movs.w	r12, r1
    2ea8:	bf02      	ittt	eq
    2eaa:	4684      	moveq	r12, r0
    2eac:	4601      	moveq	r1, r0
    2eae:	2000      	moveq	r0, #0
    2eb0:	f043 43b6 	orr.w	r3, r3, #1526726656	; 0x5b000000
    2eb4:	bf08      	it	eq
    2eb6:	f1a3 5380 	subeq.w	r3, r3, #268435456	; 0x10000000
    2eba:	f5a3 0300 	sub.w	r3, r3, #8388608	; 0x800000
    2ebe:	fabc f28c 	clz	r2, r12
    2ec2:	3a08      	subs	r2, #8
    2ec4:	eba3 53c2 	sub.w	r3, r3, r2, lsl #23
    2ec8:	db10      	blt.n	2eec <__aeabi_l2f+0x5c>
    2eca:	fa01 fc02 	lsl.w	r12, r1, r2
    2ece:	4463      	add	r3, r12
    2ed0:	fa00 fc02 	lsl.w	r12, r0, r2
    2ed4:	f1c2 0220 	rsb	r2, r2, #32
    2ed8:	f1bc 4f00 	cmp.w	r12, #2147483648	; 0x80000000
    2edc:	fa20 f202 	lsr.w	r2, r0, r2
    2ee0:	eb43 0002 	adc.w	r0, r3, r2
    2ee4:	bf08      	it	eq
    2ee6:	f020 0001 	biceq.w	r0, r0, #1
    2eea:	4770      	bx	lr
    2eec:	f102 0220 	add.w	r2, r2, #32
    2ef0:	fa01 fc02 	lsl.w	r12, r1, r2
    2ef4:	f1c2 0220 	rsb	r2, r2, #32
    2ef8:	ea50 004c 	orrs.w	r0, r0, r12, lsl #1
    2efc:	fa21 f202 	lsr.w	r2, r1, r2
    2f00:	eb43 0002 	adc.w	r0, r3, r2
    2f04:	bf08      	it	eq
    2f06:	ea20 70dc 	biceq.w	r0, r0, r12, lsr #31
    2f0a:	4770      	bx	lr

00002f0c <__aeabi_fmul>:
    2f0c:	f04f 0cff 	mov.w	r12, #255	; 0xff
    2f10:	ea1c 52d0 	ands.w	r2, r12, r0, lsr #23
    2f14:	bf1e      	ittt	ne
    2f16:	ea1c 53d1 	andsne.w	r3, r12, r1, lsr #23
    2f1a:	ea92 0f0c 	teqne	r2, r12
    2f1e:	ea93 0f0c 	teqne	r3, r12
    2f22:	d06f      	beq.n	3004 <__aeabi_fmul+0xf8>
    2f24:	441a      	add	r2, r3
    2f26:	ea80 0c01 	eor.w	r12, r0, r1
    2f2a:	0240      	lsls	r0, r0, #9
    2f2c:	bf18      	it	ne
    2f2e:	ea5f 2141 	movsne.w	r1, r1, lsl #9
    2f32:	d01e      	beq.n	2f72 <__aeabi_fmul+0x66>
    2f34:	f04f 6300 	mov.w	r3, #134217728	; 0x8000000
    2f38:	ea43 1050 	orr.w	r0, r3, r0, lsr #5
    2f3c:	ea43 1151 	orr.w	r1, r3, r1, lsr #5
    2f40:	fba0 3101 	umull	r3, r1, r0, r1
    2f44:	f00c 4000 	and.w	r0, r12, #2147483648	; 0x80000000
    2f48:	f5b1 0f00 	cmp.w	r1, #8388608	; 0x800000
    2f4c:	bf3e      	ittt	cc
    2f4e:	0049      	lslcc	r1, r1, #1
    2f50:	ea41 71d3 	orrcc.w	r1, r1, r3, lsr #31
    2f54:	005b      	lslcc	r3, r3, #1
    2f56:	ea40 0001 	orr.w	r0, r0, r1
    2f5a:	f162 027f 	sbc.w	r2, r2, #127	; 0x7f
    2f5e:	2afd      	cmp	r2, #253	; 0xfd
    2f60:	d81d      	bhi.n	2f9e <__aeabi_fmul+0x92>
    2f62:	f1b3 4f00 	cmp.w	r3, #2147483648	; 0x80000000
    2f66:	eb40 50c2 	adc.w	r0, r0, r2, lsl #23
    2f6a:	bf08      	it	eq
    2f6c:	f020 0001 	biceq.w	r0, r0, #1
    2f70:	4770      	bx	lr
    2f72:	f090 0f00 	teq	r0, #0
    2f76:	f00c 4c00 	and.w	r12, r12, #2147483648	; 0x80000000
    2f7a:	bf08      	it	eq
    2f7c:	0249      	lsleq	r1, r1, #9
    2f7e:	ea4c 2050 	orr.w	r0, r12, r0, lsr #9
    2f82:	ea40 2051 	orr.w	r0, r0, r1, lsr #9
    2f86:	3a7f      	subs	r2, #127	; 0x7f
    2f88:	bfc2      	ittt	gt
    2f8a:	f1d2 03ff 	rsbsgt	r3, r2, #255	; 0xff
    2f8e:	ea40 50c2 	orrgt.w	r0, r0, r2, lsl #23
    2f92:	4770      	bxgt	lr
    2f94:	f440 0000 	orr.w	r0, r0, #8388608	; 0x800000
    2f98:	f04f 0300 	mov.w	r3, #0
    2f9c:	3a01      	subs	r2, #1
    2f9e:	dc5d      	bgt.n	305c <__aeabi_fmul+0x150>
    2fa0:	f112 0f19 	cmn.w	r2, #25
    2fa4:	bfdc      	itt	le
    2fa6:	f000 4000 	andle.w	r0, r0, #2147483648	; 0x80000000
    2faa:	4770      	bxle	lr
    2fac:	f1c2 0200 	rsb	r2, r2, #0
    2fb0:	0041      	lsls	r1, r0, #1
    2fb2:	fa21 f102 	lsr.w	r1, r1, r2
    2fb6:	f1c2 0220 	rsb	r2, r2, #32
    2fba:	fa00 fc02 	lsl.w	r12, r0, r2
    2fbe:	ea5f 0031 	movs.w	r0, r1, rrx
    2fc2:	f140 0000 	adc.w	r0, r0, #0
    2fc6:	ea53 034c 	orrs.w	r3, r3, r12, lsl #1
    2fca:	bf08      	it	eq
    2fcc:	ea20 70dc 	biceq.w	r0, r0, r12, lsr #31
    2fd0:	4770      	bx	lr
    2fd2:	f092 0f00 	teq	r2, #0
    2fd6:	f000 4c00 	and.w	r12, r0, #2147483648	; 0x80000000
    2fda:	bf02      	ittt	eq
    2fdc:	0040      	lsleq	r0, r0, #1
    2fde:	f410 0f00 	tsteq.w	r0, #8388608	; 0x800000
    2fe2:	3a01      	subeq	r2, #1
    2fe4:	d0f9      	beq.n	2fda <__aeabi_fmul+0xce>
    2fe6:	ea40 000c 	orr.w	r0, r0, r12
    2fea:	f093 0f00 	teq	r3, #0
    2fee:	f001 4c00 	and.w	r12, r1, #2147483648	; 0x80000000
    2ff2:	bf02      	ittt	eq
    2ff4:	0049      	lsleq	r1, r1, #1
    2ff6:	f411 0f00 	tsteq.w	r1, #8388608	; 0x800000
    2ffa:	3b01      	subeq	r3, #1
    2ffc:	d0f9      	beq.n	2ff2 <__aeabi_fmul+0xe6>
    2ffe:	ea41 010c 	orr.w	r1, r1, r12
    3002:	e78f      	b.n	2f24 <__aeabi_fmul+0x18>
    3004:	ea0c 53d1 	and.w	r3, r12, r1, lsr #23
    3008:	ea92 0f0c 	teq	r2, r12
    300c:	bf18      	it	ne
    300e:	ea93 0f0c 	teqne	r3, r12
    3012:	d00a      	beq.n	302a <__aeabi_fmul+0x11e>
    3014:	f030 4c00 	bics.w	r12, r0, #2147483648	; 0x80000000
    3018:	bf18      	it	ne
    301a:	f031 4c00 	bicsne.w	r12, r1, #2147483648	; 0x80000000
    301e:	d1d8      	bne.n	2fd2 <__aeabi_fmul+0xc6>
    3020:	ea80 0001 	eor.w	r0, r0, r1
    3024:	f000 4000 	and.w	r0, r0, #2147483648	; 0x80000000
    3028:	4770      	bx	lr
    302a:	f090 0f00 	teq	r0, #0
    302e:	bf17      	itett	ne
    3030:	f090 4f00 	teqne	r0, #2147483648	; 0x80000000
    3034:	4608      	moveq	r0, r1
    3036:	f091 0f00 	teqne	r1, #0
    303a:	f091 4f00 	teqne	r1, #2147483648	; 0x80000000
    303e:	d014      	beq.n	306a <__aeabi_fmul+0x15e>
    3040:	ea92 0f0c 	teq	r2, r12
    3044:	d101      	bne.n	304a <__aeabi_fmul+0x13e>
    3046:	0242      	lsls	r2, r0, #9
    3048:	d10f      	bne.n	306a <__aeabi_fmul+0x15e>
    304a:	ea93 0f0c 	teq	r3, r12
    304e:	d103      	bne.n	3058 <__aeabi_fmul+0x14c>
    3050:	024b      	lsls	r3, r1, #9
    3052:	bf18      	it	ne
    3054:	4608      	movne	r0, r1
    3056:	d108      	bne.n	306a <__aeabi_fmul+0x15e>
    3058:	ea80 0001 	eor.w	r0, r0, r1
    305c:	f000 4000 	and.w	r0, r0, #2147483648	; 0x80000000
    3060:	f040 40fe 	orr.w	r0, r0, #2130706432	; 0x7f000000
    3064:	f440 0000 	orr.w	r0, r0, #8388608	; 0x800000
    3068:	4770      	bx	lr
    306a:	f040 40fe 	orr.w	r0, r0, #2130706432	; 0x7f000000
    306e:	f440 0040 	orr.w	r0, r0, #12582912	; 0xc00000
    3072:	4770      	bx	lr

00003074 <__aeabi_fdiv>:
    3074:	f04f 0cff 	mov.w	r12, #255	; 0xff
    3078:	ea1c 52d0 	ands.w	r2, r12, r0, lsr #23
    307c:	bf1e      	ittt	ne
    307e:	ea1c 53d1 	andsne.w	r3, r12, r1, lsr #23
    3082:	ea92 0f0c 	teqne	r2, r12
    3086:	ea93 0f0c 	teqne	r3, r12
    308a:	d069      	beq.n	3160 <__aeabi_fdiv+0xec>
    308c:	eba2 0203 	sub.w	r2, r2, r3
    3090:	ea80 0c01 	eor.w	r12, r0, r1
    3094:	0249      	lsls	r1, r1, #9
    3096:	ea4f 2040 	mov.w	r0, r0, lsl #9
    309a:	d037      	beq.n	310c <__aeabi_fdiv+0x98>
    309c:	f04f 5380 	mov.w	r3, #268435456	; 0x10000000
    30a0:	ea43 1111 	orr.w	r1, r3, r1, lsr #4
    30a4:	ea43 1310 	orr.w	r3, r3, r0, lsr #4
    30a8:	f00c 4000 	and.w	r0, r12, #2147483648	; 0x80000000
    30ac:	428b      	cmp	r3, r1
    30ae:	bf38      	it	cc
    30b0:	005b      	lslcc	r3, r3, #1
    30b2:	f142 027d 	adc.w	r2, r2, #125	; 0x7d
    30b6:	f44f 0c00 	mov.w	r12, #8388608	; 0x800000
    30ba:	428b      	cmp	r3, r1
    30bc:	bf24      	itt	cs
    30be:	1a5b      	subcs	r3, r3, r1
    30c0:	ea40 000c 	orrcs.w	r0, r0, r12
    30c4:	ebb3 0f51 	cmp.w	r3, r1, lsr #1
    30c8:	bf24      	itt	cs
    30ca:	eba3 0351 	subcs.w	r3, r3, r1, lsr #1
    30ce:	ea40 005c 	orrcs.w	r0, r0, r12, lsr #1
    30d2:	ebb3 0f91 	cmp.w	r3, r1, lsr #2
    30d6:	bf24      	itt	cs
    30d8:	eba3 0391 	subcs.w	r3, r3, r1, lsr #2
    30dc:	ea40 009c 	orrcs.w	r0, r0, r12, lsr #2
    30e0:	ebb3 0fd1 	cmp.w	r3, r1, lsr #3
    30e4:	bf24      	itt	cs
    30e6:	eba3 03d1 	subcs.w	r3, r3, r1, lsr #3
    30ea:	ea40 00dc 	orrcs.w	r0, r0, r12, lsr #3
    30ee:	011b      	lsls	r3, r3, #4
    30f0:	bf18      	it	ne
    30f2:	ea5f 1c1c 	movsne.w	r12, r12, lsr #4
    30f6:	d1e0      	bne.n	30ba <__aeabi_fdiv+0x46>
    30f8:	2afd      	cmp	r2, #253	; 0xfd
    30fa:	f63f af50 	bhi.w	2f9e <__aeabi_fmul+0x92>
    30fe:	428b      	cmp	r3, r1
    3100:	eb40 50c2 	adc.w	r0, r0, r2, lsl #23
    3104:	bf08      	it	eq
    3106:	f020 0001 	biceq.w	r0, r0, #1
    310a:	4770      	bx	lr
    310c:	f00c 4c00 	and.w	r12, r12, #2147483648	; 0x80000000
    3110:	ea4c 2050 	orr.w	r0, r12, r0, lsr #9
    3114:	327f      	adds	r2, #127	; 0x7f
    3116:	bfc2      	ittt	gt
    3118:	f1d2 03ff 	rsbsgt	r3, r2, #255	; 0xff
    311c:	ea40 50c2 	orrgt.w	r0, r0, r2, lsl #23
    3120:	4770      	bxgt	lr
    3122:	f440 0000 	orr.w	r0, r0, #8388608	; 0x800000
    3126:	f04f 0300 	mov.w	r3, #0
    312a:	3a01      	subs	r2, #1
    312c:	e737      	b.n	2f9e <__aeabi_fmul+0x92>
    312e:	f092 0f00 	teq	r2, #0
    3132:	f000 4c00 	and.w	r12, r0, #2147483648	; 0x80000000
    3136:	bf02      	ittt	eq
    3138:	0040      	lsleq	r0, r0, #1
    313a:	f410 0f00 	tsteq.w	r0, #8388608	; 0x800000
    313e:	3a01      	subeq	r2, #1
    3140:	d0f9      	beq.n	3136 <__aeabi_fdiv+0xc2>
    3142:	ea40 000c 	orr.w	r0, r0, r12
    3146:	f093 0f00 	teq	r3, #0
    314a:	f001 4c00 	and.w	r12, r1, #2147483648	; 0x80000000
    314e:	bf02      	ittt	eq
    3150:	0049      	lsleq	r1, r1, #1
    3152:	f411 0f00 	tsteq.w	r1, #8388608	; 0x800000
    3156:	3b01      	subeq	r3, #1
    3158:	d0f9      	beq.n	314e <__aeabi_fdiv+0xda>
    315a:	ea41 010c 	orr.w	r1, r1, r12
    315e:	e795      	b.n	308c <__aeabi_fdiv+0x18>
    3160:	ea0c 53d1 	and.w	r3, r12, r1, lsr #23
    3164:	ea92 0f0c 	teq	r2, r12
    3168:	d108      	bne.n	317c <__aeabi_fdiv+0x108>
    316a:	0242      	lsls	r2, r0, #9
    316c:	f47f af7d 	bne.w	306a <__aeabi_fmul+0x15e>
    3170:	ea93 0f0c 	teq	r3, r12
    3174:	f47f af70 	bne.w	3058 <__aeabi_fmul+0x14c>
    3178:	4608      	mov	r0, r1
    317a:	e776      	b.n	306a <__aeabi_fmul+0x15e>
    317c:	ea93 0f0c 	teq	r3, r12
    3180:	d104      	bne.n	318c <__aeabi_fdiv+0x118>
    3182:	024b      	lsls	r3, r1, #9
    3184:	f43f af4c 	beq.w	3020 <__aeabi_fmul+0x114>
    3188:	4608      	mov	r0, r1
    318a:	e76e      	b.n	306a <__aeabi_fmul+0x15e>
    318c:	f030 4c00 	bics.w	r12, r0, #2147483648	; 0x80000000
    3190:	bf18      	it	ne
    3192:	f031 4c00 	bicsne.w	r12, r1, #2147483648	; 0x80000000
    3196:	d1ca      	bne.n	312e <__aeabi_fdiv+0xba>
    3198:	f030 4200 	bics.w	r2, r0, #2147483648	; 0x80000000
    319c:	f47f af5c 	bne.w	3058 <__aeabi_fmul+0x14c>
    31a0:	f031 4300 	bics.w	r3, r1, #2147483648	; 0x80000000
    31a4:	f47f af3c 	bne.w	3020 <__aeabi_fmul+0x114>
    31a8:	e75f      	b.n	306a <__aeabi_fmul+0x15e>
    31aa:	bf00      	nop

000031ac <__gesf2>:
    31ac:	f04f 3cff 	mov.w	r12, #4294967295
    31b0:	e006      	b.n	31c0 <__cmpsf2+0x4>
    31b2:	bf00      	nop

000031b4 <__lesf2>:
    31b4:	f04f 0c01 	mov.w	r12, #1
    31b8:	e002      	b.n	31c0 <__cmpsf2+0x4>
    31ba:	bf00      	nop

000031bc <__cmpsf2>:
    31bc:	f04f 0c01 	mov.w	r12, #1
    31c0:	f84d cd04 	str.w	r12, [sp, #-4]!
    31c4:	ea4f 0240 	mov.w	r2, r0, lsl #1
    31c8:	ea4f 0341 	mov.w	r3, r1, lsl #1
    31cc:	ea7f 6c22 	mvns.w	r12, r2, asr #24
    31d0:	bf18      	it	ne
    31d2:	ea7f 6c23 	mvnsne.w	r12, r3, asr #24
    31d6:	d011      	beq.n	31fc <__cmpsf2+0x40>
    31d8:	b001      	add	sp, #4
    31da:	ea52 0c53 	orrs.w	r12, r2, r3, lsr #1
    31de:	bf18      	it	ne
    31e0:	ea90 0f01 	teqne	r0, r1
    31e4:	bf58      	it	pl
    31e6:	ebb2 0003 	subspl.w	r0, r2, r3
    31ea:	bf88      	it	hi
    31ec:	17c8      	asrhi	r0, r1, #31
    31ee:	bf38      	it	cc
    31f0:	ea6f 70e1 	mvncc.w	r0, r1, asr #31
    31f4:	bf18      	it	ne
    31f6:	f040 0001 	orrne.w	r0, r0, #1
    31fa:	4770      	bx	lr
    31fc:	ea7f 6c22 	mvns.w	r12, r2, asr #24
    3200:	d102      	bne.n	3208 <__cmpsf2+0x4c>
    3202:	ea5f 2c40 	movs.w	r12, r0, lsl #9
    3206:	d105      	bne.n	3214 <__cmpsf2+0x58>
    3208:	ea7f 6c23 	mvns.w	r12, r3, asr #24
    320c:	d1e4      	bne.n	31d8 <__cmpsf2+0x1c>
    320e:	ea5f 2c41 	movs.w	r12, r1, lsl #9
    3212:	d0e1      	beq.n	31d8 <__cmpsf2+0x1c>
    3214:	f85d 0b04 	ldr.w	r0, [sp], #4
    3218:	4770      	bx	lr
    321a:	bf00      	nop

0000321c <__aeabi_cfrcmple>:
    321c:	4684      	mov	r12, r0
    321e:	4608      	mov	r0, r1
    3220:	4661      	mov	r1, r12
    3222:	e7ff      	b.n	3224 <__aeabi_cfcmpeq>

00003224 <__aeabi_cfcmpeq>:
    3224:	b50f      	push	{r0, r1, r2, r3, lr}
    3226:	f7ff ffc9 	bl	31bc <__cmpsf2>
    322a:	2800      	cmp	r0, #0
    322c:	bf48      	it	mi
    322e:	f110 0f00 	cmnmi.w	r0, #0
    3232:	bd0f      	pop	{r0, r1, r2, r3, pc}

00003234 <__aeabi_fcmpeq>:
    3234:	f84d ed08 	str.w	lr, [sp, #-8]!
    3238:	f7ff fff4 	bl	3224 <__aeabi_cfcmpeq>
    323c:	bf0c      	ite	eq
    323e:	2001      	moveq	r0, #1
    3240:	2000      	movne	r0, #0
    3242:	f85d fb08 	ldr.w	pc, [sp], #8
    3246:	bf00      	nop

00003248 <__aeabi_fcmplt>:
    3248:	f84d ed08 	str.w	lr, [sp, #-8]!
    324c:	f7ff ffea 	bl	3224 <__aeabi_cfcmpeq>
    3250:	bf34      	ite	cc
    3252:	2001      	movcc	r0, #1
    3254:	2000      	movcs	r0, #0
    3256:	f85d fb08 	ldr.w	pc, [sp], #8
    325a:	bf00      	nop

0000325c <__aeabi_fcmple>:
    325c:	f84d ed08 	str.w	lr, [sp, #-8]!
    3260:	f7ff ffe0 	bl	3224 <__aeabi_cfcmpeq>
    3264:	bf94      	ite	ls
    3266:	2001      	movls	r0, #1
    3268:	2000      	movhi	r0, #0
    326a:	f85d fb08 	ldr.w	pc, [sp], #8
    326e:	bf00      	nop

00003270 <__aeabi_fcmpge>:
    3270:	f84d ed08 	str.w	lr, [sp, #-8]!
    3274:	f7ff ffd2 	bl	321c <__aeabi_cfrcmple>
    3278:	bf94      	ite	ls
    327a:	2001      	movls	r0, #1
    327c:	2000      	movhi	r0, #0
    327e:	f85d fb08 	ldr.w	pc, [sp], #8
    3282:	bf00      	nop

00003284 <__aeabi_fcmpgt>:
    3284:	f84d ed08 	str.w	lr, [sp, #-8]!
    3288:	f7ff ffc8 	bl	321c <__aeabi_cfrcmple>
    328c:	bf34      	ite	cc
    328e:	2001      	movcc	r0, #1
    3290:	2000      	movcs	r0, #0
    3292:	f85d fb08 	ldr.w	pc, [sp], #8
    3296:	bf00      	nop

00003298 <__cxa_atexit>:
    3298:	b530      	push	{r4, r5, lr}
    329a:	4605      	mov	r5, r0
    329c:	460c      	mov	r4, r1
    329e:	4613      	mov	r3, r2
    32a0:	2002      	movs	r0, #2
    32a2:	4629      	mov	r1, r5
    32a4:	4622      	mov	r2, r4
    32a6:	e8bd 4030 	ldmia.w	sp!, {r4, r5, lr}
    32aa:	f002 bae3 	b.w	5874 <__do_register_exitproc>
	...

000032b0 <__errno>:
    32b0:	4b01      	ldr	r3, [pc, #4]	; (32b8 <__errno+0x8>)
    32b2:	6818      	ldr	r0, [r3, #0]
    32b4:	4770      	bx	lr
    32b6:	bf00      	nop
    32b8:	10000134 	.word	0x10000134

000032bc <_fclose_r>:
    32bc:	b570      	push	{r4, r5, r6, lr}
    32be:	4605      	mov	r5, r0
    32c0:	460c      	mov	r4, r1
    32c2:	2900      	cmp	r1, #0
    32c4:	d047      	beq.n	3356 <_fclose_r+0x9a>
    32c6:	f000 f9c9 	bl	365c <__sfp_lock_acquire>
    32ca:	b125      	cbz	r5, 32d6 <_fclose_r+0x1a>
    32cc:	69ab      	ldr	r3, [r5, #24]
    32ce:	b913      	cbnz	r3, 32d6 <_fclose_r+0x1a>
    32d0:	4628      	mov	r0, r5
    32d2:	f000 f95b 	bl	358c <__sinit>
    32d6:	4821      	ldr	r0, [pc, #132]	; (335c <_fclose_r+0xa0>)
    32d8:	4284      	cmp	r4, r0
    32da:	d101      	bne.n	32e0 <_fclose_r+0x24>
    32dc:	686c      	ldr	r4, [r5, #4]
    32de:	e008      	b.n	32f2 <_fclose_r+0x36>
    32e0:	491f      	ldr	r1, [pc, #124]	; (3360 <_fclose_r+0xa4>)
    32e2:	428c      	cmp	r4, r1
    32e4:	d101      	bne.n	32ea <_fclose_r+0x2e>
    32e6:	68ac      	ldr	r4, [r5, #8]
    32e8:	e003      	b.n	32f2 <_fclose_r+0x36>
    32ea:	4a1e      	ldr	r2, [pc, #120]	; (3364 <_fclose_r+0xa8>)
    32ec:	4294      	cmp	r4, r2
    32ee:	bf08      	it	eq
    32f0:	68ec      	ldreq	r4, [r5, #12]
    32f2:	f9b4 600c 	ldrsh.w	r6, [r4, #12]
    32f6:	b35e      	cbz	r6, 3350 <_fclose_r+0x94>
    32f8:	4628      	mov	r0, r5
    32fa:	4621      	mov	r1, r4
    32fc:	f000 f83c 	bl	3378 <_fflush_r>
    3300:	6b23      	ldr	r3, [r4, #48]	; 0x30
    3302:	4606      	mov	r6, r0
    3304:	b13b      	cbz	r3, 3316 <_fclose_r+0x5a>
    3306:	4628      	mov	r0, r5
    3308:	6a21      	ldr	r1, [r4, #32]
    330a:	4798      	blx	r3
    330c:	ea36 0620 	bics.w	r6, r6, r0, asr #32
    3310:	bf28      	it	cs
    3312:	f04f 36ff 	movcs.w	r6, #4294967295
    3316:	89a0      	ldrh	r0, [r4, #12]
    3318:	f000 0180 	and.w	r1, r0, #128	; 0x80
    331c:	b20a      	sxth	r2, r1
    331e:	b11a      	cbz	r2, 3328 <_fclose_r+0x6c>
    3320:	4628      	mov	r0, r5
    3322:	6921      	ldr	r1, [r4, #16]
    3324:	f000 f9f8 	bl	3718 <_free_r>
    3328:	6b61      	ldr	r1, [r4, #52]	; 0x34
    332a:	b141      	cbz	r1, 333e <_fclose_r+0x82>
    332c:	f104 0344 	add.w	r3, r4, #68	; 0x44
    3330:	4299      	cmp	r1, r3
    3332:	d002      	beq.n	333a <_fclose_r+0x7e>
    3334:	4628      	mov	r0, r5
    3336:	f000 f9ef 	bl	3718 <_free_r>
    333a:	2000      	movs	r0, #0
    333c:	6360      	str	r0, [r4, #52]	; 0x34
    333e:	6ca1      	ldr	r1, [r4, #72]	; 0x48
    3340:	b121      	cbz	r1, 334c <_fclose_r+0x90>
    3342:	4628      	mov	r0, r5
    3344:	f000 f9e8 	bl	3718 <_free_r>
    3348:	2100      	movs	r1, #0
    334a:	64a1      	str	r1, [r4, #72]	; 0x48
    334c:	2200      	movs	r2, #0
    334e:	81a2      	strh	r2, [r4, #12]
    3350:	f000 f985 	bl	365e <__sfp_lock_release>
    3354:	e000      	b.n	3358 <_fclose_r+0x9c>
    3356:	460e      	mov	r6, r1
    3358:	4630      	mov	r0, r6
    335a:	bd70      	pop	{r4, r5, r6, pc}
    335c:	00008a40 	.word	0x00008a40
    3360:	00008a60 	.word	0x00008a60
    3364:	00008a80 	.word	0x00008a80

00003368 <fclose>:
    3368:	4b02      	ldr	r3, [pc, #8]	; (3374 <fclose+0xc>)
    336a:	4601      	mov	r1, r0
    336c:	6818      	ldr	r0, [r3, #0]
    336e:	f7ff bfa5 	b.w	32bc <_fclose_r>
    3372:	bf00      	nop
    3374:	10000134 	.word	0x10000134

00003378 <_fflush_r>:
    3378:	690b      	ldr	r3, [r1, #16]
    337a:	e92d 41f0 	stmdb	sp!, {r4, r5, r6, r7, r8, lr}
    337e:	4605      	mov	r5, r0
    3380:	460c      	mov	r4, r1
    3382:	2b00      	cmp	r3, #0
    3384:	d03b      	beq.n	33fe <_fflush_r+0x86>
    3386:	b118      	cbz	r0, 3390 <_fflush_r+0x18>
    3388:	6981      	ldr	r1, [r0, #24]
    338a:	b909      	cbnz	r1, 3390 <_fflush_r+0x18>
    338c:	f000 f8fe 	bl	358c <__sinit>
    3390:	4848      	ldr	r0, [pc, #288]	; (34b4 <_fflush_r+0x13c>)
    3392:	4284      	cmp	r4, r0
    3394:	d101      	bne.n	339a <_fflush_r+0x22>
    3396:	686c      	ldr	r4, [r5, #4]
    3398:	e008      	b.n	33ac <_fflush_r+0x34>
    339a:	4a47      	ldr	r2, [pc, #284]	; (34b8 <_fflush_r+0x140>)
    339c:	4294      	cmp	r4, r2
    339e:	d101      	bne.n	33a4 <_fflush_r+0x2c>
    33a0:	68ac      	ldr	r4, [r5, #8]
    33a2:	e003      	b.n	33ac <_fflush_r+0x34>
    33a4:	4b45      	ldr	r3, [pc, #276]	; (34bc <_fflush_r+0x144>)
    33a6:	429c      	cmp	r4, r3
    33a8:	bf08      	it	eq
    33aa:	68ec      	ldreq	r4, [r5, #12]
    33ac:	89a1      	ldrh	r1, [r4, #12]
    33ae:	b331      	cbz	r1, 33fe <_fflush_r+0x86>
    33b0:	f001 0008 	and.w	r0, r1, #8
    33b4:	b202      	sxth	r2, r0
    33b6:	2a00      	cmp	r2, #0
    33b8:	d161      	bne.n	347e <_fflush_r+0x106>
    33ba:	6862      	ldr	r2, [r4, #4]
    33bc:	f441 6000 	orr.w	r0, r1, #2048	; 0x800
    33c0:	2a00      	cmp	r2, #0
    33c2:	81a0      	strh	r0, [r4, #12]
    33c4:	dc02      	bgt.n	33cc <_fflush_r+0x54>
    33c6:	6c23      	ldr	r3, [r4, #64]	; 0x40
    33c8:	2b00      	cmp	r3, #0
    33ca:	dd18      	ble.n	33fe <_fflush_r+0x86>
    33cc:	6ae6      	ldr	r6, [r4, #44]	; 0x2c
    33ce:	b1b6      	cbz	r6, 33fe <_fflush_r+0x86>
    33d0:	f401 5180 	and.w	r1, r1, #4096	; 0x1000
    33d4:	2000      	movs	r0, #0
    33d6:	b20a      	sxth	r2, r1
    33d8:	682f      	ldr	r7, [r5, #0]
    33da:	6028      	str	r0, [r5, #0]
    33dc:	b10a      	cbz	r2, 33e2 <_fflush_r+0x6a>
    33de:	6d62      	ldr	r2, [r4, #84]	; 0x54
    33e0:	e010      	b.n	3404 <_fflush_r+0x8c>
    33e2:	2301      	movs	r3, #1
    33e4:	4628      	mov	r0, r5
    33e6:	6a21      	ldr	r1, [r4, #32]
    33e8:	47b0      	blx	r6
    33ea:	4602      	mov	r2, r0
    33ec:	3001      	adds	r0, #1
    33ee:	d109      	bne.n	3404 <_fflush_r+0x8c>
    33f0:	682b      	ldr	r3, [r5, #0]
    33f2:	b13b      	cbz	r3, 3404 <_fflush_r+0x8c>
    33f4:	2b1d      	cmp	r3, #29
    33f6:	d001      	beq.n	33fc <_fflush_r+0x84>
    33f8:	2b16      	cmp	r3, #22
    33fa:	d11b      	bne.n	3434 <_fflush_r+0xbc>
    33fc:	602f      	str	r7, [r5, #0]
    33fe:	2000      	movs	r0, #0
    3400:	e8bd 81f0 	ldmia.w	sp!, {r4, r5, r6, r7, r8, pc}
    3404:	89a6      	ldrh	r6, [r4, #12]
    3406:	f006 0004 	and.w	r0, r6, #4
    340a:	b201      	sxth	r1, r0
    340c:	b129      	cbz	r1, 341a <_fflush_r+0xa2>
    340e:	6863      	ldr	r3, [r4, #4]
    3410:	6b66      	ldr	r6, [r4, #52]	; 0x34
    3412:	1ad2      	subs	r2, r2, r3
    3414:	b10e      	cbz	r6, 341a <_fflush_r+0xa2>
    3416:	6c20      	ldr	r0, [r4, #64]	; 0x40
    3418:	1a12      	subs	r2, r2, r0
    341a:	6a21      	ldr	r1, [r4, #32]
    341c:	2300      	movs	r3, #0
    341e:	6ae6      	ldr	r6, [r4, #44]	; 0x2c
    3420:	4628      	mov	r0, r5
    3422:	47b0      	blx	r6
    3424:	1c41      	adds	r1, r0, #1
    3426:	d10d      	bne.n	3444 <_fflush_r+0xcc>
    3428:	682a      	ldr	r2, [r5, #0]
    342a:	b15a      	cbz	r2, 3444 <_fflush_r+0xcc>
    342c:	2a1d      	cmp	r2, #29
    342e:	d009      	beq.n	3444 <_fflush_r+0xcc>
    3430:	2a16      	cmp	r2, #22
    3432:	d007      	beq.n	3444 <_fflush_r+0xcc>
    3434:	89a1      	ldrh	r1, [r4, #12]
    3436:	f04f 30ff 	mov.w	r0, #4294967295
    343a:	f041 0340 	orr.w	r3, r1, #64	; 0x40
    343e:	81a3      	strh	r3, [r4, #12]
    3440:	e8bd 81f0 	ldmia.w	sp!, {r4, r5, r6, r7, r8, pc}
    3444:	89a3      	ldrh	r3, [r4, #12]
    3446:	2200      	movs	r2, #0
    3448:	6921      	ldr	r1, [r4, #16]
    344a:	6062      	str	r2, [r4, #4]
    344c:	f403 5280 	and.w	r2, r3, #4096	; 0x1000
    3450:	6021      	str	r1, [r4, #0]
    3452:	b211      	sxth	r1, r2
    3454:	b121      	cbz	r1, 3460 <_fflush_r+0xe8>
    3456:	1c42      	adds	r2, r0, #1
    3458:	d101      	bne.n	345e <_fflush_r+0xe6>
    345a:	682b      	ldr	r3, [r5, #0]
    345c:	b903      	cbnz	r3, 3460 <_fflush_r+0xe8>
    345e:	6560      	str	r0, [r4, #84]	; 0x54
    3460:	6b61      	ldr	r1, [r4, #52]	; 0x34
    3462:	602f      	str	r7, [r5, #0]
    3464:	2900      	cmp	r1, #0
    3466:	d0ca      	beq.n	33fe <_fflush_r+0x86>
    3468:	f104 0044 	add.w	r0, r4, #68	; 0x44
    346c:	4281      	cmp	r1, r0
    346e:	d002      	beq.n	3476 <_fflush_r+0xfe>
    3470:	4628      	mov	r0, r5
    3472:	f000 f951 	bl	3718 <_free_r>
    3476:	2000      	movs	r0, #0
    3478:	6360      	str	r0, [r4, #52]	; 0x34
    347a:	e8bd 81f0 	ldmia.w	sp!, {r4, r5, r6, r7, r8, pc}
    347e:	6926      	ldr	r6, [r4, #16]
    3480:	2e00      	cmp	r6, #0
    3482:	d0bc      	beq.n	33fe <_fflush_r+0x86>
    3484:	0789      	lsls	r1, r1, #30
    3486:	6823      	ldr	r3, [r4, #0]
    3488:	bf0c      	ite	eq
    348a:	6961      	ldreq	r1, [r4, #20]
    348c:	2100      	movne	r1, #0
    348e:	ebc6 0803 	rsb	r8, r6, r3
    3492:	6026      	str	r6, [r4, #0]
    3494:	60a1      	str	r1, [r4, #8]
    3496:	f1b8 0f00 	cmp.w	r8, #0
    349a:	ddb0      	ble.n	33fe <_fflush_r+0x86>
    349c:	6aa7      	ldr	r7, [r4, #40]	; 0x28
    349e:	4628      	mov	r0, r5
    34a0:	6a21      	ldr	r1, [r4, #32]
    34a2:	4632      	mov	r2, r6
    34a4:	4643      	mov	r3, r8
    34a6:	47b8      	blx	r7
    34a8:	2800      	cmp	r0, #0
    34aa:	ddc3      	ble.n	3434 <_fflush_r+0xbc>
    34ac:	1836      	adds	r6, r6, r0
    34ae:	ebc0 0808 	rsb	r8, r0, r8
    34b2:	e7f0      	b.n	3496 <_fflush_r+0x11e>
    34b4:	00008a40 	.word	0x00008a40
    34b8:	00008a60 	.word	0x00008a60
    34bc:	00008a80 	.word	0x00008a80

000034c0 <fflush>:
    34c0:	4601      	mov	r1, r0
    34c2:	b920      	cbnz	r0, 34ce <fflush+0xe>
    34c4:	4804      	ldr	r0, [pc, #16]	; (34d8 <fflush+0x18>)
    34c6:	4905      	ldr	r1, [pc, #20]	; (34dc <fflush+0x1c>)
    34c8:	6800      	ldr	r0, [r0, #0]
    34ca:	f000 ba01 	b.w	38d0 <_fwalk_reent>
    34ce:	4b04      	ldr	r3, [pc, #16]	; (34e0 <fflush+0x20>)
    34d0:	6818      	ldr	r0, [r3, #0]
    34d2:	f7ff bf51 	b.w	3378 <_fflush_r>
    34d6:	bf00      	nop
    34d8:	00008aa4 	.word	0x00008aa4
    34dc:	00003379 	.word	0x00003379
    34e0:	10000134 	.word	0x10000134

000034e4 <_cleanup_r>:
    34e4:	b5f8      	push	{r3, r4, r5, r6, r7, lr}
    34e6:	4607      	mov	r7, r0
    34e8:	f100 044c 	add.w	r4, r0, #76	; 0x4c
    34ec:	b194      	cbz	r4, 3514 <_cleanup_r+0x30>
    34ee:	68a5      	ldr	r5, [r4, #8]
    34f0:	6866      	ldr	r6, [r4, #4]
    34f2:	3e01      	subs	r6, #1
    34f4:	d40c      	bmi.n	3510 <_cleanup_r+0x2c>
    34f6:	f9b5 300c 	ldrsh.w	r3, [r5, #12]
    34fa:	b13b      	cbz	r3, 350c <_cleanup_r+0x28>
    34fc:	f9b5 000e 	ldrsh.w	r0, [r5, #14]
    3500:	1c43      	adds	r3, r0, #1
    3502:	d003      	beq.n	350c <_cleanup_r+0x28>
    3504:	4638      	mov	r0, r7
    3506:	4629      	mov	r1, r5
    3508:	f7ff ff36 	bl	3378 <_fflush_r>
    350c:	3568      	adds	r5, #104	; 0x68
    350e:	e7f0      	b.n	34f2 <_cleanup_r+0xe>
    3510:	6824      	ldr	r4, [r4, #0]
    3512:	e7eb      	b.n	34ec <_cleanup_r+0x8>
    3514:	bdf8      	pop	{r3, r4, r5, r6, r7, pc}
	...

00003518 <std.isra.0>:
    3518:	2300      	movs	r3, #0
    351a:	b510      	push	{r4, lr}
    351c:	4604      	mov	r4, r0
    351e:	6003      	str	r3, [r0, #0]
    3520:	6043      	str	r3, [r0, #4]
    3522:	6083      	str	r3, [r0, #8]
    3524:	8181      	strh	r1, [r0, #12]
    3526:	6643      	str	r3, [r0, #100]	; 0x64
    3528:	81c2      	strh	r2, [r0, #14]
    352a:	6103      	str	r3, [r0, #16]
    352c:	6143      	str	r3, [r0, #20]
    352e:	6183      	str	r3, [r0, #24]
    3530:	4619      	mov	r1, r3
    3532:	2208      	movs	r2, #8
    3534:	f100 005c 	add.w	r0, r0, #92	; 0x5c
    3538:	f000 fad7 	bl	3aea <memset>
    353c:	4804      	ldr	r0, [pc, #16]	; (3550 <std.isra.0+0x38>)
    353e:	4905      	ldr	r1, [pc, #20]	; (3554 <std.isra.0+0x3c>)
    3540:	4a05      	ldr	r2, [pc, #20]	; (3558 <std.isra.0+0x40>)
    3542:	4b06      	ldr	r3, [pc, #24]	; (355c <std.isra.0+0x44>)
    3544:	6224      	str	r4, [r4, #32]
    3546:	6260      	str	r0, [r4, #36]	; 0x24
    3548:	62a1      	str	r1, [r4, #40]	; 0x28
    354a:	62e2      	str	r2, [r4, #44]	; 0x2c
    354c:	6323      	str	r3, [r4, #48]	; 0x30
    354e:	bd10      	pop	{r4, pc}
    3550:	00003d59 	.word	0x00003d59
    3554:	00003d7f 	.word	0x00003d7f
    3558:	00003dbb 	.word	0x00003dbb
    355c:	00003ddf 	.word	0x00003ddf

00003560 <__sfmoreglue>:
    3560:	b570      	push	{r4, r5, r6, lr}
    3562:	2568      	movs	r5, #104	; 0x68
    3564:	434d      	muls	r5, r1
    3566:	460e      	mov	r6, r1
    3568:	f105 010c 	add.w	r1, r5, #12
    356c:	f000 fa5c 	bl	3a28 <_malloc_r>
    3570:	4604      	mov	r4, r0
    3572:	b140      	cbz	r0, 3586 <__sfmoreglue+0x26>
    3574:	f100 000c 	add.w	r0, r0, #12
    3578:	2100      	movs	r1, #0
    357a:	e884 0042 	stmia.w	r4, {r1, r6}
    357e:	60a0      	str	r0, [r4, #8]
    3580:	462a      	mov	r2, r5
    3582:	f000 fab2 	bl	3aea <memset>
    3586:	4620      	mov	r0, r4
    3588:	bd70      	pop	{r4, r5, r6, pc}
	...

0000358c <__sinit>:
    358c:	b570      	push	{r4, r5, r6, lr}
    358e:	6985      	ldr	r5, [r0, #24]
    3590:	4604      	mov	r4, r0
    3592:	2d00      	cmp	r5, #0
    3594:	d122      	bne.n	35dc <__sinit+0x50>
    3596:	4b12      	ldr	r3, [pc, #72]	; (35e0 <__sinit+0x54>)
    3598:	2601      	movs	r6, #1
    359a:	6283      	str	r3, [r0, #40]	; 0x28
    359c:	6186      	str	r6, [r0, #24]
    359e:	64c5      	str	r5, [r0, #76]	; 0x4c
    35a0:	6505      	str	r5, [r0, #80]	; 0x50
    35a2:	6545      	str	r5, [r0, #84]	; 0x54
    35a4:	f000 f81e 	bl	35e4 <__sfp>
    35a8:	6060      	str	r0, [r4, #4]
    35aa:	4620      	mov	r0, r4
    35ac:	f000 f81a 	bl	35e4 <__sfp>
    35b0:	60a0      	str	r0, [r4, #8]
    35b2:	4620      	mov	r0, r4
    35b4:	f000 f816 	bl	35e4 <__sfp>
    35b8:	2104      	movs	r1, #4
    35ba:	60e0      	str	r0, [r4, #12]
    35bc:	462a      	mov	r2, r5
    35be:	6860      	ldr	r0, [r4, #4]
    35c0:	f7ff ffaa 	bl	3518 <std.isra.0>
    35c4:	68a0      	ldr	r0, [r4, #8]
    35c6:	2109      	movs	r1, #9
    35c8:	4632      	mov	r2, r6
    35ca:	f7ff ffa5 	bl	3518 <std.isra.0>
    35ce:	68e0      	ldr	r0, [r4, #12]
    35d0:	2112      	movs	r1, #18
    35d2:	2202      	movs	r2, #2
    35d4:	e8bd 4070 	ldmia.w	sp!, {r4, r5, r6, lr}
    35d8:	f7ff bf9e 	b.w	3518 <std.isra.0>
    35dc:	bd70      	pop	{r4, r5, r6, pc}
    35de:	bf00      	nop
    35e0:	000034e5 	.word	0x000034e5

000035e4 <__sfp>:
    35e4:	b5f8      	push	{r3, r4, r5, r6, r7, lr}
    35e6:	4b1c      	ldr	r3, [pc, #112]	; (3658 <__sfp+0x74>)
    35e8:	4607      	mov	r7, r0
    35ea:	681e      	ldr	r6, [r3, #0]
    35ec:	69b0      	ldr	r0, [r6, #24]
    35ee:	b910      	cbnz	r0, 35f6 <__sfp+0x12>
    35f0:	4630      	mov	r0, r6
    35f2:	f7ff ffcb 	bl	358c <__sinit>
    35f6:	364c      	adds	r6, #76	; 0x4c
    35f8:	68b4      	ldr	r4, [r6, #8]
    35fa:	6871      	ldr	r1, [r6, #4]
    35fc:	3901      	subs	r1, #1
    35fe:	d404      	bmi.n	360a <__sfp+0x26>
    3600:	f9b4 500c 	ldrsh.w	r5, [r4, #12]
    3604:	b185      	cbz	r5, 3628 <__sfp+0x44>
    3606:	3468      	adds	r4, #104	; 0x68
    3608:	e7f8      	b.n	35fc <__sfp+0x18>
    360a:	6832      	ldr	r2, [r6, #0]
    360c:	b10a      	cbz	r2, 3612 <__sfp+0x2e>
    360e:	6836      	ldr	r6, [r6, #0]
    3610:	e7f2      	b.n	35f8 <__sfp+0x14>
    3612:	4638      	mov	r0, r7
    3614:	2104      	movs	r1, #4
    3616:	f7ff ffa3 	bl	3560 <__sfmoreglue>
    361a:	6030      	str	r0, [r6, #0]
    361c:	2800      	cmp	r0, #0
    361e:	d1f6      	bne.n	360e <__sfp+0x2a>
    3620:	240c      	movs	r4, #12
    3622:	603c      	str	r4, [r7, #0]
    3624:	4604      	mov	r4, r0
    3626:	e015      	b.n	3654 <__sfp+0x70>
    3628:	f64f 73ff 	movw	r3, #65535	; 0xffff
    362c:	2001      	movs	r0, #1
    362e:	81a0      	strh	r0, [r4, #12]
    3630:	81e3      	strh	r3, [r4, #14]
    3632:	6665      	str	r5, [r4, #100]	; 0x64
    3634:	6025      	str	r5, [r4, #0]
    3636:	60a5      	str	r5, [r4, #8]
    3638:	6065      	str	r5, [r4, #4]
    363a:	6125      	str	r5, [r4, #16]
    363c:	6165      	str	r5, [r4, #20]
    363e:	61a5      	str	r5, [r4, #24]
    3640:	f104 005c 	add.w	r0, r4, #92	; 0x5c
    3644:	4629      	mov	r1, r5
    3646:	2208      	movs	r2, #8
    3648:	f000 fa4f 	bl	3aea <memset>
    364c:	6365      	str	r5, [r4, #52]	; 0x34
    364e:	63a5      	str	r5, [r4, #56]	; 0x38
    3650:	64a5      	str	r5, [r4, #72]	; 0x48
    3652:	64e5      	str	r5, [r4, #76]	; 0x4c
    3654:	4620      	mov	r0, r4
    3656:	bdf8      	pop	{r3, r4, r5, r6, r7, pc}
    3658:	00008aa4 	.word	0x00008aa4

0000365c <__sfp_lock_acquire>:
    365c:	4770      	bx	lr

0000365e <__sfp_lock_release>:
    365e:	4770      	bx	lr

00003660 <_fopen_r>:
    3660:	b5f7      	push	{r0, r1, r2, r4, r5, r6, r7, lr}
    3662:	460f      	mov	r7, r1
    3664:	4611      	mov	r1, r2
    3666:	aa01      	add	r2, sp, #4
    3668:	4605      	mov	r5, r0
    366a:	f002 ff81 	bl	6570 <__sflags>
    366e:	4606      	mov	r6, r0
    3670:	b908      	cbnz	r0, 3676 <_fopen_r+0x16>
    3672:	2400      	movs	r4, #0
    3674:	e02a      	b.n	36cc <_fopen_r+0x6c>
    3676:	4628      	mov	r0, r5
    3678:	f7ff ffb4 	bl	35e4 <__sfp>
    367c:	4604      	mov	r4, r0
    367e:	2800      	cmp	r0, #0
    3680:	d0f7      	beq.n	3672 <_fopen_r+0x12>
    3682:	4628      	mov	r0, r5
    3684:	4639      	mov	r1, r7
    3686:	9a01      	ldr	r2, [sp, #4]
    3688:	f44f 73db 	mov.w	r3, #438	; 0x1b6
    368c:	f000 fa36 	bl	3afc <_open_r>
    3690:	2800      	cmp	r0, #0
    3692:	da06      	bge.n	36a2 <_fopen_r+0x42>
    3694:	2500      	movs	r5, #0
    3696:	f7ff ffe1 	bl	365c <__sfp_lock_acquire>
    369a:	81a5      	strh	r5, [r4, #12]
    369c:	f7ff ffdf 	bl	365e <__sfp_lock_release>
    36a0:	e7e7      	b.n	3672 <_fopen_r+0x12>
    36a2:	81e0      	strh	r0, [r4, #14]
    36a4:	81a6      	strh	r6, [r4, #12]
    36a6:	4b0a      	ldr	r3, [pc, #40]	; (36d0 <_fopen_r+0x70>)
    36a8:	480a      	ldr	r0, [pc, #40]	; (36d4 <_fopen_r+0x74>)
    36aa:	490b      	ldr	r1, [pc, #44]	; (36d8 <_fopen_r+0x78>)
    36ac:	4a0b      	ldr	r2, [pc, #44]	; (36dc <_fopen_r+0x7c>)
    36ae:	f406 7680 	and.w	r6, r6, #256	; 0x100
    36b2:	b236      	sxth	r6, r6
    36b4:	6224      	str	r4, [r4, #32]
    36b6:	6263      	str	r3, [r4, #36]	; 0x24
    36b8:	62a0      	str	r0, [r4, #40]	; 0x28
    36ba:	62e1      	str	r1, [r4, #44]	; 0x2c
    36bc:	6322      	str	r2, [r4, #48]	; 0x30
    36be:	b12e      	cbz	r6, 36cc <_fopen_r+0x6c>
    36c0:	4628      	mov	r0, r5
    36c2:	4621      	mov	r1, r4
    36c4:	2200      	movs	r2, #0
    36c6:	2302      	movs	r3, #2
    36c8:	f000 f86a 	bl	37a0 <_fseek_r>
    36cc:	4620      	mov	r0, r4
    36ce:	bdfe      	pop	{r1, r2, r3, r4, r5, r6, r7, pc}
    36d0:	00003d59 	.word	0x00003d59
    36d4:	00003d7f 	.word	0x00003d7f
    36d8:	00003dbb 	.word	0x00003dbb
    36dc:	00003ddf 	.word	0x00003ddf

000036e0 <fopen>:
    36e0:	460a      	mov	r2, r1
    36e2:	4903      	ldr	r1, [pc, #12]	; (36f0 <fopen+0x10>)
    36e4:	4603      	mov	r3, r0
    36e6:	6808      	ldr	r0, [r1, #0]
    36e8:	4619      	mov	r1, r3
    36ea:	f7ff bfb9 	b.w	3660 <_fopen_r>
    36ee:	bf00      	nop
    36f0:	10000134 	.word	0x10000134

000036f4 <fiprintf>:
    36f4:	b40e      	push	{r1, r2, r3}
    36f6:	b503      	push	{r0, r1, lr}
    36f8:	4601      	mov	r1, r0
    36fa:	ab03      	add	r3, sp, #12
    36fc:	4805      	ldr	r0, [pc, #20]	; (3714 <fiprintf+0x20>)
    36fe:	f853 2b04 	ldr.w	r2, [r3], #4
    3702:	6800      	ldr	r0, [r0, #0]
    3704:	9301      	str	r3, [sp, #4]
    3706:	f000 fefd 	bl	4504 <_vfiprintf_r>
    370a:	e8bd 400c 	ldmia.w	sp!, {r2, r3, lr}
    370e:	b003      	add	sp, #12
    3710:	4770      	bx	lr
    3712:	bf00      	nop
    3714:	10000134 	.word	0x10000134

00003718 <_free_r>:
    3718:	b530      	push	{r4, r5, lr}
    371a:	2900      	cmp	r1, #0
    371c:	d03c      	beq.n	3798 <_free_r+0x80>
    371e:	f851 2c04 	ldr.w	r2, [r1, #-4]
    3722:	1f0b      	subs	r3, r1, #4
    3724:	491d      	ldr	r1, [pc, #116]	; (379c <_free_r+0x84>)
    3726:	2a00      	cmp	r2, #0
    3728:	bfb8      	it	lt
    372a:	189b      	addlt	r3, r3, r2
    372c:	680a      	ldr	r2, [r1, #0]
    372e:	b912      	cbnz	r2, 3736 <_free_r+0x1e>
    3730:	605a      	str	r2, [r3, #4]
    3732:	600b      	str	r3, [r1, #0]
    3734:	bd30      	pop	{r4, r5, pc}
    3736:	4293      	cmp	r3, r2
    3738:	d20e      	bcs.n	3758 <_free_r+0x40>
    373a:	6819      	ldr	r1, [r3, #0]
    373c:	1858      	adds	r0, r3, r1
    373e:	4290      	cmp	r0, r2
    3740:	d103      	bne.n	374a <_free_r+0x32>
    3742:	585a      	ldr	r2, [r3, r1]
    3744:	1889      	adds	r1, r1, r2
    3746:	6842      	ldr	r2, [r0, #4]
    3748:	6019      	str	r1, [r3, #0]
    374a:	4814      	ldr	r0, [pc, #80]	; (379c <_free_r+0x84>)
    374c:	605a      	str	r2, [r3, #4]
    374e:	6003      	str	r3, [r0, #0]
    3750:	bd30      	pop	{r4, r5, pc}
    3752:	4299      	cmp	r1, r3
    3754:	d803      	bhi.n	375e <_free_r+0x46>
    3756:	460a      	mov	r2, r1
    3758:	6851      	ldr	r1, [r2, #4]
    375a:	2900      	cmp	r1, #0
    375c:	d1f9      	bne.n	3752 <_free_r+0x3a>
    375e:	6814      	ldr	r4, [r2, #0]
    3760:	1915      	adds	r5, r2, r4
    3762:	429d      	cmp	r5, r3
    3764:	d10a      	bne.n	377c <_free_r+0x64>
    3766:	6818      	ldr	r0, [r3, #0]
    3768:	1823      	adds	r3, r4, r0
    376a:	18d0      	adds	r0, r2, r3
    376c:	4288      	cmp	r0, r1
    376e:	6013      	str	r3, [r2, #0]
    3770:	d112      	bne.n	3798 <_free_r+0x80>
    3772:	6808      	ldr	r0, [r1, #0]
    3774:	181b      	adds	r3, r3, r0
    3776:	6013      	str	r3, [r2, #0]
    3778:	684b      	ldr	r3, [r1, #4]
    377a:	e00c      	b.n	3796 <_free_r+0x7e>
    377c:	d902      	bls.n	3784 <_free_r+0x6c>
    377e:	230c      	movs	r3, #12
    3780:	6003      	str	r3, [r0, #0]
    3782:	bd30      	pop	{r4, r5, pc}
    3784:	6818      	ldr	r0, [r3, #0]
    3786:	181c      	adds	r4, r3, r0
    3788:	428c      	cmp	r4, r1
    378a:	d103      	bne.n	3794 <_free_r+0x7c>
    378c:	680c      	ldr	r4, [r1, #0]
    378e:	6849      	ldr	r1, [r1, #4]
    3790:	1900      	adds	r0, r0, r4
    3792:	6018      	str	r0, [r3, #0]
    3794:	6059      	str	r1, [r3, #4]
    3796:	6053      	str	r3, [r2, #4]
    3798:	bd30      	pop	{r4, r5, pc}
    379a:	bf00      	nop
    379c:	1000038c 	.word	0x1000038c

000037a0 <_fseek_r>:
    37a0:	e92d 41f0 	stmdb	sp!, {r4, r5, r6, r7, r8, lr}
    37a4:	460c      	mov	r4, r1
    37a6:	4690      	mov	r8, r2
    37a8:	461e      	mov	r6, r3
    37aa:	4605      	mov	r5, r0
    37ac:	b118      	cbz	r0, 37b6 <_fseek_r+0x16>
    37ae:	6983      	ldr	r3, [r0, #24]
    37b0:	b90b      	cbnz	r3, 37b6 <_fseek_r+0x16>
    37b2:	f7ff feeb 	bl	358c <__sinit>
    37b6:	4843      	ldr	r0, [pc, #268]	; (38c4 <_fseek_r+0x124>)
    37b8:	4284      	cmp	r4, r0
    37ba:	d101      	bne.n	37c0 <_fseek_r+0x20>
    37bc:	686c      	ldr	r4, [r5, #4]
    37be:	e008      	b.n	37d2 <_fseek_r+0x32>
    37c0:	4941      	ldr	r1, [pc, #260]	; (38c8 <_fseek_r+0x128>)
    37c2:	428c      	cmp	r4, r1
    37c4:	d101      	bne.n	37ca <_fseek_r+0x2a>
    37c6:	68ac      	ldr	r4, [r5, #8]
    37c8:	e003      	b.n	37d2 <_fseek_r+0x32>
    37ca:	4a40      	ldr	r2, [pc, #256]	; (38cc <_fseek_r+0x12c>)
    37cc:	4294      	cmp	r4, r2
    37ce:	bf08      	it	eq
    37d0:	68ec      	ldreq	r4, [r5, #12]
    37d2:	f7ff ff43 	bl	365c <__sfp_lock_acquire>
    37d6:	89a7      	ldrh	r7, [r4, #12]
    37d8:	f407 7384 	and.w	r3, r7, #264	; 0x108
    37dc:	f5b3 7f84 	cmp.w	r3, #264	; 0x108
    37e0:	d103      	bne.n	37ea <_fseek_r+0x4a>
    37e2:	4628      	mov	r0, r5
    37e4:	4621      	mov	r1, r4
    37e6:	f7ff fdc7 	bl	3378 <_fflush_r>
    37ea:	6ae7      	ldr	r7, [r4, #44]	; 0x2c
    37ec:	201d      	movs	r0, #29
    37ee:	2f00      	cmp	r7, #0
    37f0:	d030      	beq.n	3854 <_fseek_r+0xb4>
    37f2:	2e01      	cmp	r6, #1
    37f4:	d005      	beq.n	3802 <_fseek_r+0x62>
    37f6:	2e02      	cmp	r6, #2
    37f8:	d033      	beq.n	3862 <_fseek_r+0xc2>
    37fa:	2e00      	cmp	r6, #0
    37fc:	d031      	beq.n	3862 <_fseek_r+0xc2>
    37fe:	2016      	movs	r0, #22
    3800:	e028      	b.n	3854 <_fseek_r+0xb4>
    3802:	4621      	mov	r1, r4
    3804:	4628      	mov	r0, r5
    3806:	f7ff fdb7 	bl	3378 <_fflush_r>
    380a:	89a1      	ldrh	r1, [r4, #12]
    380c:	f401 5280 	and.w	r2, r1, #4096	; 0x1000
    3810:	b212      	sxth	r2, r2
    3812:	b10a      	cbz	r2, 3818 <_fseek_r+0x78>
    3814:	6d60      	ldr	r0, [r4, #84]	; 0x54
    3816:	e005      	b.n	3824 <_fseek_r+0x84>
    3818:	4633      	mov	r3, r6
    381a:	4628      	mov	r0, r5
    381c:	6a21      	ldr	r1, [r4, #32]
    381e:	47b8      	blx	r7
    3820:	1c43      	adds	r3, r0, #1
    3822:	d018      	beq.n	3856 <_fseek_r+0xb6>
    3824:	89a6      	ldrh	r6, [r4, #12]
    3826:	f006 0304 	and.w	r3, r6, #4
    382a:	b219      	sxth	r1, r3
    382c:	b131      	cbz	r1, 383c <_fseek_r+0x9c>
    382e:	6866      	ldr	r6, [r4, #4]
    3830:	6b63      	ldr	r3, [r4, #52]	; 0x34
    3832:	1b80      	subs	r0, r0, r6
    3834:	b15b      	cbz	r3, 384e <_fseek_r+0xae>
    3836:	6c21      	ldr	r1, [r4, #64]	; 0x40
    3838:	1a40      	subs	r0, r0, r1
    383a:	e008      	b.n	384e <_fseek_r+0xae>
    383c:	f006 0208 	and.w	r2, r6, #8
    3840:	b216      	sxth	r6, r2
    3842:	b126      	cbz	r6, 384e <_fseek_r+0xae>
    3844:	6823      	ldr	r3, [r4, #0]
    3846:	b113      	cbz	r3, 384e <_fseek_r+0xae>
    3848:	6921      	ldr	r1, [r4, #16]
    384a:	1a5a      	subs	r2, r3, r1
    384c:	1880      	adds	r0, r0, r2
    384e:	4480      	add	r8, r0
    3850:	2600      	movs	r6, #0
    3852:	e006      	b.n	3862 <_fseek_r+0xc2>
    3854:	6028      	str	r0, [r5, #0]
    3856:	f7ff ff02 	bl	365e <__sfp_lock_release>
    385a:	f04f 30ff 	mov.w	r0, #4294967295
    385e:	e8bd 81f0 	ldmia.w	sp!, {r4, r5, r6, r7, r8, pc}
    3862:	6920      	ldr	r0, [r4, #16]
    3864:	b918      	cbnz	r0, 386e <_fseek_r+0xce>
    3866:	4628      	mov	r0, r5
    3868:	4621      	mov	r1, r4
    386a:	f000 f879 	bl	3960 <__smakebuf_r>
    386e:	4628      	mov	r0, r5
    3870:	4621      	mov	r1, r4
    3872:	f7ff fd81 	bl	3378 <_fflush_r>
    3876:	2800      	cmp	r0, #0
    3878:	d1ed      	bne.n	3856 <_fseek_r+0xb6>
    387a:	4628      	mov	r0, r5
    387c:	6a21      	ldr	r1, [r4, #32]
    387e:	4642      	mov	r2, r8
    3880:	4633      	mov	r3, r6
    3882:	47b8      	blx	r7
    3884:	3001      	adds	r0, #1
    3886:	d0e6      	beq.n	3856 <_fseek_r+0xb6>
    3888:	6b61      	ldr	r1, [r4, #52]	; 0x34
    388a:	b141      	cbz	r1, 389e <_fseek_r+0xfe>
    388c:	f104 0244 	add.w	r2, r4, #68	; 0x44
    3890:	4291      	cmp	r1, r2
    3892:	d002      	beq.n	389a <_fseek_r+0xfa>
    3894:	4628      	mov	r0, r5
    3896:	f7ff ff3f 	bl	3718 <_free_r>
    389a:	2500      	movs	r5, #0
    389c:	6365      	str	r5, [r4, #52]	; 0x34
    389e:	89a1      	ldrh	r1, [r4, #12]
    38a0:	6923      	ldr	r3, [r4, #16]
    38a2:	2500      	movs	r5, #0
    38a4:	f021 0020 	bic.w	r0, r1, #32
    38a8:	6023      	str	r3, [r4, #0]
    38aa:	81a0      	strh	r0, [r4, #12]
    38ac:	4629      	mov	r1, r5
    38ae:	2208      	movs	r2, #8
    38b0:	6065      	str	r5, [r4, #4]
    38b2:	f104 005c 	add.w	r0, r4, #92	; 0x5c
    38b6:	f000 f918 	bl	3aea <memset>
    38ba:	f7ff fed0 	bl	365e <__sfp_lock_release>
    38be:	4628      	mov	r0, r5
    38c0:	e8bd 81f0 	ldmia.w	sp!, {r4, r5, r6, r7, r8, pc}
    38c4:	00008a40 	.word	0x00008a40
    38c8:	00008a60 	.word	0x00008a60
    38cc:	00008a80 	.word	0x00008a80

000038d0 <_fwalk_reent>:
    38d0:	e92d 43f8 	stmdb	sp!, {r3, r4, r5, r6, r7, r8, r9, lr}
    38d4:	4680      	mov	r8, r0
    38d6:	4689      	mov	r9, r1
    38d8:	f7ff fec0 	bl	365c <__sfp_lock_acquire>
    38dc:	f108 044c 	add.w	r4, r8, #76	; 0x4c
    38e0:	2600      	movs	r6, #0
    38e2:	b194      	cbz	r4, 390a <_fwalk_reent+0x3a>
    38e4:	68a5      	ldr	r5, [r4, #8]
    38e6:	6867      	ldr	r7, [r4, #4]
    38e8:	3f01      	subs	r7, #1
    38ea:	d40c      	bmi.n	3906 <_fwalk_reent+0x36>
    38ec:	f9b5 300c 	ldrsh.w	r3, [r5, #12]
    38f0:	b13b      	cbz	r3, 3902 <_fwalk_reent+0x32>
    38f2:	f9b5 000e 	ldrsh.w	r0, [r5, #14]
    38f6:	1c43      	adds	r3, r0, #1
    38f8:	d003      	beq.n	3902 <_fwalk_reent+0x32>
    38fa:	4640      	mov	r0, r8
    38fc:	4629      	mov	r1, r5
    38fe:	47c8      	blx	r9
    3900:	4306      	orrs	r6, r0
    3902:	3568      	adds	r5, #104	; 0x68
    3904:	e7f0      	b.n	38e8 <_fwalk_reent+0x18>
    3906:	6824      	ldr	r4, [r4, #0]
    3908:	e7eb      	b.n	38e2 <_fwalk_reent+0x12>
    390a:	f7ff fea8 	bl	365e <__sfp_lock_release>
    390e:	4630      	mov	r0, r6
    3910:	e8bd 83f8 	ldmia.w	sp!, {r3, r4, r5, r6, r7, r8, r9, pc}

00003914 <__libc_init_array>:
    3914:	b538      	push	{r3, r4, r5, lr}
    3916:	4d0e      	ldr	r5, [pc, #56]	; (3950 <__libc_init_array+0x3c>)
    3918:	4b0e      	ldr	r3, [pc, #56]	; (3954 <__libc_init_array+0x40>)
    391a:	2400      	movs	r4, #0
    391c:	1ae8      	subs	r0, r5, r3
    391e:	1085      	asrs	r5, r0, #2
    3920:	42ac      	cmp	r4, r5
    3922:	d005      	beq.n	3930 <__libc_init_array+0x1c>
    3924:	490b      	ldr	r1, [pc, #44]	; (3954 <__libc_init_array+0x40>)
    3926:	f851 2024 	ldr.w	r2, [r1, r4, lsl #2]
    392a:	4790      	blx	r2
    392c:	3401      	adds	r4, #1
    392e:	e7f7      	b.n	3920 <__libc_init_array+0xc>
    3930:	f004 fd34 	bl	839c <_init>
    3934:	4908      	ldr	r1, [pc, #32]	; (3958 <__libc_init_array+0x44>)
    3936:	4a09      	ldr	r2, [pc, #36]	; (395c <__libc_init_array+0x48>)
    3938:	1a54      	subs	r4, r2, r1
    393a:	10a5      	asrs	r5, r4, #2
    393c:	2400      	movs	r4, #0
    393e:	42ac      	cmp	r4, r5
    3940:	d005      	beq.n	394e <__libc_init_array+0x3a>
    3942:	4b05      	ldr	r3, [pc, #20]	; (3958 <__libc_init_array+0x44>)
    3944:	f853 0024 	ldr.w	r0, [r3, r4, lsl #2]
    3948:	4780      	blx	r0
    394a:	3401      	adds	r4, #1
    394c:	e7f7      	b.n	393e <__libc_init_array+0x2a>
    394e:	bd38      	pop	{r3, r4, r5, pc}
    3950:	1000019c 	.word	0x1000019c
    3954:	1000019c 	.word	0x1000019c
    3958:	1000019c 	.word	0x1000019c
    395c:	100001a4 	.word	0x100001a4

00003960 <__smakebuf_r>:
    3960:	b5f0      	push	{r4, r5, r6, r7, lr}
    3962:	898b      	ldrh	r3, [r1, #12]
    3964:	460c      	mov	r4, r1
    3966:	f003 0102 	and.w	r1, r3, #2
    396a:	b20a      	sxth	r2, r1
    396c:	b091      	sub	sp, #68	; 0x44
    396e:	4605      	mov	r5, r0
    3970:	bb52      	cbnz	r2, 39c8 <__smakebuf_r+0x68>
    3972:	f9b4 100e 	ldrsh.w	r1, [r4, #14]
    3976:	2900      	cmp	r1, #0
    3978:	da0a      	bge.n	3990 <__smakebuf_r+0x30>
    397a:	89a1      	ldrh	r1, [r4, #12]
    397c:	2700      	movs	r7, #0
    397e:	f001 0280 	and.w	r2, r1, #128	; 0x80
    3982:	b210      	sxth	r0, r2
    3984:	42b8      	cmp	r0, r7
    3986:	bf14      	ite	ne
    3988:	2640      	movne	r6, #64	; 0x40
    398a:	f44f 6680 	moveq.w	r6, #1024	; 0x400
    398e:	e00e      	b.n	39ae <__smakebuf_r+0x4e>
    3990:	aa01      	add	r2, sp, #4
    3992:	f002 fe1f 	bl	65d4 <_fstat_r>
    3996:	2800      	cmp	r0, #0
    3998:	dbef      	blt.n	397a <__smakebuf_r+0x1a>
    399a:	9f02      	ldr	r7, [sp, #8]
    399c:	f407 4070 	and.w	r0, r7, #61440	; 0xf000
    39a0:	f5b0 5600 	subs.w	r6, r0, #8192	; 0x2000
    39a4:	4273      	negs	r3, r6
    39a6:	eb53 0706 	adcs.w	r7, r3, r6
    39aa:	f44f 6680 	mov.w	r6, #1024	; 0x400
    39ae:	4628      	mov	r0, r5
    39b0:	4631      	mov	r1, r6
    39b2:	f000 f839 	bl	3a28 <_malloc_r>
    39b6:	b970      	cbnz	r0, 39d6 <__smakebuf_r+0x76>
    39b8:	89a1      	ldrh	r1, [r4, #12]
    39ba:	f401 7200 	and.w	r2, r1, #512	; 0x200
    39be:	b210      	sxth	r0, r2
    39c0:	b9e8      	cbnz	r0, 39fe <__smakebuf_r+0x9e>
    39c2:	f041 0302 	orr.w	r3, r1, #2
    39c6:	81a3      	strh	r3, [r4, #12]
    39c8:	f104 0147 	add.w	r1, r4, #71	; 0x47
    39cc:	2201      	movs	r2, #1
    39ce:	6021      	str	r1, [r4, #0]
    39d0:	6121      	str	r1, [r4, #16]
    39d2:	6162      	str	r2, [r4, #20]
    39d4:	e013      	b.n	39fe <__smakebuf_r+0x9e>
    39d6:	89a1      	ldrh	r1, [r4, #12]
    39d8:	4b0a      	ldr	r3, [pc, #40]	; (3a04 <__smakebuf_r+0xa4>)
    39da:	f041 0280 	orr.w	r2, r1, #128	; 0x80
    39de:	62ab      	str	r3, [r5, #40]	; 0x28
    39e0:	81a2      	strh	r2, [r4, #12]
    39e2:	6020      	str	r0, [r4, #0]
    39e4:	6120      	str	r0, [r4, #16]
    39e6:	6166      	str	r6, [r4, #20]
    39e8:	b14f      	cbz	r7, 39fe <__smakebuf_r+0x9e>
    39ea:	4628      	mov	r0, r5
    39ec:	f9b4 100e 	ldrsh.w	r1, [r4, #14]
    39f0:	f002 fe02 	bl	65f8 <_isatty_r>
    39f4:	b118      	cbz	r0, 39fe <__smakebuf_r+0x9e>
    39f6:	89a0      	ldrh	r0, [r4, #12]
    39f8:	f040 0301 	orr.w	r3, r0, #1
    39fc:	81a3      	strh	r3, [r4, #12]
    39fe:	b011      	add	sp, #68	; 0x44
    3a00:	bdf0      	pop	{r4, r5, r6, r7, pc}
    3a02:	bf00      	nop
    3a04:	000034e5 	.word	0x000034e5

00003a08 <malloc>:
    3a08:	4b02      	ldr	r3, [pc, #8]	; (3a14 <malloc+0xc>)
    3a0a:	4601      	mov	r1, r0
    3a0c:	6818      	ldr	r0, [r3, #0]
    3a0e:	f000 b80b 	b.w	3a28 <_malloc_r>
    3a12:	bf00      	nop
    3a14:	10000134 	.word	0x10000134

00003a18 <free>:
    3a18:	4b02      	ldr	r3, [pc, #8]	; (3a24 <free+0xc>)
    3a1a:	4601      	mov	r1, r0
    3a1c:	6818      	ldr	r0, [r3, #0]
    3a1e:	f7ff be7b 	b.w	3718 <_free_r>
    3a22:	bf00      	nop
    3a24:	10000134 	.word	0x10000134

00003a28 <_malloc_r>:
    3a28:	b570      	push	{r4, r5, r6, lr}
    3a2a:	1ccd      	adds	r5, r1, #3
    3a2c:	f025 0503 	bic.w	r5, r5, #3
    3a30:	3508      	adds	r5, #8
    3a32:	2d0c      	cmp	r5, #12
    3a34:	bf38      	it	cc
    3a36:	250c      	movcc	r5, #12
    3a38:	2d00      	cmp	r5, #0
    3a3a:	4606      	mov	r6, r0
    3a3c:	db2d      	blt.n	3a9a <_malloc_r+0x72>
    3a3e:	428d      	cmp	r5, r1
    3a40:	d32b      	bcc.n	3a9a <_malloc_r+0x72>
    3a42:	4b1d      	ldr	r3, [pc, #116]	; (3ab8 <_malloc_r+0x90>)
    3a44:	681b      	ldr	r3, [r3, #0]
    3a46:	461c      	mov	r4, r3
    3a48:	b19c      	cbz	r4, 3a72 <_malloc_r+0x4a>
    3a4a:	6822      	ldr	r2, [r4, #0]
    3a4c:	1b50      	subs	r0, r2, r5
    3a4e:	d40d      	bmi.n	3a6c <_malloc_r+0x44>
    3a50:	280b      	cmp	r0, #11
    3a52:	d902      	bls.n	3a5a <_malloc_r+0x32>
    3a54:	6020      	str	r0, [r4, #0]
    3a56:	1824      	adds	r4, r4, r0
    3a58:	e017      	b.n	3a8a <_malloc_r+0x62>
    3a5a:	42a3      	cmp	r3, r4
    3a5c:	d103      	bne.n	3a66 <_malloc_r+0x3e>
    3a5e:	6860      	ldr	r0, [r4, #4]
    3a60:	4a15      	ldr	r2, [pc, #84]	; (3ab8 <_malloc_r+0x90>)
    3a62:	6010      	str	r0, [r2, #0]
    3a64:	e01d      	b.n	3aa2 <_malloc_r+0x7a>
    3a66:	6861      	ldr	r1, [r4, #4]
    3a68:	6059      	str	r1, [r3, #4]
    3a6a:	e01a      	b.n	3aa2 <_malloc_r+0x7a>
    3a6c:	4623      	mov	r3, r4
    3a6e:	6864      	ldr	r4, [r4, #4]
    3a70:	e7ea      	b.n	3a48 <_malloc_r+0x20>
    3a72:	4629      	mov	r1, r5
    3a74:	4630      	mov	r0, r6
    3a76:	f000 f877 	bl	3b68 <_sbrk_r>
    3a7a:	1c43      	adds	r3, r0, #1
    3a7c:	4601      	mov	r1, r0
    3a7e:	d00c      	beq.n	3a9a <_malloc_r+0x72>
    3a80:	1ccc      	adds	r4, r1, #3
    3a82:	f024 0403 	bic.w	r4, r4, #3
    3a86:	428c      	cmp	r4, r1
    3a88:	d101      	bne.n	3a8e <_malloc_r+0x66>
    3a8a:	6025      	str	r5, [r4, #0]
    3a8c:	e009      	b.n	3aa2 <_malloc_r+0x7a>
    3a8e:	4630      	mov	r0, r6
    3a90:	1a61      	subs	r1, r4, r1
    3a92:	f000 f869 	bl	3b68 <_sbrk_r>
    3a96:	3001      	adds	r0, #1
    3a98:	d1f7      	bne.n	3a8a <_malloc_r+0x62>
    3a9a:	200c      	movs	r0, #12
    3a9c:	6030      	str	r0, [r6, #0]
    3a9e:	2000      	movs	r0, #0
    3aa0:	bd70      	pop	{r4, r5, r6, pc}
    3aa2:	f104 010b 	add.w	r1, r4, #11
    3aa6:	1d23      	adds	r3, r4, #4
    3aa8:	f021 0007 	bic.w	r0, r1, #7
    3aac:	1ac3      	subs	r3, r0, r3
    3aae:	d002      	beq.n	3ab6 <_malloc_r+0x8e>
    3ab0:	425a      	negs	r2, r3
    3ab2:	50e2      	str	r2, [r4, r3]
    3ab4:	bd70      	pop	{r4, r5, r6, pc}
    3ab6:	bd70      	pop	{r4, r5, r6, pc}
    3ab8:	1000038c 	.word	0x1000038c

00003abc <memchr>:
    3abc:	b510      	push	{r4, lr}
    3abe:	b2c9      	uxtb	r1, r1
    3ac0:	4603      	mov	r3, r0
    3ac2:	1882      	adds	r2, r0, r2
    3ac4:	4293      	cmp	r3, r2
    3ac6:	4618      	mov	r0, r3
    3ac8:	d004      	beq.n	3ad4 <memchr+0x18>
    3aca:	7804      	ldrb	r4, [r0, #0]
    3acc:	3301      	adds	r3, #1
    3ace:	428c      	cmp	r4, r1
    3ad0:	d1f8      	bne.n	3ac4 <memchr+0x8>
    3ad2:	e000      	b.n	3ad6 <memchr+0x1a>
    3ad4:	2000      	movs	r0, #0
    3ad6:	bd10      	pop	{r4, pc}

00003ad8 <memcpy>:
    3ad8:	b510      	push	{r4, lr}
    3ada:	2300      	movs	r3, #0
    3adc:	4293      	cmp	r3, r2
    3ade:	d003      	beq.n	3ae8 <memcpy+0x10>
    3ae0:	5ccc      	ldrb	r4, [r1, r3]
    3ae2:	54c4      	strb	r4, [r0, r3]
    3ae4:	3301      	adds	r3, #1
    3ae6:	e7f9      	b.n	3adc <memcpy+0x4>
    3ae8:	bd10      	pop	{r4, pc}

00003aea <memset>:
    3aea:	1882      	adds	r2, r0, r2
    3aec:	4603      	mov	r3, r0
    3aee:	4293      	cmp	r3, r2
    3af0:	d002      	beq.n	3af8 <memset+0xe>
    3af2:	f803 1b01 	strb.w	r1, [r3], #1
    3af6:	e7fa      	b.n	3aee <memset+0x4>
    3af8:	4770      	bx	lr
	...

00003afc <_open_r>:
    3afc:	b538      	push	{r3, r4, r5, lr}
    3afe:	4c07      	ldr	r4, [pc, #28]	; (3b1c <_open_r+0x20>)
    3b00:	4605      	mov	r5, r0
    3b02:	2000      	movs	r0, #0
    3b04:	6020      	str	r0, [r4, #0]
    3b06:	4608      	mov	r0, r1
    3b08:	4611      	mov	r1, r2
    3b0a:	461a      	mov	r2, r3
    3b0c:	f7fc fec8 	bl	8a0 <_open>
    3b10:	1c43      	adds	r3, r0, #1
    3b12:	d102      	bne.n	3b1a <_open_r+0x1e>
    3b14:	6823      	ldr	r3, [r4, #0]
    3b16:	b103      	cbz	r3, 3b1a <_open_r+0x1e>
    3b18:	602b      	str	r3, [r5, #0]
    3b1a:	bd38      	pop	{r3, r4, r5, pc}
    3b1c:	1000039c 	.word	0x1000039c

00003b20 <_realloc_r>:
    3b20:	b5f8      	push	{r3, r4, r5, r6, r7, lr}
    3b22:	4606      	mov	r6, r0
    3b24:	4615      	mov	r5, r2
    3b26:	460c      	mov	r4, r1
    3b28:	b921      	cbnz	r1, 3b34 <_realloc_r+0x14>
    3b2a:	4611      	mov	r1, r2
    3b2c:	e8bd 40f8 	ldmia.w	sp!, {r3, r4, r5, r6, r7, lr}
    3b30:	f7ff bf7a 	b.w	3a28 <_malloc_r>
    3b34:	b91a      	cbnz	r2, 3b3e <_realloc_r+0x1e>
    3b36:	f7ff fdef 	bl	3718 <_free_r>
    3b3a:	462c      	mov	r4, r5
    3b3c:	e012      	b.n	3b64 <_realloc_r+0x44>
    3b3e:	f003 f983 	bl	6e48 <_malloc_usable_size_r>
    3b42:	42a8      	cmp	r0, r5
    3b44:	d20e      	bcs.n	3b64 <_realloc_r+0x44>
    3b46:	4630      	mov	r0, r6
    3b48:	4629      	mov	r1, r5
    3b4a:	f7ff ff6d 	bl	3a28 <_malloc_r>
    3b4e:	4607      	mov	r7, r0
    3b50:	b138      	cbz	r0, 3b62 <_realloc_r+0x42>
    3b52:	4621      	mov	r1, r4
    3b54:	462a      	mov	r2, r5
    3b56:	f7ff ffbf 	bl	3ad8 <memcpy>
    3b5a:	4630      	mov	r0, r6
    3b5c:	4621      	mov	r1, r4
    3b5e:	f7ff fddb 	bl	3718 <_free_r>
    3b62:	463c      	mov	r4, r7
    3b64:	4620      	mov	r0, r4
    3b66:	bdf8      	pop	{r3, r4, r5, r6, r7, pc}

00003b68 <_sbrk_r>:
    3b68:	b538      	push	{r3, r4, r5, lr}
    3b6a:	4c06      	ldr	r4, [pc, #24]	; (3b84 <_sbrk_r+0x1c>)
    3b6c:	2300      	movs	r3, #0
    3b6e:	4605      	mov	r5, r0
    3b70:	4608      	mov	r0, r1
    3b72:	6023      	str	r3, [r4, #0]
    3b74:	f004 fbfe 	bl	8374 <_sbrk>
    3b78:	1c43      	adds	r3, r0, #1
    3b7a:	d102      	bne.n	3b82 <_sbrk_r+0x1a>
    3b7c:	6821      	ldr	r1, [r4, #0]
    3b7e:	b101      	cbz	r1, 3b82 <_sbrk_r+0x1a>
    3b80:	6029      	str	r1, [r5, #0]
    3b82:	bd38      	pop	{r3, r4, r5, pc}
    3b84:	1000039c 	.word	0x1000039c

00003b88 <setbuf>:
    3b88:	2900      	cmp	r1, #0
    3b8a:	bf0c      	ite	eq
    3b8c:	2202      	moveq	r2, #2
    3b8e:	2200      	movne	r2, #0
    3b90:	f44f 6380 	mov.w	r3, #1024	; 0x400
    3b94:	f000 b800 	b.w	3b98 <setvbuf>

00003b98 <setvbuf>:
    3b98:	e92d 41f0 	stmdb	sp!, {r4, r5, r6, r7, r8, lr}
    3b9c:	461d      	mov	r5, r3
    3b9e:	4b42      	ldr	r3, [pc, #264]	; (3ca8 <setvbuf+0x110>)
    3ba0:	4604      	mov	r4, r0
    3ba2:	6818      	ldr	r0, [r3, #0]
    3ba4:	460e      	mov	r6, r1
    3ba6:	4617      	mov	r7, r2
    3ba8:	4698      	mov	r8, r3
    3baa:	b118      	cbz	r0, 3bb4 <setvbuf+0x1c>
    3bac:	6982      	ldr	r2, [r0, #24]
    3bae:	b90a      	cbnz	r2, 3bb4 <setvbuf+0x1c>
    3bb0:	f7ff fcec 	bl	358c <__sinit>
    3bb4:	483d      	ldr	r0, [pc, #244]	; (3cac <setvbuf+0x114>)
    3bb6:	4284      	cmp	r4, r0
    3bb8:	d103      	bne.n	3bc2 <setvbuf+0x2a>
    3bba:	f8d8 3000 	ldr.w	r3, [r8]
    3bbe:	685c      	ldr	r4, [r3, #4]
    3bc0:	e00c      	b.n	3bdc <setvbuf+0x44>
    3bc2:	493b      	ldr	r1, [pc, #236]	; (3cb0 <setvbuf+0x118>)
    3bc4:	428c      	cmp	r4, r1
    3bc6:	d103      	bne.n	3bd0 <setvbuf+0x38>
    3bc8:	4837      	ldr	r0, [pc, #220]	; (3ca8 <setvbuf+0x110>)
    3bca:	6801      	ldr	r1, [r0, #0]
    3bcc:	688c      	ldr	r4, [r1, #8]
    3bce:	e005      	b.n	3bdc <setvbuf+0x44>
    3bd0:	4b38      	ldr	r3, [pc, #224]	; (3cb4 <setvbuf+0x11c>)
    3bd2:	429c      	cmp	r4, r3
    3bd4:	d102      	bne.n	3bdc <setvbuf+0x44>
    3bd6:	4c34      	ldr	r4, [pc, #208]	; (3ca8 <setvbuf+0x110>)
    3bd8:	6822      	ldr	r2, [r4, #0]
    3bda:	68d4      	ldr	r4, [r2, #12]
    3bdc:	2f02      	cmp	r7, #2
    3bde:	d85f      	bhi.n	3ca0 <setvbuf+0x108>
    3be0:	2d00      	cmp	r5, #0
    3be2:	db5d      	blt.n	3ca0 <setvbuf+0x108>
    3be4:	f8df 80c0 	ldr.w	r8, [pc, #192]	; 3ca8 <setvbuf+0x110>
    3be8:	4621      	mov	r1, r4
    3bea:	f8d8 0000 	ldr.w	r0, [r8]
    3bee:	f7ff fbc3 	bl	3378 <_fflush_r>
    3bf2:	89a0      	ldrh	r0, [r4, #12]
    3bf4:	2200      	movs	r2, #0
    3bf6:	f000 0180 	and.w	r1, r0, #128	; 0x80
    3bfa:	b20b      	sxth	r3, r1
    3bfc:	6062      	str	r2, [r4, #4]
    3bfe:	61a2      	str	r2, [r4, #24]
    3c00:	b123      	cbz	r3, 3c0c <setvbuf+0x74>
    3c02:	f8d8 0000 	ldr.w	r0, [r8]
    3c06:	6921      	ldr	r1, [r4, #16]
    3c08:	f7ff fd86 	bl	3718 <_free_r>
    3c0c:	89a2      	ldrh	r2, [r4, #12]
    3c0e:	2f02      	cmp	r7, #2
    3c10:	f022 0083 	bic.w	r0, r2, #131	; 0x83
    3c14:	81a0      	strh	r0, [r4, #12]
    3c16:	d012      	beq.n	3c3e <setvbuf+0xa6>
    3c18:	bb36      	cbnz	r6, 3c68 <setvbuf+0xd0>
    3c1a:	2d00      	cmp	r5, #0
    3c1c:	bf08      	it	eq
    3c1e:	f44f 6580 	moveq.w	r5, #1024	; 0x400
    3c22:	4628      	mov	r0, r5
    3c24:	f7ff fef0 	bl	3a08 <malloc>
    3c28:	4606      	mov	r6, r0
    3c2a:	b9c8      	cbnz	r0, 3c60 <setvbuf+0xc8>
    3c2c:	f44f 6080 	mov.w	r0, #1024	; 0x400
    3c30:	f7ff feea 	bl	3a08 <malloc>
    3c34:	4606      	mov	r6, r0
    3c36:	b988      	cbnz	r0, 3c5c <setvbuf+0xc4>
    3c38:	f04f 30ff 	mov.w	r0, #4294967295
    3c3c:	e000      	b.n	3c40 <setvbuf+0xa8>
    3c3e:	2000      	movs	r0, #0
    3c40:	89a2      	ldrh	r2, [r4, #12]
    3c42:	2300      	movs	r3, #0
    3c44:	f042 0102 	orr.w	r1, r2, #2
    3c48:	81a1      	strh	r1, [r4, #12]
    3c4a:	f104 0247 	add.w	r2, r4, #71	; 0x47
    3c4e:	2101      	movs	r1, #1
    3c50:	60a3      	str	r3, [r4, #8]
    3c52:	6022      	str	r2, [r4, #0]
    3c54:	6122      	str	r2, [r4, #16]
    3c56:	6161      	str	r1, [r4, #20]
    3c58:	e8bd 81f0 	ldmia.w	sp!, {r4, r5, r6, r7, r8, pc}
    3c5c:	f44f 6580 	mov.w	r5, #1024	; 0x400
    3c60:	89a1      	ldrh	r1, [r4, #12]
    3c62:	f041 0380 	orr.w	r3, r1, #128	; 0x80
    3c66:	81a3      	strh	r3, [r4, #12]
    3c68:	2f01      	cmp	r7, #1
    3c6a:	d105      	bne.n	3c78 <setvbuf+0xe0>
    3c6c:	89a2      	ldrh	r2, [r4, #12]
    3c6e:	4269      	negs	r1, r5
    3c70:	f042 0001 	orr.w	r0, r2, #1
    3c74:	81a0      	strh	r0, [r4, #12]
    3c76:	61a1      	str	r1, [r4, #24]
    3c78:	4b0b      	ldr	r3, [pc, #44]	; (3ca8 <setvbuf+0x110>)
    3c7a:	89a1      	ldrh	r1, [r4, #12]
    3c7c:	6818      	ldr	r0, [r3, #0]
    3c7e:	4a0e      	ldr	r2, [pc, #56]	; (3cb8 <setvbuf+0x120>)
    3c80:	f001 0308 	and.w	r3, r1, #8
    3c84:	6282      	str	r2, [r0, #40]	; 0x28
    3c86:	b218      	sxth	r0, r3
    3c88:	6026      	str	r6, [r4, #0]
    3c8a:	6126      	str	r6, [r4, #16]
    3c8c:	6165      	str	r5, [r4, #20]
    3c8e:	b148      	cbz	r0, 3ca4 <setvbuf+0x10c>
    3c90:	f011 0f03 	tst.w	r1, #3
    3c94:	bf18      	it	ne
    3c96:	2500      	movne	r5, #0
    3c98:	60a5      	str	r5, [r4, #8]
    3c9a:	2000      	movs	r0, #0
    3c9c:	e8bd 81f0 	ldmia.w	sp!, {r4, r5, r6, r7, r8, pc}
    3ca0:	f04f 30ff 	mov.w	r0, #4294967295
    3ca4:	e8bd 81f0 	ldmia.w	sp!, {r4, r5, r6, r7, r8, pc}
    3ca8:	10000134 	.word	0x10000134
    3cac:	00008a40 	.word	0x00008a40
    3cb0:	00008a60 	.word	0x00008a60
    3cb4:	00008a80 	.word	0x00008a80
    3cb8:	000034e5 	.word	0x000034e5

00003cbc <siprintf>:
    3cbc:	b40e      	push	{r1, r2, r3}
    3cbe:	b500      	push	{lr}
    3cc0:	b09c      	sub	sp, #112	; 0x70
    3cc2:	9002      	str	r0, [sp, #8]
    3cc4:	9006      	str	r0, [sp, #24]
    3cc6:	f06f 4000 	mvn.w	r0, #2147483648	; 0x80000000
    3cca:	ab1d      	add	r3, sp, #116	; 0x74
    3ccc:	9004      	str	r0, [sp, #16]
    3cce:	9007      	str	r0, [sp, #28]
    3cd0:	f44f 7102 	mov.w	r1, #520	; 0x208
    3cd4:	480a      	ldr	r0, [pc, #40]	; (3d00 <siprintf+0x44>)
    3cd6:	f853 2b04 	ldr.w	r2, [r3], #4
    3cda:	f8ad 1014 	strh.w	r1, [sp, #20]
    3cde:	f64f 71ff 	movw	r1, #65535	; 0xffff
    3ce2:	f8ad 1016 	strh.w	r1, [sp, #22]
    3ce6:	6800      	ldr	r0, [r0, #0]
    3ce8:	a902      	add	r1, sp, #8
    3cea:	9301      	str	r3, [sp, #4]
    3cec:	f000 f8fc 	bl	3ee8 <_svfiprintf_r>
    3cf0:	9b02      	ldr	r3, [sp, #8]
    3cf2:	2200      	movs	r2, #0
    3cf4:	701a      	strb	r2, [r3, #0]
    3cf6:	b01c      	add	sp, #112	; 0x70
    3cf8:	f85d eb04 	ldr.w	lr, [sp], #4
    3cfc:	b003      	add	sp, #12
    3cfe:	4770      	bx	lr
    3d00:	10000134 	.word	0x10000134

00003d04 <siscanf>:
    3d04:	b40e      	push	{r1, r2, r3}
    3d06:	b530      	push	{r4, r5, lr}
    3d08:	b09c      	sub	sp, #112	; 0x70
    3d0a:	ac1f      	add	r4, sp, #124	; 0x7c
    3d0c:	f44f 7201 	mov.w	r2, #516	; 0x204
    3d10:	f854 5b04 	ldr.w	r5, [r4], #4
    3d14:	f8ad 2014 	strh.w	r2, [sp, #20]
    3d18:	9002      	str	r0, [sp, #8]
    3d1a:	9006      	str	r0, [sp, #24]
    3d1c:	f000 f86e 	bl	3dfc <strlen>
    3d20:	4a0b      	ldr	r2, [pc, #44]	; (3d50 <siscanf+0x4c>)
    3d22:	9003      	str	r0, [sp, #12]
    3d24:	9007      	str	r0, [sp, #28]
    3d26:	480b      	ldr	r0, [pc, #44]	; (3d54 <siscanf+0x50>)
    3d28:	2100      	movs	r1, #0
    3d2a:	f64f 73ff 	movw	r3, #65535	; 0xffff
    3d2e:	900b      	str	r0, [sp, #44]	; 0x2c
    3d30:	910f      	str	r1, [sp, #60]	; 0x3c
    3d32:	9114      	str	r1, [sp, #80]	; 0x50
    3d34:	f8ad 3016 	strh.w	r3, [sp, #22]
    3d38:	6810      	ldr	r0, [r2, #0]
    3d3a:	a902      	add	r1, sp, #8
    3d3c:	462a      	mov	r2, r5
    3d3e:	4623      	mov	r3, r4
    3d40:	9401      	str	r4, [sp, #4]
    3d42:	f000 fa25 	bl	4190 <__ssvfiscanf_r>
    3d46:	b01c      	add	sp, #112	; 0x70
    3d48:	e8bd 4030 	ldmia.w	sp!, {r4, r5, lr}
    3d4c:	b003      	add	sp, #12
    3d4e:	4770      	bx	lr
    3d50:	10000134 	.word	0x10000134
    3d54:	00003d7b 	.word	0x00003d7b

00003d58 <__sread>:
    3d58:	b510      	push	{r4, lr}
    3d5a:	460c      	mov	r4, r1
    3d5c:	f9b1 100e 	ldrsh.w	r1, [r1, #14]
    3d60:	f003 f87c 	bl	6e5c <_read_r>
    3d64:	2800      	cmp	r0, #0
    3d66:	db03      	blt.n	3d70 <__sread+0x18>
    3d68:	6d62      	ldr	r2, [r4, #84]	; 0x54
    3d6a:	1813      	adds	r3, r2, r0
    3d6c:	6563      	str	r3, [r4, #84]	; 0x54
    3d6e:	bd10      	pop	{r4, pc}
    3d70:	89a3      	ldrh	r3, [r4, #12]
    3d72:	f423 5180 	bic.w	r1, r3, #4096	; 0x1000
    3d76:	81a1      	strh	r1, [r4, #12]
    3d78:	bd10      	pop	{r4, pc}

00003d7a <__seofread>:
    3d7a:	2000      	movs	r0, #0
    3d7c:	4770      	bx	lr

00003d7e <__swrite>:
    3d7e:	e92d 41f0 	stmdb	sp!, {r4, r5, r6, r7, r8, lr}
    3d82:	461d      	mov	r5, r3
    3d84:	898b      	ldrh	r3, [r1, #12]
    3d86:	460c      	mov	r4, r1
    3d88:	f403 7180 	and.w	r1, r3, #256	; 0x100
    3d8c:	4616      	mov	r6, r2
    3d8e:	b20a      	sxth	r2, r1
    3d90:	4607      	mov	r7, r0
    3d92:	b12a      	cbz	r2, 3da0 <__swrite+0x22>
    3d94:	f9b4 100e 	ldrsh.w	r1, [r4, #14]
    3d98:	2200      	movs	r2, #0
    3d9a:	2302      	movs	r3, #2
    3d9c:	f002 fc40 	bl	6620 <_lseek_r>
    3da0:	89a0      	ldrh	r0, [r4, #12]
    3da2:	f9b4 100e 	ldrsh.w	r1, [r4, #14]
    3da6:	f420 5380 	bic.w	r3, r0, #4096	; 0x1000
    3daa:	81a3      	strh	r3, [r4, #12]
    3dac:	4638      	mov	r0, r7
    3dae:	4632      	mov	r2, r6
    3db0:	462b      	mov	r3, r5
    3db2:	e8bd 41f0 	ldmia.w	sp!, {r4, r5, r6, r7, r8, lr}
    3db6:	f001 bcd5 	b.w	5764 <_write_r>

00003dba <__sseek>:
    3dba:	b510      	push	{r4, lr}
    3dbc:	460c      	mov	r4, r1
    3dbe:	f9b1 100e 	ldrsh.w	r1, [r1, #14]
    3dc2:	f002 fc2d 	bl	6620 <_lseek_r>
    3dc6:	1c43      	adds	r3, r0, #1
    3dc8:	89a3      	ldrh	r3, [r4, #12]
    3dca:	d103      	bne.n	3dd4 <__sseek+0x1a>
    3dcc:	f423 5280 	bic.w	r2, r3, #4096	; 0x1000
    3dd0:	81a2      	strh	r2, [r4, #12]
    3dd2:	bd10      	pop	{r4, pc}
    3dd4:	f443 5180 	orr.w	r1, r3, #4096	; 0x1000
    3dd8:	81a1      	strh	r1, [r4, #12]
    3dda:	6560      	str	r0, [r4, #84]	; 0x54
    3ddc:	bd10      	pop	{r4, pc}

00003dde <__sclose>:
    3dde:	f9b1 100e 	ldrsh.w	r1, [r1, #14]
    3de2:	f001 bd85 	b.w	58f0 <_close_r>

00003de6 <strcmp>:
    3de6:	f810 2b01 	ldrb.w	r2, [r0], #1
    3dea:	f811 3b01 	ldrb.w	r3, [r1], #1
    3dee:	2a01      	cmp	r2, #1
    3df0:	bf28      	it	cs
    3df2:	429a      	cmpcs	r2, r3
    3df4:	d0f7      	beq.n	3de6 <strcmp>
    3df6:	eba2 0003 	sub.w	r0, r2, r3
    3dfa:	4770      	bx	lr

00003dfc <strlen>:
    3dfc:	4603      	mov	r3, r0
    3dfe:	f813 2b01 	ldrb.w	r2, [r3], #1
    3e02:	2a00      	cmp	r2, #0
    3e04:	d1fb      	bne.n	3dfe <strlen+0x2>
    3e06:	1a18      	subs	r0, r3, r0
    3e08:	3801      	subs	r0, #1
    3e0a:	4770      	bx	lr

00003e0c <strncmp>:
    3e0c:	b570      	push	{r4, r5, r6, lr}
    3e0e:	b192      	cbz	r2, 3e36 <strncmp+0x2a>
    3e10:	460b      	mov	r3, r1
    3e12:	4605      	mov	r5, r0
    3e14:	b91a      	cbnz	r2, 3e1e <strncmp+0x12>
    3e16:	7828      	ldrb	r0, [r5, #0]
    3e18:	7819      	ldrb	r1, [r3, #0]
    3e1a:	1a40      	subs	r0, r0, r1
    3e1c:	bd70      	pop	{r4, r5, r6, pc}
    3e1e:	f810 6b01 	ldrb.w	r6, [r0], #1
    3e22:	781c      	ldrb	r4, [r3, #0]
    3e24:	3101      	adds	r1, #1
    3e26:	42b4      	cmp	r4, r6
    3e28:	d1f5      	bne.n	3e16 <strncmp+0xa>
    3e2a:	2a01      	cmp	r2, #1
    3e2c:	d0f3      	beq.n	3e16 <strncmp+0xa>
    3e2e:	3a01      	subs	r2, #1
    3e30:	2c00      	cmp	r4, #0
    3e32:	d1ed      	bne.n	3e10 <strncmp+0x4>
    3e34:	e7ef      	b.n	3e16 <strncmp+0xa>
    3e36:	4610      	mov	r0, r2
    3e38:	bd70      	pop	{r4, r5, r6, pc}

00003e3a <__ssputc_r>:
    3e3a:	e92d 43f8 	stmdb	sp!, {r3, r4, r5, r6, r7, r8, r9, lr}
    3e3e:	6893      	ldr	r3, [r2, #8]
    3e40:	4606      	mov	r6, r0
    3e42:	4689      	mov	r9, r1
    3e44:	4614      	mov	r4, r2
    3e46:	2b00      	cmp	r3, #0
    3e48:	d141      	bne.n	3ece <__ssputc_r+0x94>
    3e4a:	8992      	ldrh	r2, [r2, #12]
    3e4c:	f412 6f90 	tst.w	r2, #1152	; 0x480
    3e50:	d03d      	beq.n	3ece <__ssputc_r+0x94>
    3e52:	6961      	ldr	r1, [r4, #20]
    3e54:	2503      	movs	r5, #3
    3e56:	434d      	muls	r5, r1
    3e58:	6923      	ldr	r3, [r4, #16]
    3e5a:	6827      	ldr	r7, [r4, #0]
    3e5c:	2002      	movs	r0, #2
    3e5e:	1aff      	subs	r7, r7, r3
    3e60:	fb95 f5f0 	sdiv	r5, r5, r0
    3e64:	1c79      	adds	r1, r7, #1
    3e66:	f402 6280 	and.w	r2, r2, #1024	; 0x400
    3e6a:	42a9      	cmp	r1, r5
    3e6c:	b211      	sxth	r1, r2
    3e6e:	bfa8      	it	ge
    3e70:	183d      	addge	r5, r7, r0
    3e72:	4630      	mov	r0, r6
    3e74:	b179      	cbz	r1, 3e96 <__ssputc_r+0x5c>
    3e76:	4629      	mov	r1, r5
    3e78:	f7ff fdd6 	bl	3a28 <_malloc_r>
    3e7c:	4680      	mov	r8, r0
    3e7e:	b1a0      	cbz	r0, 3eaa <__ssputc_r+0x70>
    3e80:	463a      	mov	r2, r7
    3e82:	6921      	ldr	r1, [r4, #16]
    3e84:	f7ff fe28 	bl	3ad8 <memcpy>
    3e88:	89a3      	ldrh	r3, [r4, #12]
    3e8a:	f423 6090 	bic.w	r0, r3, #1152	; 0x480
    3e8e:	f040 0280 	orr.w	r2, r0, #128	; 0x80
    3e92:	81a2      	strh	r2, [r4, #12]
    3e94:	e013      	b.n	3ebe <__ssputc_r+0x84>
    3e96:	4619      	mov	r1, r3
    3e98:	462a      	mov	r2, r5
    3e9a:	f7ff fe41 	bl	3b20 <_realloc_r>
    3e9e:	4680      	mov	r8, r0
    3ea0:	b968      	cbnz	r0, 3ebe <__ssputc_r+0x84>
    3ea2:	4630      	mov	r0, r6
    3ea4:	6921      	ldr	r1, [r4, #16]
    3ea6:	f7ff fc37 	bl	3718 <_free_r>
    3eaa:	89a0      	ldrh	r0, [r4, #12]
    3eac:	230c      	movs	r3, #12
    3eae:	f040 0240 	orr.w	r2, r0, #64	; 0x40
    3eb2:	6033      	str	r3, [r6, #0]
    3eb4:	f04f 30ff 	mov.w	r0, #4294967295
    3eb8:	81a2      	strh	r2, [r4, #12]
    3eba:	e8bd 83f8 	ldmia.w	sp!, {r3, r4, r5, r6, r7, r8, r9, pc}
    3ebe:	eb08 0107 	add.w	r1, r8, r7
    3ec2:	6165      	str	r5, [r4, #20]
    3ec4:	1bed      	subs	r5, r5, r7
    3ec6:	f8c4 8010 	str.w	r8, [r4, #16]
    3eca:	6021      	str	r1, [r4, #0]
    3ecc:	60a5      	str	r5, [r4, #8]
    3ece:	68a3      	ldr	r3, [r4, #8]
    3ed0:	2b00      	cmp	r3, #0
    3ed2:	dd06      	ble.n	3ee2 <__ssputc_r+0xa8>
    3ed4:	6820      	ldr	r0, [r4, #0]
    3ed6:	f800 9b01 	strb.w	r9, [r0], #1
    3eda:	68a2      	ldr	r2, [r4, #8]
    3edc:	6020      	str	r0, [r4, #0]
    3ede:	1e51      	subs	r1, r2, #1
    3ee0:	60a1      	str	r1, [r4, #8]
    3ee2:	2000      	movs	r0, #0
    3ee4:	e8bd 83f8 	ldmia.w	sp!, {r3, r4, r5, r6, r7, r8, r9, pc}

00003ee8 <_svfiprintf_r>:
    3ee8:	e92d 47f0 	stmdb	sp!, {r4, r5, r6, r7, r8, r9, r10, lr}
    3eec:	b09c      	sub	sp, #112	; 0x70
    3eee:	9303      	str	r3, [sp, #12]
    3ef0:	898b      	ldrh	r3, [r1, #12]
    3ef2:	460d      	mov	r5, r1
    3ef4:	f003 0180 	and.w	r1, r3, #128	; 0x80
    3ef8:	4614      	mov	r4, r2
    3efa:	b20a      	sxth	r2, r1
    3efc:	4606      	mov	r6, r0
    3efe:	b162      	cbz	r2, 3f1a <_svfiprintf_r+0x32>
    3f00:	692b      	ldr	r3, [r5, #16]
    3f02:	b953      	cbnz	r3, 3f1a <_svfiprintf_r+0x32>
    3f04:	2140      	movs	r1, #64	; 0x40
    3f06:	f7ff fd8f 	bl	3a28 <_malloc_r>
    3f0a:	6028      	str	r0, [r5, #0]
    3f0c:	6128      	str	r0, [r5, #16]
    3f0e:	b910      	cbnz	r0, 3f16 <_svfiprintf_r+0x2e>
    3f10:	210c      	movs	r1, #12
    3f12:	6031      	str	r1, [r6, #0]
    3f14:	e0d3      	b.n	40be <_svfiprintf_r+0x1d6>
    3f16:	2040      	movs	r0, #64	; 0x40
    3f18:	6168      	str	r0, [r5, #20]
    3f1a:	2700      	movs	r7, #0
    3f1c:	2120      	movs	r1, #32
    3f1e:	2230      	movs	r2, #48	; 0x30
    3f20:	9709      	str	r7, [sp, #36]	; 0x24
    3f22:	f88d 1029 	strb.w	r1, [sp, #41]	; 0x29
    3f26:	f88d 202a 	strb.w	r2, [sp, #42]	; 0x2a
    3f2a:	4623      	mov	r3, r4
    3f2c:	461f      	mov	r7, r3
    3f2e:	f813 0b01 	ldrb.w	r0, [r3], #1
    3f32:	b928      	cbnz	r0, 3f40 <_svfiprintf_r+0x58>
    3f34:	ebb7 0a04 	subs.w	r10, r7, r4
    3f38:	d016      	beq.n	3f68 <_svfiprintf_r+0x80>
    3f3a:	f04f 0900 	mov.w	r9, #0
    3f3e:	e00d      	b.n	3f5c <_svfiprintf_r+0x74>
    3f40:	2825      	cmp	r0, #37	; 0x25
    3f42:	d1f3      	bne.n	3f2c <_svfiprintf_r+0x44>
    3f44:	e7f6      	b.n	3f34 <_svfiprintf_r+0x4c>
    3f46:	4630      	mov	r0, r6
    3f48:	f814 1009 	ldrb.w	r1, [r4, r9]
    3f4c:	462a      	mov	r2, r5
    3f4e:	f7ff ff74 	bl	3e3a <__ssputc_r>
    3f52:	3001      	adds	r0, #1
    3f54:	f000 80ac 	beq.w	40b0 <_svfiprintf_r+0x1c8>
    3f58:	f109 0901 	add.w	r9, r9, #1
    3f5c:	45d1      	cmp	r9, r10
    3f5e:	dbf2      	blt.n	3f46 <_svfiprintf_r+0x5e>
    3f60:	9909      	ldr	r1, [sp, #36]	; 0x24
    3f62:	eb01 020a 	add.w	r2, r1, r10
    3f66:	9209      	str	r2, [sp, #36]	; 0x24
    3f68:	783b      	ldrb	r3, [r7, #0]
    3f6a:	2b00      	cmp	r3, #0
    3f6c:	f000 80a0 	beq.w	40b0 <_svfiprintf_r+0x1c8>
    3f70:	2400      	movs	r4, #0
    3f72:	f04f 30ff 	mov.w	r0, #4294967295
    3f76:	9404      	str	r4, [sp, #16]
    3f78:	9407      	str	r4, [sp, #28]
    3f7a:	9005      	str	r0, [sp, #20]
    3f7c:	9406      	str	r4, [sp, #24]
    3f7e:	f88d 4053 	strb.w	r4, [sp, #83]	; 0x53
    3f82:	941a      	str	r4, [sp, #104]	; 0x68
    3f84:	f107 0901 	add.w	r9, r7, #1
    3f88:	4f4f      	ldr	r7, [pc, #316]	; (40c8 <_svfiprintf_r+0x1e0>)
    3f8a:	464c      	mov	r4, r9
    3f8c:	4638      	mov	r0, r7
    3f8e:	7821      	ldrb	r1, [r4, #0]
    3f90:	2205      	movs	r2, #5
    3f92:	f7ff fd93 	bl	3abc <memchr>
    3f96:	f109 0901 	add.w	r9, r9, #1
    3f9a:	9b04      	ldr	r3, [sp, #16]
    3f9c:	b130      	cbz	r0, 3fac <_svfiprintf_r+0xc4>
    3f9e:	1bc4      	subs	r4, r0, r7
    3fa0:	2701      	movs	r7, #1
    3fa2:	fa07 f704 	lsl.w	r7, r7, r4
    3fa6:	433b      	orrs	r3, r7
    3fa8:	9304      	str	r3, [sp, #16]
    3faa:	e7ed      	b.n	3f88 <_svfiprintf_r+0xa0>
    3fac:	06d9      	lsls	r1, r3, #27
    3fae:	d502      	bpl.n	3fb6 <_svfiprintf_r+0xce>
    3fb0:	2120      	movs	r1, #32
    3fb2:	f88d 1053 	strb.w	r1, [sp, #83]	; 0x53
    3fb6:	071a      	lsls	r2, r3, #28
    3fb8:	d502      	bpl.n	3fc0 <_svfiprintf_r+0xd8>
    3fba:	222b      	movs	r2, #43	; 0x2b
    3fbc:	f88d 2053 	strb.w	r2, [sp, #83]	; 0x53
    3fc0:	7820      	ldrb	r0, [r4, #0]
    3fc2:	282a      	cmp	r0, #42	; 0x2a
    3fc4:	d002      	beq.n	3fcc <_svfiprintf_r+0xe4>
    3fc6:	9b07      	ldr	r3, [sp, #28]
    3fc8:	4627      	mov	r7, r4
    3fca:	e00e      	b.n	3fea <_svfiprintf_r+0x102>
    3fcc:	9a03      	ldr	r2, [sp, #12]
    3fce:	6817      	ldr	r7, [r2, #0]
    3fd0:	1d10      	adds	r0, r2, #4
    3fd2:	2f00      	cmp	r7, #0
    3fd4:	9003      	str	r0, [sp, #12]
    3fd6:	db01      	blt.n	3fdc <_svfiprintf_r+0xf4>
    3fd8:	9707      	str	r7, [sp, #28]
    3fda:	e004      	b.n	3fe6 <_svfiprintf_r+0xfe>
    3fdc:	4279      	negs	r1, r7
    3fde:	f043 0302 	orr.w	r3, r3, #2
    3fe2:	9107      	str	r1, [sp, #28]
    3fe4:	9304      	str	r3, [sp, #16]
    3fe6:	3401      	adds	r4, #1
    3fe8:	e00a      	b.n	4000 <_svfiprintf_r+0x118>
    3fea:	463c      	mov	r4, r7
    3fec:	7821      	ldrb	r1, [r4, #0]
    3fee:	3701      	adds	r7, #1
    3ff0:	3930      	subs	r1, #48	; 0x30
    3ff2:	2909      	cmp	r1, #9
    3ff4:	d803      	bhi.n	3ffe <_svfiprintf_r+0x116>
    3ff6:	240a      	movs	r4, #10
    3ff8:	fb04 1303 	mla	r3, r4, r3, r1
    3ffc:	e7f5      	b.n	3fea <_svfiprintf_r+0x102>
    3ffe:	9307      	str	r3, [sp, #28]
    4000:	7822      	ldrb	r2, [r4, #0]
    4002:	2a2e      	cmp	r2, #46	; 0x2e
    4004:	d119      	bne.n	403a <_svfiprintf_r+0x152>
    4006:	7860      	ldrb	r0, [r4, #1]
    4008:	282a      	cmp	r0, #42	; 0x2a
    400a:	d109      	bne.n	4020 <_svfiprintf_r+0x138>
    400c:	9803      	ldr	r0, [sp, #12]
    400e:	3402      	adds	r4, #2
    4010:	6803      	ldr	r3, [r0, #0]
    4012:	1d02      	adds	r2, r0, #4
    4014:	2b00      	cmp	r3, #0
    4016:	9203      	str	r2, [sp, #12]
    4018:	bfb8      	it	lt
    401a:	f04f 33ff 	movlt.w	r3, #4294967295
    401e:	e00b      	b.n	4038 <_svfiprintf_r+0x150>
    4020:	1c67      	adds	r7, r4, #1
    4022:	2300      	movs	r3, #0
    4024:	463c      	mov	r4, r7
    4026:	7821      	ldrb	r1, [r4, #0]
    4028:	3701      	adds	r7, #1
    402a:	3930      	subs	r1, #48	; 0x30
    402c:	2909      	cmp	r1, #9
    402e:	d803      	bhi.n	4038 <_svfiprintf_r+0x150>
    4030:	240a      	movs	r4, #10
    4032:	fb04 1303 	mla	r3, r4, r3, r1
    4036:	e7f5      	b.n	4024 <_svfiprintf_r+0x13c>
    4038:	9305      	str	r3, [sp, #20]
    403a:	4f24      	ldr	r7, [pc, #144]	; (40cc <_svfiprintf_r+0x1e4>)
    403c:	7821      	ldrb	r1, [r4, #0]
    403e:	4638      	mov	r0, r7
    4040:	2203      	movs	r2, #3
    4042:	f7ff fd3b 	bl	3abc <memchr>
    4046:	b138      	cbz	r0, 4058 <_svfiprintf_r+0x170>
    4048:	1bc7      	subs	r7, r0, r7
    404a:	2140      	movs	r1, #64	; 0x40
    404c:	fa01 f107 	lsl.w	r1, r1, r7
    4050:	9b04      	ldr	r3, [sp, #16]
    4052:	3401      	adds	r4, #1
    4054:	430b      	orrs	r3, r1
    4056:	9304      	str	r3, [sp, #16]
    4058:	f814 1b01 	ldrb.w	r1, [r4], #1
    405c:	481c      	ldr	r0, [pc, #112]	; (40d0 <_svfiprintf_r+0x1e8>)
    405e:	2206      	movs	r2, #6
    4060:	f88d 1028 	strb.w	r1, [sp, #40]	; 0x28
    4064:	f7ff fd2a 	bl	3abc <memchr>
    4068:	b188      	cbz	r0, 408e <_svfiprintf_r+0x1a6>
    406a:	4a1a      	ldr	r2, [pc, #104]	; (40d4 <_svfiprintf_r+0x1ec>)
    406c:	b932      	cbnz	r2, 407c <_svfiprintf_r+0x194>
    406e:	9f03      	ldr	r7, [sp, #12]
    4070:	1dfb      	adds	r3, r7, #7
    4072:	f023 0007 	bic.w	r0, r3, #7
    4076:	3008      	adds	r0, #8
    4078:	9003      	str	r0, [sp, #12]
    407a:	e014      	b.n	40a6 <_svfiprintf_r+0x1be>
    407c:	a903      	add	r1, sp, #12
    407e:	9100      	str	r1, [sp, #0]
    4080:	4630      	mov	r0, r6
    4082:	a904      	add	r1, sp, #16
    4084:	462a      	mov	r2, r5
    4086:	4b14      	ldr	r3, [pc, #80]	; (40d8 <_svfiprintf_r+0x1f0>)
    4088:	f000 fbf8 	bl	487c <_printf_float>
    408c:	e007      	b.n	409e <_svfiprintf_r+0x1b6>
    408e:	a803      	add	r0, sp, #12
    4090:	9000      	str	r0, [sp, #0]
    4092:	a904      	add	r1, sp, #16
    4094:	4630      	mov	r0, r6
    4096:	462a      	mov	r2, r5
    4098:	4b0f      	ldr	r3, [pc, #60]	; (40d8 <_svfiprintf_r+0x1f0>)
    409a:	f000 feb1 	bl	4e00 <_printf_i>
    409e:	f1b0 3fff 	cmp.w	r0, #4294967295
    40a2:	4680      	mov	r8, r0
    40a4:	d004      	beq.n	40b0 <_svfiprintf_r+0x1c8>
    40a6:	9a09      	ldr	r2, [sp, #36]	; 0x24
    40a8:	eb02 0108 	add.w	r1, r2, r8
    40ac:	9109      	str	r1, [sp, #36]	; 0x24
    40ae:	e73c      	b.n	3f2a <_svfiprintf_r+0x42>
    40b0:	89ab      	ldrh	r3, [r5, #12]
    40b2:	f003 0040 	and.w	r0, r3, #64	; 0x40
    40b6:	b202      	sxth	r2, r0
    40b8:	b90a      	cbnz	r2, 40be <_svfiprintf_r+0x1d6>
    40ba:	9809      	ldr	r0, [sp, #36]	; 0x24
    40bc:	e001      	b.n	40c2 <_svfiprintf_r+0x1da>
    40be:	f04f 30ff 	mov.w	r0, #4294967295
    40c2:	b01c      	add	sp, #112	; 0x70
    40c4:	e8bd 87f0 	ldmia.w	sp!, {r4, r5, r6, r7, r8, r9, r10, pc}
    40c8:	00008aa8 	.word	0x00008aa8
    40cc:	00008aae 	.word	0x00008aae
    40d0:	00008ab2 	.word	0x00008ab2
    40d4:	0000487d 	.word	0x0000487d
    40d8:	00003e3b 	.word	0x00003e3b

000040dc <_sungetc_r>:
    40dc:	b538      	push	{r3, r4, r5, lr}
    40de:	1c4b      	adds	r3, r1, #1
    40e0:	4614      	mov	r4, r2
    40e2:	d102      	bne.n	40ea <_sungetc_r+0xe>
    40e4:	f04f 35ff 	mov.w	r5, #4294967295
    40e8:	e033      	b.n	4152 <_sungetc_r+0x76>
    40ea:	8993      	ldrh	r3, [r2, #12]
    40ec:	b2cd      	uxtb	r5, r1
    40ee:	6b61      	ldr	r1, [r4, #52]	; 0x34
    40f0:	f023 0220 	bic.w	r2, r3, #32
    40f4:	81a2      	strh	r2, [r4, #12]
    40f6:	b179      	cbz	r1, 4118 <_sungetc_r+0x3c>
    40f8:	6862      	ldr	r2, [r4, #4]
    40fa:	6ba1      	ldr	r1, [r4, #56]	; 0x38
    40fc:	428a      	cmp	r2, r1
    40fe:	da05      	bge.n	410c <_sungetc_r+0x30>
    4100:	6820      	ldr	r0, [r4, #0]
    4102:	1e43      	subs	r3, r0, #1
    4104:	6023      	str	r3, [r4, #0]
    4106:	f800 5c01 	strb.w	r5, [r0, #-1]
    410a:	e010      	b.n	412e <_sungetc_r+0x52>
    410c:	4621      	mov	r1, r4
    410e:	f000 f9a7 	bl	4460 <__submore>
    4112:	2800      	cmp	r0, #0
    4114:	d0f4      	beq.n	4100 <_sungetc_r+0x24>
    4116:	e7e5      	b.n	40e4 <_sungetc_r+0x8>
    4118:	6920      	ldr	r0, [r4, #16]
    411a:	b158      	cbz	r0, 4134 <_sungetc_r+0x58>
    411c:	6823      	ldr	r3, [r4, #0]
    411e:	4283      	cmp	r3, r0
    4120:	d908      	bls.n	4134 <_sungetc_r+0x58>
    4122:	f813 2c01 	ldrb.w	r2, [r3, #-1]
    4126:	42aa      	cmp	r2, r5
    4128:	d104      	bne.n	4134 <_sungetc_r+0x58>
    412a:	3b01      	subs	r3, #1
    412c:	6023      	str	r3, [r4, #0]
    412e:	6862      	ldr	r2, [r4, #4]
    4130:	1c50      	adds	r0, r2, #1
    4132:	e00d      	b.n	4150 <_sungetc_r+0x74>
    4134:	6861      	ldr	r1, [r4, #4]
    4136:	6820      	ldr	r0, [r4, #0]
    4138:	6421      	str	r1, [r4, #64]	; 0x40
    413a:	4621      	mov	r1, r4
    413c:	f104 0344 	add.w	r3, r4, #68	; 0x44
    4140:	2203      	movs	r2, #3
    4142:	f801 5f46 	strb.w	r5, [r1, #70]!
    4146:	63e0      	str	r0, [r4, #60]	; 0x3c
    4148:	6363      	str	r3, [r4, #52]	; 0x34
    414a:	63a2      	str	r2, [r4, #56]	; 0x38
    414c:	6021      	str	r1, [r4, #0]
    414e:	2001      	movs	r0, #1
    4150:	6060      	str	r0, [r4, #4]
    4152:	4628      	mov	r0, r5
    4154:	bd38      	pop	{r3, r4, r5, pc}

00004156 <__ssrefill_r>:
    4156:	b510      	push	{r4, lr}
    4158:	460c      	mov	r4, r1
    415a:	6b49      	ldr	r1, [r1, #52]	; 0x34
    415c:	b169      	cbz	r1, 417a <__ssrefill_r+0x24>
    415e:	f104 0344 	add.w	r3, r4, #68	; 0x44
    4162:	4299      	cmp	r1, r3
    4164:	d001      	beq.n	416a <__ssrefill_r+0x14>
    4166:	f7ff fad7 	bl	3718 <_free_r>
    416a:	6c21      	ldr	r1, [r4, #64]	; 0x40
    416c:	2000      	movs	r0, #0
    416e:	6360      	str	r0, [r4, #52]	; 0x34
    4170:	6061      	str	r1, [r4, #4]
    4172:	b111      	cbz	r1, 417a <__ssrefill_r+0x24>
    4174:	6be2      	ldr	r2, [r4, #60]	; 0x3c
    4176:	6022      	str	r2, [r4, #0]
    4178:	bd10      	pop	{r4, pc}
    417a:	89a3      	ldrh	r3, [r4, #12]
    417c:	6920      	ldr	r0, [r4, #16]
    417e:	2200      	movs	r2, #0
    4180:	f043 0120 	orr.w	r1, r3, #32
    4184:	6020      	str	r0, [r4, #0]
    4186:	6062      	str	r2, [r4, #4]
    4188:	81a1      	strh	r1, [r4, #12]
    418a:	f04f 30ff 	mov.w	r0, #4294967295
    418e:	bd10      	pop	{r4, pc}

00004190 <__ssvfiscanf_r>:
    4190:	e92d 41f0 	stmdb	sp!, {r4, r5, r6, r7, r8, lr}
    4194:	f5ad 7d24 	sub.w	sp, sp, #656	; 0x290
    4198:	4607      	mov	r7, r0
    419a:	460c      	mov	r4, r1
    419c:	4690      	mov	r8, r2
    419e:	9301      	str	r3, [sp, #4]
    41a0:	f7ff fa5c 	bl	365c <__sfp_lock_acquire>
    41a4:	4996      	ldr	r1, [pc, #600]	; (4400 <__ssvfiscanf_r+0x270>)
    41a6:	4a97      	ldr	r2, [pc, #604]	; (4404 <__ssvfiscanf_r+0x274>)
    41a8:	2300      	movs	r3, #0
    41aa:	a803      	add	r0, sp, #12
    41ac:	9346      	str	r3, [sp, #280]	; 0x118
    41ae:	9347      	str	r3, [sp, #284]	; 0x11c
    41b0:	9048      	str	r0, [sp, #288]	; 0x120
    41b2:	91a2      	str	r1, [sp, #648]	; 0x288
    41b4:	92a3      	str	r2, [sp, #652]	; 0x28c
    41b6:	f898 5000 	ldrb.w	r5, [r8]
    41ba:	2d00      	cmp	r5, #0
    41bc:	f000 8147 	beq.w	444e <__ssvfiscanf_r+0x2be>
    41c0:	4e91      	ldr	r6, [pc, #580]	; (4408 <__ssvfiscanf_r+0x278>)
    41c2:	6833      	ldr	r3, [r6, #0]
    41c4:	1958      	adds	r0, r3, r5
    41c6:	7841      	ldrb	r1, [r0, #1]
    41c8:	f001 0208 	and.w	r2, r1, #8
    41cc:	b2d3      	uxtb	r3, r2
    41ce:	b1fb      	cbz	r3, 4210 <__ssvfiscanf_r+0x80>
    41d0:	6866      	ldr	r6, [r4, #4]
    41d2:	2e00      	cmp	r6, #0
    41d4:	dd12      	ble.n	41fc <__ssvfiscanf_r+0x6c>
    41d6:	4a8c      	ldr	r2, [pc, #560]	; (4408 <__ssvfiscanf_r+0x278>)
    41d8:	6820      	ldr	r0, [r4, #0]
    41da:	6811      	ldr	r1, [r2, #0]
    41dc:	7803      	ldrb	r3, [r0, #0]
    41de:	18ce      	adds	r6, r1, r3
    41e0:	7875      	ldrb	r5, [r6, #1]
    41e2:	f005 0308 	and.w	r3, r5, #8
    41e6:	b2da      	uxtb	r2, r3
    41e8:	b172      	cbz	r2, 4208 <__ssvfiscanf_r+0x78>
    41ea:	9947      	ldr	r1, [sp, #284]	; 0x11c
    41ec:	6865      	ldr	r5, [r4, #4]
    41ee:	1c4e      	adds	r6, r1, #1
    41f0:	1e6b      	subs	r3, r5, #1
    41f2:	3001      	adds	r0, #1
    41f4:	9647      	str	r6, [sp, #284]	; 0x11c
    41f6:	6063      	str	r3, [r4, #4]
    41f8:	6020      	str	r0, [r4, #0]
    41fa:	e7e9      	b.n	41d0 <__ssvfiscanf_r+0x40>
    41fc:	4638      	mov	r0, r7
    41fe:	4621      	mov	r1, r4
    4200:	9da3      	ldr	r5, [sp, #652]	; 0x28c
    4202:	47a8      	blx	r5
    4204:	2800      	cmp	r0, #0
    4206:	d0e6      	beq.n	41d6 <__ssvfiscanf_r+0x46>
    4208:	f108 0601 	add.w	r6, r8, #1
    420c:	46b0      	mov	r8, r6
    420e:	e7d2      	b.n	41b6 <__ssvfiscanf_r+0x26>
    4210:	2d25      	cmp	r5, #37	; 0x25
    4212:	f108 0601 	add.w	r6, r8, #1
    4216:	d15d      	bne.n	42d4 <__ssvfiscanf_r+0x144>
    4218:	9345      	str	r3, [sp, #276]	; 0x114
    421a:	9343      	str	r3, [sp, #268]	; 0x10c
    421c:	f898 5001 	ldrb.w	r5, [r8, #1]
    4220:	2d2a      	cmp	r5, #42	; 0x2a
    4222:	d103      	bne.n	422c <__ssvfiscanf_r+0x9c>
    4224:	2610      	movs	r6, #16
    4226:	9643      	str	r6, [sp, #268]	; 0x10c
    4228:	f108 0602 	add.w	r6, r8, #2
    422c:	7830      	ldrb	r0, [r6, #0]
    422e:	4633      	mov	r3, r6
    4230:	f1a0 0130 	sub.w	r1, r0, #48	; 0x30
    4234:	3601      	adds	r6, #1
    4236:	2909      	cmp	r1, #9
    4238:	d806      	bhi.n	4248 <__ssvfiscanf_r+0xb8>
    423a:	9d45      	ldr	r5, [sp, #276]	; 0x114
    423c:	210a      	movs	r1, #10
    423e:	fb01 0005 	mla	r0, r1, r5, r0
    4242:	3830      	subs	r0, #48	; 0x30
    4244:	9045      	str	r0, [sp, #276]	; 0x114
    4246:	e7f1      	b.n	422c <__ssvfiscanf_r+0x9c>
    4248:	2868      	cmp	r0, #104	; 0x68
    424a:	d104      	bne.n	4256 <__ssvfiscanf_r+0xc6>
    424c:	9a43      	ldr	r2, [sp, #268]	; 0x10c
    424e:	f042 0301 	orr.w	r3, r2, #1
    4252:	9343      	str	r3, [sp, #268]	; 0x10c
    4254:	4633      	mov	r3, r6
    4256:	781d      	ldrb	r5, [r3, #0]
    4258:	2d6c      	cmp	r5, #108	; 0x6c
    425a:	d104      	bne.n	4266 <__ssvfiscanf_r+0xd6>
    425c:	9e43      	ldr	r6, [sp, #268]	; 0x10c
    425e:	3301      	adds	r3, #1
    4260:	f046 0002 	orr.w	r0, r6, #2
    4264:	9043      	str	r0, [sp, #268]	; 0x10c
    4266:	7819      	ldrb	r1, [r3, #0]
    4268:	294c      	cmp	r1, #76	; 0x4c
    426a:	d104      	bne.n	4276 <__ssvfiscanf_r+0xe6>
    426c:	9a43      	ldr	r2, [sp, #268]	; 0x10c
    426e:	3301      	adds	r3, #1
    4270:	f042 0504 	orr.w	r5, r2, #4
    4274:	9543      	str	r5, [sp, #268]	; 0x10c
    4276:	461e      	mov	r6, r3
    4278:	f816 5b01 	ldrb.w	r5, [r6], #1
    427c:	2d69      	cmp	r5, #105	; 0x69
    427e:	d056      	beq.n	432e <__ssvfiscanf_r+0x19e>
    4280:	d816      	bhi.n	42b0 <__ssvfiscanf_r+0x120>
    4282:	2d64      	cmp	r5, #100	; 0x64
    4284:	d04e      	beq.n	4324 <__ssvfiscanf_r+0x194>
    4286:	d80f      	bhi.n	42a8 <__ssvfiscanf_r+0x118>
    4288:	2d5b      	cmp	r5, #91	; 0x5b
    428a:	d056      	beq.n	433a <__ssvfiscanf_r+0x1aa>
    428c:	d804      	bhi.n	4298 <__ssvfiscanf_r+0x108>
    428e:	2d00      	cmp	r5, #0
    4290:	d07b      	beq.n	438a <__ssvfiscanf_r+0x1fa>
    4292:	2d25      	cmp	r5, #37	; 0x25
    4294:	d17c      	bne.n	4390 <__ssvfiscanf_r+0x200>
    4296:	e01d      	b.n	42d4 <__ssvfiscanf_r+0x144>
    4298:	2d63      	cmp	r5, #99	; 0x63
    429a:	d179      	bne.n	4390 <__ssvfiscanf_r+0x200>
    429c:	9843      	ldr	r0, [sp, #268]	; 0x10c
    429e:	f040 0140 	orr.w	r1, r0, #64	; 0x40
    42a2:	9143      	str	r1, [sp, #268]	; 0x10c
    42a4:	2000      	movs	r0, #0
    42a6:	e052      	b.n	434e <__ssvfiscanf_r+0x1be>
    42a8:	2d67      	cmp	r5, #103	; 0x67
    42aa:	d871      	bhi.n	4390 <__ssvfiscanf_r+0x200>
    42ac:	2005      	movs	r0, #5
    42ae:	e04e      	b.n	434e <__ssvfiscanf_r+0x1be>
    42b0:	2d70      	cmp	r5, #112	; 0x70
    42b2:	d02d      	beq.n	4310 <__ssvfiscanf_r+0x180>
    42b4:	d806      	bhi.n	42c4 <__ssvfiscanf_r+0x134>
    42b6:	2d6e      	cmp	r5, #110	; 0x6e
    42b8:	d04b      	beq.n	4352 <__ssvfiscanf_r+0x1c2>
    42ba:	2d6f      	cmp	r5, #111	; 0x6f
    42bc:	d168      	bne.n	4390 <__ssvfiscanf_r+0x200>
    42be:	2108      	movs	r1, #8
    42c0:	9144      	str	r1, [sp, #272]	; 0x110
    42c2:	e038      	b.n	4336 <__ssvfiscanf_r+0x1a6>
    42c4:	2d75      	cmp	r5, #117	; 0x75
    42c6:	d02d      	beq.n	4324 <__ssvfiscanf_r+0x194>
    42c8:	2d78      	cmp	r5, #120	; 0x78
    42ca:	d025      	beq.n	4318 <__ssvfiscanf_r+0x188>
    42cc:	2d73      	cmp	r5, #115	; 0x73
    42ce:	d15f      	bne.n	4390 <__ssvfiscanf_r+0x200>
    42d0:	2002      	movs	r0, #2
    42d2:	e03c      	b.n	434e <__ssvfiscanf_r+0x1be>
    42d4:	6863      	ldr	r3, [r4, #4]
    42d6:	2b00      	cmp	r3, #0
    42d8:	dd0d      	ble.n	42f6 <__ssvfiscanf_r+0x166>
    42da:	6821      	ldr	r1, [r4, #0]
    42dc:	7808      	ldrb	r0, [r1, #0]
    42de:	42a8      	cmp	r0, r5
    42e0:	f040 80b5 	bne.w	444e <__ssvfiscanf_r+0x2be>
    42e4:	6865      	ldr	r5, [r4, #4]
    42e6:	1c4a      	adds	r2, r1, #1
    42e8:	9947      	ldr	r1, [sp, #284]	; 0x11c
    42ea:	1e6b      	subs	r3, r5, #1
    42ec:	1c48      	adds	r0, r1, #1
    42ee:	6063      	str	r3, [r4, #4]
    42f0:	6022      	str	r2, [r4, #0]
    42f2:	9047      	str	r0, [sp, #284]	; 0x11c
    42f4:	e78a      	b.n	420c <__ssvfiscanf_r+0x7c>
    42f6:	4638      	mov	r0, r7
    42f8:	4621      	mov	r1, r4
    42fa:	9aa3      	ldr	r2, [sp, #652]	; 0x28c
    42fc:	4790      	blx	r2
    42fe:	2800      	cmp	r0, #0
    4300:	d0eb      	beq.n	42da <__ssvfiscanf_r+0x14a>
    4302:	f7ff f9ac 	bl	365e <__sfp_lock_release>
    4306:	9846      	ldr	r0, [sp, #280]	; 0x118
    4308:	2800      	cmp	r0, #0
    430a:	f040 8098 	bne.w	443e <__ssvfiscanf_r+0x2ae>
    430e:	e09b      	b.n	4448 <__ssvfiscanf_r+0x2b8>
    4310:	9943      	ldr	r1, [sp, #268]	; 0x10c
    4312:	f041 0320 	orr.w	r3, r1, #32
    4316:	9343      	str	r3, [sp, #268]	; 0x10c
    4318:	9843      	ldr	r0, [sp, #268]	; 0x10c
    431a:	f440 7200 	orr.w	r2, r0, #512	; 0x200
    431e:	9243      	str	r2, [sp, #268]	; 0x10c
    4320:	2210      	movs	r2, #16
    4322:	e000      	b.n	4326 <__ssvfiscanf_r+0x196>
    4324:	220a      	movs	r2, #10
    4326:	2d6e      	cmp	r5, #110	; 0x6e
    4328:	9244      	str	r2, [sp, #272]	; 0x110
    432a:	dc04      	bgt.n	4336 <__ssvfiscanf_r+0x1a6>
    432c:	e001      	b.n	4332 <__ssvfiscanf_r+0x1a2>
    432e:	2100      	movs	r1, #0
    4330:	9144      	str	r1, [sp, #272]	; 0x110
    4332:	2003      	movs	r0, #3
    4334:	e00b      	b.n	434e <__ssvfiscanf_r+0x1be>
    4336:	2004      	movs	r0, #4
    4338:	e009      	b.n	434e <__ssvfiscanf_r+0x1be>
    433a:	4631      	mov	r1, r6
    433c:	a803      	add	r0, sp, #12
    433e:	f002 fdd1 	bl	6ee4 <__sccl>
    4342:	9a43      	ldr	r2, [sp, #268]	; 0x10c
    4344:	4606      	mov	r6, r0
    4346:	f042 0340 	orr.w	r3, r2, #64	; 0x40
    434a:	9343      	str	r3, [sp, #268]	; 0x10c
    434c:	2001      	movs	r0, #1
    434e:	9049      	str	r0, [sp, #292]	; 0x124
    4350:	e022      	b.n	4398 <__ssvfiscanf_r+0x208>
    4352:	9d43      	ldr	r5, [sp, #268]	; 0x10c
    4354:	06e8      	lsls	r0, r5, #27
    4356:	f53f af59 	bmi.w	420c <__ssvfiscanf_r+0x7c>
    435a:	07e9      	lsls	r1, r5, #31
    435c:	d506      	bpl.n	436c <__ssvfiscanf_r+0x1dc>
    435e:	9801      	ldr	r0, [sp, #4]
    4360:	9d47      	ldr	r5, [sp, #284]	; 0x11c
    4362:	1d02      	adds	r2, r0, #4
    4364:	9201      	str	r2, [sp, #4]
    4366:	6801      	ldr	r1, [r0, #0]
    4368:	800d      	strh	r5, [r1, #0]
    436a:	e74f      	b.n	420c <__ssvfiscanf_r+0x7c>
    436c:	9b01      	ldr	r3, [sp, #4]
    436e:	f015 0f02 	tst.w	r5, #2
    4372:	f103 0204 	add.w	r2, r3, #4
    4376:	9201      	str	r2, [sp, #4]
    4378:	d003      	beq.n	4382 <__ssvfiscanf_r+0x1f2>
    437a:	681d      	ldr	r5, [r3, #0]
    437c:	9b47      	ldr	r3, [sp, #284]	; 0x11c
    437e:	602b      	str	r3, [r5, #0]
    4380:	e744      	b.n	420c <__ssvfiscanf_r+0x7c>
    4382:	9847      	ldr	r0, [sp, #284]	; 0x11c
    4384:	6819      	ldr	r1, [r3, #0]
    4386:	6008      	str	r0, [r1, #0]
    4388:	e740      	b.n	420c <__ssvfiscanf_r+0x7c>
    438a:	f7ff f968 	bl	365e <__sfp_lock_release>
    438e:	e05b      	b.n	4448 <__ssvfiscanf_r+0x2b8>
    4390:	2303      	movs	r3, #3
    4392:	200a      	movs	r0, #10
    4394:	9349      	str	r3, [sp, #292]	; 0x124
    4396:	9044      	str	r0, [sp, #272]	; 0x110
    4398:	6863      	ldr	r3, [r4, #4]
    439a:	2b00      	cmp	r3, #0
    439c:	dd03      	ble.n	43a6 <__ssvfiscanf_r+0x216>
    439e:	9843      	ldr	r0, [sp, #268]	; 0x10c
    43a0:	0642      	lsls	r2, r0, #25
    43a2:	d511      	bpl.n	43c8 <__ssvfiscanf_r+0x238>
    43a4:	e01b      	b.n	43de <__ssvfiscanf_r+0x24e>
    43a6:	4638      	mov	r0, r7
    43a8:	4621      	mov	r1, r4
    43aa:	9aa3      	ldr	r2, [sp, #652]	; 0x28c
    43ac:	4790      	blx	r2
    43ae:	2800      	cmp	r0, #0
    43b0:	d0f5      	beq.n	439e <__ssvfiscanf_r+0x20e>
    43b2:	e7a6      	b.n	4302 <__ssvfiscanf_r+0x172>
    43b4:	9847      	ldr	r0, [sp, #284]	; 0x11c
    43b6:	6861      	ldr	r1, [r4, #4]
    43b8:	1c42      	adds	r2, r0, #1
    43ba:	1e48      	subs	r0, r1, #1
    43bc:	2800      	cmp	r0, #0
    43be:	9247      	str	r2, [sp, #284]	; 0x11c
    43c0:	6060      	str	r0, [r4, #4]
    43c2:	dd16      	ble.n	43f2 <__ssvfiscanf_r+0x262>
    43c4:	1c5a      	adds	r2, r3, #1
    43c6:	6022      	str	r2, [r4, #0]
    43c8:	490f      	ldr	r1, [pc, #60]	; (4408 <__ssvfiscanf_r+0x278>)
    43ca:	6823      	ldr	r3, [r4, #0]
    43cc:	6808      	ldr	r0, [r1, #0]
    43ce:	781a      	ldrb	r2, [r3, #0]
    43d0:	1882      	adds	r2, r0, r2
    43d2:	7851      	ldrb	r1, [r2, #1]
    43d4:	f001 0008 	and.w	r0, r1, #8
    43d8:	b2c2      	uxtb	r2, r0
    43da:	2a00      	cmp	r2, #0
    43dc:	d1ea      	bne.n	43b4 <__ssvfiscanf_r+0x224>
    43de:	9b49      	ldr	r3, [sp, #292]	; 0x124
    43e0:	2b02      	cmp	r3, #2
    43e2:	dc13      	bgt.n	440c <__ssvfiscanf_r+0x27c>
    43e4:	4638      	mov	r0, r7
    43e6:	a943      	add	r1, sp, #268	; 0x10c
    43e8:	4622      	mov	r2, r4
    43ea:	ab01      	add	r3, sp, #4
    43ec:	f001 f808 	bl	5400 <_scanf_chars>
    43f0:	e01f      	b.n	4432 <__ssvfiscanf_r+0x2a2>
    43f2:	4638      	mov	r0, r7
    43f4:	4621      	mov	r1, r4
    43f6:	9ba3      	ldr	r3, [sp, #652]	; 0x28c
    43f8:	4798      	blx	r3
    43fa:	2800      	cmp	r0, #0
    43fc:	d0e4      	beq.n	43c8 <__ssvfiscanf_r+0x238>
    43fe:	e780      	b.n	4302 <__ssvfiscanf_r+0x172>
    4400:	000040dd 	.word	0x000040dd
    4404:	00004157 	.word	0x00004157
    4408:	10000138 	.word	0x10000138
    440c:	2b04      	cmp	r3, #4
    440e:	dc06      	bgt.n	441e <__ssvfiscanf_r+0x28e>
    4410:	4638      	mov	r0, r7
    4412:	a943      	add	r1, sp, #268	; 0x10c
    4414:	4622      	mov	r2, r4
    4416:	ab01      	add	r3, sp, #4
    4418:	f001 f858 	bl	54cc <_scanf_i>
    441c:	e009      	b.n	4432 <__ssvfiscanf_r+0x2a2>
    441e:	490f      	ldr	r1, [pc, #60]	; (445c <__ssvfiscanf_r+0x2cc>)
    4420:	2900      	cmp	r1, #0
    4422:	f43f aef3 	beq.w	420c <__ssvfiscanf_r+0x7c>
    4426:	4638      	mov	r0, r7
    4428:	a943      	add	r1, sp, #268	; 0x10c
    442a:	4622      	mov	r2, r4
    442c:	ab01      	add	r3, sp, #4
    442e:	f000 fe0b 	bl	5048 <_scanf_float>
    4432:	2801      	cmp	r0, #1
    4434:	d00b      	beq.n	444e <__ssvfiscanf_r+0x2be>
    4436:	2802      	cmp	r0, #2
    4438:	f47f aee8 	bne.w	420c <__ssvfiscanf_r+0x7c>
    443c:	e761      	b.n	4302 <__ssvfiscanf_r+0x172>
    443e:	89a3      	ldrh	r3, [r4, #12]
    4440:	f003 0240 	and.w	r2, r3, #64	; 0x40
    4444:	b211      	sxth	r1, r2
    4446:	b129      	cbz	r1, 4454 <__ssvfiscanf_r+0x2c4>
    4448:	f04f 30ff 	mov.w	r0, #4294967295
    444c:	e002      	b.n	4454 <__ssvfiscanf_r+0x2c4>
    444e:	f7ff f906 	bl	365e <__sfp_lock_release>
    4452:	9846      	ldr	r0, [sp, #280]	; 0x118
    4454:	f50d 7d24 	add.w	sp, sp, #656	; 0x290
    4458:	e8bd 81f0 	ldmia.w	sp!, {r4, r5, r6, r7, r8, pc}
    445c:	00005049 	.word	0x00005049

00004460 <__submore>:
    4460:	e92d 41f0 	stmdb	sp!, {r4, r5, r6, r7, r8, lr}
    4464:	460c      	mov	r4, r1
    4466:	6b49      	ldr	r1, [r1, #52]	; 0x34
    4468:	f104 0344 	add.w	r3, r4, #68	; 0x44
    446c:	4299      	cmp	r1, r3
    446e:	d11c      	bne.n	44aa <__submore+0x4a>
    4470:	f44f 6180 	mov.w	r1, #1024	; 0x400
    4474:	f7ff fad8 	bl	3a28 <_malloc_r>
    4478:	b918      	cbnz	r0, 4482 <__submore+0x22>
    447a:	f04f 30ff 	mov.w	r0, #4294967295
    447e:	e8bd 81f0 	ldmia.w	sp!, {r4, r5, r6, r7, r8, pc}
    4482:	f894 2046 	ldrb.w	r2, [r4, #70]	; 0x46
    4486:	f44f 6180 	mov.w	r1, #1024	; 0x400
    448a:	6360      	str	r0, [r4, #52]	; 0x34
    448c:	63a1      	str	r1, [r4, #56]	; 0x38
    448e:	f880 23ff 	strb.w	r2, [r0, #1023]	; 0x3ff
    4492:	f894 3045 	ldrb.w	r3, [r4, #69]	; 0x45
    4496:	f880 33fe 	strb.w	r3, [r0, #1022]	; 0x3fe
    449a:	f894 1044 	ldrb.w	r1, [r4, #68]	; 0x44
    449e:	f880 13fd 	strb.w	r1, [r0, #1021]	; 0x3fd
    44a2:	f200 30fd 	addw	r0, r0, #1021	; 0x3fd
    44a6:	6020      	str	r0, [r4, #0]
    44a8:	e012      	b.n	44d0 <__submore+0x70>
    44aa:	6ba6      	ldr	r6, [r4, #56]	; 0x38
    44ac:	0077      	lsls	r7, r6, #1
    44ae:	463a      	mov	r2, r7
    44b0:	f7ff fb36 	bl	3b20 <_realloc_r>
    44b4:	4605      	mov	r5, r0
    44b6:	2800      	cmp	r0, #0
    44b8:	d0df      	beq.n	447a <__submore+0x1a>
    44ba:	eb00 0806 	add.w	r8, r0, r6
    44be:	4640      	mov	r0, r8
    44c0:	4629      	mov	r1, r5
    44c2:	4632      	mov	r2, r6
    44c4:	f7ff fb08 	bl	3ad8 <memcpy>
    44c8:	f8c4 8000 	str.w	r8, [r4]
    44cc:	6365      	str	r5, [r4, #52]	; 0x34
    44ce:	63a7      	str	r7, [r4, #56]	; 0x38
    44d0:	2000      	movs	r0, #0
    44d2:	e8bd 81f0 	ldmia.w	sp!, {r4, r5, r6, r7, r8, pc}

000044d6 <__sfputc_r>:
    44d6:	6893      	ldr	r3, [r2, #8]
    44d8:	b510      	push	{r4, lr}
    44da:	3b01      	subs	r3, #1
    44dc:	2b00      	cmp	r3, #0
    44de:	6093      	str	r3, [r2, #8]
    44e0:	da05      	bge.n	44ee <__sfputc_r+0x18>
    44e2:	6994      	ldr	r4, [r2, #24]
    44e4:	42a3      	cmp	r3, r4
    44e6:	db08      	blt.n	44fa <__sfputc_r+0x24>
    44e8:	b2cb      	uxtb	r3, r1
    44ea:	2b0a      	cmp	r3, #10
    44ec:	d005      	beq.n	44fa <__sfputc_r+0x24>
    44ee:	6813      	ldr	r3, [r2, #0]
    44f0:	b2c8      	uxtb	r0, r1
    44f2:	f803 1b01 	strb.w	r1, [r3], #1
    44f6:	6013      	str	r3, [r2, #0]
    44f8:	bd10      	pop	{r4, pc}
    44fa:	e8bd 4010 	ldmia.w	sp!, {r4, lr}
    44fe:	f001 b8d7 	b.w	56b0 <__swbuf_r>
	...

00004504 <_vfiprintf_r>:
    4504:	e92d 47f0 	stmdb	sp!, {r4, r5, r6, r7, r8, r9, r10, lr}
    4508:	b09c      	sub	sp, #112	; 0x70
    450a:	460d      	mov	r5, r1
    450c:	4614      	mov	r4, r2
    450e:	9303      	str	r3, [sp, #12]
    4510:	4606      	mov	r6, r0
    4512:	b118      	cbz	r0, 451c <_vfiprintf_r+0x18>
    4514:	6983      	ldr	r3, [r0, #24]
    4516:	b90b      	cbnz	r3, 451c <_vfiprintf_r+0x18>
    4518:	f7ff f838 	bl	358c <__sinit>
    451c:	487c      	ldr	r0, [pc, #496]	; (4710 <_vfiprintf_r+0x20c>)
    451e:	4285      	cmp	r5, r0
    4520:	d101      	bne.n	4526 <_vfiprintf_r+0x22>
    4522:	6875      	ldr	r5, [r6, #4]
    4524:	e008      	b.n	4538 <_vfiprintf_r+0x34>
    4526:	497b      	ldr	r1, [pc, #492]	; (4714 <_vfiprintf_r+0x210>)
    4528:	428d      	cmp	r5, r1
    452a:	d101      	bne.n	4530 <_vfiprintf_r+0x2c>
    452c:	68b5      	ldr	r5, [r6, #8]
    452e:	e003      	b.n	4538 <_vfiprintf_r+0x34>
    4530:	4a79      	ldr	r2, [pc, #484]	; (4718 <_vfiprintf_r+0x214>)
    4532:	4295      	cmp	r5, r2
    4534:	bf08      	it	eq
    4536:	68f5      	ldreq	r5, [r6, #12]
    4538:	89ab      	ldrh	r3, [r5, #12]
    453a:	f003 0008 	and.w	r0, r3, #8
    453e:	b201      	sxth	r1, r0
    4540:	b151      	cbz	r1, 4558 <_vfiprintf_r+0x54>
    4542:	692a      	ldr	r2, [r5, #16]
    4544:	b142      	cbz	r2, 4558 <_vfiprintf_r+0x54>
    4546:	2700      	movs	r7, #0
    4548:	2320      	movs	r3, #32
    454a:	2030      	movs	r0, #48	; 0x30
    454c:	9709      	str	r7, [sp, #36]	; 0x24
    454e:	f88d 3029 	strb.w	r3, [sp, #41]	; 0x29
    4552:	f88d 002a 	strb.w	r0, [sp, #42]	; 0x2a
    4556:	e03c      	b.n	45d2 <_vfiprintf_r+0xce>
    4558:	4630      	mov	r0, r6
    455a:	4629      	mov	r1, r5
    455c:	f001 f914 	bl	5788 <__swsetup_r>
    4560:	2800      	cmp	r0, #0
    4562:	d0f0      	beq.n	4546 <_vfiprintf_r+0x42>
    4564:	f04f 30ff 	mov.w	r0, #4294967295
    4568:	e0ce      	b.n	4708 <_vfiprintf_r+0x204>
    456a:	9803      	ldr	r0, [sp, #12]
    456c:	6807      	ldr	r7, [r0, #0]
    456e:	1d02      	adds	r2, r0, #4
    4570:	2f00      	cmp	r7, #0
    4572:	9203      	str	r2, [sp, #12]
    4574:	db7d      	blt.n	4672 <_vfiprintf_r+0x16e>
    4576:	9707      	str	r7, [sp, #28]
    4578:	3401      	adds	r4, #1
    457a:	7820      	ldrb	r0, [r4, #0]
    457c:	282e      	cmp	r0, #46	; 0x2e
    457e:	f000 808a 	beq.w	4696 <_vfiprintf_r+0x192>
    4582:	4f66      	ldr	r7, [pc, #408]	; (471c <_vfiprintf_r+0x218>)
    4584:	7821      	ldrb	r1, [r4, #0]
    4586:	4638      	mov	r0, r7
    4588:	2203      	movs	r2, #3
    458a:	f7ff fa97 	bl	3abc <memchr>
    458e:	b138      	cbz	r0, 45a0 <_vfiprintf_r+0x9c>
    4590:	1bc7      	subs	r7, r0, r7
    4592:	2140      	movs	r1, #64	; 0x40
    4594:	fa01 f107 	lsl.w	r1, r1, r7
    4598:	9b04      	ldr	r3, [sp, #16]
    459a:	3401      	adds	r4, #1
    459c:	430b      	orrs	r3, r1
    459e:	9304      	str	r3, [sp, #16]
    45a0:	f814 1b01 	ldrb.w	r1, [r4], #1
    45a4:	485e      	ldr	r0, [pc, #376]	; (4720 <_vfiprintf_r+0x21c>)
    45a6:	2206      	movs	r2, #6
    45a8:	f88d 1028 	strb.w	r1, [sp, #40]	; 0x28
    45ac:	f7ff fa86 	bl	3abc <memchr>
    45b0:	2800      	cmp	r0, #0
    45b2:	f000 8094 	beq.w	46de <_vfiprintf_r+0x1da>
    45b6:	4a5b      	ldr	r2, [pc, #364]	; (4724 <_vfiprintf_r+0x220>)
    45b8:	2a00      	cmp	r2, #0
    45ba:	f040 8087 	bne.w	46cc <_vfiprintf_r+0x1c8>
    45be:	9f03      	ldr	r7, [sp, #12]
    45c0:	1dfb      	adds	r3, r7, #7
    45c2:	f023 0007 	bic.w	r0, r3, #7
    45c6:	3008      	adds	r0, #8
    45c8:	9003      	str	r0, [sp, #12]
    45ca:	9a09      	ldr	r2, [sp, #36]	; 0x24
    45cc:	eb02 0108 	add.w	r1, r2, r8
    45d0:	9109      	str	r1, [sp, #36]	; 0x24
    45d2:	4621      	mov	r1, r4
    45d4:	460f      	mov	r7, r1
    45d6:	f811 2b01 	ldrb.w	r2, [r1], #1
    45da:	b92a      	cbnz	r2, 45e8 <_vfiprintf_r+0xe4>
    45dc:	ebb7 0a04 	subs.w	r10, r7, r4
    45e0:	d015      	beq.n	460e <_vfiprintf_r+0x10a>
    45e2:	f04f 0900 	mov.w	r9, #0
    45e6:	e00c      	b.n	4602 <_vfiprintf_r+0xfe>
    45e8:	2a25      	cmp	r2, #37	; 0x25
    45ea:	d1f3      	bne.n	45d4 <_vfiprintf_r+0xd0>
    45ec:	e7f6      	b.n	45dc <_vfiprintf_r+0xd8>
    45ee:	4630      	mov	r0, r6
    45f0:	f814 1009 	ldrb.w	r1, [r4, r9]
    45f4:	462a      	mov	r2, r5
    45f6:	f7ff ff6e 	bl	44d6 <__sfputc_r>
    45fa:	3001      	adds	r0, #1
    45fc:	d07c      	beq.n	46f8 <_vfiprintf_r+0x1f4>
    45fe:	f109 0901 	add.w	r9, r9, #1
    4602:	45d1      	cmp	r9, r10
    4604:	dbf3      	blt.n	45ee <_vfiprintf_r+0xea>
    4606:	9b09      	ldr	r3, [sp, #36]	; 0x24
    4608:	eb03 000a 	add.w	r0, r3, r10
    460c:	9009      	str	r0, [sp, #36]	; 0x24
    460e:	7839      	ldrb	r1, [r7, #0]
    4610:	2900      	cmp	r1, #0
    4612:	d071      	beq.n	46f8 <_vfiprintf_r+0x1f4>
    4614:	2400      	movs	r4, #0
    4616:	f04f 32ff 	mov.w	r2, #4294967295
    461a:	9404      	str	r4, [sp, #16]
    461c:	9407      	str	r4, [sp, #28]
    461e:	9205      	str	r2, [sp, #20]
    4620:	9406      	str	r4, [sp, #24]
    4622:	f88d 4053 	strb.w	r4, [sp, #83]	; 0x53
    4626:	941a      	str	r4, [sp, #104]	; 0x68
    4628:	f107 0901 	add.w	r9, r7, #1
    462c:	4f3e      	ldr	r7, [pc, #248]	; (4728 <_vfiprintf_r+0x224>)
    462e:	464c      	mov	r4, r9
    4630:	4638      	mov	r0, r7
    4632:	7821      	ldrb	r1, [r4, #0]
    4634:	2205      	movs	r2, #5
    4636:	f7ff fa41 	bl	3abc <memchr>
    463a:	f109 0901 	add.w	r9, r9, #1
    463e:	9b04      	ldr	r3, [sp, #16]
    4640:	b130      	cbz	r0, 4650 <_vfiprintf_r+0x14c>
    4642:	1bc4      	subs	r4, r0, r7
    4644:	2701      	movs	r7, #1
    4646:	fa07 f704 	lsl.w	r7, r7, r4
    464a:	433b      	orrs	r3, r7
    464c:	9304      	str	r3, [sp, #16]
    464e:	e7ed      	b.n	462c <_vfiprintf_r+0x128>
    4650:	06d9      	lsls	r1, r3, #27
    4652:	d502      	bpl.n	465a <_vfiprintf_r+0x156>
    4654:	2020      	movs	r0, #32
    4656:	f88d 0053 	strb.w	r0, [sp, #83]	; 0x53
    465a:	071a      	lsls	r2, r3, #28
    465c:	d502      	bpl.n	4664 <_vfiprintf_r+0x160>
    465e:	212b      	movs	r1, #43	; 0x2b
    4660:	f88d 1053 	strb.w	r1, [sp, #83]	; 0x53
    4664:	7822      	ldrb	r2, [r4, #0]
    4666:	2a2a      	cmp	r2, #42	; 0x2a
    4668:	f43f af7f 	beq.w	456a <_vfiprintf_r+0x66>
    466c:	9b07      	ldr	r3, [sp, #28]
    466e:	4627      	mov	r7, r4
    4670:	e005      	b.n	467e <_vfiprintf_r+0x17a>
    4672:	4279      	negs	r1, r7
    4674:	f043 0302 	orr.w	r3, r3, #2
    4678:	9107      	str	r1, [sp, #28]
    467a:	9304      	str	r3, [sp, #16]
    467c:	e77c      	b.n	4578 <_vfiprintf_r+0x74>
    467e:	463c      	mov	r4, r7
    4680:	7821      	ldrb	r1, [r4, #0]
    4682:	3701      	adds	r7, #1
    4684:	3930      	subs	r1, #48	; 0x30
    4686:	2909      	cmp	r1, #9
    4688:	d803      	bhi.n	4692 <_vfiprintf_r+0x18e>
    468a:	240a      	movs	r4, #10
    468c:	fb04 1303 	mla	r3, r4, r3, r1
    4690:	e7f5      	b.n	467e <_vfiprintf_r+0x17a>
    4692:	9307      	str	r3, [sp, #28]
    4694:	e771      	b.n	457a <_vfiprintf_r+0x76>
    4696:	7862      	ldrb	r2, [r4, #1]
    4698:	2a2a      	cmp	r2, #42	; 0x2a
    469a:	d109      	bne.n	46b0 <_vfiprintf_r+0x1ac>
    469c:	9803      	ldr	r0, [sp, #12]
    469e:	3402      	adds	r4, #2
    46a0:	6803      	ldr	r3, [r0, #0]
    46a2:	1d02      	adds	r2, r0, #4
    46a4:	2b00      	cmp	r3, #0
    46a6:	9203      	str	r2, [sp, #12]
    46a8:	bfb8      	it	lt
    46aa:	f04f 33ff 	movlt.w	r3, #4294967295
    46ae:	e00b      	b.n	46c8 <_vfiprintf_r+0x1c4>
    46b0:	1c67      	adds	r7, r4, #1
    46b2:	2300      	movs	r3, #0
    46b4:	463c      	mov	r4, r7
    46b6:	7821      	ldrb	r1, [r4, #0]
    46b8:	3701      	adds	r7, #1
    46ba:	3930      	subs	r1, #48	; 0x30
    46bc:	2909      	cmp	r1, #9
    46be:	d803      	bhi.n	46c8 <_vfiprintf_r+0x1c4>
    46c0:	240a      	movs	r4, #10
    46c2:	fb04 1303 	mla	r3, r4, r3, r1
    46c6:	e7f5      	b.n	46b4 <_vfiprintf_r+0x1b0>
    46c8:	9305      	str	r3, [sp, #20]
    46ca:	e75a      	b.n	4582 <_vfiprintf_r+0x7e>
    46cc:	a903      	add	r1, sp, #12
    46ce:	9100      	str	r1, [sp, #0]
    46d0:	4630      	mov	r0, r6
    46d2:	a904      	add	r1, sp, #16
    46d4:	462a      	mov	r2, r5
    46d6:	4b15      	ldr	r3, [pc, #84]	; (472c <_vfiprintf_r+0x228>)
    46d8:	f000 f8d0 	bl	487c <_printf_float>
    46dc:	e007      	b.n	46ee <_vfiprintf_r+0x1ea>
    46de:	a803      	add	r0, sp, #12
    46e0:	9000      	str	r0, [sp, #0]
    46e2:	a904      	add	r1, sp, #16
    46e4:	4630      	mov	r0, r6
    46e6:	462a      	mov	r2, r5
    46e8:	4b10      	ldr	r3, [pc, #64]	; (472c <_vfiprintf_r+0x228>)
    46ea:	f000 fb89 	bl	4e00 <_printf_i>
    46ee:	f1b0 3fff 	cmp.w	r0, #4294967295
    46f2:	4680      	mov	r8, r0
    46f4:	f47f af69 	bne.w	45ca <_vfiprintf_r+0xc6>
    46f8:	89ab      	ldrh	r3, [r5, #12]
    46fa:	f003 0040 	and.w	r0, r3, #64	; 0x40
    46fe:	b202      	sxth	r2, r0
    4700:	2a00      	cmp	r2, #0
    4702:	f47f af2f 	bne.w	4564 <_vfiprintf_r+0x60>
    4706:	9809      	ldr	r0, [sp, #36]	; 0x24
    4708:	b01c      	add	sp, #112	; 0x70
    470a:	e8bd 87f0 	ldmia.w	sp!, {r4, r5, r6, r7, r8, r9, r10, pc}
    470e:	bf00      	nop
    4710:	00008a40 	.word	0x00008a40
    4714:	00008a60 	.word	0x00008a60
    4718:	00008a80 	.word	0x00008a80
    471c:	00008aae 	.word	0x00008aae
    4720:	00008ab2 	.word	0x00008ab2
    4724:	0000487d 	.word	0x0000487d
    4728:	00008aa8 	.word	0x00008aa8
    472c:	000044d7 	.word	0x000044d7

00004730 <vfiprintf>:
    4730:	b530      	push	{r4, r5, lr}
    4732:	4613      	mov	r3, r2
    4734:	4a04      	ldr	r2, [pc, #16]	; (4748 <vfiprintf+0x18>)
    4736:	4605      	mov	r5, r0
    4738:	460c      	mov	r4, r1
    473a:	6810      	ldr	r0, [r2, #0]
    473c:	4629      	mov	r1, r5
    473e:	4622      	mov	r2, r4
    4740:	e8bd 4030 	ldmia.w	sp!, {r4, r5, lr}
    4744:	f7ff bede 	b.w	4504 <_vfiprintf_r>
    4748:	10000134 	.word	0x10000134

0000474c <__cvt>:
    474c:	e92d 4fd0 	stmdb	sp!, {r4, r6, r7, r8, r9, r10, r11, lr}
    4750:	461e      	mov	r6, r3
    4752:	b088      	sub	sp, #32
    4754:	ab12      	add	r3, sp, #72	; 0x48
    4756:	2e00      	cmp	r6, #0
    4758:	4692      	mov	r10, r2
    475a:	9f10      	ldr	r7, [sp, #64]	; 0x40
    475c:	e893 0818 	ldmia.w	r3, {r3, r4, r11}
    4760:	da03      	bge.n	476a <__cvt+0x1e>
    4762:	f106 4600 	add.w	r6, r6, #2147483648	; 0x80000000
    4766:	212d      	movs	r1, #45	; 0x2d
    4768:	e000      	b.n	476c <__cvt+0x20>
    476a:	2100      	movs	r1, #0
    476c:	f1bb 0f66 	cmp.w	r11, #102	; 0x66
    4770:	7019      	strb	r1, [r3, #0]
    4772:	d00a      	beq.n	478a <__cvt+0x3e>
    4774:	f1bb 0f46 	cmp.w	r11, #70	; 0x46
    4778:	d007      	beq.n	478a <__cvt+0x3e>
    477a:	f1bb 0f65 	cmp.w	r11, #101	; 0x65
    477e:	d002      	beq.n	4786 <__cvt+0x3a>
    4780:	f1bb 0f45 	cmp.w	r11, #69	; 0x45
    4784:	d103      	bne.n	478e <__cvt+0x42>
    4786:	3701      	adds	r7, #1
    4788:	e001      	b.n	478e <__cvt+0x42>
    478a:	2303      	movs	r3, #3
    478c:	e000      	b.n	4790 <__cvt+0x44>
    478e:	2302      	movs	r3, #2
    4790:	e88d 0088 	stmia.w	sp, {r3, r7}
    4794:	aa07      	add	r2, sp, #28
    4796:	ab06      	add	r3, sp, #24
    4798:	9303      	str	r3, [sp, #12]
    479a:	9204      	str	r2, [sp, #16]
    479c:	9402      	str	r4, [sp, #8]
    479e:	4652      	mov	r2, r10
    47a0:	4633      	mov	r3, r6
    47a2:	f001 f945 	bl	5a30 <_dtoa_r>
    47a6:	f1bb 0f67 	cmp.w	r11, #103	; 0x67
    47aa:	4680      	mov	r8, r0
    47ac:	d002      	beq.n	47b4 <__cvt+0x68>
    47ae:	f1bb 0f47 	cmp.w	r11, #71	; 0x47
    47b2:	d102      	bne.n	47ba <__cvt+0x6e>
    47b4:	9811      	ldr	r0, [sp, #68]	; 0x44
    47b6:	07c3      	lsls	r3, r0, #31
    47b8:	d528      	bpl.n	480c <__cvt+0xc0>
    47ba:	f1bb 0f66 	cmp.w	r11, #102	; 0x66
    47be:	eb08 0907 	add.w	r9, r8, r7
    47c2:	d002      	beq.n	47ca <__cvt+0x7e>
    47c4:	f1bb 0f46 	cmp.w	r11, #70	; 0x46
    47c8:	d10f      	bne.n	47ea <__cvt+0x9e>
    47ca:	f898 1000 	ldrb.w	r1, [r8]
    47ce:	2930      	cmp	r1, #48	; 0x30
    47d0:	d109      	bne.n	47e6 <__cvt+0x9a>
    47d2:	4650      	mov	r0, r10
    47d4:	4631      	mov	r1, r6
    47d6:	2200      	movs	r2, #0
    47d8:	2300      	movs	r3, #0
    47da:	f7fe f9df 	bl	2b9c <__aeabi_dcmpeq>
    47de:	b910      	cbnz	r0, 47e6 <__cvt+0x9a>
    47e0:	f1c7 0701 	rsb	r7, r7, #1
    47e4:	6027      	str	r7, [r4, #0]
    47e6:	6823      	ldr	r3, [r4, #0]
    47e8:	4499      	add	r9, r3
    47ea:	4650      	mov	r0, r10
    47ec:	4631      	mov	r1, r6
    47ee:	2200      	movs	r2, #0
    47f0:	2300      	movs	r3, #0
    47f2:	f7fe f9d3 	bl	2b9c <__aeabi_dcmpeq>
    47f6:	b108      	cbz	r0, 47fc <__cvt+0xb0>
    47f8:	f8cd 901c 	str.w	r9, [sp, #28]
    47fc:	9807      	ldr	r0, [sp, #28]
    47fe:	4548      	cmp	r0, r9
    4800:	d204      	bcs.n	480c <__cvt+0xc0>
    4802:	2230      	movs	r2, #48	; 0x30
    4804:	f800 2b01 	strb.w	r2, [r0], #1
    4808:	9007      	str	r0, [sp, #28]
    480a:	e7f7      	b.n	47fc <__cvt+0xb0>
    480c:	9a07      	ldr	r2, [sp, #28]
    480e:	9b15      	ldr	r3, [sp, #84]	; 0x54
    4810:	ebc8 0102 	rsb	r1, r8, r2
    4814:	6019      	str	r1, [r3, #0]
    4816:	4640      	mov	r0, r8
    4818:	b008      	add	sp, #32
    481a:	e8bd 8fd0 	ldmia.w	sp!, {r4, r6, r7, r8, r9, r10, r11, pc}

0000481e <__exponent>:
    481e:	b573      	push	{r0, r1, r4, r5, r6, lr}
    4820:	4603      	mov	r3, r0
    4822:	2900      	cmp	r1, #0
    4824:	f803 2b02 	strb.w	r2, [r3], #2
    4828:	da02      	bge.n	4830 <__exponent+0x12>
    482a:	4249      	negs	r1, r1
    482c:	222d      	movs	r2, #45	; 0x2d
    482e:	e000      	b.n	4832 <__exponent+0x14>
    4830:	222b      	movs	r2, #43	; 0x2b
    4832:	2909      	cmp	r1, #9
    4834:	7042      	strb	r2, [r0, #1]
    4836:	461a      	mov	r2, r3
    4838:	dd19      	ble.n	486e <__exponent+0x50>
    483a:	f10d 0406 	add.w	r4, sp, #6
    483e:	260a      	movs	r6, #10
    4840:	fb91 f5f6 	sdiv	r5, r1, r6
    4844:	fb06 1115 	mls	r1, r6, r5, r1
    4848:	3130      	adds	r1, #48	; 0x30
    484a:	2d09      	cmp	r5, #9
    484c:	4623      	mov	r3, r4
    484e:	f804 1901 	strb.w	r1, [r4], #-1
    4852:	4629      	mov	r1, r5
    4854:	dcf3      	bgt.n	483e <__exponent+0x20>
    4856:	3130      	adds	r1, #48	; 0x30
    4858:	f803 1d01 	strb.w	r1, [r3, #-1]!
    485c:	f10d 0107 	add.w	r1, sp, #7
    4860:	428b      	cmp	r3, r1
    4862:	d209      	bcs.n	4878 <__exponent+0x5a>
    4864:	f813 1b01 	ldrb.w	r1, [r3], #1
    4868:	f802 1b01 	strb.w	r1, [r2], #1
    486c:	e7f6      	b.n	485c <__exponent+0x3e>
    486e:	2230      	movs	r2, #48	; 0x30
    4870:	1889      	adds	r1, r1, r2
    4872:	701a      	strb	r2, [r3, #0]
    4874:	7059      	strb	r1, [r3, #1]
    4876:	1c9a      	adds	r2, r3, #2
    4878:	1a10      	subs	r0, r2, r0
    487a:	bd7c      	pop	{r2, r3, r4, r5, r6, pc}

0000487c <_printf_float>:
    487c:	e92d 4ff0 	stmdb	sp!, {r4, r5, r6, r7, r8, r9, r10, r11, lr}
    4880:	b091      	sub	sp, #68	; 0x44
    4882:	460c      	mov	r4, r1
    4884:	4616      	mov	r6, r2
    4886:	461f      	mov	r7, r3
    4888:	f8dd 8068 	ldr.w	r8, [sp, #104]	; 0x68
    488c:	4605      	mov	r5, r0
    488e:	f001 fec3 	bl	6618 <_localeconv_r>
    4892:	f8d0 a000 	ldr.w	r10, [r0]
    4896:	4650      	mov	r0, r10
    4898:	f7ff fab0 	bl	3dfc <strlen>
    489c:	900b      	str	r0, [sp, #44]	; 0x2c
    489e:	f8d8 0000 	ldr.w	r0, [r8]
    48a2:	2300      	movs	r3, #0
    48a4:	1dc1      	adds	r1, r0, #7
    48a6:	930e      	str	r3, [sp, #56]	; 0x38
    48a8:	f021 0307 	bic.w	r3, r1, #7
    48ac:	f103 0208 	add.w	r2, r3, #8
    48b0:	f894 b018 	ldrb.w	r11, [r4, #24]
    48b4:	f8c8 2000 	str.w	r2, [r8]
    48b8:	e9d3 0100 	ldrd	r0, r1, [r3]
    48bc:	e9c4 0112 	strd	r0, r1, [r4, #72]	; 0x48
    48c0:	e9d4 0112 	ldrd	r0, r1, [r4, #72]	; 0x48
    48c4:	f002 fadc 	bl	6e80 <__fpclassifyd>
    48c8:	2801      	cmp	r0, #1
    48ca:	e9d4 0112 	ldrd	r0, r1, [r4, #72]	; 0x48
    48ce:	d117      	bne.n	4900 <_printf_float+0x84>
    48d0:	2200      	movs	r2, #0
    48d2:	2300      	movs	r3, #0
    48d4:	f7fe f96c 	bl	2bb0 <__aeabi_dcmplt>
    48d8:	b110      	cbz	r0, 48e0 <_printf_float+0x64>
    48da:	222d      	movs	r2, #45	; 0x2d
    48dc:	f884 2043 	strb.w	r2, [r4, #67]	; 0x43
    48e0:	489a      	ldr	r0, [pc, #616]	; (4b4c <_printf_float+0x2d0>)
    48e2:	499b      	ldr	r1, [pc, #620]	; (4b50 <_printf_float+0x2d4>)
    48e4:	f1bb 0f47 	cmp.w	r11, #71	; 0x47
    48e8:	bf8c      	ite	hi
    48ea:	4688      	movhi	r8, r1
    48ec:	4680      	movls	r8, r0
    48ee:	6820      	ldr	r0, [r4, #0]
    48f0:	2303      	movs	r3, #3
    48f2:	f020 0104 	bic.w	r1, r0, #4
    48f6:	6123      	str	r3, [r4, #16]
    48f8:	6021      	str	r1, [r4, #0]
    48fa:	f04f 0900 	mov.w	r9, #0
    48fe:	e086      	b.n	4a0e <_printf_float+0x192>
    4900:	f002 fabe 	bl	6e80 <__fpclassifyd>
    4904:	b910      	cbnz	r0, 490c <_printf_float+0x90>
    4906:	4893      	ldr	r0, [pc, #588]	; (4b54 <_printf_float+0x2d8>)
    4908:	4993      	ldr	r1, [pc, #588]	; (4b58 <_printf_float+0x2dc>)
    490a:	e7eb      	b.n	48e4 <_printf_float+0x68>
    490c:	6861      	ldr	r1, [r4, #4]
    490e:	1c4a      	adds	r2, r1, #1
    4910:	d101      	bne.n	4916 <_printf_float+0x9a>
    4912:	2306      	movs	r3, #6
    4914:	e007      	b.n	4926 <_printf_float+0xaa>
    4916:	f1bb 0f67 	cmp.w	r11, #103	; 0x67
    491a:	d002      	beq.n	4922 <_printf_float+0xa6>
    491c:	f1bb 0f47 	cmp.w	r11, #71	; 0x47
    4920:	d102      	bne.n	4928 <_printf_float+0xac>
    4922:	b909      	cbnz	r1, 4928 <_printf_float+0xac>
    4924:	2301      	movs	r3, #1
    4926:	6063      	str	r3, [r4, #4]
    4928:	6822      	ldr	r2, [r4, #0]
    492a:	6860      	ldr	r0, [r4, #4]
    492c:	f442 6180 	orr.w	r1, r2, #1024	; 0x400
    4930:	e88d 0003 	stmia.w	sp, {r0, r1}
    4934:	e9d4 2312 	ldrd	r2, r3, [r4, #72]	; 0x48
    4938:	6021      	str	r1, [r4, #0]
    493a:	f10d 0033 	add.w	r0, sp, #51	; 0x33
    493e:	a90d      	add	r1, sp, #52	; 0x34
    4940:	9002      	str	r0, [sp, #8]
    4942:	9103      	str	r1, [sp, #12]
    4944:	a80e      	add	r0, sp, #56	; 0x38
    4946:	2100      	movs	r1, #0
    4948:	9005      	str	r0, [sp, #20]
    494a:	f8cd b010 	str.w	r11, [sp, #16]
    494e:	9106      	str	r1, [sp, #24]
    4950:	4628      	mov	r0, r5
    4952:	f7ff fefb 	bl	474c <__cvt>
    4956:	f1bb 0f67 	cmp.w	r11, #103	; 0x67
    495a:	4680      	mov	r8, r0
    495c:	d002      	beq.n	4964 <_printf_float+0xe8>
    495e:	f1bb 0f47 	cmp.w	r11, #71	; 0x47
    4962:	d109      	bne.n	4978 <_printf_float+0xfc>
    4964:	9b0d      	ldr	r3, [sp, #52]	; 0x34
    4966:	1cd8      	adds	r0, r3, #3
    4968:	db02      	blt.n	4970 <_printf_float+0xf4>
    496a:	6862      	ldr	r2, [r4, #4]
    496c:	4293      	cmp	r3, r2
    496e:	dd31      	ble.n	49d4 <_printf_float+0x158>
    4970:	f1ab 0c02 	sub.w	r12, r11, #2
    4974:	fa5f fb8c 	uxtb.w	r11, r12
    4978:	f1bb 0f65 	cmp.w	r11, #101	; 0x65
    497c:	980d      	ldr	r0, [sp, #52]	; 0x34
    497e:	d812      	bhi.n	49a6 <_printf_float+0x12a>
    4980:	1e41      	subs	r1, r0, #1
    4982:	465a      	mov	r2, r11
    4984:	f104 0050 	add.w	r0, r4, #80	; 0x50
    4988:	910d      	str	r1, [sp, #52]	; 0x34
    498a:	f7ff ff48 	bl	481e <__exponent>
    498e:	9a0e      	ldr	r2, [sp, #56]	; 0x38
    4990:	4681      	mov	r9, r0
    4992:	1883      	adds	r3, r0, r2
    4994:	2a01      	cmp	r2, #1
    4996:	6123      	str	r3, [r4, #16]
    4998:	dc02      	bgt.n	49a0 <_printf_float+0x124>
    499a:	6820      	ldr	r0, [r4, #0]
    499c:	07c1      	lsls	r1, r0, #31
    499e:	d530      	bpl.n	4a02 <_printf_float+0x186>
    49a0:	1c59      	adds	r1, r3, #1
    49a2:	6121      	str	r1, [r4, #16]
    49a4:	e02d      	b.n	4a02 <_printf_float+0x186>
    49a6:	f1bb 0f66 	cmp.w	r11, #102	; 0x66
    49aa:	d115      	bne.n	49d8 <_printf_float+0x15c>
    49ac:	2800      	cmp	r0, #0
    49ae:	6863      	ldr	r3, [r4, #4]
    49b0:	dd08      	ble.n	49c4 <_printf_float+0x148>
    49b2:	6120      	str	r0, [r4, #16]
    49b4:	b913      	cbnz	r3, 49bc <_printf_float+0x140>
    49b6:	6822      	ldr	r2, [r4, #0]
    49b8:	07d2      	lsls	r2, r2, #31
    49ba:	d51e      	bpl.n	49fa <_printf_float+0x17e>
    49bc:	3301      	adds	r3, #1
    49be:	18c0      	adds	r0, r0, r3
    49c0:	6120      	str	r0, [r4, #16]
    49c2:	e01a      	b.n	49fa <_printf_float+0x17e>
    49c4:	b913      	cbnz	r3, 49cc <_printf_float+0x150>
    49c6:	6821      	ldr	r1, [r4, #0]
    49c8:	07c8      	lsls	r0, r1, #31
    49ca:	d501      	bpl.n	49d0 <_printf_float+0x154>
    49cc:	1c9a      	adds	r2, r3, #2
    49ce:	e013      	b.n	49f8 <_printf_float+0x17c>
    49d0:	2201      	movs	r2, #1
    49d2:	e011      	b.n	49f8 <_printf_float+0x17c>
    49d4:	f04f 0b67 	mov.w	r11, #103	; 0x67
    49d8:	9b0d      	ldr	r3, [sp, #52]	; 0x34
    49da:	990e      	ldr	r1, [sp, #56]	; 0x38
    49dc:	428b      	cmp	r3, r1
    49de:	db05      	blt.n	49ec <_printf_float+0x170>
    49e0:	6820      	ldr	r0, [r4, #0]
    49e2:	6123      	str	r3, [r4, #16]
    49e4:	07c1      	lsls	r1, r0, #31
    49e6:	d508      	bpl.n	49fa <_printf_float+0x17e>
    49e8:	1c5a      	adds	r2, r3, #1
    49ea:	e005      	b.n	49f8 <_printf_float+0x17c>
    49ec:	2b00      	cmp	r3, #0
    49ee:	bfd4      	ite	le
    49f0:	f1c3 0302 	rsble	r3, r3, #2
    49f4:	2301      	movgt	r3, #1
    49f6:	18ca      	adds	r2, r1, r3
    49f8:	6122      	str	r2, [r4, #16]
    49fa:	990d      	ldr	r1, [sp, #52]	; 0x34
    49fc:	f04f 0900 	mov.w	r9, #0
    4a00:	65a1      	str	r1, [r4, #88]	; 0x58
    4a02:	f89d 2033 	ldrb.w	r2, [sp, #51]	; 0x33
    4a06:	b112      	cbz	r2, 4a0e <_printf_float+0x192>
    4a08:	232d      	movs	r3, #45	; 0x2d
    4a0a:	f884 3043 	strb.w	r3, [r4, #67]	; 0x43
    4a0e:	9700      	str	r7, [sp, #0]
    4a10:	4628      	mov	r0, r5
    4a12:	4621      	mov	r1, r4
    4a14:	aa0f      	add	r2, sp, #60	; 0x3c
    4a16:	4633      	mov	r3, r6
    4a18:	f000 f982 	bl	4d20 <_printf_common>
    4a1c:	3001      	adds	r0, #1
    4a1e:	d102      	bne.n	4a26 <_printf_float+0x1aa>
    4a20:	f04f 30ff 	mov.w	r0, #4294967295
    4a24:	e179      	b.n	4d1a <_printf_float+0x49e>
    4a26:	6823      	ldr	r3, [r4, #0]
    4a28:	f413 6280 	ands.w	r2, r3, #1024	; 0x400
    4a2c:	d10d      	bne.n	4a4a <_printf_float+0x1ce>
    4a2e:	4691      	mov	r9, r2
    4a30:	6920      	ldr	r0, [r4, #16]
    4a32:	4581      	cmp	r9, r0
    4a34:	da22      	bge.n	4a7c <_printf_float+0x200>
    4a36:	4628      	mov	r0, r5
    4a38:	f818 1009 	ldrb.w	r1, [r8, r9]
    4a3c:	4632      	mov	r2, r6
    4a3e:	47b8      	blx	r7
    4a40:	3001      	adds	r0, #1
    4a42:	d0ed      	beq.n	4a20 <_printf_float+0x1a4>
    4a44:	f109 0901 	add.w	r9, r9, #1
    4a48:	e7f2      	b.n	4a30 <_printf_float+0x1b4>
    4a4a:	f1bb 0f65 	cmp.w	r11, #101	; 0x65
    4a4e:	f240 80f1 	bls.w	4c34 <_printf_float+0x3b8>
    4a52:	e9d4 0112 	ldrd	r0, r1, [r4, #72]	; 0x48
    4a56:	2200      	movs	r2, #0
    4a58:	2300      	movs	r3, #0
    4a5a:	f7fe f89f 	bl	2b9c <__aeabi_dcmpeq>
    4a5e:	2800      	cmp	r0, #0
    4a60:	d02d      	beq.n	4abe <_printf_float+0x242>
    4a62:	2130      	movs	r1, #48	; 0x30
    4a64:	4628      	mov	r0, r5
    4a66:	4632      	mov	r2, r6
    4a68:	47b8      	blx	r7
    4a6a:	3001      	adds	r0, #1
    4a6c:	d0d8      	beq.n	4a20 <_printf_float+0x1a4>
    4a6e:	9b0e      	ldr	r3, [sp, #56]	; 0x38
    4a70:	9a0d      	ldr	r2, [sp, #52]	; 0x34
    4a72:	429a      	cmp	r2, r3
    4a74:	db07      	blt.n	4a86 <_printf_float+0x20a>
    4a76:	6820      	ldr	r0, [r4, #0]
    4a78:	07c3      	lsls	r3, r0, #31
    4a7a:	d404      	bmi.n	4a86 <_printf_float+0x20a>
    4a7c:	6821      	ldr	r1, [r4, #0]
    4a7e:	078a      	lsls	r2, r1, #30
    4a80:	f100 8148 	bmi.w	4d14 <_printf_float+0x498>
    4a84:	e140      	b.n	4d08 <_printf_float+0x48c>
    4a86:	990b      	ldr	r1, [sp, #44]	; 0x2c
    4a88:	eb0a 0b01 	add.w	r11, r10, r1
    4a8c:	45da      	cmp	r10, r11
    4a8e:	d007      	beq.n	4aa0 <_printf_float+0x224>
    4a90:	4628      	mov	r0, r5
    4a92:	f81a 1b01 	ldrb.w	r1, [r10], #1
    4a96:	4632      	mov	r2, r6
    4a98:	47b8      	blx	r7
    4a9a:	3001      	adds	r0, #1
    4a9c:	d1f6      	bne.n	4a8c <_printf_float+0x210>
    4a9e:	e7bf      	b.n	4a20 <_printf_float+0x1a4>
    4aa0:	f04f 0800 	mov.w	r8, #0
    4aa4:	9b0e      	ldr	r3, [sp, #56]	; 0x38
    4aa6:	1e5a      	subs	r2, r3, #1
    4aa8:	4590      	cmp	r8, r2
    4aaa:	dae7      	bge.n	4a7c <_printf_float+0x200>
    4aac:	4628      	mov	r0, r5
    4aae:	7ea1      	ldrb	r1, [r4, #26]
    4ab0:	4632      	mov	r2, r6
    4ab2:	47b8      	blx	r7
    4ab4:	3001      	adds	r0, #1
    4ab6:	d0b3      	beq.n	4a20 <_printf_float+0x1a4>
    4ab8:	f108 0801 	add.w	r8, r8, #1
    4abc:	e7f2      	b.n	4aa4 <_printf_float+0x228>
    4abe:	980d      	ldr	r0, [sp, #52]	; 0x34
    4ac0:	2800      	cmp	r0, #0
    4ac2:	dc38      	bgt.n	4b36 <_printf_float+0x2ba>
    4ac4:	2130      	movs	r1, #48	; 0x30
    4ac6:	4628      	mov	r0, r5
    4ac8:	4632      	mov	r2, r6
    4aca:	47b8      	blx	r7
    4acc:	3001      	adds	r0, #1
    4ace:	d0a7      	beq.n	4a20 <_printf_float+0x1a4>
    4ad0:	9a0d      	ldr	r2, [sp, #52]	; 0x34
    4ad2:	b922      	cbnz	r2, 4ade <_printf_float+0x262>
    4ad4:	980e      	ldr	r0, [sp, #56]	; 0x38
    4ad6:	b910      	cbnz	r0, 4ade <_printf_float+0x262>
    4ad8:	6821      	ldr	r1, [r4, #0]
    4ada:	07c8      	lsls	r0, r1, #31
    4adc:	d5ce      	bpl.n	4a7c <_printf_float+0x200>
    4ade:	9b0b      	ldr	r3, [sp, #44]	; 0x2c
    4ae0:	eb0a 0b03 	add.w	r11, r10, r3
    4ae4:	45da      	cmp	r10, r11
    4ae6:	d007      	beq.n	4af8 <_printf_float+0x27c>
    4ae8:	4628      	mov	r0, r5
    4aea:	f81a 1b01 	ldrb.w	r1, [r10], #1
    4aee:	4632      	mov	r2, r6
    4af0:	47b8      	blx	r7
    4af2:	3001      	adds	r0, #1
    4af4:	d1f6      	bne.n	4ae4 <_printf_float+0x268>
    4af6:	e793      	b.n	4a20 <_printf_float+0x1a4>
    4af8:	f04f 0900 	mov.w	r9, #0
    4afc:	9a0d      	ldr	r2, [sp, #52]	; 0x34
    4afe:	4250      	negs	r0, r2
    4b00:	4581      	cmp	r9, r0
    4b02:	da08      	bge.n	4b16 <_printf_float+0x29a>
    4b04:	4628      	mov	r0, r5
    4b06:	7ea1      	ldrb	r1, [r4, #26]
    4b08:	4632      	mov	r2, r6
    4b0a:	47b8      	blx	r7
    4b0c:	3001      	adds	r0, #1
    4b0e:	d087      	beq.n	4a20 <_printf_float+0x1a4>
    4b10:	f109 0901 	add.w	r9, r9, #1
    4b14:	e7f2      	b.n	4afc <_printf_float+0x280>
    4b16:	f04f 0900 	mov.w	r9, #0
    4b1a:	990e      	ldr	r1, [sp, #56]	; 0x38
    4b1c:	4589      	cmp	r9, r1
    4b1e:	daad      	bge.n	4a7c <_printf_float+0x200>
    4b20:	4628      	mov	r0, r5
    4b22:	f818 1009 	ldrb.w	r1, [r8, r9]
    4b26:	4632      	mov	r2, r6
    4b28:	47b8      	blx	r7
    4b2a:	3001      	adds	r0, #1
    4b2c:	f43f af78 	beq.w	4a20 <_printf_float+0x1a4>
    4b30:	f109 0901 	add.w	r9, r9, #1
    4b34:	e7f1      	b.n	4b1a <_printf_float+0x29e>
    4b36:	6da1      	ldr	r1, [r4, #88]	; 0x58
    4b38:	9b0e      	ldr	r3, [sp, #56]	; 0x38
    4b3a:	428b      	cmp	r3, r1
    4b3c:	bfb4      	ite	lt
    4b3e:	469c      	movlt	r12, r3
    4b40:	468c      	movge	r12, r1
    4b42:	f1bc 0f00 	cmp.w	r12, #0
    4b46:	dc09      	bgt.n	4b5c <_printf_float+0x2e0>
    4b48:	2300      	movs	r3, #0
    4b4a:	e029      	b.n	4ba0 <_printf_float+0x324>
    4b4c:	00008ab9 	.word	0x00008ab9
    4b50:	00008abd 	.word	0x00008abd
    4b54:	00008ac1 	.word	0x00008ac1
    4b58:	00008ac5 	.word	0x00008ac5
    4b5c:	46c1      	mov	r9, r8
    4b5e:	eb0c 0308 	add.w	r3, r12, r8
    4b62:	f819 1b01 	ldrb.w	r1, [r9], #1
    4b66:	4628      	mov	r0, r5
    4b68:	9309      	str	r3, [sp, #36]	; 0x24
    4b6a:	f8cd c028 	str.w	r12, [sp, #40]	; 0x28
    4b6e:	4632      	mov	r2, r6
    4b70:	47b8      	blx	r7
    4b72:	3001      	adds	r0, #1
    4b74:	9b09      	ldr	r3, [sp, #36]	; 0x24
    4b76:	f8dd c028 	ldr.w	r12, [sp, #40]	; 0x28
    4b7a:	f43f af51 	beq.w	4a20 <_printf_float+0x1a4>
    4b7e:	4599      	cmp	r9, r3
    4b80:	d1ef      	bne.n	4b62 <_printf_float+0x2e6>
    4b82:	e7e1      	b.n	4b48 <_printf_float+0x2cc>
    4b84:	7ea1      	ldrb	r1, [r4, #26]
    4b86:	f8cd c028 	str.w	r12, [sp, #40]	; 0x28
    4b8a:	4628      	mov	r0, r5
    4b8c:	4632      	mov	r2, r6
    4b8e:	9309      	str	r3, [sp, #36]	; 0x24
    4b90:	47b8      	blx	r7
    4b92:	3001      	adds	r0, #1
    4b94:	9909      	ldr	r1, [sp, #36]	; 0x24
    4b96:	f8dd c028 	ldr.w	r12, [sp, #40]	; 0x28
    4b9a:	f43f af41 	beq.w	4a20 <_printf_float+0x1a4>
    4b9e:	1c4b      	adds	r3, r1, #1
    4ba0:	f8d4 9058 	ldr.w	r9, [r4, #88]	; 0x58
    4ba4:	ea2c 72ec 	bic.w	r2, r12, r12, asr #31
    4ba8:	ebc2 0009 	rsb	r0, r2, r9
    4bac:	4283      	cmp	r3, r0
    4bae:	dbe9      	blt.n	4b84 <_printf_float+0x308>
    4bb0:	990e      	ldr	r1, [sp, #56]	; 0x38
    4bb2:	9b0d      	ldr	r3, [sp, #52]	; 0x34
    4bb4:	428b      	cmp	r3, r1
    4bb6:	db0f      	blt.n	4bd8 <_printf_float+0x35c>
    4bb8:	6822      	ldr	r2, [r4, #0]
    4bba:	07d1      	lsls	r1, r2, #31
    4bbc:	d40c      	bmi.n	4bd8 <_printf_float+0x35c>
    4bbe:	990e      	ldr	r1, [sp, #56]	; 0x38
    4bc0:	9b0d      	ldr	r3, [sp, #52]	; 0x34
    4bc2:	44c8      	add	r8, r9
    4bc4:	1aca      	subs	r2, r1, r3
    4bc6:	ebc9 0901 	rsb	r9, r9, r1
    4bca:	4591      	cmp	r9, r2
    4bcc:	bfa8      	it	ge
    4bce:	4691      	movge	r9, r2
    4bd0:	f1b9 0f00 	cmp.w	r9, #0
    4bd4:	dc0d      	bgt.n	4bf2 <_printf_float+0x376>
    4bd6:	e018      	b.n	4c0a <_printf_float+0x38e>
    4bd8:	980b      	ldr	r0, [sp, #44]	; 0x2c
    4bda:	eb0a 0b00 	add.w	r11, r10, r0
    4bde:	45da      	cmp	r10, r11
    4be0:	d0ed      	beq.n	4bbe <_printf_float+0x342>
    4be2:	4628      	mov	r0, r5
    4be4:	f81a 1b01 	ldrb.w	r1, [r10], #1
    4be8:	4632      	mov	r2, r6
    4bea:	47b8      	blx	r7
    4bec:	3001      	adds	r0, #1
    4bee:	d1f6      	bne.n	4bde <_printf_float+0x362>
    4bf0:	e716      	b.n	4a20 <_printf_float+0x1a4>
    4bf2:	eb08 0a09 	add.w	r10, r8, r9
    4bf6:	4628      	mov	r0, r5
    4bf8:	f818 1b01 	ldrb.w	r1, [r8], #1
    4bfc:	4632      	mov	r2, r6
    4bfe:	47b8      	blx	r7
    4c00:	3001      	adds	r0, #1
    4c02:	f43f af0d 	beq.w	4a20 <_printf_float+0x1a4>
    4c06:	45d0      	cmp	r8, r10
    4c08:	d1f5      	bne.n	4bf6 <_printf_float+0x37a>
    4c0a:	f04f 0800 	mov.w	r8, #0
    4c0e:	e008      	b.n	4c22 <_printf_float+0x3a6>
    4c10:	4628      	mov	r0, r5
    4c12:	7ea1      	ldrb	r1, [r4, #26]
    4c14:	4632      	mov	r2, r6
    4c16:	47b8      	blx	r7
    4c18:	3001      	adds	r0, #1
    4c1a:	f43f af01 	beq.w	4a20 <_printf_float+0x1a4>
    4c1e:	f108 0801 	add.w	r8, r8, #1
    4c22:	980d      	ldr	r0, [sp, #52]	; 0x34
    4c24:	990e      	ldr	r1, [sp, #56]	; 0x38
    4c26:	ea29 72e9 	bic.w	r2, r9, r9, asr #31
    4c2a:	1a0b      	subs	r3, r1, r0
    4c2c:	1a98      	subs	r0, r3, r2
    4c2e:	4580      	cmp	r8, r0
    4c30:	dbee      	blt.n	4c10 <_printf_float+0x394>
    4c32:	e723      	b.n	4a7c <_printf_float+0x200>
    4c34:	980e      	ldr	r0, [sp, #56]	; 0x38
    4c36:	f898 1000 	ldrb.w	r1, [r8]
    4c3a:	2801      	cmp	r0, #1
    4c3c:	dc0a      	bgt.n	4c54 <_printf_float+0x3d8>
    4c3e:	07da      	lsls	r2, r3, #31
    4c40:	d408      	bmi.n	4c54 <_printf_float+0x3d8>
    4c42:	4628      	mov	r0, r5
    4c44:	4632      	mov	r2, r6
    4c46:	47b8      	blx	r7
    4c48:	3001      	adds	r0, #1
    4c4a:	f43f aee9 	beq.w	4a20 <_printf_float+0x1a4>
    4c4e:	f04f 0800 	mov.w	r8, #0
    4c52:	e048      	b.n	4ce6 <_printf_float+0x46a>
    4c54:	4628      	mov	r0, r5
    4c56:	4632      	mov	r2, r6
    4c58:	47b8      	blx	r7
    4c5a:	3001      	adds	r0, #1
    4c5c:	f43f aee0 	beq.w	4a20 <_printf_float+0x1a4>
    4c60:	990b      	ldr	r1, [sp, #44]	; 0x2c
    4c62:	eb0a 0b01 	add.w	r11, r10, r1
    4c66:	45da      	cmp	r10, r11
    4c68:	d007      	beq.n	4c7a <_printf_float+0x3fe>
    4c6a:	4628      	mov	r0, r5
    4c6c:	f81a 1b01 	ldrb.w	r1, [r10], #1
    4c70:	4632      	mov	r2, r6
    4c72:	47b8      	blx	r7
    4c74:	3001      	adds	r0, #1
    4c76:	d1f6      	bne.n	4c66 <_printf_float+0x3ea>
    4c78:	e6d2      	b.n	4a20 <_printf_float+0x1a4>
    4c7a:	e9d4 0112 	ldrd	r0, r1, [r4, #72]	; 0x48
    4c7e:	2200      	movs	r2, #0
    4c80:	2300      	movs	r3, #0
    4c82:	f7fd ff8b 	bl	2b9c <__aeabi_dcmpeq>
    4c86:	b110      	cbz	r0, 4c8e <_printf_float+0x412>
    4c88:	f04f 0800 	mov.w	r8, #0
    4c8c:	e01a      	b.n	4cc4 <_printf_float+0x448>
    4c8e:	f04f 0a00 	mov.w	r10, #0
    4c92:	980e      	ldr	r0, [sp, #56]	; 0x38
    4c94:	1e41      	subs	r1, r0, #1
    4c96:	458a      	cmp	r10, r1
    4c98:	dad9      	bge.n	4c4e <_printf_float+0x3d2>
    4c9a:	eb08 020a 	add.w	r2, r8, r10
    4c9e:	7851      	ldrb	r1, [r2, #1]
    4ca0:	4628      	mov	r0, r5
    4ca2:	4632      	mov	r2, r6
    4ca4:	47b8      	blx	r7
    4ca6:	3001      	adds	r0, #1
    4ca8:	f43f aeba 	beq.w	4a20 <_printf_float+0x1a4>
    4cac:	f10a 0a01 	add.w	r10, r10, #1
    4cb0:	e7ef      	b.n	4c92 <_printf_float+0x416>
    4cb2:	4628      	mov	r0, r5
    4cb4:	7ea1      	ldrb	r1, [r4, #26]
    4cb6:	4632      	mov	r2, r6
    4cb8:	47b8      	blx	r7
    4cba:	3001      	adds	r0, #1
    4cbc:	f43f aeb0 	beq.w	4a20 <_printf_float+0x1a4>
    4cc0:	f108 0801 	add.w	r8, r8, #1
    4cc4:	9b0e      	ldr	r3, [sp, #56]	; 0x38
    4cc6:	1e5a      	subs	r2, r3, #1
    4cc8:	4590      	cmp	r8, r2
    4cca:	dbf2      	blt.n	4cb2 <_printf_float+0x436>
    4ccc:	e7bf      	b.n	4c4e <_printf_float+0x3d2>
    4cce:	eb04 0308 	add.w	r3, r4, r8
    4cd2:	4628      	mov	r0, r5
    4cd4:	f893 1050 	ldrb.w	r1, [r3, #80]	; 0x50
    4cd8:	4632      	mov	r2, r6
    4cda:	47b8      	blx	r7
    4cdc:	3001      	adds	r0, #1
    4cde:	f43f ae9f 	beq.w	4a20 <_printf_float+0x1a4>
    4ce2:	f108 0801 	add.w	r8, r8, #1
    4ce6:	45c8      	cmp	r8, r9
    4ce8:	dbf1      	blt.n	4cce <_printf_float+0x452>
    4cea:	e6c7      	b.n	4a7c <_printf_float+0x200>
    4cec:	4628      	mov	r0, r5
    4cee:	7e61      	ldrb	r1, [r4, #25]
    4cf0:	4632      	mov	r2, r6
    4cf2:	47b8      	blx	r7
    4cf4:	3001      	adds	r0, #1
    4cf6:	f43f ae93 	beq.w	4a20 <_printf_float+0x1a4>
    4cfa:	f108 0801 	add.w	r8, r8, #1
    4cfe:	68e2      	ldr	r2, [r4, #12]
    4d00:	9b0f      	ldr	r3, [sp, #60]	; 0x3c
    4d02:	1ad0      	subs	r0, r2, r3
    4d04:	4580      	cmp	r8, r0
    4d06:	dbf1      	blt.n	4cec <_printf_float+0x470>
    4d08:	68e0      	ldr	r0, [r4, #12]
    4d0a:	990f      	ldr	r1, [sp, #60]	; 0x3c
    4d0c:	4288      	cmp	r0, r1
    4d0e:	bfb8      	it	lt
    4d10:	4608      	movlt	r0, r1
    4d12:	e002      	b.n	4d1a <_printf_float+0x49e>
    4d14:	f04f 0800 	mov.w	r8, #0
    4d18:	e7f1      	b.n	4cfe <_printf_float+0x482>
    4d1a:	b011      	add	sp, #68	; 0x44
    4d1c:	e8bd 8ff0 	ldmia.w	sp!, {r4, r5, r6, r7, r8, r9, r10, r11, pc}

00004d20 <_printf_common>:
    4d20:	e92d 47f0 	stmdb	sp!, {r4, r5, r6, r7, r8, r9, r10, lr}
    4d24:	4615      	mov	r5, r2
    4d26:	4699      	mov	r9, r3
    4d28:	688a      	ldr	r2, [r1, #8]
    4d2a:	690b      	ldr	r3, [r1, #16]
    4d2c:	4680      	mov	r8, r0
    4d2e:	429a      	cmp	r2, r3
    4d30:	bfa8      	it	ge
    4d32:	4613      	movge	r3, r2
    4d34:	602b      	str	r3, [r5, #0]
    4d36:	f891 0043 	ldrb.w	r0, [r1, #67]	; 0x43
    4d3a:	460c      	mov	r4, r1
    4d3c:	f8dd a020 	ldr.w	r10, [sp, #32]
    4d40:	b108      	cbz	r0, 4d46 <_printf_common+0x26>
    4d42:	1c59      	adds	r1, r3, #1
    4d44:	6029      	str	r1, [r5, #0]
    4d46:	6826      	ldr	r6, [r4, #0]
    4d48:	06b2      	lsls	r2, r6, #26
    4d4a:	d502      	bpl.n	4d52 <_printf_common+0x32>
    4d4c:	682a      	ldr	r2, [r5, #0]
    4d4e:	1c93      	adds	r3, r2, #2
    4d50:	602b      	str	r3, [r5, #0]
    4d52:	6820      	ldr	r0, [r4, #0]
    4d54:	f010 0606 	ands.w	r6, r0, #6
    4d58:	d018      	beq.n	4d8c <_printf_common+0x6c>
    4d5a:	f894 7043 	ldrb.w	r7, [r4, #67]	; 0x43
    4d5e:	6820      	ldr	r0, [r4, #0]
    4d60:	1c3e      	adds	r6, r7, #0
    4d62:	bf18      	it	ne
    4d64:	2601      	movne	r6, #1
    4d66:	0683      	lsls	r3, r0, #26
    4d68:	d51a      	bpl.n	4da0 <_printf_common+0x80>
    4d6a:	19a1      	adds	r1, r4, r6
    4d6c:	2230      	movs	r2, #48	; 0x30
    4d6e:	f881 2043 	strb.w	r2, [r1, #67]	; 0x43
    4d72:	f894 3045 	ldrb.w	r3, [r4, #69]	; 0x45
    4d76:	3602      	adds	r6, #2
    4d78:	f881 3044 	strb.w	r3, [r1, #68]	; 0x44
    4d7c:	e010      	b.n	4da0 <_printf_common+0x80>
    4d7e:	4640      	mov	r0, r8
    4d80:	7e61      	ldrb	r1, [r4, #25]
    4d82:	464a      	mov	r2, r9
    4d84:	47d0      	blx	r10
    4d86:	3001      	adds	r0, #1
    4d88:	d006      	beq.n	4d98 <_printf_common+0x78>
    4d8a:	3601      	adds	r6, #1
    4d8c:	68e1      	ldr	r1, [r4, #12]
    4d8e:	682a      	ldr	r2, [r5, #0]
    4d90:	1a8b      	subs	r3, r1, r2
    4d92:	429e      	cmp	r6, r3
    4d94:	dbf3      	blt.n	4d7e <_printf_common+0x5e>
    4d96:	e7e0      	b.n	4d5a <_printf_common+0x3a>
    4d98:	f04f 30ff 	mov.w	r0, #4294967295
    4d9c:	e8bd 87f0 	ldmia.w	sp!, {r4, r5, r6, r7, r8, r9, r10, pc}
    4da0:	2700      	movs	r7, #0
    4da2:	42b7      	cmp	r7, r6
    4da4:	da09      	bge.n	4dba <_printf_common+0x9a>
    4da6:	19e1      	adds	r1, r4, r7
    4da8:	4640      	mov	r0, r8
    4daa:	f891 1043 	ldrb.w	r1, [r1, #67]	; 0x43
    4dae:	464a      	mov	r2, r9
    4db0:	47d0      	blx	r10
    4db2:	3001      	adds	r0, #1
    4db4:	d0f0      	beq.n	4d98 <_printf_common+0x78>
    4db6:	3701      	adds	r7, #1
    4db8:	e7f3      	b.n	4da2 <_printf_common+0x82>
    4dba:	6821      	ldr	r1, [r4, #0]
    4dbc:	6828      	ldr	r0, [r5, #0]
    4dbe:	68e6      	ldr	r6, [r4, #12]
    4dc0:	f001 0206 	and.w	r2, r1, #6
    4dc4:	2a04      	cmp	r2, #4
    4dc6:	bf08      	it	eq
    4dc8:	ebc0 0506 	rsbeq	r5, r0, r6
    4dcc:	6923      	ldr	r3, [r4, #16]
    4dce:	68a6      	ldr	r6, [r4, #8]
    4dd0:	bf0c      	ite	eq
    4dd2:	ea25 75e5 	biceq.w	r5, r5, r5, asr #31
    4dd6:	2500      	movne	r5, #0
    4dd8:	429e      	cmp	r6, r3
    4dda:	bfc4      	itt	gt
    4ddc:	ebc3 0306 	rsbgt	r3, r3, r6
    4de0:	18ed      	addgt	r5, r5, r3
    4de2:	2600      	movs	r6, #0
    4de4:	42ae      	cmp	r6, r5
    4de6:	da07      	bge.n	4df8 <_printf_common+0xd8>
    4de8:	4640      	mov	r0, r8
    4dea:	7ea1      	ldrb	r1, [r4, #26]
    4dec:	464a      	mov	r2, r9
    4dee:	47d0      	blx	r10
    4df0:	3001      	adds	r0, #1
    4df2:	d0d1      	beq.n	4d98 <_printf_common+0x78>
    4df4:	3601      	adds	r6, #1
    4df6:	e7f5      	b.n	4de4 <_printf_common+0xc4>
    4df8:	2000      	movs	r0, #0
    4dfa:	e8bd 87f0 	ldmia.w	sp!, {r4, r5, r6, r7, r8, r9, r10, pc}
	...

00004e00 <_printf_i>:
    4e00:	e92d 43f0 	stmdb	sp!, {r4, r5, r6, r7, r8, r9, lr}
    4e04:	460c      	mov	r4, r1
    4e06:	7e25      	ldrb	r5, [r4, #24]
    4e08:	b085      	sub	sp, #20
    4e0a:	2d6e      	cmp	r5, #110	; 0x6e
    4e0c:	4690      	mov	r8, r2
    4e0e:	4607      	mov	r7, r0
    4e10:	4699      	mov	r9, r3
    4e12:	990c      	ldr	r1, [sp, #48]	; 0x30
    4e14:	f104 0243 	add.w	r2, r4, #67	; 0x43
    4e18:	f000 80aa 	beq.w	4f70 <_printf_i+0x170>
    4e1c:	d812      	bhi.n	4e44 <_printf_i+0x44>
    4e1e:	2d63      	cmp	r5, #99	; 0x63
    4e20:	d024      	beq.n	4e6c <_printf_i+0x6c>
    4e22:	d809      	bhi.n	4e38 <_printf_i+0x38>
    4e24:	2d00      	cmp	r5, #0
    4e26:	f000 80bb 	beq.w	4fa0 <_printf_i+0x1a0>
    4e2a:	2d58      	cmp	r5, #88	; 0x58
    4e2c:	f040 80cb 	bne.w	4fc6 <_printf_i+0x1c6>
    4e30:	f884 5045 	strb.w	r5, [r4, #69]	; 0x45
    4e34:	4d82      	ldr	r5, [pc, #520]	; (5040 <_printf_i+0x240>)
    4e36:	e057      	b.n	4ee8 <_printf_i+0xe8>
    4e38:	2d64      	cmp	r5, #100	; 0x64
    4e3a:	d020      	beq.n	4e7e <_printf_i+0x7e>
    4e3c:	2d69      	cmp	r5, #105	; 0x69
    4e3e:	f040 80c2 	bne.w	4fc6 <_printf_i+0x1c6>
    4e42:	e01c      	b.n	4e7e <_printf_i+0x7e>
    4e44:	2d73      	cmp	r5, #115	; 0x73
    4e46:	f000 80af 	beq.w	4fa8 <_printf_i+0x1a8>
    4e4a:	d809      	bhi.n	4e60 <_printf_i+0x60>
    4e4c:	2d6f      	cmp	r5, #111	; 0x6f
    4e4e:	d02f      	beq.n	4eb0 <_printf_i+0xb0>
    4e50:	2d70      	cmp	r5, #112	; 0x70
    4e52:	f040 80b8 	bne.w	4fc6 <_printf_i+0x1c6>
    4e56:	6825      	ldr	r5, [r4, #0]
    4e58:	f045 0620 	orr.w	r6, r5, #32
    4e5c:	6026      	str	r6, [r4, #0]
    4e5e:	e03f      	b.n	4ee0 <_printf_i+0xe0>
    4e60:	2d75      	cmp	r5, #117	; 0x75
    4e62:	d025      	beq.n	4eb0 <_printf_i+0xb0>
    4e64:	2d78      	cmp	r5, #120	; 0x78
    4e66:	f040 80ae 	bne.w	4fc6 <_printf_i+0x1c6>
    4e6a:	e039      	b.n	4ee0 <_printf_i+0xe0>
    4e6c:	6808      	ldr	r0, [r1, #0]
    4e6e:	f104 0642 	add.w	r6, r4, #66	; 0x42
    4e72:	1d02      	adds	r2, r0, #4
    4e74:	600a      	str	r2, [r1, #0]
    4e76:	6801      	ldr	r1, [r0, #0]
    4e78:	f884 1042 	strb.w	r1, [r4, #66]	; 0x42
    4e7c:	e0a7      	b.n	4fce <_printf_i+0x1ce>
    4e7e:	6820      	ldr	r0, [r4, #0]
    4e80:	680b      	ldr	r3, [r1, #0]
    4e82:	f010 0f80 	tst.w	r0, #128	; 0x80
    4e86:	d002      	beq.n	4e8e <_printf_i+0x8e>
    4e88:	1d1e      	adds	r6, r3, #4
    4e8a:	600e      	str	r6, [r1, #0]
    4e8c:	e008      	b.n	4ea0 <_printf_i+0xa0>
    4e8e:	f103 0504 	add.w	r5, r3, #4
    4e92:	f010 0f40 	tst.w	r0, #64	; 0x40
    4e96:	600d      	str	r5, [r1, #0]
    4e98:	d002      	beq.n	4ea0 <_printf_i+0xa0>
    4e9a:	f9b3 1000 	ldrsh.w	r1, [r3]
    4e9e:	e000      	b.n	4ea2 <_printf_i+0xa2>
    4ea0:	6819      	ldr	r1, [r3, #0]
    4ea2:	2900      	cmp	r1, #0
    4ea4:	da3c      	bge.n	4f20 <_printf_i+0x120>
    4ea6:	202d      	movs	r0, #45	; 0x2d
    4ea8:	4249      	negs	r1, r1
    4eaa:	f884 0043 	strb.w	r0, [r4, #67]	; 0x43
    4eae:	e037      	b.n	4f20 <_printf_i+0x120>
    4eb0:	6825      	ldr	r5, [r4, #0]
    4eb2:	680e      	ldr	r6, [r1, #0]
    4eb4:	f015 0f80 	tst.w	r5, #128	; 0x80
    4eb8:	d002      	beq.n	4ec0 <_printf_i+0xc0>
    4eba:	1d33      	adds	r3, r6, #4
    4ebc:	600b      	str	r3, [r1, #0]
    4ebe:	e007      	b.n	4ed0 <_printf_i+0xd0>
    4ec0:	f106 0004 	add.w	r0, r6, #4
    4ec4:	f015 0f40 	tst.w	r5, #64	; 0x40
    4ec8:	6008      	str	r0, [r1, #0]
    4eca:	d001      	beq.n	4ed0 <_printf_i+0xd0>
    4ecc:	8831      	ldrh	r1, [r6, #0]
    4ece:	e000      	b.n	4ed2 <_printf_i+0xd2>
    4ed0:	6831      	ldr	r1, [r6, #0]
    4ed2:	7e26      	ldrb	r6, [r4, #24]
    4ed4:	4d5a      	ldr	r5, [pc, #360]	; (5040 <_printf_i+0x240>)
    4ed6:	2e6f      	cmp	r6, #111	; 0x6f
    4ed8:	bf14      	ite	ne
    4eda:	230a      	movne	r3, #10
    4edc:	2308      	moveq	r3, #8
    4ede:	e01b      	b.n	4f18 <_printf_i+0x118>
    4ee0:	2078      	movs	r0, #120	; 0x78
    4ee2:	4d58      	ldr	r5, [pc, #352]	; (5044 <_printf_i+0x244>)
    4ee4:	f884 0045 	strb.w	r0, [r4, #69]	; 0x45
    4ee8:	6820      	ldr	r0, [r4, #0]
    4eea:	680b      	ldr	r3, [r1, #0]
    4eec:	f010 0f80 	tst.w	r0, #128	; 0x80
    4ef0:	f103 0604 	add.w	r6, r3, #4
    4ef4:	600e      	str	r6, [r1, #0]
    4ef6:	d103      	bne.n	4f00 <_printf_i+0x100>
    4ef8:	0641      	lsls	r1, r0, #25
    4efa:	d501      	bpl.n	4f00 <_printf_i+0x100>
    4efc:	8819      	ldrh	r1, [r3, #0]
    4efe:	e000      	b.n	4f02 <_printf_i+0x102>
    4f00:	6819      	ldr	r1, [r3, #0]
    4f02:	07c6      	lsls	r6, r0, #31
    4f04:	bf44      	itt	mi
    4f06:	f040 0020 	orrmi.w	r0, r0, #32
    4f0a:	6020      	strmi	r0, [r4, #0]
    4f0c:	b919      	cbnz	r1, 4f16 <_printf_i+0x116>
    4f0e:	6820      	ldr	r0, [r4, #0]
    4f10:	f020 0320 	bic.w	r3, r0, #32
    4f14:	6023      	str	r3, [r4, #0]
    4f16:	2310      	movs	r3, #16
    4f18:	2000      	movs	r0, #0
    4f1a:	f884 0043 	strb.w	r0, [r4, #67]	; 0x43
    4f1e:	e001      	b.n	4f24 <_printf_i+0x124>
    4f20:	4d47      	ldr	r5, [pc, #284]	; (5040 <_printf_i+0x240>)
    4f22:	230a      	movs	r3, #10
    4f24:	6866      	ldr	r6, [r4, #4]
    4f26:	2e00      	cmp	r6, #0
    4f28:	60a6      	str	r6, [r4, #8]
    4f2a:	db03      	blt.n	4f34 <_printf_i+0x134>
    4f2c:	6820      	ldr	r0, [r4, #0]
    4f2e:	f020 0004 	bic.w	r0, r0, #4
    4f32:	6020      	str	r0, [r4, #0]
    4f34:	b901      	cbnz	r1, 4f38 <_printf_i+0x138>
    4f36:	b16e      	cbz	r6, 4f54 <_printf_i+0x154>
    4f38:	f104 0042 	add.w	r0, r4, #66	; 0x42
    4f3c:	fbb1 fef3 	udiv	lr, r1, r3
    4f40:	fb03 111e 	mls	r1, r3, lr, r1
    4f44:	5c69      	ldrb	r1, [r5, r1]
    4f46:	4606      	mov	r6, r0
    4f48:	f800 1901 	strb.w	r1, [r0], #-1
    4f4c:	4671      	mov	r1, lr
    4f4e:	2900      	cmp	r1, #0
    4f50:	d1f4      	bne.n	4f3c <_printf_i+0x13c>
    4f52:	e000      	b.n	4f56 <_printf_i+0x156>
    4f54:	4616      	mov	r6, r2
    4f56:	1b92      	subs	r2, r2, r6
    4f58:	2b08      	cmp	r3, #8
    4f5a:	6122      	str	r2, [r4, #16]
    4f5c:	d13c      	bne.n	4fd8 <_printf_i+0x1d8>
    4f5e:	6823      	ldr	r3, [r4, #0]
    4f60:	07d8      	lsls	r0, r3, #31
    4f62:	d539      	bpl.n	4fd8 <_printf_i+0x1d8>
    4f64:	6860      	ldr	r0, [r4, #4]
    4f66:	4290      	cmp	r0, r2
    4f68:	dc36      	bgt.n	4fd8 <_printf_i+0x1d8>
    4f6a:	1c51      	adds	r1, r2, #1
    4f6c:	6061      	str	r1, [r4, #4]
    4f6e:	e033      	b.n	4fd8 <_printf_i+0x1d8>
    4f70:	6826      	ldr	r6, [r4, #0]
    4f72:	680b      	ldr	r3, [r1, #0]
    4f74:	f016 0f80 	tst.w	r6, #128	; 0x80
    4f78:	d005      	beq.n	4f86 <_printf_i+0x186>
    4f7a:	1d1e      	adds	r6, r3, #4
    4f7c:	600e      	str	r6, [r1, #0]
    4f7e:	6819      	ldr	r1, [r3, #0]
    4f80:	6960      	ldr	r0, [r4, #20]
    4f82:	6008      	str	r0, [r1, #0]
    4f84:	e00c      	b.n	4fa0 <_printf_i+0x1a0>
    4f86:	f103 0004 	add.w	r0, r3, #4
    4f8a:	f016 0f40 	tst.w	r6, #64	; 0x40
    4f8e:	6008      	str	r0, [r1, #0]
    4f90:	d003      	beq.n	4f9a <_printf_i+0x19a>
    4f92:	6818      	ldr	r0, [r3, #0]
    4f94:	6963      	ldr	r3, [r4, #20]
    4f96:	8003      	strh	r3, [r0, #0]
    4f98:	e002      	b.n	4fa0 <_printf_i+0x1a0>
    4f9a:	6961      	ldr	r1, [r4, #20]
    4f9c:	681e      	ldr	r6, [r3, #0]
    4f9e:	6031      	str	r1, [r6, #0]
    4fa0:	2300      	movs	r3, #0
    4fa2:	6123      	str	r3, [r4, #16]
    4fa4:	4616      	mov	r6, r2
    4fa6:	e017      	b.n	4fd8 <_printf_i+0x1d8>
    4fa8:	680e      	ldr	r6, [r1, #0]
    4faa:	1d32      	adds	r2, r6, #4
    4fac:	600a      	str	r2, [r1, #0]
    4fae:	6836      	ldr	r6, [r6, #0]
    4fb0:	4630      	mov	r0, r6
    4fb2:	f7fe ff23 	bl	3dfc <strlen>
    4fb6:	6863      	ldr	r3, [r4, #4]
    4fb8:	6120      	str	r0, [r4, #16]
    4fba:	4298      	cmp	r0, r3
    4fbc:	bf88      	it	hi
    4fbe:	6123      	strhi	r3, [r4, #16]
    4fc0:	6920      	ldr	r0, [r4, #16]
    4fc2:	6060      	str	r0, [r4, #4]
    4fc4:	e005      	b.n	4fd2 <_printf_i+0x1d2>
    4fc6:	f104 0642 	add.w	r6, r4, #66	; 0x42
    4fca:	f884 5042 	strb.w	r5, [r4, #66]	; 0x42
    4fce:	2301      	movs	r3, #1
    4fd0:	6123      	str	r3, [r4, #16]
    4fd2:	2100      	movs	r1, #0
    4fd4:	f884 1043 	strb.w	r1, [r4, #67]	; 0x43
    4fd8:	f8cd 9000 	str.w	r9, [sp]
    4fdc:	4638      	mov	r0, r7
    4fde:	4621      	mov	r1, r4
    4fe0:	aa03      	add	r2, sp, #12
    4fe2:	4643      	mov	r3, r8
    4fe4:	f7ff fe9c 	bl	4d20 <_printf_common>
    4fe8:	3001      	adds	r0, #1
    4fea:	d102      	bne.n	4ff2 <_printf_i+0x1f2>
    4fec:	f04f 30ff 	mov.w	r0, #4294967295
    4ff0:	e022      	b.n	5038 <_printf_i+0x238>
    4ff2:	2500      	movs	r5, #0
    4ff4:	6922      	ldr	r2, [r4, #16]
    4ff6:	4295      	cmp	r5, r2
    4ff8:	da07      	bge.n	500a <_printf_i+0x20a>
    4ffa:	4638      	mov	r0, r7
    4ffc:	5d71      	ldrb	r1, [r6, r5]
    4ffe:	4642      	mov	r2, r8
    5000:	47c8      	blx	r9
    5002:	3001      	adds	r0, #1
    5004:	d0f2      	beq.n	4fec <_printf_i+0x1ec>
    5006:	3501      	adds	r5, #1
    5008:	e7f4      	b.n	4ff4 <_printf_i+0x1f4>
    500a:	6821      	ldr	r1, [r4, #0]
    500c:	0789      	lsls	r1, r1, #30
    500e:	d405      	bmi.n	501c <_printf_i+0x21c>
    5010:	68e0      	ldr	r0, [r4, #12]
    5012:	9903      	ldr	r1, [sp, #12]
    5014:	4288      	cmp	r0, r1
    5016:	bfb8      	it	lt
    5018:	4608      	movlt	r0, r1
    501a:	e00d      	b.n	5038 <_printf_i+0x238>
    501c:	2500      	movs	r5, #0
    501e:	68e0      	ldr	r0, [r4, #12]
    5020:	9b03      	ldr	r3, [sp, #12]
    5022:	1ac2      	subs	r2, r0, r3
    5024:	4295      	cmp	r5, r2
    5026:	daf3      	bge.n	5010 <_printf_i+0x210>
    5028:	4638      	mov	r0, r7
    502a:	7e61      	ldrb	r1, [r4, #25]
    502c:	4642      	mov	r2, r8
    502e:	47c8      	blx	r9
    5030:	3001      	adds	r0, #1
    5032:	d0db      	beq.n	4fec <_printf_i+0x1ec>
    5034:	3501      	adds	r5, #1
    5036:	e7f2      	b.n	501e <_printf_i+0x21e>
    5038:	b005      	add	sp, #20
    503a:	e8bd 83f0 	ldmia.w	sp!, {r4, r5, r6, r7, r8, r9, pc}
    503e:	bf00      	nop
    5040:	00008ac9 	.word	0x00008ac9
    5044:	00008ada 	.word	0x00008ada

00005048 <_scanf_float>:
    5048:	e92d 4ff0 	stmdb	sp!, {r4, r5, r6, r7, r8, r9, r10, r11, lr}
    504c:	b087      	sub	sp, #28
    504e:	9303      	str	r3, [sp, #12]
    5050:	688b      	ldr	r3, [r1, #8]
    5052:	4616      	mov	r6, r2
    5054:	1e5a      	subs	r2, r3, #1
    5056:	f5b2 7fae 	cmp.w	r2, #348	; 0x15c
    505a:	4607      	mov	r7, r0
    505c:	460c      	mov	r4, r1
    505e:	d907      	bls.n	5070 <_scanf_float+0x28>
    5060:	f46f 70ae 	mvn.w	r0, #348	; 0x15c
    5064:	f240 115d 	movw	r1, #349	; 0x15d
    5068:	eb03 0c00 	add.w	r12, r3, r0
    506c:	60a1      	str	r1, [r4, #8]
    506e:	e001      	b.n	5074 <_scanf_float+0x2c>
    5070:	f04f 0c00 	mov.w	r12, #0
    5074:	6825      	ldr	r5, [r4, #0]
    5076:	46a0      	mov	r8, r4
    5078:	f445 63f0 	orr.w	r3, r5, #1920	; 0x780
    507c:	f848 3b1c 	str.w	r3, [r8], #28
    5080:	2500      	movs	r5, #0
    5082:	46c3      	mov	r11, r8
    5084:	462a      	mov	r2, r5
    5086:	46a9      	mov	r9, r5
    5088:	9505      	str	r5, [sp, #20]
    508a:	46aa      	mov	r10, r5
    508c:	9504      	str	r5, [sp, #16]
    508e:	68a1      	ldr	r1, [r4, #8]
    5090:	2900      	cmp	r1, #0
    5092:	f000 80df 	beq.w	5254 <_scanf_float+0x20c>
    5096:	6830      	ldr	r0, [r6, #0]
    5098:	7803      	ldrb	r3, [r0, #0]
    509a:	2b4e      	cmp	r3, #78	; 0x4e
    509c:	d05c      	beq.n	5158 <_scanf_float+0x110>
    509e:	d81d      	bhi.n	50dc <_scanf_float+0x94>
    50a0:	2b39      	cmp	r3, #57	; 0x39
    50a2:	d80f      	bhi.n	50c4 <_scanf_float+0x7c>
    50a4:	2b31      	cmp	r3, #49	; 0x31
    50a6:	d247      	bcs.n	5138 <_scanf_float+0xf0>
    50a8:	2b2e      	cmp	r3, #46	; 0x2e
    50aa:	f000 8090 	beq.w	51ce <_scanf_float+0x186>
    50ae:	d805      	bhi.n	50bc <_scanf_float+0x74>
    50b0:	2b2b      	cmp	r3, #43	; 0x2b
    50b2:	d049      	beq.n	5148 <_scanf_float+0x100>
    50b4:	2b2d      	cmp	r3, #45	; 0x2d
    50b6:	f040 80cd 	bne.w	5254 <_scanf_float+0x20c>
    50ba:	e045      	b.n	5148 <_scanf_float+0x100>
    50bc:	2b30      	cmp	r3, #48	; 0x30
    50be:	f040 80c9 	bne.w	5254 <_scanf_float+0x20c>
    50c2:	e028      	b.n	5116 <_scanf_float+0xce>
    50c4:	2b45      	cmp	r3, #69	; 0x45
    50c6:	f000 808b 	beq.w	51e0 <_scanf_float+0x198>
    50ca:	d803      	bhi.n	50d4 <_scanf_float+0x8c>
    50cc:	2b41      	cmp	r3, #65	; 0x41
    50ce:	f040 80c1 	bne.w	5254 <_scanf_float+0x20c>
    50d2:	e056      	b.n	5182 <_scanf_float+0x13a>
    50d4:	2b46      	cmp	r3, #70	; 0x46
    50d6:	d06e      	beq.n	51b6 <_scanf_float+0x16e>
    50d8:	2b49      	cmp	r3, #73	; 0x49
    50da:	e013      	b.n	5104 <_scanf_float+0xbc>
    50dc:	2b66      	cmp	r3, #102	; 0x66
    50de:	d06a      	beq.n	51b6 <_scanf_float+0x16e>
    50e0:	d80c      	bhi.n	50fc <_scanf_float+0xb4>
    50e2:	2b59      	cmp	r3, #89	; 0x59
    50e4:	d06f      	beq.n	51c6 <_scanf_float+0x17e>
    50e6:	d803      	bhi.n	50f0 <_scanf_float+0xa8>
    50e8:	2b54      	cmp	r3, #84	; 0x54
    50ea:	f040 80b3 	bne.w	5254 <_scanf_float+0x20c>
    50ee:	e066      	b.n	51be <_scanf_float+0x176>
    50f0:	2b61      	cmp	r3, #97	; 0x61
    50f2:	d046      	beq.n	5182 <_scanf_float+0x13a>
    50f4:	2b65      	cmp	r3, #101	; 0x65
    50f6:	f040 80ad 	bne.w	5254 <_scanf_float+0x20c>
    50fa:	e071      	b.n	51e0 <_scanf_float+0x198>
    50fc:	2b6e      	cmp	r3, #110	; 0x6e
    50fe:	d02b      	beq.n	5158 <_scanf_float+0x110>
    5100:	d803      	bhi.n	510a <_scanf_float+0xc2>
    5102:	2b69      	cmp	r3, #105	; 0x69
    5104:	f040 80a6 	bne.w	5254 <_scanf_float+0x20c>
    5108:	e03f      	b.n	518a <_scanf_float+0x142>
    510a:	2b74      	cmp	r3, #116	; 0x74
    510c:	d057      	beq.n	51be <_scanf_float+0x176>
    510e:	2b79      	cmp	r3, #121	; 0x79
    5110:	f040 80a0 	bne.w	5254 <_scanf_float+0x20c>
    5114:	e057      	b.n	51c6 <_scanf_float+0x17e>
    5116:	6820      	ldr	r0, [r4, #0]
    5118:	f410 7f80 	tst.w	r0, #256	; 0x100
    511c:	d00c      	beq.n	5138 <_scanf_float+0xf0>
    511e:	f020 0380 	bic.w	r3, r0, #128	; 0x80
    5122:	6023      	str	r3, [r4, #0]
    5124:	f10a 0a01 	add.w	r10, r10, #1
    5128:	f1bc 0f00 	cmp.w	r12, #0
    512c:	d075      	beq.n	521a <_scanf_float+0x1d2>
    512e:	3101      	adds	r1, #1
    5130:	f10c 3cff 	add.w	r12, r12, #4294967295
    5134:	60a1      	str	r1, [r4, #8]
    5136:	e070      	b.n	521a <_scanf_float+0x1d2>
    5138:	1951      	adds	r1, r2, r5
    513a:	2900      	cmp	r1, #0
    513c:	f040 808a 	bne.w	5254 <_scanf_float+0x20c>
    5140:	6820      	ldr	r0, [r4, #0]
    5142:	f420 70c0 	bic.w	r0, r0, #384	; 0x180
    5146:	e005      	b.n	5154 <_scanf_float+0x10c>
    5148:	6821      	ldr	r1, [r4, #0]
    514a:	0608      	lsls	r0, r1, #24
    514c:	f140 8082 	bpl.w	5254 <_scanf_float+0x20c>
    5150:	f021 0080 	bic.w	r0, r1, #128	; 0x80
    5154:	6020      	str	r0, [r4, #0]
    5156:	e05e      	b.n	5216 <_scanf_float+0x1ce>
    5158:	b96a      	cbnz	r2, 5176 <_scanf_float+0x12e>
    515a:	f1ba 0f00 	cmp.w	r10, #0
    515e:	d10c      	bne.n	517a <_scanf_float+0x132>
    5160:	6821      	ldr	r1, [r4, #0]
    5162:	f401 60e0 	and.w	r0, r1, #1792	; 0x700
    5166:	f5b0 6fe0 	cmp.w	r0, #1792	; 0x700
    516a:	d106      	bne.n	517a <_scanf_float+0x132>
    516c:	f421 62f0 	bic.w	r2, r1, #1920	; 0x780
    5170:	6022      	str	r2, [r4, #0]
    5172:	2201      	movs	r2, #1
    5174:	e04f      	b.n	5216 <_scanf_float+0x1ce>
    5176:	2a02      	cmp	r2, #2
    5178:	d04c      	beq.n	5214 <_scanf_float+0x1cc>
    517a:	2d01      	cmp	r5, #1
    517c:	d018      	beq.n	51b0 <_scanf_float+0x168>
    517e:	2d04      	cmp	r5, #4
    5180:	e015      	b.n	51ae <_scanf_float+0x166>
    5182:	2a01      	cmp	r2, #1
    5184:	d166      	bne.n	5254 <_scanf_float+0x20c>
    5186:	2202      	movs	r2, #2
    5188:	e045      	b.n	5216 <_scanf_float+0x1ce>
    518a:	b96d      	cbnz	r5, 51a8 <_scanf_float+0x160>
    518c:	f1ba 0f00 	cmp.w	r10, #0
    5190:	d163      	bne.n	525a <_scanf_float+0x212>
    5192:	6821      	ldr	r1, [r4, #0]
    5194:	f401 60e0 	and.w	r0, r1, #1792	; 0x700
    5198:	f5b0 6fe0 	cmp.w	r0, #1792	; 0x700
    519c:	d161      	bne.n	5262 <_scanf_float+0x21a>
    519e:	f421 65f0 	bic.w	r5, r1, #1920	; 0x780
    51a2:	6025      	str	r5, [r4, #0]
    51a4:	2501      	movs	r5, #1
    51a6:	e036      	b.n	5216 <_scanf_float+0x1ce>
    51a8:	2d03      	cmp	r5, #3
    51aa:	d001      	beq.n	51b0 <_scanf_float+0x168>
    51ac:	2d05      	cmp	r5, #5
    51ae:	d151      	bne.n	5254 <_scanf_float+0x20c>
    51b0:	3501      	adds	r5, #1
    51b2:	b2ed      	uxtb	r5, r5
    51b4:	e02f      	b.n	5216 <_scanf_float+0x1ce>
    51b6:	2d02      	cmp	r5, #2
    51b8:	d14c      	bne.n	5254 <_scanf_float+0x20c>
    51ba:	2503      	movs	r5, #3
    51bc:	e02b      	b.n	5216 <_scanf_float+0x1ce>
    51be:	2d06      	cmp	r5, #6
    51c0:	d148      	bne.n	5254 <_scanf_float+0x20c>
    51c2:	2507      	movs	r5, #7
    51c4:	e027      	b.n	5216 <_scanf_float+0x1ce>
    51c6:	2d07      	cmp	r5, #7
    51c8:	d144      	bne.n	5254 <_scanf_float+0x20c>
    51ca:	2508      	movs	r5, #8
    51cc:	e023      	b.n	5216 <_scanf_float+0x1ce>
    51ce:	6821      	ldr	r1, [r4, #0]
    51d0:	0588      	lsls	r0, r1, #22
    51d2:	d53f      	bpl.n	5254 <_scanf_float+0x20c>
    51d4:	f421 7020 	bic.w	r0, r1, #640	; 0x280
    51d8:	6020      	str	r0, [r4, #0]
    51da:	f8cd a010 	str.w	r10, [sp, #16]
    51de:	e01a      	b.n	5216 <_scanf_float+0x1ce>
    51e0:	6821      	ldr	r1, [r4, #0]
    51e2:	f401 60a0 	and.w	r0, r1, #1280	; 0x500
    51e6:	f5b0 6f80 	cmp.w	r0, #1024	; 0x400
    51ea:	d004      	beq.n	51f6 <_scanf_float+0x1ae>
    51ec:	0548      	lsls	r0, r1, #21
    51ee:	d531      	bpl.n	5254 <_scanf_float+0x20c>
    51f0:	f1ba 0f00 	cmp.w	r10, #0
    51f4:	d035      	beq.n	5262 <_scanf_float+0x21a>
    51f6:	0588      	lsls	r0, r1, #22
    51f8:	d404      	bmi.n	5204 <_scanf_float+0x1bc>
    51fa:	9804      	ldr	r0, [sp, #16]
    51fc:	46d9      	mov	r9, r11
    51fe:	ebc0 000a 	rsb	r0, r0, r10
    5202:	9005      	str	r0, [sp, #20]
    5204:	f421 61f0 	bic.w	r1, r1, #1920	; 0x780
    5208:	f441 70c0 	orr.w	r0, r1, #384	; 0x180
    520c:	6020      	str	r0, [r4, #0]
    520e:	f04f 0a00 	mov.w	r10, #0
    5212:	e000      	b.n	5216 <_scanf_float+0x1ce>
    5214:	2203      	movs	r2, #3
    5216:	f80b 3b01 	strb.w	r3, [r11], #1
    521a:	68a3      	ldr	r3, [r4, #8]
    521c:	6920      	ldr	r0, [r4, #16]
    521e:	1e59      	subs	r1, r3, #1
    5220:	60a1      	str	r1, [r4, #8]
    5222:	6871      	ldr	r1, [r6, #4]
    5224:	1c43      	adds	r3, r0, #1
    5226:	1e48      	subs	r0, r1, #1
    5228:	2800      	cmp	r0, #0
    522a:	6123      	str	r3, [r4, #16]
    522c:	6070      	str	r0, [r6, #4]
    522e:	dd03      	ble.n	5238 <_scanf_float+0x1f0>
    5230:	6833      	ldr	r3, [r6, #0]
    5232:	1c59      	adds	r1, r3, #1
    5234:	6031      	str	r1, [r6, #0]
    5236:	e72a      	b.n	508e <_scanf_float+0x46>
    5238:	9202      	str	r2, [sp, #8]
    523a:	f8cd c004 	str.w	r12, [sp, #4]
    523e:	f8d4 3180 	ldr.w	r3, [r4, #384]	; 0x180
    5242:	4638      	mov	r0, r7
    5244:	4631      	mov	r1, r6
    5246:	4798      	blx	r3
    5248:	9a02      	ldr	r2, [sp, #8]
    524a:	f8dd c004 	ldr.w	r12, [sp, #4]
    524e:	2800      	cmp	r0, #0
    5250:	f43f af1d 	beq.w	508e <_scanf_float+0x46>
    5254:	f1ba 0f00 	cmp.w	r10, #0
    5258:	d003      	beq.n	5262 <_scanf_float+0x21a>
    525a:	6821      	ldr	r1, [r4, #0]
    525c:	f421 7080 	bic.w	r0, r1, #256	; 0x100
    5260:	6020      	str	r0, [r4, #0]
    5262:	1e53      	subs	r3, r2, #1
    5264:	2b01      	cmp	r3, #1
    5266:	d811      	bhi.n	528c <_scanf_float+0x244>
    5268:	45c3      	cmp	r11, r8
    526a:	465a      	mov	r2, r11
    526c:	d90c      	bls.n	5288 <_scanf_float+0x240>
    526e:	f812 1c01 	ldrb.w	r1, [r2, #-1]
    5272:	f8d4 317c 	ldr.w	r3, [r4, #380]	; 0x17c
    5276:	4638      	mov	r0, r7
    5278:	4632      	mov	r2, r6
    527a:	4798      	blx	r3
    527c:	6921      	ldr	r1, [r4, #16]
    527e:	f10b 3bff 	add.w	r11, r11, #4294967295
    5282:	1e48      	subs	r0, r1, #1
    5284:	6120      	str	r0, [r4, #16]
    5286:	e7ef      	b.n	5268 <_scanf_float+0x220>
    5288:	2001      	movs	r0, #1
    528a:	e0b4      	b.n	53f6 <_scanf_float+0x3ae>
    528c:	1e6a      	subs	r2, r5, #1
    528e:	2a06      	cmp	r2, #6
    5290:	d82e      	bhi.n	52f0 <_scanf_float+0x2a8>
    5292:	2d02      	cmp	r5, #2
    5294:	d91c      	bls.n	52d0 <_scanf_float+0x288>
    5296:	46dc      	mov	r12, r11
    5298:	ebcb 0105 	rsb	r1, r11, r5
    529c:	eb01 030c 	add.w	r3, r1, r12
    52a0:	f003 00ff 	and.w	r0, r3, #255	; 0xff
    52a4:	2803      	cmp	r0, #3
    52a6:	d90e      	bls.n	52c6 <_scanf_float+0x27e>
    52a8:	f81c 1d01 	ldrb.w	r1, [r12, #-1]!
    52ac:	f8d4 317c 	ldr.w	r3, [r4, #380]	; 0x17c
    52b0:	f8cd c004 	str.w	r12, [sp, #4]
    52b4:	4638      	mov	r0, r7
    52b6:	4632      	mov	r2, r6
    52b8:	4798      	blx	r3
    52ba:	6921      	ldr	r1, [r4, #16]
    52bc:	f8dd c004 	ldr.w	r12, [sp, #4]
    52c0:	1e48      	subs	r0, r1, #1
    52c2:	6120      	str	r0, [r4, #16]
    52c4:	e7e8      	b.n	5298 <_scanf_float+0x250>
    52c6:	3d03      	subs	r5, #3
    52c8:	b2ed      	uxtb	r5, r5
    52ca:	ebc5 0b0b 	rsb	r11, r5, r11
    52ce:	e00f      	b.n	52f0 <_scanf_float+0x2a8>
    52d0:	45c3      	cmp	r11, r8
    52d2:	4659      	mov	r1, r11
    52d4:	d9d8      	bls.n	5288 <_scanf_float+0x240>
    52d6:	4632      	mov	r2, r6
    52d8:	f8d4 317c 	ldr.w	r3, [r4, #380]	; 0x17c
    52dc:	4638      	mov	r0, r7
    52de:	f811 1c01 	ldrb.w	r1, [r1, #-1]
    52e2:	4798      	blx	r3
    52e4:	6920      	ldr	r0, [r4, #16]
    52e6:	f10b 3bff 	add.w	r11, r11, #4294967295
    52ea:	1e42      	subs	r2, r0, #1
    52ec:	6122      	str	r2, [r4, #16]
    52ee:	e7ef      	b.n	52d0 <_scanf_float+0x288>
    52f0:	6821      	ldr	r1, [r4, #0]
    52f2:	05ca      	lsls	r2, r1, #23
    52f4:	d52e      	bpl.n	5354 <_scanf_float+0x30c>
    52f6:	054b      	lsls	r3, r1, #21
    52f8:	d50f      	bpl.n	531a <_scanf_float+0x2d2>
    52fa:	45c3      	cmp	r11, r8
    52fc:	4659      	mov	r1, r11
    52fe:	d9c3      	bls.n	5288 <_scanf_float+0x240>
    5300:	4632      	mov	r2, r6
    5302:	f8d4 317c 	ldr.w	r3, [r4, #380]	; 0x17c
    5306:	4638      	mov	r0, r7
    5308:	f811 1c01 	ldrb.w	r1, [r1, #-1]
    530c:	4798      	blx	r3
    530e:	6920      	ldr	r0, [r4, #16]
    5310:	f10b 3bff 	add.w	r11, r11, #4294967295
    5314:	1e42      	subs	r2, r0, #1
    5316:	6122      	str	r2, [r4, #16]
    5318:	e7ef      	b.n	52fa <_scanf_float+0x2b2>
    531a:	f81b 1c01 	ldrb.w	r1, [r11, #-1]
    531e:	6922      	ldr	r2, [r4, #16]
    5320:	f10b 35ff 	add.w	r5, r11, #4294967295
    5324:	1e53      	subs	r3, r2, #1
    5326:	2965      	cmp	r1, #101	; 0x65
    5328:	6123      	str	r3, [r4, #16]
    532a:	d00d      	beq.n	5348 <_scanf_float+0x300>
    532c:	2945      	cmp	r1, #69	; 0x45
    532e:	d00b      	beq.n	5348 <_scanf_float+0x300>
    5330:	f8d4 517c 	ldr.w	r5, [r4, #380]	; 0x17c
    5334:	4632      	mov	r2, r6
    5336:	4638      	mov	r0, r7
    5338:	47a8      	blx	r5
    533a:	6920      	ldr	r0, [r4, #16]
    533c:	f81b 1c02 	ldrb.w	r1, [r11, #-2]
    5340:	1e42      	subs	r2, r0, #1
    5342:	f1ab 0502 	sub.w	r5, r11, #2
    5346:	6122      	str	r2, [r4, #16]
    5348:	f8d4 317c 	ldr.w	r3, [r4, #380]	; 0x17c
    534c:	4638      	mov	r0, r7
    534e:	4632      	mov	r2, r6
    5350:	4798      	blx	r3
    5352:	46ab      	mov	r11, r5
    5354:	6821      	ldr	r1, [r4, #0]
    5356:	f011 0210 	ands.w	r2, r1, #16
    535a:	d14b      	bne.n	53f4 <_scanf_float+0x3ac>
    535c:	f88b 2000 	strb.w	r2, [r11]
    5360:	6826      	ldr	r6, [r4, #0]
    5362:	f406 65c0 	and.w	r5, r6, #1536	; 0x600
    5366:	f5b5 6f80 	cmp.w	r5, #1024	; 0x400
    536a:	d106      	bne.n	537a <_scanf_float+0x332>
    536c:	9804      	ldr	r0, [sp, #16]
    536e:	ebc0 030a 	rsb	r3, r0, r10
    5372:	425a      	negs	r2, r3
    5374:	b1a3      	cbz	r3, 53a0 <_scanf_float+0x358>
    5376:	46d9      	mov	r9, r11
    5378:	e008      	b.n	538c <_scanf_float+0x344>
    537a:	9e05      	ldr	r6, [sp, #20]
    537c:	b186      	cbz	r6, 53a0 <_scanf_float+0x358>
    537e:	4638      	mov	r0, r7
    5380:	f109 0101 	add.w	r1, r9, #1
    5384:	230a      	movs	r3, #10
    5386:	f002 fb7f 	bl	7a88 <_strtol_r>
    538a:	1b82      	subs	r2, r0, r6
    538c:	f204 116f 	addw	r1, r4, #367	; 0x16f
    5390:	4589      	cmp	r9, r1
    5392:	bf28      	it	cs
    5394:	f504 79b7 	addcs.w	r9, r4, #366	; 0x16e
    5398:	4648      	mov	r0, r9
    539a:	4918      	ldr	r1, [pc, #96]	; (53fc <_scanf_float+0x3b4>)
    539c:	f7fe fc8e 	bl	3cbc <siprintf>
    53a0:	2200      	movs	r2, #0
    53a2:	4638      	mov	r0, r7
    53a4:	4641      	mov	r1, r8
    53a6:	f001 fde7 	bl	6f78 <_strtod_r>
    53aa:	6822      	ldr	r2, [r4, #0]
    53ac:	9d03      	ldr	r5, [sp, #12]
    53ae:	f012 0f02 	tst.w	r2, #2
    53b2:	4606      	mov	r6, r0
    53b4:	460f      	mov	r7, r1
    53b6:	682b      	ldr	r3, [r5, #0]
    53b8:	d002      	beq.n	53c0 <_scanf_float+0x378>
    53ba:	1d18      	adds	r0, r3, #4
    53bc:	6028      	str	r0, [r5, #0]
    53be:	e006      	b.n	53ce <_scanf_float+0x386>
    53c0:	9d03      	ldr	r5, [sp, #12]
    53c2:	f012 0f04 	tst.w	r2, #4
    53c6:	f103 0204 	add.w	r2, r3, #4
    53ca:	602a      	str	r2, [r5, #0]
    53cc:	d003      	beq.n	53d6 <_scanf_float+0x38e>
    53ce:	6819      	ldr	r1, [r3, #0]
    53d0:	e9c1 6700 	strd	r6, r7, [r1]
    53d4:	e00b      	b.n	53ee <_scanf_float+0x3a6>
    53d6:	681d      	ldr	r5, [r3, #0]
    53d8:	f001 fd52 	bl	6e80 <__fpclassifyd>
    53dc:	b910      	cbnz	r0, 53e4 <_scanf_float+0x39c>
    53de:	f001 fdb1 	bl	6f44 <nanf>
    53e2:	e003      	b.n	53ec <_scanf_float+0x3a4>
    53e4:	4630      	mov	r0, r6
    53e6:	4639      	mov	r1, r7
    53e8:	f7fd fc32 	bl	2c50 <__aeabi_d2f>
    53ec:	6028      	str	r0, [r5, #0]
    53ee:	68e3      	ldr	r3, [r4, #12]
    53f0:	1c5a      	adds	r2, r3, #1
    53f2:	60e2      	str	r2, [r4, #12]
    53f4:	2000      	movs	r0, #0
    53f6:	b007      	add	sp, #28
    53f8:	e8bd 8ff0 	ldmia.w	sp!, {r4, r5, r6, r7, r8, r9, r10, r11, pc}
    53fc:	00008aeb 	.word	0x00008aeb

00005400 <_scanf_chars>:
    5400:	e92d 41f0 	stmdb	sp!, {r4, r5, r6, r7, r8, lr}
    5404:	4615      	mov	r5, r2
    5406:	688a      	ldr	r2, [r1, #8]
    5408:	4680      	mov	r8, r0
    540a:	460c      	mov	r4, r1
    540c:	b932      	cbnz	r2, 541c <_scanf_chars+0x1c>
    540e:	6988      	ldr	r0, [r1, #24]
    5410:	2800      	cmp	r0, #0
    5412:	bf14      	ite	ne
    5414:	f04f 31ff 	movne.w	r1, #4294967295
    5418:	2101      	moveq	r1, #1
    541a:	60a1      	str	r1, [r4, #8]
    541c:	6826      	ldr	r6, [r4, #0]
    541e:	06f2      	lsls	r2, r6, #27
    5420:	d403      	bmi.n	542a <_scanf_chars+0x2a>
    5422:	681f      	ldr	r7, [r3, #0]
    5424:	1d3a      	adds	r2, r7, #4
    5426:	601a      	str	r2, [r3, #0]
    5428:	683f      	ldr	r7, [r7, #0]
    542a:	2600      	movs	r6, #0
    542c:	69a3      	ldr	r3, [r4, #24]
    542e:	b9db      	cbnz	r3, 5468 <_scanf_chars+0x68>
    5430:	6823      	ldr	r3, [r4, #0]
    5432:	3601      	adds	r6, #1
    5434:	06db      	lsls	r3, r3, #27
    5436:	d403      	bmi.n	5440 <_scanf_chars+0x40>
    5438:	6828      	ldr	r0, [r5, #0]
    543a:	7802      	ldrb	r2, [r0, #0]
    543c:	f807 2b01 	strb.w	r2, [r7], #1
    5440:	6869      	ldr	r1, [r5, #4]
    5442:	6828      	ldr	r0, [r5, #0]
    5444:	1e4b      	subs	r3, r1, #1
    5446:	68a1      	ldr	r1, [r4, #8]
    5448:	1c42      	adds	r2, r0, #1
    544a:	1e48      	subs	r0, r1, #1
    544c:	606b      	str	r3, [r5, #4]
    544e:	602a      	str	r2, [r5, #0]
    5450:	60a0      	str	r0, [r4, #8]
    5452:	b328      	cbz	r0, 54a0 <_scanf_chars+0xa0>
    5454:	2b00      	cmp	r3, #0
    5456:	dce9      	bgt.n	542c <_scanf_chars+0x2c>
    5458:	f8d4 3180 	ldr.w	r3, [r4, #384]	; 0x180
    545c:	4640      	mov	r0, r8
    545e:	4629      	mov	r1, r5
    5460:	4798      	blx	r3
    5462:	2800      	cmp	r0, #0
    5464:	d0e2      	beq.n	542c <_scanf_chars+0x2c>
    5466:	e01b      	b.n	54a0 <_scanf_chars+0xa0>
    5468:	2b01      	cmp	r3, #1
    546a:	d107      	bne.n	547c <_scanf_chars+0x7c>
    546c:	6829      	ldr	r1, [r5, #0]
    546e:	6962      	ldr	r2, [r4, #20]
    5470:	7808      	ldrb	r0, [r1, #0]
    5472:	5c11      	ldrb	r1, [r2, r0]
    5474:	2900      	cmp	r1, #0
    5476:	d1db      	bne.n	5430 <_scanf_chars+0x30>
    5478:	b316      	cbz	r6, 54c0 <_scanf_chars+0xc0>
    547a:	e011      	b.n	54a0 <_scanf_chars+0xa0>
    547c:	2b02      	cmp	r3, #2
    547e:	d001      	beq.n	5484 <_scanf_chars+0x84>
    5480:	b166      	cbz	r6, 549c <_scanf_chars+0x9c>
    5482:	e00d      	b.n	54a0 <_scanf_chars+0xa0>
    5484:	6828      	ldr	r0, [r5, #0]
    5486:	4910      	ldr	r1, [pc, #64]	; (54c8 <_scanf_chars+0xc8>)
    5488:	7802      	ldrb	r2, [r0, #0]
    548a:	6808      	ldr	r0, [r1, #0]
    548c:	1882      	adds	r2, r0, r2
    548e:	7851      	ldrb	r1, [r2, #1]
    5490:	f001 0008 	and.w	r0, r1, #8
    5494:	b2c2      	uxtb	r2, r0
    5496:	2a00      	cmp	r2, #0
    5498:	d0ca      	beq.n	5430 <_scanf_chars+0x30>
    549a:	e7f1      	b.n	5480 <_scanf_chars+0x80>
    549c:	2b01      	cmp	r3, #1
    549e:	d00f      	beq.n	54c0 <_scanf_chars+0xc0>
    54a0:	6822      	ldr	r2, [r4, #0]
    54a2:	f012 0110 	ands.w	r1, r2, #16
    54a6:	d105      	bne.n	54b4 <_scanf_chars+0xb4>
    54a8:	68e0      	ldr	r0, [r4, #12]
    54aa:	69a2      	ldr	r2, [r4, #24]
    54ac:	1c43      	adds	r3, r0, #1
    54ae:	60e3      	str	r3, [r4, #12]
    54b0:	b102      	cbz	r2, 54b4 <_scanf_chars+0xb4>
    54b2:	7039      	strb	r1, [r7, #0]
    54b4:	6921      	ldr	r1, [r4, #16]
    54b6:	2000      	movs	r0, #0
    54b8:	198e      	adds	r6, r1, r6
    54ba:	6126      	str	r6, [r4, #16]
    54bc:	e8bd 81f0 	ldmia.w	sp!, {r4, r5, r6, r7, r8, pc}
    54c0:	4618      	mov	r0, r3
    54c2:	e8bd 81f0 	ldmia.w	sp!, {r4, r5, r6, r7, r8, pc}
    54c6:	bf00      	nop
    54c8:	10000138 	.word	0x10000138

000054cc <_scanf_i>:
    54cc:	e92d 4ff0 	stmdb	sp!, {r4, r5, r6, r7, r8, r9, r10, r11, lr}
    54d0:	461f      	mov	r7, r3
    54d2:	4b73      	ldr	r3, [pc, #460]	; (56a0 <_scanf_i+0x1d4>)
    54d4:	460c      	mov	r4, r1
    54d6:	b087      	sub	sp, #28
    54d8:	ae06      	add	r6, sp, #24
    54da:	4681      	mov	r9, r0
    54dc:	4615      	mov	r5, r2
    54de:	e893 0007 	ldmia.w	r3, {r0, r1, r2}
    54e2:	68a3      	ldr	r3, [r4, #8]
    54e4:	e906 0007 	stmdb	r6, {r0, r1, r2}
    54e8:	69a0      	ldr	r0, [r4, #24]
    54ea:	4a6e      	ldr	r2, [pc, #440]	; (56a4 <_scanf_i+0x1d8>)
    54ec:	496e      	ldr	r1, [pc, #440]	; (56a8 <_scanf_i+0x1dc>)
    54ee:	1e5e      	subs	r6, r3, #1
    54f0:	2803      	cmp	r0, #3
    54f2:	bf08      	it	eq
    54f4:	4611      	moveq	r1, r2
    54f6:	f5b6 7fae 	cmp.w	r6, #348	; 0x15c
    54fa:	9101      	str	r1, [sp, #4]
    54fc:	d907      	bls.n	550e <_scanf_i+0x42>
    54fe:	f46f 70ae 	mvn.w	r0, #348	; 0x15c
    5502:	f240 125d 	movw	r2, #349	; 0x15d
    5506:	eb03 0a00 	add.w	r10, r3, r0
    550a:	60a2      	str	r2, [r4, #8]
    550c:	e001      	b.n	5512 <_scanf_i+0x46>
    550e:	f04f 0a00 	mov.w	r10, #0
    5512:	6821      	ldr	r1, [r4, #0]
    5514:	f104 061c 	add.w	r6, r4, #28
    5518:	f441 6350 	orr.w	r3, r1, #3328	; 0xd00
    551c:	6023      	str	r3, [r4, #0]
    551e:	46b3      	mov	r11, r6
    5520:	f04f 0800 	mov.w	r8, #0
    5524:	6829      	ldr	r1, [r5, #0]
    5526:	a803      	add	r0, sp, #12
    5528:	f850 0028 	ldr.w	r0, [r0, r8, lsl #2]
    552c:	7809      	ldrb	r1, [r1, #0]
    552e:	2202      	movs	r2, #2
    5530:	f7fe fac4 	bl	3abc <memchr>
    5534:	2800      	cmp	r0, #0
    5536:	d032      	beq.n	559e <_scanf_i+0xd2>
    5538:	f1b8 0f01 	cmp.w	r8, #1
    553c:	d10b      	bne.n	5556 <_scanf_i+0x8a>
    553e:	6863      	ldr	r3, [r4, #4]
    5540:	b92b      	cbnz	r3, 554e <_scanf_i+0x82>
    5542:	6821      	ldr	r1, [r4, #0]
    5544:	2208      	movs	r2, #8
    5546:	f441 7000 	orr.w	r0, r1, #512	; 0x200
    554a:	6062      	str	r2, [r4, #4]
    554c:	6020      	str	r0, [r4, #0]
    554e:	6823      	ldr	r3, [r4, #0]
    5550:	f423 60a0 	bic.w	r0, r3, #1280	; 0x500
    5554:	e00c      	b.n	5570 <_scanf_i+0xa4>
    5556:	f1b8 0f02 	cmp.w	r8, #2
    555a:	d10a      	bne.n	5572 <_scanf_i+0xa6>
    555c:	6823      	ldr	r3, [r4, #0]
    555e:	f403 62c0 	and.w	r2, r3, #1536	; 0x600
    5562:	f5b2 7f00 	cmp.w	r2, #512	; 0x200
    5566:	d11a      	bne.n	559e <_scanf_i+0xd2>
    5568:	2110      	movs	r1, #16
    556a:	6061      	str	r1, [r4, #4]
    556c:	f443 7080 	orr.w	r0, r3, #256	; 0x100
    5570:	6020      	str	r0, [r4, #0]
    5572:	68a1      	ldr	r1, [r4, #8]
    5574:	1e4a      	subs	r2, r1, #1
    5576:	60a2      	str	r2, [r4, #8]
    5578:	b189      	cbz	r1, 559e <_scanf_i+0xd2>
    557a:	6828      	ldr	r0, [r5, #0]
    557c:	f810 3b01 	ldrb.w	r3, [r0], #1
    5580:	f80b 3b01 	strb.w	r3, [r11], #1
    5584:	6869      	ldr	r1, [r5, #4]
    5586:	6028      	str	r0, [r5, #0]
    5588:	1e4a      	subs	r2, r1, #1
    558a:	2a00      	cmp	r2, #0
    558c:	606a      	str	r2, [r5, #4]
    558e:	dc06      	bgt.n	559e <_scanf_i+0xd2>
    5590:	f8d4 3180 	ldr.w	r3, [r4, #384]	; 0x180
    5594:	4648      	mov	r0, r9
    5596:	4629      	mov	r1, r5
    5598:	4798      	blx	r3
    559a:	2800      	cmp	r0, #0
    559c:	d141      	bne.n	5622 <_scanf_i+0x156>
    559e:	f108 0801 	add.w	r8, r8, #1
    55a2:	f1b8 0f03 	cmp.w	r8, #3
    55a6:	d1bd      	bne.n	5524 <_scanf_i+0x58>
    55a8:	6860      	ldr	r0, [r4, #4]
    55aa:	b908      	cbnz	r0, 55b0 <_scanf_i+0xe4>
    55ac:	210a      	movs	r1, #10
    55ae:	6061      	str	r1, [r4, #4]
    55b0:	6862      	ldr	r2, [r4, #4]
    55b2:	4b3e      	ldr	r3, [pc, #248]	; (56ac <_scanf_i+0x1e0>)
    55b4:	6960      	ldr	r0, [r4, #20]
    55b6:	1a99      	subs	r1, r3, r2
    55b8:	f001 fc94 	bl	6ee4 <__sccl>
    55bc:	f04f 0800 	mov.w	r8, #0
    55c0:	68a3      	ldr	r3, [r4, #8]
    55c2:	2b00      	cmp	r3, #0
    55c4:	d02f      	beq.n	5626 <_scanf_i+0x15a>
    55c6:	682a      	ldr	r2, [r5, #0]
    55c8:	6960      	ldr	r0, [r4, #20]
    55ca:	7811      	ldrb	r1, [r2, #0]
    55cc:	5c40      	ldrb	r0, [r0, r1]
    55ce:	b350      	cbz	r0, 5626 <_scanf_i+0x15a>
    55d0:	2930      	cmp	r1, #48	; 0x30
    55d2:	d10c      	bne.n	55ee <_scanf_i+0x122>
    55d4:	6821      	ldr	r1, [r4, #0]
    55d6:	0509      	lsls	r1, r1, #20
    55d8:	d509      	bpl.n	55ee <_scanf_i+0x122>
    55da:	f108 0801 	add.w	r8, r8, #1
    55de:	f1ba 0f00 	cmp.w	r10, #0
    55e2:	d00b      	beq.n	55fc <_scanf_i+0x130>
    55e4:	1c59      	adds	r1, r3, #1
    55e6:	f10a 3aff 	add.w	r10, r10, #4294967295
    55ea:	60a1      	str	r1, [r4, #8]
    55ec:	e006      	b.n	55fc <_scanf_i+0x130>
    55ee:	6823      	ldr	r3, [r4, #0]
    55f0:	f423 6010 	bic.w	r0, r3, #2304	; 0x900
    55f4:	6020      	str	r0, [r4, #0]
    55f6:	7812      	ldrb	r2, [r2, #0]
    55f8:	f80b 2b01 	strb.w	r2, [r11], #1
    55fc:	686b      	ldr	r3, [r5, #4]
    55fe:	1e58      	subs	r0, r3, #1
    5600:	2800      	cmp	r0, #0
    5602:	6068      	str	r0, [r5, #4]
    5604:	dd03      	ble.n	560e <_scanf_i+0x142>
    5606:	6829      	ldr	r1, [r5, #0]
    5608:	1c4b      	adds	r3, r1, #1
    560a:	602b      	str	r3, [r5, #0]
    560c:	e005      	b.n	561a <_scanf_i+0x14e>
    560e:	f8d4 2180 	ldr.w	r2, [r4, #384]	; 0x180
    5612:	4648      	mov	r0, r9
    5614:	4629      	mov	r1, r5
    5616:	4790      	blx	r2
    5618:	b928      	cbnz	r0, 5626 <_scanf_i+0x15a>
    561a:	68a0      	ldr	r0, [r4, #8]
    561c:	1e42      	subs	r2, r0, #1
    561e:	60a2      	str	r2, [r4, #8]
    5620:	e7ce      	b.n	55c0 <_scanf_i+0xf4>
    5622:	f04f 0800 	mov.w	r8, #0
    5626:	6821      	ldr	r1, [r4, #0]
    5628:	05c8      	lsls	r0, r1, #23
    562a:	d50d      	bpl.n	5648 <_scanf_i+0x17c>
    562c:	45b3      	cmp	r11, r6
    562e:	d909      	bls.n	5644 <_scanf_i+0x178>
    5630:	f81b 1c01 	ldrb.w	r1, [r11, #-1]
    5634:	f8d4 317c 	ldr.w	r3, [r4, #380]	; 0x17c
    5638:	4648      	mov	r0, r9
    563a:	462a      	mov	r2, r5
    563c:	4798      	blx	r3
    563e:	f10b 3aff 	add.w	r10, r11, #4294967295
    5642:	46d3      	mov	r11, r10
    5644:	45b3      	cmp	r11, r6
    5646:	d026      	beq.n	5696 <_scanf_i+0x1ca>
    5648:	6820      	ldr	r0, [r4, #0]
    564a:	f010 0210 	ands.w	r2, r0, #16
    564e:	d119      	bne.n	5684 <_scanf_i+0x1b8>
    5650:	f88b 2000 	strb.w	r2, [r11]
    5654:	6863      	ldr	r3, [r4, #4]
    5656:	4648      	mov	r0, r9
    5658:	4631      	mov	r1, r6
    565a:	9d01      	ldr	r5, [sp, #4]
    565c:	47a8      	blx	r5
    565e:	6822      	ldr	r2, [r4, #0]
    5660:	683b      	ldr	r3, [r7, #0]
    5662:	f012 0f20 	tst.w	r2, #32
    5666:	d106      	bne.n	5676 <_scanf_i+0x1aa>
    5668:	07d1      	lsls	r1, r2, #31
    566a:	d504      	bpl.n	5676 <_scanf_i+0x1aa>
    566c:	1d19      	adds	r1, r3, #4
    566e:	6039      	str	r1, [r7, #0]
    5670:	681a      	ldr	r2, [r3, #0]
    5672:	8010      	strh	r0, [r2, #0]
    5674:	e003      	b.n	567e <_scanf_i+0x1b2>
    5676:	1d19      	adds	r1, r3, #4
    5678:	6039      	str	r1, [r7, #0]
    567a:	681b      	ldr	r3, [r3, #0]
    567c:	6018      	str	r0, [r3, #0]
    567e:	68e0      	ldr	r0, [r4, #12]
    5680:	1c42      	adds	r2, r0, #1
    5682:	60e2      	str	r2, [r4, #12]
    5684:	6921      	ldr	r1, [r4, #16]
    5686:	ebc6 060b 	rsb	r6, r6, r11
    568a:	44b0      	add	r8, r6
    568c:	eb01 0308 	add.w	r3, r1, r8
    5690:	6123      	str	r3, [r4, #16]
    5692:	2000      	movs	r0, #0
    5694:	e000      	b.n	5698 <_scanf_i+0x1cc>
    5696:	2001      	movs	r0, #1
    5698:	b007      	add	sp, #28
    569a:	e8bd 8ff0 	ldmia.w	sp!, {r4, r5, r6, r7, r8, r9, r10, r11, pc}
    569e:	bf00      	nop
    56a0:	00008af0 	.word	0x00008af0
    56a4:	00007a89 	.word	0x00007a89
    56a8:	00007b95 	.word	0x00007b95
    56ac:	00008b0c 	.word	0x00008b0c

000056b0 <__swbuf_r>:
    56b0:	b570      	push	{r4, r5, r6, lr}
    56b2:	460e      	mov	r6, r1
    56b4:	4614      	mov	r4, r2
    56b6:	4605      	mov	r5, r0
    56b8:	b118      	cbz	r0, 56c2 <__swbuf_r+0x12>
    56ba:	6983      	ldr	r3, [r0, #24]
    56bc:	b90b      	cbnz	r3, 56c2 <__swbuf_r+0x12>
    56be:	f7fd ff65 	bl	358c <__sinit>
    56c2:	4825      	ldr	r0, [pc, #148]	; (5758 <__swbuf_r+0xa8>)
    56c4:	4284      	cmp	r4, r0
    56c6:	d101      	bne.n	56cc <__swbuf_r+0x1c>
    56c8:	686c      	ldr	r4, [r5, #4]
    56ca:	e008      	b.n	56de <__swbuf_r+0x2e>
    56cc:	4923      	ldr	r1, [pc, #140]	; (575c <__swbuf_r+0xac>)
    56ce:	428c      	cmp	r4, r1
    56d0:	d101      	bne.n	56d6 <__swbuf_r+0x26>
    56d2:	68ac      	ldr	r4, [r5, #8]
    56d4:	e003      	b.n	56de <__swbuf_r+0x2e>
    56d6:	4a22      	ldr	r2, [pc, #136]	; (5760 <__swbuf_r+0xb0>)
    56d8:	4294      	cmp	r4, r2
    56da:	bf08      	it	eq
    56dc:	68ec      	ldreq	r4, [r5, #12]
    56de:	89a0      	ldrh	r0, [r4, #12]
    56e0:	69a3      	ldr	r3, [r4, #24]
    56e2:	f000 0108 	and.w	r1, r0, #8
    56e6:	b20a      	sxth	r2, r1
    56e8:	60a3      	str	r3, [r4, #8]
    56ea:	b10a      	cbz	r2, 56f0 <__swbuf_r+0x40>
    56ec:	6923      	ldr	r3, [r4, #16]
    56ee:	b95b      	cbnz	r3, 5708 <__swbuf_r+0x58>
    56f0:	4628      	mov	r0, r5
    56f2:	4621      	mov	r1, r4
    56f4:	f000 f848 	bl	5788 <__swsetup_r>
    56f8:	b130      	cbz	r0, 5708 <__swbuf_r+0x58>
    56fa:	89a6      	ldrh	r6, [r4, #12]
    56fc:	2009      	movs	r0, #9
    56fe:	f046 0240 	orr.w	r2, r6, #64	; 0x40
    5702:	81a2      	strh	r2, [r4, #12]
    5704:	6028      	str	r0, [r5, #0]
    5706:	e00b      	b.n	5720 <__swbuf_r+0x70>
    5708:	6820      	ldr	r0, [r4, #0]
    570a:	6921      	ldr	r1, [r4, #16]
    570c:	6962      	ldr	r2, [r4, #20]
    570e:	1a40      	subs	r0, r0, r1
    5710:	4290      	cmp	r0, r2
    5712:	b2f6      	uxtb	r6, r6
    5714:	db07      	blt.n	5726 <__swbuf_r+0x76>
    5716:	4628      	mov	r0, r5
    5718:	4621      	mov	r1, r4
    571a:	f7fd fe2d 	bl	3378 <_fflush_r>
    571e:	b110      	cbz	r0, 5726 <__swbuf_r+0x76>
    5720:	f04f 36ff 	mov.w	r6, #4294967295
    5724:	e015      	b.n	5752 <__swbuf_r+0xa2>
    5726:	68a3      	ldr	r3, [r4, #8]
    5728:	6822      	ldr	r2, [r4, #0]
    572a:	1e59      	subs	r1, r3, #1
    572c:	60a1      	str	r1, [r4, #8]
    572e:	f802 6b01 	strb.w	r6, [r2], #1
    5732:	6963      	ldr	r3, [r4, #20]
    5734:	3001      	adds	r0, #1
    5736:	4298      	cmp	r0, r3
    5738:	6022      	str	r2, [r4, #0]
    573a:	d004      	beq.n	5746 <__swbuf_r+0x96>
    573c:	89a1      	ldrh	r1, [r4, #12]
    573e:	07cb      	lsls	r3, r1, #31
    5740:	d507      	bpl.n	5752 <__swbuf_r+0xa2>
    5742:	2e0a      	cmp	r6, #10
    5744:	d105      	bne.n	5752 <__swbuf_r+0xa2>
    5746:	4628      	mov	r0, r5
    5748:	4621      	mov	r1, r4
    574a:	f7fd fe15 	bl	3378 <_fflush_r>
    574e:	2800      	cmp	r0, #0
    5750:	d1e6      	bne.n	5720 <__swbuf_r+0x70>
    5752:	4630      	mov	r0, r6
    5754:	bd70      	pop	{r4, r5, r6, pc}
    5756:	bf00      	nop
    5758:	00008a40 	.word	0x00008a40
    575c:	00008a60 	.word	0x00008a60
    5760:	00008a80 	.word	0x00008a80

00005764 <_write_r>:
    5764:	b538      	push	{r3, r4, r5, lr}
    5766:	4c07      	ldr	r4, [pc, #28]	; (5784 <_write_r+0x20>)
    5768:	4605      	mov	r5, r0
    576a:	2000      	movs	r0, #0
    576c:	6020      	str	r0, [r4, #0]
    576e:	4608      	mov	r0, r1
    5770:	4611      	mov	r1, r2
    5772:	461a      	mov	r2, r3
    5774:	f7fb f916 	bl	9a4 <_write>
    5778:	1c43      	adds	r3, r0, #1
    577a:	d102      	bne.n	5782 <_write_r+0x1e>
    577c:	6823      	ldr	r3, [r4, #0]
    577e:	b103      	cbz	r3, 5782 <_write_r+0x1e>
    5780:	602b      	str	r3, [r5, #0]
    5782:	bd38      	pop	{r3, r4, r5, pc}
    5784:	1000039c 	.word	0x1000039c

00005788 <__swsetup_r>:
    5788:	4a36      	ldr	r2, [pc, #216]	; (5864 <__swsetup_r+0xdc>)
    578a:	b570      	push	{r4, r5, r6, lr}
    578c:	4605      	mov	r5, r0
    578e:	6810      	ldr	r0, [r2, #0]
    5790:	460c      	mov	r4, r1
    5792:	4616      	mov	r6, r2
    5794:	b118      	cbz	r0, 579e <__swsetup_r+0x16>
    5796:	6981      	ldr	r1, [r0, #24]
    5798:	b909      	cbnz	r1, 579e <__swsetup_r+0x16>
    579a:	f7fd fef7 	bl	358c <__sinit>
    579e:	4b32      	ldr	r3, [pc, #200]	; (5868 <__swsetup_r+0xe0>)
    57a0:	429c      	cmp	r4, r3
    57a2:	d102      	bne.n	57aa <__swsetup_r+0x22>
    57a4:	6832      	ldr	r2, [r6, #0]
    57a6:	6854      	ldr	r4, [r2, #4]
    57a8:	e00c      	b.n	57c4 <__swsetup_r+0x3c>
    57aa:	4830      	ldr	r0, [pc, #192]	; (586c <__swsetup_r+0xe4>)
    57ac:	4284      	cmp	r4, r0
    57ae:	d103      	bne.n	57b8 <__swsetup_r+0x30>
    57b0:	4b2c      	ldr	r3, [pc, #176]	; (5864 <__swsetup_r+0xdc>)
    57b2:	6818      	ldr	r0, [r3, #0]
    57b4:	6884      	ldr	r4, [r0, #8]
    57b6:	e005      	b.n	57c4 <__swsetup_r+0x3c>
    57b8:	4a2d      	ldr	r2, [pc, #180]	; (5870 <__swsetup_r+0xe8>)
    57ba:	4294      	cmp	r4, r2
    57bc:	d102      	bne.n	57c4 <__swsetup_r+0x3c>
    57be:	4c29      	ldr	r4, [pc, #164]	; (5864 <__swsetup_r+0xdc>)
    57c0:	6821      	ldr	r1, [r4, #0]
    57c2:	68cc      	ldr	r4, [r1, #12]
    57c4:	89a1      	ldrh	r1, [r4, #12]
    57c6:	f001 0308 	and.w	r3, r1, #8
    57ca:	b218      	sxth	r0, r3
    57cc:	bb08      	cbnz	r0, 5812 <__swsetup_r+0x8a>
    57ce:	f001 0210 	and.w	r2, r1, #16
    57d2:	b213      	sxth	r3, r2
    57d4:	b913      	cbnz	r3, 57dc <__swsetup_r+0x54>
    57d6:	f04f 30ff 	mov.w	r0, #4294967295
    57da:	bd70      	pop	{r4, r5, r6, pc}
    57dc:	f001 0104 	and.w	r1, r1, #4
    57e0:	b208      	sxth	r0, r1
    57e2:	b190      	cbz	r0, 580a <__swsetup_r+0x82>
    57e4:	6b61      	ldr	r1, [r4, #52]	; 0x34
    57e6:	b141      	cbz	r1, 57fa <__swsetup_r+0x72>
    57e8:	f104 0244 	add.w	r2, r4, #68	; 0x44
    57ec:	4291      	cmp	r1, r2
    57ee:	d002      	beq.n	57f6 <__swsetup_r+0x6e>
    57f0:	4628      	mov	r0, r5
    57f2:	f7fd ff91 	bl	3718 <_free_r>
    57f6:	2300      	movs	r3, #0
    57f8:	6363      	str	r3, [r4, #52]	; 0x34
    57fa:	89a1      	ldrh	r1, [r4, #12]
    57fc:	6923      	ldr	r3, [r4, #16]
    57fe:	f021 0024 	bic.w	r0, r1, #36	; 0x24
    5802:	2200      	movs	r2, #0
    5804:	81a0      	strh	r0, [r4, #12]
    5806:	6062      	str	r2, [r4, #4]
    5808:	6023      	str	r3, [r4, #0]
    580a:	89a1      	ldrh	r1, [r4, #12]
    580c:	f041 0008 	orr.w	r0, r1, #8
    5810:	81a0      	strh	r0, [r4, #12]
    5812:	6922      	ldr	r2, [r4, #16]
    5814:	b94a      	cbnz	r2, 582a <__swsetup_r+0xa2>
    5816:	89a3      	ldrh	r3, [r4, #12]
    5818:	f403 7120 	and.w	r1, r3, #640	; 0x280
    581c:	f5b1 7f00 	cmp.w	r1, #512	; 0x200
    5820:	d003      	beq.n	582a <__swsetup_r+0xa2>
    5822:	4628      	mov	r0, r5
    5824:	4621      	mov	r1, r4
    5826:	f7fe f89b 	bl	3960 <__smakebuf_r>
    582a:	89a0      	ldrh	r0, [r4, #12]
    582c:	f010 0201 	ands.w	r2, r0, #1
    5830:	d005      	beq.n	583e <__swsetup_r+0xb6>
    5832:	6963      	ldr	r3, [r4, #20]
    5834:	2200      	movs	r2, #0
    5836:	4259      	negs	r1, r3
    5838:	60a2      	str	r2, [r4, #8]
    583a:	61a1      	str	r1, [r4, #24]
    583c:	e007      	b.n	584e <__swsetup_r+0xc6>
    583e:	f000 0302 	and.w	r3, r0, #2
    5842:	b219      	sxth	r1, r3
    5844:	b909      	cbnz	r1, 584a <__swsetup_r+0xc2>
    5846:	6960      	ldr	r0, [r4, #20]
    5848:	e000      	b.n	584c <__swsetup_r+0xc4>
    584a:	4610      	mov	r0, r2
    584c:	60a0      	str	r0, [r4, #8]
    584e:	6920      	ldr	r0, [r4, #16]
    5850:	b930      	cbnz	r0, 5860 <__swsetup_r+0xd8>
    5852:	89a2      	ldrh	r2, [r4, #12]
    5854:	f002 0380 	and.w	r3, r2, #128	; 0x80
    5858:	b218      	sxth	r0, r3
    585a:	2800      	cmp	r0, #0
    585c:	d1bb      	bne.n	57d6 <__swsetup_r+0x4e>
    585e:	bd70      	pop	{r4, r5, r6, pc}
    5860:	2000      	movs	r0, #0
    5862:	bd70      	pop	{r4, r5, r6, pc}
    5864:	10000134 	.word	0x10000134
    5868:	00008a40 	.word	0x00008a40
    586c:	00008a60 	.word	0x00008a60
    5870:	00008a80 	.word	0x00008a80

00005874 <__do_register_exitproc>:
    5874:	e92d 43f8 	stmdb	sp!, {r3, r4, r5, r6, r7, r8, r9, lr}
    5878:	4699      	mov	r9, r3
    587a:	4b1c      	ldr	r3, [pc, #112]	; (58ec <__do_register_exitproc+0x78>)
    587c:	4606      	mov	r6, r0
    587e:	681d      	ldr	r5, [r3, #0]
    5880:	460f      	mov	r7, r1
    5882:	6cac      	ldr	r4, [r5, #72]	; 0x48
    5884:	4690      	mov	r8, r2
    5886:	b954      	cbnz	r4, 589e <__do_register_exitproc+0x2a>
    5888:	f44f 70c6 	mov.w	r0, #396	; 0x18c
    588c:	f7fe f8bc 	bl	3a08 <malloc>
    5890:	2100      	movs	r1, #0
    5892:	64a8      	str	r0, [r5, #72]	; 0x48
    5894:	f44f 72c6 	mov.w	r2, #396	; 0x18c
    5898:	4604      	mov	r4, r0
    589a:	f7fe f926 	bl	3aea <memset>
    589e:	6825      	ldr	r5, [r4, #0]
    58a0:	2d1f      	cmp	r5, #31
    58a2:	dc1e      	bgt.n	58e2 <__do_register_exitproc+0x6e>
    58a4:	b1ae      	cbz	r6, 58d2 <__do_register_exitproc+0x5e>
    58a6:	2201      	movs	r2, #1
    58a8:	fa02 f205 	lsl.w	r2, r2, r5
    58ac:	f8d4 1184 	ldr.w	r1, [r4, #388]	; 0x184
    58b0:	eb04 0085 	add.w	r0, r4, r5, lsl #2
    58b4:	4311      	orrs	r1, r2
    58b6:	2e02      	cmp	r6, #2
    58b8:	f8c0 8084 	str.w	r8, [r0, #132]	; 0x84
    58bc:	f8c4 1184 	str.w	r1, [r4, #388]	; 0x184
    58c0:	f8c0 9104 	str.w	r9, [r0, #260]	; 0x104
    58c4:	d105      	bne.n	58d2 <__do_register_exitproc+0x5e>
    58c6:	f8d4 3188 	ldr.w	r3, [r4, #392]	; 0x188
    58ca:	ea43 0002 	orr.w	r0, r3, r2
    58ce:	f8c4 0188 	str.w	r0, [r4, #392]	; 0x188
    58d2:	eb04 0285 	add.w	r2, r4, r5, lsl #2
    58d6:	3501      	adds	r5, #1
    58d8:	6057      	str	r7, [r2, #4]
    58da:	6025      	str	r5, [r4, #0]
    58dc:	2000      	movs	r0, #0
    58de:	e8bd 83f8 	ldmia.w	sp!, {r3, r4, r5, r6, r7, r8, r9, pc}
    58e2:	f04f 30ff 	mov.w	r0, #4294967295
    58e6:	e8bd 83f8 	ldmia.w	sp!, {r3, r4, r5, r6, r7, r8, r9, pc}
    58ea:	bf00      	nop
    58ec:	00008aa4 	.word	0x00008aa4

000058f0 <_close_r>:
    58f0:	b538      	push	{r3, r4, r5, lr}
    58f2:	4c06      	ldr	r4, [pc, #24]	; (590c <_close_r+0x1c>)
    58f4:	2300      	movs	r3, #0
    58f6:	4605      	mov	r5, r0
    58f8:	4608      	mov	r0, r1
    58fa:	6023      	str	r3, [r4, #0]
    58fc:	f7fb f83c 	bl	978 <_close>
    5900:	1c43      	adds	r3, r0, #1
    5902:	d102      	bne.n	590a <_close_r+0x1a>
    5904:	6821      	ldr	r1, [r4, #0]
    5906:	b101      	cbz	r1, 590a <_close_r+0x1a>
    5908:	6029      	str	r1, [r5, #0]
    590a:	bd38      	pop	{r3, r4, r5, pc}
    590c:	1000039c 	.word	0x1000039c

00005910 <quorem>:
    5910:	e92d 4ff7 	stmdb	sp!, {r0, r1, r2, r4, r5, r6, r7, r8, r9, r10, r11, lr}
    5914:	690b      	ldr	r3, [r1, #16]
    5916:	6902      	ldr	r2, [r0, #16]
    5918:	4605      	mov	r5, r0
    591a:	429a      	cmp	r2, r3
    591c:	f2c0 8082 	blt.w	5a24 <quorem+0x114>
    5920:	1cd8      	adds	r0, r3, #3
    5922:	0086      	lsls	r6, r0, #2
    5924:	198a      	adds	r2, r1, r6
    5926:	6850      	ldr	r0, [r2, #4]
    5928:	1e5c      	subs	r4, r3, #1
    592a:	19ab      	adds	r3, r5, r6
    592c:	f102 0904 	add.w	r9, r2, #4
    5930:	685a      	ldr	r2, [r3, #4]
    5932:	1c46      	adds	r6, r0, #1
    5934:	fbb2 f6f6 	udiv	r6, r2, r6
    5938:	f101 0814 	add.w	r8, r1, #20
    593c:	f105 0714 	add.w	r7, r5, #20
    5940:	2e00      	cmp	r6, #0
    5942:	d03d      	beq.n	59c0 <quorem+0xb0>
    5944:	2000      	movs	r0, #0
    5946:	463a      	mov	r2, r7
    5948:	f8cd 8004 	str.w	r8, [sp, #4]
    594c:	4686      	mov	lr, r0
    594e:	9b01      	ldr	r3, [sp, #4]
    5950:	f853 cb04 	ldr.w	r12, [r3], #4
    5954:	fa1f fa8c 	uxth.w	r10, r12
    5958:	fb06 0a0a 	mla	r10, r6, r10, r0
    595c:	ea4f 401c 	mov.w	r0, r12, lsr #16
    5960:	9301      	str	r3, [sp, #4]
    5962:	fb06 f300 	mul.w	r3, r6, r0
    5966:	eb03 4c1a 	add.w	r12, r3, r10, lsr #16
    596a:	6813      	ldr	r3, [r2, #0]
    596c:	ea4f 401c 	mov.w	r0, r12, lsr #16
    5970:	fa1f fb83 	uxth.w	r11, r3
    5974:	44de      	add	lr, r11
    5976:	fa1f fc8c 	uxth.w	r12, r12
    597a:	fa1f fa8a 	uxth.w	r10, r10
    597e:	ebca 0a0e 	rsb	r10, r10, lr
    5982:	ebcc 4313 	rsb	r3, r12, r3, lsr #16
    5986:	eb03 4c2a 	add.w	r12, r3, r10, asr #16
    598a:	9b01      	ldr	r3, [sp, #4]
    598c:	fa1f fa8a 	uxth.w	r10, r10
    5990:	ea4f 4e2c 	mov.w	lr, r12, asr #16
    5994:	454b      	cmp	r3, r9
    5996:	ea4a 4c0c 	orr.w	r12, r10, r12, lsl #16
    599a:	f842 cb04 	str.w	r12, [r2], #4
    599e:	d9d6      	bls.n	594e <quorem+0x3e>
    59a0:	1d22      	adds	r2, r4, #4
    59a2:	eb05 0382 	add.w	r3, r5, r2, lsl #2
    59a6:	6858      	ldr	r0, [r3, #4]
    59a8:	b950      	cbnz	r0, 59c0 <quorem+0xb0>
    59aa:	42bb      	cmp	r3, r7
    59ac:	461a      	mov	r2, r3
    59ae:	d801      	bhi.n	59b4 <quorem+0xa4>
    59b0:	612c      	str	r4, [r5, #16]
    59b2:	e005      	b.n	59c0 <quorem+0xb0>
    59b4:	6810      	ldr	r0, [r2, #0]
    59b6:	3b04      	subs	r3, #4
    59b8:	2800      	cmp	r0, #0
    59ba:	d1f9      	bne.n	59b0 <quorem+0xa0>
    59bc:	3c01      	subs	r4, #1
    59be:	e7f4      	b.n	59aa <quorem+0x9a>
    59c0:	4628      	mov	r0, r5
    59c2:	f001 f895 	bl	6af0 <__mcmp>
    59c6:	2800      	cmp	r0, #0
    59c8:	db2a      	blt.n	5a20 <quorem+0x110>
    59ca:	3601      	adds	r6, #1
    59cc:	463b      	mov	r3, r7
    59ce:	2000      	movs	r0, #0
    59d0:	f858 eb04 	ldr.w	lr, [r8], #4
    59d4:	681a      	ldr	r2, [r3, #0]
    59d6:	fa1f f18e 	uxth.w	r1, lr
    59da:	fa1f fa82 	uxth.w	r10, r2
    59de:	ebc1 010a 	rsb	r1, r1, r10
    59e2:	ea4f 4c1e 	mov.w	r12, lr, lsr #16
    59e6:	1809      	adds	r1, r1, r0
    59e8:	ebcc 4012 	rsb	r0, r12, r2, lsr #16
    59ec:	eb00 4221 	add.w	r2, r0, r1, asr #16
    59f0:	b289      	uxth	r1, r1
    59f2:	1410      	asrs	r0, r2, #16
    59f4:	ea41 4202 	orr.w	r2, r1, r2, lsl #16
    59f8:	45c8      	cmp	r8, r9
    59fa:	f843 2b04 	str.w	r2, [r3], #4
    59fe:	d9e7      	bls.n	59d0 <quorem+0xc0>
    5a00:	1d23      	adds	r3, r4, #4
    5a02:	eb05 0383 	add.w	r3, r5, r3, lsl #2
    5a06:	6858      	ldr	r0, [r3, #4]
    5a08:	b950      	cbnz	r0, 5a20 <quorem+0x110>
    5a0a:	42bb      	cmp	r3, r7
    5a0c:	4619      	mov	r1, r3
    5a0e:	d801      	bhi.n	5a14 <quorem+0x104>
    5a10:	612c      	str	r4, [r5, #16]
    5a12:	e005      	b.n	5a20 <quorem+0x110>
    5a14:	680a      	ldr	r2, [r1, #0]
    5a16:	3b04      	subs	r3, #4
    5a18:	2a00      	cmp	r2, #0
    5a1a:	d1f9      	bne.n	5a10 <quorem+0x100>
    5a1c:	3c01      	subs	r4, #1
    5a1e:	e7f4      	b.n	5a0a <quorem+0xfa>
    5a20:	4630      	mov	r0, r6
    5a22:	e000      	b.n	5a26 <quorem+0x116>
    5a24:	2000      	movs	r0, #0
    5a26:	e8bd 8ffe 	ldmia.w	sp!, {r1, r2, r3, r4, r5, r6, r7, r8, r9, r10, r11, pc}
    5a2a:	0000      	movs	r0, r0
    5a2c:	0000      	movs	r0, r0
	...

00005a30 <_dtoa_r>:
    5a30:	e92d 4ff0 	stmdb	sp!, {r4, r5, r6, r7, r8, r9, r10, r11, lr}
    5a34:	6a45      	ldr	r5, [r0, #36]	; 0x24
    5a36:	b099      	sub	sp, #100	; 0x64
    5a38:	4683      	mov	r11, r0
    5a3a:	9c25      	ldr	r4, [sp, #148]	; 0x94
    5a3c:	e9cd 2304 	strd	r2, r3, [sp, #16]
    5a40:	b945      	cbnz	r5, 5a54 <_dtoa_r+0x24>
    5a42:	2010      	movs	r0, #16
    5a44:	f7fd ffe0 	bl	3a08 <malloc>
    5a48:	f8cb 0024 	str.w	r0, [r11, #36]	; 0x24
    5a4c:	6045      	str	r5, [r0, #4]
    5a4e:	6085      	str	r5, [r0, #8]
    5a50:	6005      	str	r5, [r0, #0]
    5a52:	60c5      	str	r5, [r0, #12]
    5a54:	f8db 3024 	ldr.w	r3, [r11, #36]	; 0x24
    5a58:	6819      	ldr	r1, [r3, #0]
    5a5a:	b161      	cbz	r1, 5a76 <_dtoa_r+0x46>
    5a5c:	6858      	ldr	r0, [r3, #4]
    5a5e:	2201      	movs	r2, #1
    5a60:	fa02 f600 	lsl.w	r6, r2, r0
    5a64:	6048      	str	r0, [r1, #4]
    5a66:	608e      	str	r6, [r1, #8]
    5a68:	4658      	mov	r0, r11
    5a6a:	f000 fe20 	bl	66ae <_Bfree>
    5a6e:	f8db 1024 	ldr.w	r1, [r11, #36]	; 0x24
    5a72:	2700      	movs	r7, #0
    5a74:	600f      	str	r7, [r1, #0]
    5a76:	9b05      	ldr	r3, [sp, #20]
    5a78:	2b00      	cmp	r3, #0
    5a7a:	da05      	bge.n	5a88 <_dtoa_r+0x58>
    5a7c:	2201      	movs	r2, #1
    5a7e:	f023 4600 	bic.w	r6, r3, #2147483648	; 0x80000000
    5a82:	6022      	str	r2, [r4, #0]
    5a84:	9605      	str	r6, [sp, #20]
    5a86:	e001      	b.n	5a8c <_dtoa_r+0x5c>
    5a88:	2000      	movs	r0, #0
    5a8a:	6020      	str	r0, [r4, #0]
    5a8c:	9f05      	ldr	r7, [sp, #20]
    5a8e:	499a      	ldr	r1, [pc, #616]	; (5cf8 <_dtoa_r+0x2c8>)
    5a90:	4b99      	ldr	r3, [pc, #612]	; (5cf8 <_dtoa_r+0x2c8>)
    5a92:	4039      	ands	r1, r7
    5a94:	4299      	cmp	r1, r3
    5a96:	d11c      	bne.n	5ad2 <_dtoa_r+0xa2>
    5a98:	9924      	ldr	r1, [sp, #144]	; 0x90
    5a9a:	9b04      	ldr	r3, [sp, #16]
    5a9c:	f242 720f 	movw	r2, #9999	; 0x270f
    5aa0:	600a      	str	r2, [r1, #0]
    5aa2:	b93b      	cbnz	r3, 5ab4 <_dtoa_r+0x84>
    5aa4:	4e95      	ldr	r6, [pc, #596]	; (5cfc <_dtoa_r+0x2cc>)
    5aa6:	4896      	ldr	r0, [pc, #600]	; (5d00 <_dtoa_r+0x2d0>)
    5aa8:	f3c7 0713 	ubfx	r7, r7, #0, #20
    5aac:	2f00      	cmp	r7, #0
    5aae:	bf18      	it	ne
    5ab0:	4630      	movne	r0, r6
    5ab2:	e000      	b.n	5ab6 <_dtoa_r+0x86>
    5ab4:	4891      	ldr	r0, [pc, #580]	; (5cfc <_dtoa_r+0x2cc>)
    5ab6:	9e26      	ldr	r6, [sp, #152]	; 0x98
    5ab8:	2e00      	cmp	r6, #0
    5aba:	f000 8552 	beq.w	6562 <_dtoa_r+0xb32>
    5abe:	78c2      	ldrb	r2, [r0, #3]
    5ac0:	b112      	cbz	r2, 5ac8 <_dtoa_r+0x98>
    5ac2:	f100 0108 	add.w	r1, r0, #8
    5ac6:	e000      	b.n	5aca <_dtoa_r+0x9a>
    5ac8:	1cc1      	adds	r1, r0, #3
    5aca:	9e26      	ldr	r6, [sp, #152]	; 0x98
    5acc:	6031      	str	r1, [r6, #0]
    5ace:	f000 bd48 	b.w	6562 <_dtoa_r+0xb32>
    5ad2:	e9dd 4504 	ldrd	r4, r5, [sp, #16]
    5ad6:	2200      	movs	r2, #0
    5ad8:	4620      	mov	r0, r4
    5ada:	4629      	mov	r1, r5
    5adc:	2300      	movs	r3, #0
    5ade:	f7fd f85d 	bl	2b9c <__aeabi_dcmpeq>
    5ae2:	b158      	cbz	r0, 5afc <_dtoa_r+0xcc>
    5ae4:	9e24      	ldr	r6, [sp, #144]	; 0x90
    5ae6:	2301      	movs	r3, #1
    5ae8:	6033      	str	r3, [r6, #0]
    5aea:	9e26      	ldr	r6, [sp, #152]	; 0x98
    5aec:	2e00      	cmp	r6, #0
    5aee:	f000 8535 	beq.w	655c <_dtoa_r+0xb2c>
    5af2:	4884      	ldr	r0, [pc, #528]	; (5d04 <_dtoa_r+0x2d4>)
    5af4:	6030      	str	r0, [r6, #0]
    5af6:	3801      	subs	r0, #1
    5af8:	f000 bd33 	b.w	6562 <_dtoa_r+0xb32>
    5afc:	a817      	add	r0, sp, #92	; 0x5c
    5afe:	aa16      	add	r2, sp, #88	; 0x58
    5b00:	9000      	str	r0, [sp, #0]
    5b02:	9201      	str	r2, [sp, #4]
    5b04:	4658      	mov	r0, r11
    5b06:	4622      	mov	r2, r4
    5b08:	462b      	mov	r3, r5
    5b0a:	f001 f8e5 	bl	6cd8 <__d2b>
    5b0e:	f3c7 560a 	ubfx	r6, r7, #20, #11
    5b12:	4682      	mov	r10, r0
    5b14:	b166      	cbz	r6, 5b30 <_dtoa_r+0x100>
    5b16:	4620      	mov	r0, r4
    5b18:	f025 447f 	bic.w	r4, r5, #4278190080	; 0xff000000
    5b1c:	f424 0570 	bic.w	r5, r4, #15728640	; 0xf00000
    5b20:	f045 517f 	orr.w	r1, r5, #1069547520	; 0x3fc00000
    5b24:	f441 1140 	orr.w	r1, r1, #3145728	; 0x300000
    5b28:	f2a6 36ff 	subw	r6, r6, #1023	; 0x3ff
    5b2c:	2200      	movs	r2, #0
    5b2e:	e01c      	b.n	5b6a <_dtoa_r+0x13a>
    5b30:	9c17      	ldr	r4, [sp, #92]	; 0x5c
    5b32:	9d16      	ldr	r5, [sp, #88]	; 0x58
    5b34:	f46f 6182 	mvn.w	r1, #1040	; 0x410
    5b38:	192e      	adds	r6, r5, r4
    5b3a:	428e      	cmp	r6, r1
    5b3c:	db0a      	blt.n	5b54 <_dtoa_r+0x124>
    5b3e:	4972      	ldr	r1, [pc, #456]	; (5d08 <_dtoa_r+0x2d8>)
    5b40:	9d04      	ldr	r5, [sp, #16]
    5b42:	f206 4412 	addw	r4, r6, #1042	; 0x412
    5b46:	1b8b      	subs	r3, r1, r6
    5b48:	fa25 f004 	lsr.w	r0, r5, r4
    5b4c:	fa07 f703 	lsl.w	r7, r7, r3
    5b50:	4338      	orrs	r0, r7
    5b52:	e004      	b.n	5b5e <_dtoa_r+0x12e>
    5b54:	4b6d      	ldr	r3, [pc, #436]	; (5d0c <_dtoa_r+0x2dc>)
    5b56:	9a04      	ldr	r2, [sp, #16]
    5b58:	1b98      	subs	r0, r3, r6
    5b5a:	fa02 f000 	lsl.w	r0, r2, r0
    5b5e:	f7fc fd3f 	bl	25e0 <__aeabi_ui2d>
    5b62:	3e01      	subs	r6, #1
    5b64:	f1a1 71f8 	sub.w	r1, r1, #32505856	; 0x1f00000
    5b68:	2201      	movs	r2, #1
    5b6a:	9215      	str	r2, [sp, #84]	; 0x54
    5b6c:	4b68      	ldr	r3, [pc, #416]	; (5d10 <_dtoa_r+0x2e0>)
    5b6e:	2200      	movs	r2, #0
    5b70:	f7fc fbf8 	bl	2364 <__aeabi_dsub>
    5b74:	a35a      	add	r3, pc, #360	; (adr r3, 5ce0 <_dtoa_r+0x2b0>)
    5b76:	e9d3 2300 	ldrd	r2, r3, [r3]
    5b7a:	f7fc fda7 	bl	26cc <__aeabi_dmul>
    5b7e:	a35a      	add	r3, pc, #360	; (adr r3, 5ce8 <_dtoa_r+0x2b8>)
    5b80:	e9d3 2300 	ldrd	r2, r3, [r3]
    5b84:	f7fc fbf0 	bl	2368 <__adddf3>
    5b88:	4604      	mov	r4, r0
    5b8a:	4630      	mov	r0, r6
    5b8c:	460d      	mov	r5, r1
    5b8e:	f7fc fd37 	bl	2600 <__aeabi_i2d>
    5b92:	a357      	add	r3, pc, #348	; (adr r3, 5cf0 <_dtoa_r+0x2c0>)
    5b94:	e9d3 2300 	ldrd	r2, r3, [r3]
    5b98:	f7fc fd98 	bl	26cc <__aeabi_dmul>
    5b9c:	4602      	mov	r2, r0
    5b9e:	460b      	mov	r3, r1
    5ba0:	4620      	mov	r0, r4
    5ba2:	4629      	mov	r1, r5
    5ba4:	f7fc fbe0 	bl	2368 <__adddf3>
    5ba8:	4604      	mov	r4, r0
    5baa:	460d      	mov	r5, r1
    5bac:	f7fd f828 	bl	2c00 <__aeabi_d2iz>
    5bb0:	4629      	mov	r1, r5
    5bb2:	4681      	mov	r9, r0
    5bb4:	2200      	movs	r2, #0
    5bb6:	4620      	mov	r0, r4
    5bb8:	2300      	movs	r3, #0
    5bba:	f7fc fff9 	bl	2bb0 <__aeabi_dcmplt>
    5bbe:	b158      	cbz	r0, 5bd8 <_dtoa_r+0x1a8>
    5bc0:	4648      	mov	r0, r9
    5bc2:	f7fc fd1d 	bl	2600 <__aeabi_i2d>
    5bc6:	4602      	mov	r2, r0
    5bc8:	460b      	mov	r3, r1
    5bca:	4620      	mov	r0, r4
    5bcc:	4629      	mov	r1, r5
    5bce:	f7fc ffe5 	bl	2b9c <__aeabi_dcmpeq>
    5bd2:	b908      	cbnz	r0, 5bd8 <_dtoa_r+0x1a8>
    5bd4:	f109 39ff 	add.w	r9, r9, #4294967295
    5bd8:	f1b9 0f16 	cmp.w	r9, #22
    5bdc:	d80e      	bhi.n	5bfc <_dtoa_r+0x1cc>
    5bde:	484d      	ldr	r0, [pc, #308]	; (5d14 <_dtoa_r+0x2e4>)
    5be0:	eb00 03c9 	add.w	r3, r0, r9, lsl #3
    5be4:	e9d3 0100 	ldrd	r0, r1, [r3]
    5be8:	e9dd 2304 	ldrd	r2, r3, [sp, #16]
    5bec:	f7fc fffe 	bl	2bec <__aeabi_dcmpgt>
    5bf0:	b128      	cbz	r0, 5bfe <_dtoa_r+0x1ce>
    5bf2:	2200      	movs	r2, #0
    5bf4:	f109 39ff 	add.w	r9, r9, #4294967295
    5bf8:	9214      	str	r2, [sp, #80]	; 0x50
    5bfa:	e001      	b.n	5c00 <_dtoa_r+0x1d0>
    5bfc:	2001      	movs	r0, #1
    5bfe:	9014      	str	r0, [sp, #80]	; 0x50
    5c00:	9916      	ldr	r1, [sp, #88]	; 0x58
    5c02:	1b8e      	subs	r6, r1, r6
    5c04:	1e74      	subs	r4, r6, #1
    5c06:	d504      	bpl.n	5c12 <_dtoa_r+0x1e2>
    5c08:	4265      	negs	r5, r4
    5c0a:	2000      	movs	r0, #0
    5c0c:	9508      	str	r5, [sp, #32]
    5c0e:	9009      	str	r0, [sp, #36]	; 0x24
    5c10:	e002      	b.n	5c18 <_dtoa_r+0x1e8>
    5c12:	2300      	movs	r3, #0
    5c14:	9409      	str	r4, [sp, #36]	; 0x24
    5c16:	9308      	str	r3, [sp, #32]
    5c18:	f1b9 0f00 	cmp.w	r9, #0
    5c1c:	db08      	blt.n	5c30 <_dtoa_r+0x200>
    5c1e:	9d09      	ldr	r5, [sp, #36]	; 0x24
    5c20:	2300      	movs	r3, #0
    5c22:	eb05 0009 	add.w	r0, r5, r9
    5c26:	9009      	str	r0, [sp, #36]	; 0x24
    5c28:	f8cd 9044 	str.w	r9, [sp, #68]	; 0x44
    5c2c:	930c      	str	r3, [sp, #48]	; 0x30
    5c2e:	e008      	b.n	5c42 <_dtoa_r+0x212>
    5c30:	9a08      	ldr	r2, [sp, #32]
    5c32:	f1c9 0600 	rsb	r6, r9, #0
    5c36:	ebc9 0102 	rsb	r1, r9, r2
    5c3a:	2400      	movs	r4, #0
    5c3c:	9108      	str	r1, [sp, #32]
    5c3e:	960c      	str	r6, [sp, #48]	; 0x30
    5c40:	9411      	str	r4, [sp, #68]	; 0x44
    5c42:	9a22      	ldr	r2, [sp, #136]	; 0x88
    5c44:	2a09      	cmp	r2, #9
    5c46:	d827      	bhi.n	5c98 <_dtoa_r+0x268>
    5c48:	2a05      	cmp	r2, #5
    5c4a:	dd03      	ble.n	5c54 <_dtoa_r+0x224>
    5c4c:	1f11      	subs	r1, r2, #4
    5c4e:	9122      	str	r1, [sp, #136]	; 0x88
    5c50:	2500      	movs	r5, #0
    5c52:	e000      	b.n	5c56 <_dtoa_r+0x226>
    5c54:	2501      	movs	r5, #1
    5c56:	9e22      	ldr	r6, [sp, #136]	; 0x88
    5c58:	1eb4      	subs	r4, r6, #2
    5c5a:	2c03      	cmp	r4, #3
    5c5c:	d821      	bhi.n	5ca2 <_dtoa_r+0x272>
    5c5e:	e8df f004 	tbb	[pc, r4]
    5c62:	0f06      	.short	0x0f06
    5c64:	0402      	.short	0x0402
    5c66:	2301      	movs	r3, #1
    5c68:	e002      	b.n	5c70 <_dtoa_r+0x240>
    5c6a:	2001      	movs	r0, #1
    5c6c:	e009      	b.n	5c82 <_dtoa_r+0x252>
    5c6e:	2300      	movs	r3, #0
    5c70:	9a23      	ldr	r2, [sp, #140]	; 0x8c
    5c72:	930d      	str	r3, [sp, #52]	; 0x34
    5c74:	2a00      	cmp	r2, #0
    5c76:	dd1e      	ble.n	5cb6 <_dtoa_r+0x286>
    5c78:	920b      	str	r2, [sp, #44]	; 0x2c
    5c7a:	9207      	str	r2, [sp, #28]
    5c7c:	4613      	mov	r3, r2
    5c7e:	e01f      	b.n	5cc0 <_dtoa_r+0x290>
    5c80:	2000      	movs	r0, #0
    5c82:	9c23      	ldr	r4, [sp, #140]	; 0x8c
    5c84:	900d      	str	r0, [sp, #52]	; 0x34
    5c86:	eb04 0009 	add.w	r0, r4, r9
    5c8a:	1c43      	adds	r3, r0, #1
    5c8c:	2b00      	cmp	r3, #0
    5c8e:	900b      	str	r0, [sp, #44]	; 0x2c
    5c90:	9307      	str	r3, [sp, #28]
    5c92:	dc15      	bgt.n	5cc0 <_dtoa_r+0x290>
    5c94:	2301      	movs	r3, #1
    5c96:	e013      	b.n	5cc0 <_dtoa_r+0x290>
    5c98:	2501      	movs	r5, #1
    5c9a:	2200      	movs	r2, #0
    5c9c:	9222      	str	r2, [sp, #136]	; 0x88
    5c9e:	950d      	str	r5, [sp, #52]	; 0x34
    5ca0:	e001      	b.n	5ca6 <_dtoa_r+0x276>
    5ca2:	2601      	movs	r6, #1
    5ca4:	960d      	str	r6, [sp, #52]	; 0x34
    5ca6:	f04f 31ff 	mov.w	r1, #4294967295
    5caa:	2600      	movs	r6, #0
    5cac:	910b      	str	r1, [sp, #44]	; 0x2c
    5cae:	9107      	str	r1, [sp, #28]
    5cb0:	2312      	movs	r3, #18
    5cb2:	9623      	str	r6, [sp, #140]	; 0x8c
    5cb4:	e004      	b.n	5cc0 <_dtoa_r+0x290>
    5cb6:	2101      	movs	r1, #1
    5cb8:	910b      	str	r1, [sp, #44]	; 0x2c
    5cba:	9107      	str	r1, [sp, #28]
    5cbc:	460b      	mov	r3, r1
    5cbe:	9123      	str	r1, [sp, #140]	; 0x8c
    5cc0:	f8db 4024 	ldr.w	r4, [r11, #36]	; 0x24
    5cc4:	2000      	movs	r0, #0
    5cc6:	6060      	str	r0, [r4, #4]
    5cc8:	2104      	movs	r1, #4
    5cca:	f101 0214 	add.w	r2, r1, #20
    5cce:	429a      	cmp	r2, r3
    5cd0:	d822      	bhi.n	5d18 <_dtoa_r+0x2e8>
    5cd2:	6860      	ldr	r0, [r4, #4]
    5cd4:	0049      	lsls	r1, r1, #1
    5cd6:	1c42      	adds	r2, r0, #1
    5cd8:	6062      	str	r2, [r4, #4]
    5cda:	e7f6      	b.n	5cca <_dtoa_r+0x29a>
    5cdc:	f3af 8000 	nop.w
    5ce0:	636f4361 	.word	0x636f4361
    5ce4:	3fd287a7 	.word	0x3fd287a7
    5ce8:	8b60c8b3 	.word	0x8b60c8b3
    5cec:	3fc68a28 	.word	0x3fc68a28
    5cf0:	509f79fb 	.word	0x509f79fb
    5cf4:	3fd34413 	.word	0x3fd34413
    5cf8:	7ff00000 	.word	0x7ff00000
    5cfc:	00008c21 	.word	0x00008c21
    5d00:	00008c18 	.word	0x00008c18
    5d04:	00008b13 	.word	0x00008b13
    5d08:	fffffc0e 	.word	0xfffffc0e
    5d0c:	fffffbee 	.word	0xfffffbee
    5d10:	3ff80000 	.word	0x3ff80000
    5d14:	00008c30 	.word	0x00008c30
    5d18:	6861      	ldr	r1, [r4, #4]
    5d1a:	4658      	mov	r0, r11
    5d1c:	f000 fc92 	bl	6644 <_Balloc>
    5d20:	6020      	str	r0, [r4, #0]
    5d22:	f8db 4024 	ldr.w	r4, [r11, #36]	; 0x24
    5d26:	9907      	ldr	r1, [sp, #28]
    5d28:	6823      	ldr	r3, [r4, #0]
    5d2a:	290e      	cmp	r1, #14
    5d2c:	930a      	str	r3, [sp, #40]	; 0x28
    5d2e:	f200 815e 	bhi.w	5fee <_dtoa_r+0x5be>
    5d32:	2d00      	cmp	r5, #0
    5d34:	f000 815b 	beq.w	5fee <_dtoa_r+0x5be>
    5d38:	f1b9 0f00 	cmp.w	r9, #0
    5d3c:	e9dd 0104 	ldrd	r0, r1, [sp, #16]
    5d40:	e9cd 0112 	strd	r0, r1, [sp, #72]	; 0x48
    5d44:	dd33      	ble.n	5dae <_dtoa_r+0x37e>
    5d46:	4b9d      	ldr	r3, [pc, #628]	; (5fbc <_dtoa_r+0x58c>)
    5d48:	f009 070f 	and.w	r7, r9, #15
    5d4c:	eb03 06c7 	add.w	r6, r3, r7, lsl #3
    5d50:	e9d6 4500 	ldrd	r4, r5, [r6]
    5d54:	ea4f 1629 	mov.w	r6, r9, asr #4
    5d58:	06f2      	lsls	r2, r6, #27
    5d5a:	d50c      	bpl.n	5d76 <_dtoa_r+0x346>
    5d5c:	4a98      	ldr	r2, [pc, #608]	; (5fc0 <_dtoa_r+0x590>)
    5d5e:	f006 060f 	and.w	r6, r6, #15
    5d62:	f102 0320 	add.w	r3, r2, #32
    5d66:	e9d3 2300 	ldrd	r2, r3, [r3]
    5d6a:	f7fc fdd9 	bl	2920 <__aeabi_ddiv>
    5d6e:	2703      	movs	r7, #3
    5d70:	e9cd 0104 	strd	r0, r1, [sp, #16]
    5d74:	e000      	b.n	5d78 <_dtoa_r+0x348>
    5d76:	2702      	movs	r7, #2
    5d78:	f8df 8244 	ldr.w	r8, [pc, #580]	; 5fc0 <_dtoa_r+0x590>
    5d7c:	b176      	cbz	r6, 5d9c <_dtoa_r+0x36c>
    5d7e:	07f3      	lsls	r3, r6, #31
    5d80:	d508      	bpl.n	5d94 <_dtoa_r+0x364>
    5d82:	4620      	mov	r0, r4
    5d84:	4629      	mov	r1, r5
    5d86:	e9d8 2300 	ldrd	r2, r3, [r8]
    5d8a:	f7fc fc9f 	bl	26cc <__aeabi_dmul>
    5d8e:	3701      	adds	r7, #1
    5d90:	4604      	mov	r4, r0
    5d92:	460d      	mov	r5, r1
    5d94:	1076      	asrs	r6, r6, #1
    5d96:	f108 0808 	add.w	r8, r8, #8
    5d9a:	e7ef      	b.n	5d7c <_dtoa_r+0x34c>
    5d9c:	e9dd 0104 	ldrd	r0, r1, [sp, #16]
    5da0:	4622      	mov	r2, r4
    5da2:	462b      	mov	r3, r5
    5da4:	f7fc fdbc 	bl	2920 <__aeabi_ddiv>
    5da8:	e9cd 0104 	strd	r0, r1, [sp, #16]
    5dac:	e020      	b.n	5df0 <_dtoa_r+0x3c0>
    5dae:	f1c9 0700 	rsb	r7, r9, #0
    5db2:	b1e7      	cbz	r7, 5dee <_dtoa_r+0x3be>
    5db4:	4e81      	ldr	r6, [pc, #516]	; (5fbc <_dtoa_r+0x58c>)
    5db6:	f007 050f 	and.w	r5, r7, #15
    5dba:	eb06 02c5 	add.w	r2, r6, r5, lsl #3
    5dbe:	e9dd 0112 	ldrd	r0, r1, [sp, #72]	; 0x48
    5dc2:	ca0c      	ldmia	r2, {r2, r3}
    5dc4:	f7fc fc82 	bl	26cc <__aeabi_dmul>
    5dc8:	4d7d      	ldr	r5, [pc, #500]	; (5fc0 <_dtoa_r+0x590>)
    5dca:	113c      	asrs	r4, r7, #4
    5dcc:	2702      	movs	r7, #2
    5dce:	b14c      	cbz	r4, 5de4 <_dtoa_r+0x3b4>
    5dd0:	07e6      	lsls	r6, r4, #31
    5dd2:	d504      	bpl.n	5dde <_dtoa_r+0x3ae>
    5dd4:	e9d5 2300 	ldrd	r2, r3, [r5]
    5dd8:	3701      	adds	r7, #1
    5dda:	f7fc fc77 	bl	26cc <__aeabi_dmul>
    5dde:	1064      	asrs	r4, r4, #1
    5de0:	3508      	adds	r5, #8
    5de2:	e7f4      	b.n	5dce <_dtoa_r+0x39e>
    5de4:	4602      	mov	r2, r0
    5de6:	460b      	mov	r3, r1
    5de8:	e9cd 2304 	strd	r2, r3, [sp, #16]
    5dec:	e000      	b.n	5df0 <_dtoa_r+0x3c0>
    5dee:	2702      	movs	r7, #2
    5df0:	9814      	ldr	r0, [sp, #80]	; 0x50
    5df2:	b1e0      	cbz	r0, 5e2e <_dtoa_r+0x3fe>
    5df4:	e9dd 4504 	ldrd	r4, r5, [sp, #16]
    5df8:	2200      	movs	r2, #0
    5dfa:	4620      	mov	r0, r4
    5dfc:	4629      	mov	r1, r5
    5dfe:	4b71      	ldr	r3, [pc, #452]	; (5fc4 <_dtoa_r+0x594>)
    5e00:	f7fc fed6 	bl	2bb0 <__aeabi_dcmplt>
    5e04:	b198      	cbz	r0, 5e2e <_dtoa_r+0x3fe>
    5e06:	9907      	ldr	r1, [sp, #28]
    5e08:	b189      	cbz	r1, 5e2e <_dtoa_r+0x3fe>
    5e0a:	9b0b      	ldr	r3, [sp, #44]	; 0x2c
    5e0c:	2b00      	cmp	r3, #0
    5e0e:	f340 80ea 	ble.w	5fe6 <_dtoa_r+0x5b6>
    5e12:	4620      	mov	r0, r4
    5e14:	f109 36ff 	add.w	r6, r9, #4294967295
    5e18:	4629      	mov	r1, r5
    5e1a:	2200      	movs	r2, #0
    5e1c:	4b6a      	ldr	r3, [pc, #424]	; (5fc8 <_dtoa_r+0x598>)
    5e1e:	9610      	str	r6, [sp, #64]	; 0x40
    5e20:	f7fc fc54 	bl	26cc <__aeabi_dmul>
    5e24:	3701      	adds	r7, #1
    5e26:	e9cd 0104 	strd	r0, r1, [sp, #16]
    5e2a:	9c0b      	ldr	r4, [sp, #44]	; 0x2c
    5e2c:	e002      	b.n	5e34 <_dtoa_r+0x404>
    5e2e:	9c07      	ldr	r4, [sp, #28]
    5e30:	f8cd 9040 	str.w	r9, [sp, #64]	; 0x40
    5e34:	4638      	mov	r0, r7
    5e36:	f7fc fbe3 	bl	2600 <__aeabi_i2d>
    5e3a:	e9dd 2304 	ldrd	r2, r3, [sp, #16]
    5e3e:	f7fc fc45 	bl	26cc <__aeabi_dmul>
    5e42:	2200      	movs	r2, #0
    5e44:	4b61      	ldr	r3, [pc, #388]	; (5fcc <_dtoa_r+0x59c>)
    5e46:	f7fc fa8f 	bl	2368 <__adddf3>
    5e4a:	f1a1 7550 	sub.w	r5, r1, #54525952	; 0x3400000
    5e4e:	4606      	mov	r6, r0
    5e50:	462f      	mov	r7, r5
    5e52:	b9cc      	cbnz	r4, 5e88 <_dtoa_r+0x458>
    5e54:	e9dd 0104 	ldrd	r0, r1, [sp, #16]
    5e58:	2200      	movs	r2, #0
    5e5a:	4b5d      	ldr	r3, [pc, #372]	; (5fd0 <_dtoa_r+0x5a0>)
    5e5c:	f7fc fa82 	bl	2364 <__aeabi_dsub>
    5e60:	4632      	mov	r2, r6
    5e62:	462b      	mov	r3, r5
    5e64:	e9cd 0104 	strd	r0, r1, [sp, #16]
    5e68:	f7fc fec0 	bl	2bec <__aeabi_dcmpgt>
    5e6c:	2800      	cmp	r0, #0
    5e6e:	f040 8247 	bne.w	6300 <_dtoa_r+0x8d0>
    5e72:	e9dd 0104 	ldrd	r0, r1, [sp, #16]
    5e76:	4632      	mov	r2, r6
    5e78:	f105 4300 	add.w	r3, r5, #2147483648	; 0x80000000
    5e7c:	f7fc fe98 	bl	2bb0 <__aeabi_dcmplt>
    5e80:	2800      	cmp	r0, #0
    5e82:	f040 8236 	bne.w	62f2 <_dtoa_r+0x8c2>
    5e86:	e0ae      	b.n	5fe6 <_dtoa_r+0x5b6>
    5e88:	484c      	ldr	r0, [pc, #304]	; (5fbc <_dtoa_r+0x58c>)
    5e8a:	990d      	ldr	r1, [sp, #52]	; 0x34
    5e8c:	1e62      	subs	r2, r4, #1
    5e8e:	eb00 03c2 	add.w	r3, r0, r2, lsl #3
    5e92:	2900      	cmp	r1, #0
    5e94:	d04b      	beq.n	5f2e <_dtoa_r+0x4fe>
    5e96:	e9d3 2300 	ldrd	r2, r3, [r3]
    5e9a:	2000      	movs	r0, #0
    5e9c:	494d      	ldr	r1, [pc, #308]	; (5fd4 <_dtoa_r+0x5a4>)
    5e9e:	f7fc fd3f 	bl	2920 <__aeabi_ddiv>
    5ea2:	4632      	mov	r2, r6
    5ea4:	462b      	mov	r3, r5
    5ea6:	f7fc fa5d 	bl	2364 <__aeabi_dsub>
    5eaa:	e9dd 6704 	ldrd	r6, r7, [sp, #16]
    5eae:	e9cd 010e 	strd	r0, r1, [sp, #56]	; 0x38
    5eb2:	9d0a      	ldr	r5, [sp, #40]	; 0x28
    5eb4:	4639      	mov	r1, r7
    5eb6:	4630      	mov	r0, r6
    5eb8:	f7fc fea2 	bl	2c00 <__aeabi_d2iz>
    5ebc:	4680      	mov	r8, r0
    5ebe:	f7fc fb9f 	bl	2600 <__aeabi_i2d>
    5ec2:	4602      	mov	r2, r0
    5ec4:	460b      	mov	r3, r1
    5ec6:	4630      	mov	r0, r6
    5ec8:	4639      	mov	r1, r7
    5eca:	f7fc fa4b 	bl	2364 <__aeabi_dsub>
    5ece:	f108 0330 	add.w	r3, r8, #48	; 0x30
    5ed2:	f805 3b01 	strb.w	r3, [r5], #1
    5ed6:	e9dd 230e 	ldrd	r2, r3, [sp, #56]	; 0x38
    5eda:	4606      	mov	r6, r0
    5edc:	460f      	mov	r7, r1
    5ede:	46a8      	mov	r8, r5
    5ee0:	f7fc fe66 	bl	2bb0 <__aeabi_dcmplt>
    5ee4:	2800      	cmp	r0, #0
    5ee6:	f040 8327 	bne.w	6538 <_dtoa_r+0xb08>
    5eea:	4632      	mov	r2, r6
    5eec:	463b      	mov	r3, r7
    5eee:	2000      	movs	r0, #0
    5ef0:	4934      	ldr	r1, [pc, #208]	; (5fc4 <_dtoa_r+0x594>)
    5ef2:	f7fc fa37 	bl	2364 <__aeabi_dsub>
    5ef6:	e9dd 230e 	ldrd	r2, r3, [sp, #56]	; 0x38
    5efa:	f7fc fe59 	bl	2bb0 <__aeabi_dcmplt>
    5efe:	2800      	cmp	r0, #0
    5f00:	f040 80d3 	bne.w	60aa <_dtoa_r+0x67a>
    5f04:	990a      	ldr	r1, [sp, #40]	; 0x28
    5f06:	1a68      	subs	r0, r5, r1
    5f08:	42a0      	cmp	r0, r4
    5f0a:	da6c      	bge.n	5fe6 <_dtoa_r+0x5b6>
    5f0c:	e9dd 010e 	ldrd	r0, r1, [sp, #56]	; 0x38
    5f10:	2200      	movs	r2, #0
    5f12:	4b2d      	ldr	r3, [pc, #180]	; (5fc8 <_dtoa_r+0x598>)
    5f14:	f7fc fbda 	bl	26cc <__aeabi_dmul>
    5f18:	2200      	movs	r2, #0
    5f1a:	e9cd 010e 	strd	r0, r1, [sp, #56]	; 0x38
    5f1e:	4b2a      	ldr	r3, [pc, #168]	; (5fc8 <_dtoa_r+0x598>)
    5f20:	4630      	mov	r0, r6
    5f22:	4639      	mov	r1, r7
    5f24:	f7fc fbd2 	bl	26cc <__aeabi_dmul>
    5f28:	4606      	mov	r6, r0
    5f2a:	460f      	mov	r7, r1
    5f2c:	e7c2      	b.n	5eb4 <_dtoa_r+0x484>
    5f2e:	e9d3 0100 	ldrd	r0, r1, [r3]
    5f32:	4632      	mov	r2, r6
    5f34:	462b      	mov	r3, r5
    5f36:	f7fc fbc9 	bl	26cc <__aeabi_dmul>
    5f3a:	e9dd 6704 	ldrd	r6, r7, [sp, #16]
    5f3e:	9d0a      	ldr	r5, [sp, #40]	; 0x28
    5f40:	e9cd 010e 	strd	r0, r1, [sp, #56]	; 0x38
    5f44:	192c      	adds	r4, r5, r4
    5f46:	46a8      	mov	r8, r5
    5f48:	4639      	mov	r1, r7
    5f4a:	4630      	mov	r0, r6
    5f4c:	f7fc fe58 	bl	2c00 <__aeabi_d2iz>
    5f50:	4605      	mov	r5, r0
    5f52:	f7fc fb55 	bl	2600 <__aeabi_i2d>
    5f56:	4602      	mov	r2, r0
    5f58:	460b      	mov	r3, r1
    5f5a:	4630      	mov	r0, r6
    5f5c:	4639      	mov	r1, r7
    5f5e:	f7fc fa01 	bl	2364 <__aeabi_dsub>
    5f62:	3530      	adds	r5, #48	; 0x30
    5f64:	f808 5b01 	strb.w	r5, [r8], #1
    5f68:	45a0      	cmp	r8, r4
    5f6a:	4606      	mov	r6, r0
    5f6c:	460f      	mov	r7, r1
    5f6e:	d133      	bne.n	5fd8 <_dtoa_r+0x5a8>
    5f70:	2200      	movs	r2, #0
    5f72:	4b18      	ldr	r3, [pc, #96]	; (5fd4 <_dtoa_r+0x5a4>)
    5f74:	e9dd 010e 	ldrd	r0, r1, [sp, #56]	; 0x38
    5f78:	f7fc f9f6 	bl	2368 <__adddf3>
    5f7c:	4602      	mov	r2, r0
    5f7e:	460b      	mov	r3, r1
    5f80:	4630      	mov	r0, r6
    5f82:	4639      	mov	r1, r7
    5f84:	f7fc fe32 	bl	2bec <__aeabi_dcmpgt>
    5f88:	2800      	cmp	r0, #0
    5f8a:	f040 808e 	bne.w	60aa <_dtoa_r+0x67a>
    5f8e:	e9dd 230e 	ldrd	r2, r3, [sp, #56]	; 0x38
    5f92:	2000      	movs	r0, #0
    5f94:	490f      	ldr	r1, [pc, #60]	; (5fd4 <_dtoa_r+0x5a4>)
    5f96:	f7fc f9e5 	bl	2364 <__aeabi_dsub>
    5f9a:	4602      	mov	r2, r0
    5f9c:	460b      	mov	r3, r1
    5f9e:	4630      	mov	r0, r6
    5fa0:	4639      	mov	r1, r7
    5fa2:	f7fc fe05 	bl	2bb0 <__aeabi_dcmplt>
    5fa6:	b1f0      	cbz	r0, 5fe6 <_dtoa_r+0x5b6>
    5fa8:	4640      	mov	r0, r8
    5faa:	4680      	mov	r8, r0
    5fac:	f818 2c01 	ldrb.w	r2, [r8, #-1]
    5fb0:	f100 30ff 	add.w	r0, r0, #4294967295
    5fb4:	2a30      	cmp	r2, #48	; 0x30
    5fb6:	d0f8      	beq.n	5faa <_dtoa_r+0x57a>
    5fb8:	e2be      	b.n	6538 <_dtoa_r+0xb08>
    5fba:	bf00      	nop
    5fbc:	00008c30 	.word	0x00008c30
    5fc0:	00008d08 	.word	0x00008d08
    5fc4:	3ff00000 	.word	0x3ff00000
    5fc8:	40240000 	.word	0x40240000
    5fcc:	401c0000 	.word	0x401c0000
    5fd0:	40140000 	.word	0x40140000
    5fd4:	3fe00000 	.word	0x3fe00000
    5fd8:	2200      	movs	r2, #0
    5fda:	4b9a      	ldr	r3, [pc, #616]	; (6244 <_dtoa_r+0x814>)
    5fdc:	f7fc fb76 	bl	26cc <__aeabi_dmul>
    5fe0:	4606      	mov	r6, r0
    5fe2:	460f      	mov	r7, r1
    5fe4:	e7b0      	b.n	5f48 <_dtoa_r+0x518>
    5fe6:	e9dd 4512 	ldrd	r4, r5, [sp, #72]	; 0x48
    5fea:	e9cd 4504 	strd	r4, r5, [sp, #16]
    5fee:	9d17      	ldr	r5, [sp, #92]	; 0x5c
    5ff0:	2d00      	cmp	r5, #0
    5ff2:	db7c      	blt.n	60ee <_dtoa_r+0x6be>
    5ff4:	f1b9 0f0e 	cmp.w	r9, #14
    5ff8:	dc79      	bgt.n	60ee <_dtoa_r+0x6be>
    5ffa:	4c93      	ldr	r4, [pc, #588]	; (6248 <_dtoa_r+0x818>)
    5ffc:	9923      	ldr	r1, [sp, #140]	; 0x8c
    5ffe:	eb04 05c9 	add.w	r5, r4, r9, lsl #3
    6002:	2900      	cmp	r1, #0
    6004:	e9d5 4500 	ldrd	r4, r5, [r5]
    6008:	da14      	bge.n	6034 <_dtoa_r+0x604>
    600a:	9a07      	ldr	r2, [sp, #28]
    600c:	2a00      	cmp	r2, #0
    600e:	dc11      	bgt.n	6034 <_dtoa_r+0x604>
    6010:	f040 816e 	bne.w	62f0 <_dtoa_r+0x8c0>
    6014:	4620      	mov	r0, r4
    6016:	4629      	mov	r1, r5
    6018:	2200      	movs	r2, #0
    601a:	4b8c      	ldr	r3, [pc, #560]	; (624c <_dtoa_r+0x81c>)
    601c:	f7fc fb56 	bl	26cc <__aeabi_dmul>
    6020:	e9dd 2304 	ldrd	r2, r3, [sp, #16]
    6024:	f7fc fdd8 	bl	2bd8 <__aeabi_dcmpge>
    6028:	9c07      	ldr	r4, [sp, #28]
    602a:	4625      	mov	r5, r4
    602c:	2800      	cmp	r0, #0
    602e:	f040 8161 	bne.w	62f4 <_dtoa_r+0x8c4>
    6032:	e168      	b.n	6306 <_dtoa_r+0x8d6>
    6034:	9e0a      	ldr	r6, [sp, #40]	; 0x28
    6036:	9807      	ldr	r0, [sp, #28]
    6038:	9f0a      	ldr	r7, [sp, #40]	; 0x28
    603a:	1833      	adds	r3, r6, r0
    603c:	3701      	adds	r7, #1
    603e:	9308      	str	r3, [sp, #32]
    6040:	4622      	mov	r2, r4
    6042:	462b      	mov	r3, r5
    6044:	e9dd 0104 	ldrd	r0, r1, [sp, #16]
    6048:	f7fc fc6a 	bl	2920 <__aeabi_ddiv>
    604c:	f7fc fdd8 	bl	2c00 <__aeabi_d2iz>
    6050:	9007      	str	r0, [sp, #28]
    6052:	f7fc fad5 	bl	2600 <__aeabi_i2d>
    6056:	4622      	mov	r2, r4
    6058:	462b      	mov	r3, r5
    605a:	f7fc fb37 	bl	26cc <__aeabi_dmul>
    605e:	4602      	mov	r2, r0
    6060:	460b      	mov	r3, r1
    6062:	e9dd 0104 	ldrd	r0, r1, [sp, #16]
    6066:	f7fc f97d 	bl	2364 <__aeabi_dsub>
    606a:	9e07      	ldr	r6, [sp, #28]
    606c:	4602      	mov	r2, r0
    606e:	3630      	adds	r6, #48	; 0x30
    6070:	f807 6c01 	strb.w	r6, [r7, #-1]
    6074:	9e08      	ldr	r6, [sp, #32]
    6076:	460b      	mov	r3, r1
    6078:	42b7      	cmp	r7, r6
    607a:	46b8      	mov	r8, r7
    607c:	d129      	bne.n	60d2 <_dtoa_r+0x6a2>
    607e:	f7fc f973 	bl	2368 <__adddf3>
    6082:	4622      	mov	r2, r4
    6084:	462b      	mov	r3, r5
    6086:	4606      	mov	r6, r0
    6088:	460f      	mov	r7, r1
    608a:	f7fc fdaf 	bl	2bec <__aeabi_dcmpgt>
    608e:	b970      	cbnz	r0, 60ae <_dtoa_r+0x67e>
    6090:	4630      	mov	r0, r6
    6092:	4639      	mov	r1, r7
    6094:	4622      	mov	r2, r4
    6096:	462b      	mov	r3, r5
    6098:	f7fc fd80 	bl	2b9c <__aeabi_dcmpeq>
    609c:	2800      	cmp	r0, #0
    609e:	f000 824d 	beq.w	653c <_dtoa_r+0xb0c>
    60a2:	9907      	ldr	r1, [sp, #28]
    60a4:	07c9      	lsls	r1, r1, #31
    60a6:	d402      	bmi.n	60ae <_dtoa_r+0x67e>
    60a8:	e248      	b.n	653c <_dtoa_r+0xb0c>
    60aa:	f8dd 9040 	ldr.w	r9, [sp, #64]	; 0x40
    60ae:	4640      	mov	r0, r8
    60b0:	4680      	mov	r8, r0
    60b2:	f818 2c01 	ldrb.w	r2, [r8, #-1]
    60b6:	3801      	subs	r0, #1
    60b8:	2a39      	cmp	r2, #57	; 0x39
    60ba:	d106      	bne.n	60ca <_dtoa_r+0x69a>
    60bc:	9b0a      	ldr	r3, [sp, #40]	; 0x28
    60be:	4283      	cmp	r3, r0
    60c0:	d1f6      	bne.n	60b0 <_dtoa_r+0x680>
    60c2:	2630      	movs	r6, #48	; 0x30
    60c4:	f109 0901 	add.w	r9, r9, #1
    60c8:	701e      	strb	r6, [r3, #0]
    60ca:	7801      	ldrb	r1, [r0, #0]
    60cc:	1c4a      	adds	r2, r1, #1
    60ce:	7002      	strb	r2, [r0, #0]
    60d0:	e234      	b.n	653c <_dtoa_r+0xb0c>
    60d2:	2200      	movs	r2, #0
    60d4:	4b5b      	ldr	r3, [pc, #364]	; (6244 <_dtoa_r+0x814>)
    60d6:	f7fc faf9 	bl	26cc <__aeabi_dmul>
    60da:	2200      	movs	r2, #0
    60dc:	2300      	movs	r3, #0
    60de:	e9cd 0104 	strd	r0, r1, [sp, #16]
    60e2:	3701      	adds	r7, #1
    60e4:	f7fc fd5a 	bl	2b9c <__aeabi_dcmpeq>
    60e8:	2800      	cmp	r0, #0
    60ea:	d0a9      	beq.n	6040 <_dtoa_r+0x610>
    60ec:	e226      	b.n	653c <_dtoa_r+0xb0c>
    60ee:	9f0d      	ldr	r7, [sp, #52]	; 0x34
    60f0:	2f00      	cmp	r7, #0
    60f2:	d030      	beq.n	6156 <_dtoa_r+0x726>
    60f4:	9a22      	ldr	r2, [sp, #136]	; 0x88
    60f6:	2a01      	cmp	r2, #1
    60f8:	dc0a      	bgt.n	6110 <_dtoa_r+0x6e0>
    60fa:	9915      	ldr	r1, [sp, #84]	; 0x54
    60fc:	b111      	cbz	r1, 6104 <_dtoa_r+0x6d4>
    60fe:	f205 4333 	addw	r3, r5, #1075	; 0x433
    6102:	e002      	b.n	610a <_dtoa_r+0x6da>
    6104:	9816      	ldr	r0, [sp, #88]	; 0x58
    6106:	f1c0 0336 	rsb	r3, r0, #54	; 0x36
    610a:	9c0c      	ldr	r4, [sp, #48]	; 0x30
    610c:	9e08      	ldr	r6, [sp, #32]
    610e:	e016      	b.n	613e <_dtoa_r+0x70e>
    6110:	9e07      	ldr	r6, [sp, #28]
    6112:	9b0c      	ldr	r3, [sp, #48]	; 0x30
    6114:	1e71      	subs	r1, r6, #1
    6116:	428b      	cmp	r3, r1
    6118:	db01      	blt.n	611e <_dtoa_r+0x6ee>
    611a:	1a5c      	subs	r4, r3, r1
    611c:	e006      	b.n	612c <_dtoa_r+0x6fc>
    611e:	980c      	ldr	r0, [sp, #48]	; 0x30
    6120:	9f11      	ldr	r7, [sp, #68]	; 0x44
    6122:	1a0d      	subs	r5, r1, r0
    6124:	197c      	adds	r4, r7, r5
    6126:	9411      	str	r4, [sp, #68]	; 0x44
    6128:	910c      	str	r1, [sp, #48]	; 0x30
    612a:	2400      	movs	r4, #0
    612c:	9a07      	ldr	r2, [sp, #28]
    612e:	2a00      	cmp	r2, #0
    6130:	da03      	bge.n	613a <_dtoa_r+0x70a>
    6132:	9e08      	ldr	r6, [sp, #32]
    6134:	2300      	movs	r3, #0
    6136:	1ab6      	subs	r6, r6, r2
    6138:	e001      	b.n	613e <_dtoa_r+0x70e>
    613a:	9e08      	ldr	r6, [sp, #32]
    613c:	9b07      	ldr	r3, [sp, #28]
    613e:	9d08      	ldr	r5, [sp, #32]
    6140:	9a09      	ldr	r2, [sp, #36]	; 0x24
    6142:	18ef      	adds	r7, r5, r3
    6144:	4658      	mov	r0, r11
    6146:	18d3      	adds	r3, r2, r3
    6148:	2101      	movs	r1, #1
    614a:	9708      	str	r7, [sp, #32]
    614c:	9309      	str	r3, [sp, #36]	; 0x24
    614e:	f000 fb8f 	bl	6870 <__i2b>
    6152:	4605      	mov	r5, r0
    6154:	e002      	b.n	615c <_dtoa_r+0x72c>
    6156:	9c0c      	ldr	r4, [sp, #48]	; 0x30
    6158:	9e08      	ldr	r6, [sp, #32]
    615a:	9d0d      	ldr	r5, [sp, #52]	; 0x34
    615c:	b166      	cbz	r6, 6178 <_dtoa_r+0x748>
    615e:	9f09      	ldr	r7, [sp, #36]	; 0x24
    6160:	2f00      	cmp	r7, #0
    6162:	dd09      	ble.n	6178 <_dtoa_r+0x748>
    6164:	9908      	ldr	r1, [sp, #32]
    6166:	9a09      	ldr	r2, [sp, #36]	; 0x24
    6168:	42b7      	cmp	r7, r6
    616a:	bfa8      	it	ge
    616c:	4637      	movge	r7, r6
    616e:	1bc8      	subs	r0, r1, r7
    6170:	1bd3      	subs	r3, r2, r7
    6172:	9008      	str	r0, [sp, #32]
    6174:	1bf6      	subs	r6, r6, r7
    6176:	9309      	str	r3, [sp, #36]	; 0x24
    6178:	9f0c      	ldr	r7, [sp, #48]	; 0x30
    617a:	2f00      	cmp	r7, #0
    617c:	dd20      	ble.n	61c0 <_dtoa_r+0x790>
    617e:	990d      	ldr	r1, [sp, #52]	; 0x34
    6180:	b1c1      	cbz	r1, 61b4 <_dtoa_r+0x784>
    6182:	2c00      	cmp	r4, #0
    6184:	dd10      	ble.n	61a8 <_dtoa_r+0x778>
    6186:	4629      	mov	r1, r5
    6188:	4622      	mov	r2, r4
    618a:	4658      	mov	r0, r11
    618c:	f000 fc0a 	bl	69a4 <__pow5mult>
    6190:	4605      	mov	r5, r0
    6192:	4652      	mov	r2, r10
    6194:	4629      	mov	r1, r5
    6196:	4658      	mov	r0, r11
    6198:	f000 fb73 	bl	6882 <__multiply>
    619c:	4651      	mov	r1, r10
    619e:	4607      	mov	r7, r0
    61a0:	4658      	mov	r0, r11
    61a2:	f000 fa84 	bl	66ae <_Bfree>
    61a6:	46ba      	mov	r10, r7
    61a8:	980c      	ldr	r0, [sp, #48]	; 0x30
    61aa:	1b02      	subs	r2, r0, r4
    61ac:	d008      	beq.n	61c0 <_dtoa_r+0x790>
    61ae:	4658      	mov	r0, r11
    61b0:	4651      	mov	r1, r10
    61b2:	e002      	b.n	61ba <_dtoa_r+0x78a>
    61b4:	9a0c      	ldr	r2, [sp, #48]	; 0x30
    61b6:	4658      	mov	r0, r11
    61b8:	4651      	mov	r1, r10
    61ba:	f000 fbf3 	bl	69a4 <__pow5mult>
    61be:	4682      	mov	r10, r0
    61c0:	2101      	movs	r1, #1
    61c2:	4658      	mov	r0, r11
    61c4:	f000 fb54 	bl	6870 <__i2b>
    61c8:	9a11      	ldr	r2, [sp, #68]	; 0x44
    61ca:	4604      	mov	r4, r0
    61cc:	2a00      	cmp	r2, #0
    61ce:	dd05      	ble.n	61dc <_dtoa_r+0x7ac>
    61d0:	4621      	mov	r1, r4
    61d2:	4658      	mov	r0, r11
    61d4:	9a11      	ldr	r2, [sp, #68]	; 0x44
    61d6:	f000 fbe5 	bl	69a4 <__pow5mult>
    61da:	4604      	mov	r4, r0
    61dc:	9b22      	ldr	r3, [sp, #136]	; 0x88
    61de:	2b01      	cmp	r3, #1
    61e0:	dc10      	bgt.n	6204 <_dtoa_r+0x7d4>
    61e2:	9904      	ldr	r1, [sp, #16]
    61e4:	b971      	cbnz	r1, 6204 <_dtoa_r+0x7d4>
    61e6:	9805      	ldr	r0, [sp, #20]
    61e8:	f3c0 0713 	ubfx	r7, r0, #0, #20
    61ec:	b967      	cbnz	r7, 6208 <_dtoa_r+0x7d8>
    61ee:	4f18      	ldr	r7, [pc, #96]	; (6250 <_dtoa_r+0x820>)
    61f0:	4007      	ands	r7, r0
    61f2:	b157      	cbz	r7, 620a <_dtoa_r+0x7da>
    61f4:	9a08      	ldr	r2, [sp, #32]
    61f6:	9909      	ldr	r1, [sp, #36]	; 0x24
    61f8:	1c53      	adds	r3, r2, #1
    61fa:	1c48      	adds	r0, r1, #1
    61fc:	9308      	str	r3, [sp, #32]
    61fe:	9009      	str	r0, [sp, #36]	; 0x24
    6200:	2701      	movs	r7, #1
    6202:	e002      	b.n	620a <_dtoa_r+0x7da>
    6204:	2700      	movs	r7, #0
    6206:	e000      	b.n	620a <_dtoa_r+0x7da>
    6208:	9f04      	ldr	r7, [sp, #16]
    620a:	9a11      	ldr	r2, [sp, #68]	; 0x44
    620c:	b142      	cbz	r2, 6220 <_dtoa_r+0x7f0>
    620e:	6921      	ldr	r1, [r4, #16]
    6210:	eb04 0081 	add.w	r0, r4, r1, lsl #2
    6214:	6900      	ldr	r0, [r0, #16]
    6216:	f000 fadf 	bl	67d8 <__hi0bits>
    621a:	f1c0 0320 	rsb	r3, r0, #32
    621e:	e000      	b.n	6222 <_dtoa_r+0x7f2>
    6220:	2301      	movs	r3, #1
    6222:	9909      	ldr	r1, [sp, #36]	; 0x24
    6224:	185a      	adds	r2, r3, r1
    6226:	f012 031f 	ands.w	r3, r2, #31
    622a:	d015      	beq.n	6258 <_dtoa_r+0x828>
    622c:	f1c3 0020 	rsb	r0, r3, #32
    6230:	2804      	cmp	r0, #4
    6232:	dd0f      	ble.n	6254 <_dtoa_r+0x824>
    6234:	9808      	ldr	r0, [sp, #32]
    6236:	f1c3 031c 	rsb	r3, r3, #28
    623a:	18c2      	adds	r2, r0, r3
    623c:	9208      	str	r2, [sp, #32]
    623e:	18f6      	adds	r6, r6, r3
    6240:	e010      	b.n	6264 <_dtoa_r+0x834>
    6242:	bf00      	nop
    6244:	40240000 	.word	0x40240000
    6248:	00008c30 	.word	0x00008c30
    624c:	40140000 	.word	0x40140000
    6250:	7ff00000 	.word	0x7ff00000
    6254:	d008      	beq.n	6268 <_dtoa_r+0x838>
    6256:	4603      	mov	r3, r0
    6258:	9908      	ldr	r1, [sp, #32]
    625a:	331c      	adds	r3, #28
    625c:	18ca      	adds	r2, r1, r3
    625e:	9909      	ldr	r1, [sp, #36]	; 0x24
    6260:	9208      	str	r2, [sp, #32]
    6262:	18f6      	adds	r6, r6, r3
    6264:	18cb      	adds	r3, r1, r3
    6266:	9309      	str	r3, [sp, #36]	; 0x24
    6268:	9a08      	ldr	r2, [sp, #32]
    626a:	2a00      	cmp	r2, #0
    626c:	dd04      	ble.n	6278 <_dtoa_r+0x848>
    626e:	4651      	mov	r1, r10
    6270:	4658      	mov	r0, r11
    6272:	f000 fbe9 	bl	6a48 <__lshift>
    6276:	4682      	mov	r10, r0
    6278:	9a09      	ldr	r2, [sp, #36]	; 0x24
    627a:	2a00      	cmp	r2, #0
    627c:	dd04      	ble.n	6288 <_dtoa_r+0x858>
    627e:	4621      	mov	r1, r4
    6280:	4658      	mov	r0, r11
    6282:	f000 fbe1 	bl	6a48 <__lshift>
    6286:	4604      	mov	r4, r0
    6288:	9914      	ldr	r1, [sp, #80]	; 0x50
    628a:	b1e1      	cbz	r1, 62c6 <_dtoa_r+0x896>
    628c:	4650      	mov	r0, r10
    628e:	4621      	mov	r1, r4
    6290:	f000 fc2e 	bl	6af0 <__mcmp>
    6294:	2800      	cmp	r0, #0
    6296:	da16      	bge.n	62c6 <_dtoa_r+0x896>
    6298:	4651      	mov	r1, r10
    629a:	4658      	mov	r0, r11
    629c:	220a      	movs	r2, #10
    629e:	2300      	movs	r3, #0
    62a0:	f000 fa1c 	bl	66dc <__multadd>
    62a4:	4682      	mov	r10, r0
    62a6:	980d      	ldr	r0, [sp, #52]	; 0x34
    62a8:	f109 39ff 	add.w	r9, r9, #4294967295
    62ac:	b148      	cbz	r0, 62c2 <_dtoa_r+0x892>
    62ae:	4629      	mov	r1, r5
    62b0:	220a      	movs	r2, #10
    62b2:	4658      	mov	r0, r11
    62b4:	2300      	movs	r3, #0
    62b6:	f000 fa11 	bl	66dc <__multadd>
    62ba:	9a0b      	ldr	r2, [sp, #44]	; 0x2c
    62bc:	4605      	mov	r5, r0
    62be:	9207      	str	r2, [sp, #28]
    62c0:	e001      	b.n	62c6 <_dtoa_r+0x896>
    62c2:	9b0b      	ldr	r3, [sp, #44]	; 0x2c
    62c4:	9307      	str	r3, [sp, #28]
    62c6:	9807      	ldr	r0, [sp, #28]
    62c8:	2800      	cmp	r0, #0
    62ca:	dc25      	bgt.n	6318 <_dtoa_r+0x8e8>
    62cc:	9922      	ldr	r1, [sp, #136]	; 0x88
    62ce:	2902      	cmp	r1, #2
    62d0:	dd22      	ble.n	6318 <_dtoa_r+0x8e8>
    62d2:	b978      	cbnz	r0, 62f4 <_dtoa_r+0x8c4>
    62d4:	4621      	mov	r1, r4
    62d6:	2205      	movs	r2, #5
    62d8:	9b07      	ldr	r3, [sp, #28]
    62da:	4658      	mov	r0, r11
    62dc:	f000 f9fe 	bl	66dc <__multadd>
    62e0:	4604      	mov	r4, r0
    62e2:	4621      	mov	r1, r4
    62e4:	4650      	mov	r0, r10
    62e6:	f000 fc03 	bl	6af0 <__mcmp>
    62ea:	2800      	cmp	r0, #0
    62ec:	dc0b      	bgt.n	6306 <_dtoa_r+0x8d6>
    62ee:	e001      	b.n	62f4 <_dtoa_r+0x8c4>
    62f0:	2400      	movs	r4, #0
    62f2:	4625      	mov	r5, r4
    62f4:	9b23      	ldr	r3, [sp, #140]	; 0x8c
    62f6:	f8dd 8028 	ldr.w	r8, [sp, #40]	; 0x28
    62fa:	ea6f 0903 	mvn.w	r9, r3
    62fe:	e009      	b.n	6314 <_dtoa_r+0x8e4>
    6300:	f8dd 9040 	ldr.w	r9, [sp, #64]	; 0x40
    6304:	4625      	mov	r5, r4
    6306:	f8dd 8028 	ldr.w	r8, [sp, #40]	; 0x28
    630a:	2031      	movs	r0, #49	; 0x31
    630c:	f808 0b01 	strb.w	r0, [r8], #1
    6310:	f109 0901 	add.w	r9, r9, #1
    6314:	2600      	movs	r6, #0
    6316:	e0fe      	b.n	6516 <_dtoa_r+0xae6>
    6318:	9b0d      	ldr	r3, [sp, #52]	; 0x34
    631a:	2b00      	cmp	r3, #0
    631c:	f000 80b3 	beq.w	6486 <_dtoa_r+0xa56>
    6320:	2e00      	cmp	r6, #0
    6322:	dd05      	ble.n	6330 <_dtoa_r+0x900>
    6324:	4629      	mov	r1, r5
    6326:	4658      	mov	r0, r11
    6328:	4632      	mov	r2, r6
    632a:	f000 fb8d 	bl	6a48 <__lshift>
    632e:	4605      	mov	r5, r0
    6330:	b19f      	cbz	r7, 635a <_dtoa_r+0x92a>
    6332:	6869      	ldr	r1, [r5, #4]
    6334:	4658      	mov	r0, r11
    6336:	f000 f985 	bl	6644 <_Balloc>
    633a:	692b      	ldr	r3, [r5, #16]
    633c:	4607      	mov	r7, r0
    633e:	1c9a      	adds	r2, r3, #2
    6340:	f105 010c 	add.w	r1, r5, #12
    6344:	0092      	lsls	r2, r2, #2
    6346:	f100 000c 	add.w	r0, r0, #12
    634a:	f7fd fbc5 	bl	3ad8 <memcpy>
    634e:	4658      	mov	r0, r11
    6350:	4639      	mov	r1, r7
    6352:	2201      	movs	r2, #1
    6354:	f000 fb78 	bl	6a48 <__lshift>
    6358:	e000      	b.n	635c <_dtoa_r+0x92c>
    635a:	4628      	mov	r0, r5
    635c:	9b0a      	ldr	r3, [sp, #40]	; 0x28
    635e:	9907      	ldr	r1, [sp, #28]
    6360:	9e0a      	ldr	r6, [sp, #40]	; 0x28
    6362:	185a      	adds	r2, r3, r1
    6364:	1c77      	adds	r7, r6, #1
    6366:	9209      	str	r2, [sp, #36]	; 0x24
    6368:	462e      	mov	r6, r5
    636a:	4605      	mov	r5, r0
    636c:	4621      	mov	r1, r4
    636e:	4650      	mov	r0, r10
    6370:	f7ff face 	bl	5910 <quorem>
    6374:	4603      	mov	r3, r0
    6376:	3330      	adds	r3, #48	; 0x30
    6378:	9007      	str	r0, [sp, #28]
    637a:	4631      	mov	r1, r6
    637c:	4650      	mov	r0, r10
    637e:	9302      	str	r3, [sp, #8]
    6380:	f000 fbb6 	bl	6af0 <__mcmp>
    6384:	4621      	mov	r1, r4
    6386:	9008      	str	r0, [sp, #32]
    6388:	462a      	mov	r2, r5
    638a:	4658      	mov	r0, r11
    638c:	f000 fbcd 	bl	6b2a <__mdiff>
    6390:	4684      	mov	r12, r0
    6392:	68c0      	ldr	r0, [r0, #12]
    6394:	f107 38ff 	add.w	r8, r7, #4294967295
    6398:	9b02      	ldr	r3, [sp, #8]
    639a:	b950      	cbnz	r0, 63b2 <_dtoa_r+0x982>
    639c:	4661      	mov	r1, r12
    639e:	4650      	mov	r0, r10
    63a0:	f8cd c00c 	str.w	r12, [sp, #12]
    63a4:	f000 fba4 	bl	6af0 <__mcmp>
    63a8:	9b02      	ldr	r3, [sp, #8]
    63aa:	4602      	mov	r2, r0
    63ac:	f8dd c00c 	ldr.w	r12, [sp, #12]
    63b0:	e000      	b.n	63b4 <_dtoa_r+0x984>
    63b2:	2201      	movs	r2, #1
    63b4:	4658      	mov	r0, r11
    63b6:	4661      	mov	r1, r12
    63b8:	9203      	str	r2, [sp, #12]
    63ba:	9302      	str	r3, [sp, #8]
    63bc:	f000 f977 	bl	66ae <_Bfree>
    63c0:	9a03      	ldr	r2, [sp, #12]
    63c2:	9b02      	ldr	r3, [sp, #8]
    63c4:	b96a      	cbnz	r2, 63e2 <_dtoa_r+0x9b2>
    63c6:	9922      	ldr	r1, [sp, #136]	; 0x88
    63c8:	b959      	cbnz	r1, 63e2 <_dtoa_r+0x9b2>
    63ca:	9804      	ldr	r0, [sp, #16]
    63cc:	f000 0101 	and.w	r1, r0, #1
    63d0:	b939      	cbnz	r1, 63e2 <_dtoa_r+0x9b2>
    63d2:	2b39      	cmp	r3, #57	; 0x39
    63d4:	d02b      	beq.n	642e <_dtoa_r+0x9fe>
    63d6:	9a08      	ldr	r2, [sp, #32]
    63d8:	2a00      	cmp	r2, #0
    63da:	dd2d      	ble.n	6438 <_dtoa_r+0xa08>
    63dc:	9b07      	ldr	r3, [sp, #28]
    63de:	3331      	adds	r3, #49	; 0x31
    63e0:	e02a      	b.n	6438 <_dtoa_r+0xa08>
    63e2:	9808      	ldr	r0, [sp, #32]
    63e4:	2800      	cmp	r0, #0
    63e6:	db06      	blt.n	63f6 <_dtoa_r+0x9c6>
    63e8:	d11d      	bne.n	6426 <_dtoa_r+0x9f6>
    63ea:	9922      	ldr	r1, [sp, #136]	; 0x88
    63ec:	b9d9      	cbnz	r1, 6426 <_dtoa_r+0x9f6>
    63ee:	9804      	ldr	r0, [sp, #16]
    63f0:	f000 0101 	and.w	r1, r0, #1
    63f4:	b9b9      	cbnz	r1, 6426 <_dtoa_r+0x9f6>
    63f6:	2a00      	cmp	r2, #0
    63f8:	461f      	mov	r7, r3
    63fa:	dd1d      	ble.n	6438 <_dtoa_r+0xa08>
    63fc:	4651      	mov	r1, r10
    63fe:	2201      	movs	r2, #1
    6400:	4658      	mov	r0, r11
    6402:	9302      	str	r3, [sp, #8]
    6404:	f000 fb20 	bl	6a48 <__lshift>
    6408:	4621      	mov	r1, r4
    640a:	4682      	mov	r10, r0
    640c:	f000 fb70 	bl	6af0 <__mcmp>
    6410:	2800      	cmp	r0, #0
    6412:	9b02      	ldr	r3, [sp, #8]
    6414:	dc02      	bgt.n	641c <_dtoa_r+0x9ec>
    6416:	d10f      	bne.n	6438 <_dtoa_r+0xa08>
    6418:	07da      	lsls	r2, r3, #31
    641a:	d50d      	bpl.n	6438 <_dtoa_r+0xa08>
    641c:	9b07      	ldr	r3, [sp, #28]
    641e:	3331      	adds	r3, #49	; 0x31
    6420:	2f39      	cmp	r7, #57	; 0x39
    6422:	d109      	bne.n	6438 <_dtoa_r+0xa08>
    6424:	e003      	b.n	642e <_dtoa_r+0x9fe>
    6426:	2a00      	cmp	r2, #0
    6428:	dd09      	ble.n	643e <_dtoa_r+0xa0e>
    642a:	2b39      	cmp	r3, #57	; 0x39
    642c:	d103      	bne.n	6436 <_dtoa_r+0xa06>
    642e:	2339      	movs	r3, #57	; 0x39
    6430:	f808 3b01 	strb.w	r3, [r8], #1
    6434:	e055      	b.n	64e2 <_dtoa_r+0xab2>
    6436:	3301      	adds	r3, #1
    6438:	f808 3b01 	strb.w	r3, [r8], #1
    643c:	e06b      	b.n	6516 <_dtoa_r+0xae6>
    643e:	9a09      	ldr	r2, [sp, #36]	; 0x24
    6440:	46b8      	mov	r8, r7
    6442:	4297      	cmp	r7, r2
    6444:	f807 3c01 	strb.w	r3, [r7, #-1]
    6448:	d03b      	beq.n	64c2 <_dtoa_r+0xa92>
    644a:	4651      	mov	r1, r10
    644c:	220a      	movs	r2, #10
    644e:	2300      	movs	r3, #0
    6450:	4658      	mov	r0, r11
    6452:	f000 f943 	bl	66dc <__multadd>
    6456:	220a      	movs	r2, #10
    6458:	2300      	movs	r3, #0
    645a:	42ae      	cmp	r6, r5
    645c:	4682      	mov	r10, r0
    645e:	4631      	mov	r1, r6
    6460:	4658      	mov	r0, r11
    6462:	d104      	bne.n	646e <_dtoa_r+0xa3e>
    6464:	f000 f93a 	bl	66dc <__multadd>
    6468:	4606      	mov	r6, r0
    646a:	4605      	mov	r5, r0
    646c:	e009      	b.n	6482 <_dtoa_r+0xa52>
    646e:	f000 f935 	bl	66dc <__multadd>
    6472:	4629      	mov	r1, r5
    6474:	4606      	mov	r6, r0
    6476:	220a      	movs	r2, #10
    6478:	4658      	mov	r0, r11
    647a:	2300      	movs	r3, #0
    647c:	f000 f92e 	bl	66dc <__multadd>
    6480:	4605      	mov	r5, r0
    6482:	3701      	adds	r7, #1
    6484:	e772      	b.n	636c <_dtoa_r+0x93c>
    6486:	9e0d      	ldr	r6, [sp, #52]	; 0x34
    6488:	4650      	mov	r0, r10
    648a:	4621      	mov	r1, r4
    648c:	f7ff fa40 	bl	5910 <quorem>
    6490:	9a0a      	ldr	r2, [sp, #40]	; 0x28
    6492:	f100 0330 	add.w	r3, r0, #48	; 0x30
    6496:	9807      	ldr	r0, [sp, #28]
    6498:	5593      	strb	r3, [r2, r6]
    649a:	3601      	adds	r6, #1
    649c:	4286      	cmp	r6, r0
    649e:	da07      	bge.n	64b0 <_dtoa_r+0xa80>
    64a0:	4651      	mov	r1, r10
    64a2:	4658      	mov	r0, r11
    64a4:	220a      	movs	r2, #10
    64a6:	2300      	movs	r3, #0
    64a8:	f000 f918 	bl	66dc <__multadd>
    64ac:	4682      	mov	r10, r0
    64ae:	e7eb      	b.n	6488 <_dtoa_r+0xa58>
    64b0:	f8dd 8028 	ldr.w	r8, [sp, #40]	; 0x28
    64b4:	9907      	ldr	r1, [sp, #28]
    64b6:	2600      	movs	r6, #0
    64b8:	2901      	cmp	r1, #1
    64ba:	bfac      	ite	ge
    64bc:	4488      	addge	r8, r1
    64be:	f108 0801 	addlt.w	r8, r8, #1
    64c2:	4651      	mov	r1, r10
    64c4:	2201      	movs	r2, #1
    64c6:	4658      	mov	r0, r11
    64c8:	9302      	str	r3, [sp, #8]
    64ca:	f000 fabd 	bl	6a48 <__lshift>
    64ce:	4621      	mov	r1, r4
    64d0:	4682      	mov	r10, r0
    64d2:	f000 fb0d 	bl	6af0 <__mcmp>
    64d6:	2800      	cmp	r0, #0
    64d8:	9b02      	ldr	r3, [sp, #8]
    64da:	dc02      	bgt.n	64e2 <_dtoa_r+0xab2>
    64dc:	d114      	bne.n	6508 <_dtoa_r+0xad8>
    64de:	07db      	lsls	r3, r3, #31
    64e0:	d512      	bpl.n	6508 <_dtoa_r+0xad8>
    64e2:	4641      	mov	r1, r8
    64e4:	f811 0c01 	ldrb.w	r0, [r1, #-1]
    64e8:	4688      	mov	r8, r1
    64ea:	2839      	cmp	r0, #57	; 0x39
    64ec:	f101 31ff 	add.w	r1, r1, #4294967295
    64f0:	d107      	bne.n	6502 <_dtoa_r+0xad2>
    64f2:	980a      	ldr	r0, [sp, #40]	; 0x28
    64f4:	4288      	cmp	r0, r1
    64f6:	d1f5      	bne.n	64e4 <_dtoa_r+0xab4>
    64f8:	2331      	movs	r3, #49	; 0x31
    64fa:	f109 0901 	add.w	r9, r9, #1
    64fe:	7003      	strb	r3, [r0, #0]
    6500:	e009      	b.n	6516 <_dtoa_r+0xae6>
    6502:	1c42      	adds	r2, r0, #1
    6504:	700a      	strb	r2, [r1, #0]
    6506:	e006      	b.n	6516 <_dtoa_r+0xae6>
    6508:	4640      	mov	r0, r8
    650a:	4680      	mov	r8, r0
    650c:	f818 1c01 	ldrb.w	r1, [r8, #-1]
    6510:	3801      	subs	r0, #1
    6512:	2930      	cmp	r1, #48	; 0x30
    6514:	d0f9      	beq.n	650a <_dtoa_r+0xada>
    6516:	4658      	mov	r0, r11
    6518:	4621      	mov	r1, r4
    651a:	f000 f8c8 	bl	66ae <_Bfree>
    651e:	b16d      	cbz	r5, 653c <_dtoa_r+0xb0c>
    6520:	b12e      	cbz	r6, 652e <_dtoa_r+0xafe>
    6522:	42ae      	cmp	r6, r5
    6524:	d003      	beq.n	652e <_dtoa_r+0xafe>
    6526:	4658      	mov	r0, r11
    6528:	4631      	mov	r1, r6
    652a:	f000 f8c0 	bl	66ae <_Bfree>
    652e:	4658      	mov	r0, r11
    6530:	4629      	mov	r1, r5
    6532:	f000 f8bc 	bl	66ae <_Bfree>
    6536:	e001      	b.n	653c <_dtoa_r+0xb0c>
    6538:	f8dd 9040 	ldr.w	r9, [sp, #64]	; 0x40
    653c:	4651      	mov	r1, r10
    653e:	2600      	movs	r6, #0
    6540:	4658      	mov	r0, r11
    6542:	f000 f8b4 	bl	66ae <_Bfree>
    6546:	f888 6000 	strb.w	r6, [r8]
    654a:	9a24      	ldr	r2, [sp, #144]	; 0x90
    654c:	9e26      	ldr	r6, [sp, #152]	; 0x98
    654e:	f109 0101 	add.w	r1, r9, #1
    6552:	6011      	str	r1, [r2, #0]
    6554:	b126      	cbz	r6, 6560 <_dtoa_r+0xb30>
    6556:	f8c6 8000 	str.w	r8, [r6]
    655a:	e001      	b.n	6560 <_dtoa_r+0xb30>
    655c:	4802      	ldr	r0, [pc, #8]	; (6568 <_dtoa_r+0xb38>)
    655e:	e000      	b.n	6562 <_dtoa_r+0xb32>
    6560:	980a      	ldr	r0, [sp, #40]	; 0x28
    6562:	b019      	add	sp, #100	; 0x64
    6564:	e8bd 8ff0 	ldmia.w	sp!, {r4, r5, r6, r7, r8, r9, r10, r11, pc}
    6568:	00008b12 	.word	0x00008b12
    656c:	f3af 8000 	nop.w

00006570 <__sflags>:
    6570:	b570      	push	{r4, r5, r6, lr}
    6572:	780b      	ldrb	r3, [r1, #0]
    6574:	2b72      	cmp	r3, #114	; 0x72
    6576:	d00d      	beq.n	6594 <__sflags+0x24>
    6578:	2b77      	cmp	r3, #119	; 0x77
    657a:	d00f      	beq.n	659c <__sflags+0x2c>
    657c:	2b61      	cmp	r3, #97	; 0x61
    657e:	d105      	bne.n	658c <__sflags+0x1c>
    6580:	f44f 7402 	mov.w	r4, #520	; 0x208
    6584:	2301      	movs	r3, #1
    6586:	f44f 7084 	mov.w	r0, #264	; 0x108
    658a:	e00b      	b.n	65a4 <__sflags+0x34>
    658c:	2116      	movs	r1, #22
    658e:	6001      	str	r1, [r0, #0]
    6590:	2000      	movs	r0, #0
    6592:	bd70      	pop	{r4, r5, r6, pc}
    6594:	2400      	movs	r4, #0
    6596:	4623      	mov	r3, r4
    6598:	2004      	movs	r0, #4
    659a:	e003      	b.n	65a4 <__sflags+0x34>
    659c:	f44f 64c0 	mov.w	r4, #1536	; 0x600
    65a0:	2301      	movs	r3, #1
    65a2:	2008      	movs	r0, #8
    65a4:	784d      	ldrb	r5, [r1, #1]
    65a6:	b175      	cbz	r5, 65c6 <__sflags+0x56>
    65a8:	2d2b      	cmp	r5, #43	; 0x2b
    65aa:	d002      	beq.n	65b2 <__sflags+0x42>
    65ac:	788e      	ldrb	r6, [r1, #2]
    65ae:	2e2b      	cmp	r6, #43	; 0x2b
    65b0:	d104      	bne.n	65bc <__sflags+0x4c>
    65b2:	f020 001c 	bic.w	r0, r0, #28
    65b6:	f040 0010 	orr.w	r0, r0, #16
    65ba:	2302      	movs	r3, #2
    65bc:	2d62      	cmp	r5, #98	; 0x62
    65be:	d005      	beq.n	65cc <__sflags+0x5c>
    65c0:	7889      	ldrb	r1, [r1, #2]
    65c2:	2962      	cmp	r1, #98	; 0x62
    65c4:	d002      	beq.n	65cc <__sflags+0x5c>
    65c6:	4323      	orrs	r3, r4
    65c8:	6013      	str	r3, [r2, #0]
    65ca:	bd70      	pop	{r4, r5, r6, pc}
    65cc:	f443 3380 	orr.w	r3, r3, #65536	; 0x10000
    65d0:	e7f9      	b.n	65c6 <__sflags+0x56>
	...

000065d4 <_fstat_r>:
    65d4:	b538      	push	{r3, r4, r5, lr}
    65d6:	4c07      	ldr	r4, [pc, #28]	; (65f4 <_fstat_r+0x20>)
    65d8:	2300      	movs	r3, #0
    65da:	4605      	mov	r5, r0
    65dc:	4608      	mov	r0, r1
    65de:	4611      	mov	r1, r2
    65e0:	6023      	str	r3, [r4, #0]
    65e2:	f7fa fa57 	bl	a94 <_fstat>
    65e6:	1c43      	adds	r3, r0, #1
    65e8:	d102      	bne.n	65f0 <_fstat_r+0x1c>
    65ea:	6821      	ldr	r1, [r4, #0]
    65ec:	b101      	cbz	r1, 65f0 <_fstat_r+0x1c>
    65ee:	6029      	str	r1, [r5, #0]
    65f0:	bd38      	pop	{r3, r4, r5, pc}
    65f2:	bf00      	nop
    65f4:	1000039c 	.word	0x1000039c

000065f8 <_isatty_r>:
    65f8:	b538      	push	{r3, r4, r5, lr}
    65fa:	4c06      	ldr	r4, [pc, #24]	; (6614 <_isatty_r+0x1c>)
    65fc:	2300      	movs	r3, #0
    65fe:	4605      	mov	r5, r0
    6600:	4608      	mov	r0, r1
    6602:	6023      	str	r3, [r4, #0]
    6604:	f7f9 fefe 	bl	404 <__wrap__isatty>
    6608:	1c43      	adds	r3, r0, #1
    660a:	d102      	bne.n	6612 <_isatty_r+0x1a>
    660c:	6821      	ldr	r1, [r4, #0]
    660e:	b101      	cbz	r1, 6612 <_isatty_r+0x1a>
    6610:	6029      	str	r1, [r5, #0]
    6612:	bd38      	pop	{r3, r4, r5, pc}
    6614:	1000039c 	.word	0x1000039c

00006618 <_localeconv_r>:
    6618:	4800      	ldr	r0, [pc, #0]	; (661c <_localeconv_r+0x4>)
    661a:	4770      	bx	lr
    661c:	1000013c 	.word	0x1000013c

00006620 <_lseek_r>:
    6620:	b538      	push	{r3, r4, r5, lr}
    6622:	4c07      	ldr	r4, [pc, #28]	; (6640 <_lseek_r+0x20>)
    6624:	4605      	mov	r5, r0
    6626:	2000      	movs	r0, #0
    6628:	6020      	str	r0, [r4, #0]
    662a:	4608      	mov	r0, r1
    662c:	4611      	mov	r1, r2
    662e:	461a      	mov	r2, r3
    6630:	f7fa fa1c 	bl	a6c <_lseek>
    6634:	1c43      	adds	r3, r0, #1
    6636:	d102      	bne.n	663e <_lseek_r+0x1e>
    6638:	6823      	ldr	r3, [r4, #0]
    663a:	b103      	cbz	r3, 663e <_lseek_r+0x1e>
    663c:	602b      	str	r3, [r5, #0]
    663e:	bd38      	pop	{r3, r4, r5, pc}
    6640:	1000039c 	.word	0x1000039c

00006644 <_Balloc>:
    6644:	b570      	push	{r4, r5, r6, lr}
    6646:	6a45      	ldr	r5, [r0, #36]	; 0x24
    6648:	4604      	mov	r4, r0
    664a:	460e      	mov	r6, r1
    664c:	b93d      	cbnz	r5, 665e <_Balloc+0x1a>
    664e:	2010      	movs	r0, #16
    6650:	f7fd f9da 	bl	3a08 <malloc>
    6654:	6260      	str	r0, [r4, #36]	; 0x24
    6656:	6045      	str	r5, [r0, #4]
    6658:	6085      	str	r5, [r0, #8]
    665a:	6005      	str	r5, [r0, #0]
    665c:	60c5      	str	r5, [r0, #12]
    665e:	6a65      	ldr	r5, [r4, #36]	; 0x24
    6660:	68eb      	ldr	r3, [r5, #12]
    6662:	b143      	cbz	r3, 6676 <_Balloc+0x32>
    6664:	6a62      	ldr	r2, [r4, #36]	; 0x24
    6666:	68d3      	ldr	r3, [r2, #12]
    6668:	f853 0026 	ldr.w	r0, [r3, r6, lsl #2]
    666c:	b178      	cbz	r0, 668e <_Balloc+0x4a>
    666e:	6801      	ldr	r1, [r0, #0]
    6670:	f843 1026 	str.w	r1, [r3, r6, lsl #2]
    6674:	e017      	b.n	66a6 <_Balloc+0x62>
    6676:	2104      	movs	r1, #4
    6678:	4620      	mov	r0, r4
    667a:	2221      	movs	r2, #33	; 0x21
    667c:	f001 fb08 	bl	7c90 <_calloc_r>
    6680:	60e8      	str	r0, [r5, #12]
    6682:	6a60      	ldr	r0, [r4, #36]	; 0x24
    6684:	68c1      	ldr	r1, [r0, #12]
    6686:	2900      	cmp	r1, #0
    6688:	d1ec      	bne.n	6664 <_Balloc+0x20>
    668a:	2000      	movs	r0, #0
    668c:	bd70      	pop	{r4, r5, r6, pc}
    668e:	2101      	movs	r1, #1
    6690:	fa01 f506 	lsl.w	r5, r1, r6
    6694:	1d6a      	adds	r2, r5, #5
    6696:	4620      	mov	r0, r4
    6698:	0092      	lsls	r2, r2, #2
    669a:	f001 faf9 	bl	7c90 <_calloc_r>
    669e:	2800      	cmp	r0, #0
    66a0:	d0f3      	beq.n	668a <_Balloc+0x46>
    66a2:	6046      	str	r6, [r0, #4]
    66a4:	6085      	str	r5, [r0, #8]
    66a6:	2300      	movs	r3, #0
    66a8:	6103      	str	r3, [r0, #16]
    66aa:	60c3      	str	r3, [r0, #12]
    66ac:	bd70      	pop	{r4, r5, r6, pc}

000066ae <_Bfree>:
    66ae:	b570      	push	{r4, r5, r6, lr}
    66b0:	6a44      	ldr	r4, [r0, #36]	; 0x24
    66b2:	4606      	mov	r6, r0
    66b4:	460d      	mov	r5, r1
    66b6:	b93c      	cbnz	r4, 66c8 <_Bfree+0x1a>
    66b8:	2010      	movs	r0, #16
    66ba:	f7fd f9a5 	bl	3a08 <malloc>
    66be:	6270      	str	r0, [r6, #36]	; 0x24
    66c0:	6044      	str	r4, [r0, #4]
    66c2:	6084      	str	r4, [r0, #8]
    66c4:	6004      	str	r4, [r0, #0]
    66c6:	60c4      	str	r4, [r0, #12]
    66c8:	b13d      	cbz	r5, 66da <_Bfree+0x2c>
    66ca:	6a73      	ldr	r3, [r6, #36]	; 0x24
    66cc:	686a      	ldr	r2, [r5, #4]
    66ce:	68d8      	ldr	r0, [r3, #12]
    66d0:	f850 1022 	ldr.w	r1, [r0, r2, lsl #2]
    66d4:	6029      	str	r1, [r5, #0]
    66d6:	f840 5022 	str.w	r5, [r0, r2, lsl #2]
    66da:	bd70      	pop	{r4, r5, r6, pc}

000066dc <__multadd>:
    66dc:	e92d 41f0 	stmdb	sp!, {r4, r5, r6, r7, r8, lr}
    66e0:	460c      	mov	r4, r1
    66e2:	461e      	mov	r6, r3
    66e4:	690d      	ldr	r5, [r1, #16]
    66e6:	4607      	mov	r7, r0
    66e8:	f101 0114 	add.w	r1, r1, #20
    66ec:	2300      	movs	r3, #0
    66ee:	6808      	ldr	r0, [r1, #0]
    66f0:	3301      	adds	r3, #1
    66f2:	fa1f fc80 	uxth.w	r12, r0
    66f6:	fb02 6c0c 	mla	r12, r2, r12, r6
    66fa:	0c06      	lsrs	r6, r0, #16
    66fc:	4356      	muls	r6, r2
    66fe:	eb06 401c 	add.w	r0, r6, r12, lsr #16
    6702:	fa1f fc8c 	uxth.w	r12, r12
    6706:	0c06      	lsrs	r6, r0, #16
    6708:	eb0c 4000 	add.w	r0, r12, r0, lsl #16
    670c:	42ab      	cmp	r3, r5
    670e:	f841 0b04 	str.w	r0, [r1], #4
    6712:	dbec      	blt.n	66ee <__multadd+0x12>
    6714:	b1de      	cbz	r6, 674e <__multadd+0x72>
    6716:	68a2      	ldr	r2, [r4, #8]
    6718:	4295      	cmp	r5, r2
    671a:	db13      	blt.n	6744 <__multadd+0x68>
    671c:	6861      	ldr	r1, [r4, #4]
    671e:	4638      	mov	r0, r7
    6720:	3101      	adds	r1, #1
    6722:	f7ff ff8f 	bl	6644 <_Balloc>
    6726:	4680      	mov	r8, r0
    6728:	6920      	ldr	r0, [r4, #16]
    672a:	f104 010c 	add.w	r1, r4, #12
    672e:	1c83      	adds	r3, r0, #2
    6730:	009a      	lsls	r2, r3, #2
    6732:	f108 000c 	add.w	r0, r8, #12
    6736:	f7fd f9cf 	bl	3ad8 <memcpy>
    673a:	4621      	mov	r1, r4
    673c:	4638      	mov	r0, r7
    673e:	f7ff ffb6 	bl	66ae <_Bfree>
    6742:	4644      	mov	r4, r8
    6744:	eb04 0285 	add.w	r2, r4, r5, lsl #2
    6748:	3501      	adds	r5, #1
    674a:	6156      	str	r6, [r2, #20]
    674c:	6125      	str	r5, [r4, #16]
    674e:	4620      	mov	r0, r4
    6750:	e8bd 81f0 	ldmia.w	sp!, {r4, r5, r6, r7, r8, pc}

00006754 <__s2b>:
    6754:	e92d 43f8 	stmdb	sp!, {r3, r4, r5, r6, r7, r8, r9, lr}
    6758:	4614      	mov	r4, r2
    675a:	4698      	mov	r8, r3
    675c:	f103 0208 	add.w	r2, r3, #8
    6760:	2309      	movs	r3, #9
    6762:	4605      	mov	r5, r0
    6764:	460e      	mov	r6, r1
    6766:	fb92 f0f3 	sdiv	r0, r2, r3
    676a:	2100      	movs	r1, #0
    676c:	2301      	movs	r3, #1
    676e:	4298      	cmp	r0, r3
    6770:	dd02      	ble.n	6778 <__s2b+0x24>
    6772:	005b      	lsls	r3, r3, #1
    6774:	3101      	adds	r1, #1
    6776:	e7fa      	b.n	676e <__s2b+0x1a>
    6778:	4628      	mov	r0, r5
    677a:	f7ff ff63 	bl	6644 <_Balloc>
    677e:	4601      	mov	r1, r0
    6780:	9808      	ldr	r0, [sp, #32]
    6782:	2701      	movs	r7, #1
    6784:	2c09      	cmp	r4, #9
    6786:	6148      	str	r0, [r1, #20]
    6788:	610f      	str	r7, [r1, #16]
    678a:	dd12      	ble.n	67b2 <__s2b+0x5e>
    678c:	f106 0909 	add.w	r9, r6, #9
    6790:	464f      	mov	r7, r9
    6792:	1936      	adds	r6, r6, r4
    6794:	f817 3b01 	ldrb.w	r3, [r7], #1
    6798:	220a      	movs	r2, #10
    679a:	3b30      	subs	r3, #48	; 0x30
    679c:	4628      	mov	r0, r5
    679e:	f7ff ff9d 	bl	66dc <__multadd>
    67a2:	42b7      	cmp	r7, r6
    67a4:	4601      	mov	r1, r0
    67a6:	d1f5      	bne.n	6794 <__s2b+0x40>
    67a8:	eb09 0704 	add.w	r7, r9, r4
    67ac:	3f08      	subs	r7, #8
    67ae:	4626      	mov	r6, r4
    67b0:	e002      	b.n	67b8 <__s2b+0x64>
    67b2:	f106 070a 	add.w	r7, r6, #10
    67b6:	2609      	movs	r6, #9
    67b8:	4634      	mov	r4, r6
    67ba:	4544      	cmp	r4, r8
    67bc:	da09      	bge.n	67d2 <__s2b+0x7e>
    67be:	1bba      	subs	r2, r7, r6
    67c0:	5d13      	ldrb	r3, [r2, r4]
    67c2:	4628      	mov	r0, r5
    67c4:	220a      	movs	r2, #10
    67c6:	3b30      	subs	r3, #48	; 0x30
    67c8:	f7ff ff88 	bl	66dc <__multadd>
    67cc:	3401      	adds	r4, #1
    67ce:	4601      	mov	r1, r0
    67d0:	e7f3      	b.n	67ba <__s2b+0x66>
    67d2:	4608      	mov	r0, r1
    67d4:	e8bd 83f8 	ldmia.w	sp!, {r3, r4, r5, r6, r7, r8, r9, pc}

000067d8 <__hi0bits>:
    67d8:	0c02      	lsrs	r2, r0, #16
    67da:	4603      	mov	r3, r0
    67dc:	0410      	lsls	r0, r2, #16
    67de:	b910      	cbnz	r0, 67e6 <__hi0bits+0xe>
    67e0:	041b      	lsls	r3, r3, #16
    67e2:	2010      	movs	r0, #16
    67e4:	e000      	b.n	67e8 <__hi0bits+0x10>
    67e6:	2000      	movs	r0, #0
    67e8:	f013 4f7f 	tst.w	r3, #4278190080	; 0xff000000
    67ec:	d101      	bne.n	67f2 <__hi0bits+0x1a>
    67ee:	3008      	adds	r0, #8
    67f0:	021b      	lsls	r3, r3, #8
    67f2:	f013 4f70 	tst.w	r3, #4026531840	; 0xf0000000
    67f6:	d101      	bne.n	67fc <__hi0bits+0x24>
    67f8:	3004      	adds	r0, #4
    67fa:	011b      	lsls	r3, r3, #4
    67fc:	f013 4f40 	tst.w	r3, #3221225472	; 0xc0000000
    6800:	d101      	bne.n	6806 <__hi0bits+0x2e>
    6802:	3002      	adds	r0, #2
    6804:	009b      	lsls	r3, r3, #2
    6806:	2b00      	cmp	r3, #0
    6808:	db04      	blt.n	6814 <__hi0bits+0x3c>
    680a:	005b      	lsls	r3, r3, #1
    680c:	d501      	bpl.n	6812 <__hi0bits+0x3a>
    680e:	3001      	adds	r0, #1
    6810:	4770      	bx	lr
    6812:	2020      	movs	r0, #32
    6814:	4770      	bx	lr

00006816 <__lo0bits>:
    6816:	6803      	ldr	r3, [r0, #0]
    6818:	4602      	mov	r2, r0
    681a:	f013 0007 	ands.w	r0, r3, #7
    681e:	d00b      	beq.n	6838 <__lo0bits+0x22>
    6820:	07d9      	lsls	r1, r3, #31
    6822:	d421      	bmi.n	6868 <__lo0bits+0x52>
    6824:	0798      	lsls	r0, r3, #30
    6826:	d503      	bpl.n	6830 <__lo0bits+0x1a>
    6828:	0859      	lsrs	r1, r3, #1
    682a:	6011      	str	r1, [r2, #0]
    682c:	2001      	movs	r0, #1
    682e:	4770      	bx	lr
    6830:	0898      	lsrs	r0, r3, #2
    6832:	6010      	str	r0, [r2, #0]
    6834:	2002      	movs	r0, #2
    6836:	4770      	bx	lr
    6838:	b299      	uxth	r1, r3
    683a:	b909      	cbnz	r1, 6840 <__lo0bits+0x2a>
    683c:	0c1b      	lsrs	r3, r3, #16
    683e:	2010      	movs	r0, #16
    6840:	f013 0fff 	tst.w	r3, #255	; 0xff
    6844:	d101      	bne.n	684a <__lo0bits+0x34>
    6846:	3008      	adds	r0, #8
    6848:	0a1b      	lsrs	r3, r3, #8
    684a:	0719      	lsls	r1, r3, #28
    684c:	d101      	bne.n	6852 <__lo0bits+0x3c>
    684e:	3004      	adds	r0, #4
    6850:	091b      	lsrs	r3, r3, #4
    6852:	0799      	lsls	r1, r3, #30
    6854:	d101      	bne.n	685a <__lo0bits+0x44>
    6856:	3002      	adds	r0, #2
    6858:	089b      	lsrs	r3, r3, #2
    685a:	07d9      	lsls	r1, r3, #31
    685c:	d402      	bmi.n	6864 <__lo0bits+0x4e>
    685e:	085b      	lsrs	r3, r3, #1
    6860:	d004      	beq.n	686c <__lo0bits+0x56>
    6862:	3001      	adds	r0, #1
    6864:	6013      	str	r3, [r2, #0]
    6866:	4770      	bx	lr
    6868:	2000      	movs	r0, #0
    686a:	4770      	bx	lr
    686c:	2020      	movs	r0, #32
    686e:	4770      	bx	lr

00006870 <__i2b>:
    6870:	b510      	push	{r4, lr}
    6872:	460c      	mov	r4, r1
    6874:	2101      	movs	r1, #1
    6876:	f7ff fee5 	bl	6644 <_Balloc>
    687a:	2201      	movs	r2, #1
    687c:	6144      	str	r4, [r0, #20]
    687e:	6102      	str	r2, [r0, #16]
    6880:	bd10      	pop	{r4, pc}

00006882 <__multiply>:
    6882:	e92d 4ff0 	stmdb	sp!, {r4, r5, r6, r7, r8, r9, r10, r11, lr}
    6886:	4616      	mov	r6, r2
    6888:	6933      	ldr	r3, [r6, #16]
    688a:	690a      	ldr	r2, [r1, #16]
    688c:	b085      	sub	sp, #20
    688e:	429a      	cmp	r2, r3
    6890:	460d      	mov	r5, r1
    6892:	da01      	bge.n	6898 <__multiply+0x16>
    6894:	4635      	mov	r5, r6
    6896:	460e      	mov	r6, r1
    6898:	f8d5 8010 	ldr.w	r8, [r5, #16]
    689c:	6937      	ldr	r7, [r6, #16]
    689e:	68aa      	ldr	r2, [r5, #8]
    68a0:	6869      	ldr	r1, [r5, #4]
    68a2:	eb08 0407 	add.w	r4, r8, r7
    68a6:	4294      	cmp	r4, r2
    68a8:	bfc8      	it	gt
    68aa:	3101      	addgt	r1, #1
    68ac:	f7ff feca 	bl	6644 <_Balloc>
    68b0:	eb00 0184 	add.w	r1, r0, r4, lsl #2
    68b4:	3114      	adds	r1, #20
    68b6:	f100 0314 	add.w	r3, r0, #20
    68ba:	9101      	str	r1, [sp, #4]
    68bc:	9a01      	ldr	r2, [sp, #4]
    68be:	4293      	cmp	r3, r2
    68c0:	d203      	bcs.n	68ca <__multiply+0x48>
    68c2:	2200      	movs	r2, #0
    68c4:	f843 2b04 	str.w	r2, [r3], #4
    68c8:	e7f8      	b.n	68bc <__multiply+0x3a>
    68ca:	eb06 0787 	add.w	r7, r6, r7, lsl #2
    68ce:	f105 0314 	add.w	r3, r5, #20
    68d2:	eb05 0c88 	add.w	r12, r5, r8, lsl #2
    68d6:	3714      	adds	r7, #20
    68d8:	9302      	str	r3, [sp, #8]
    68da:	f10c 0e14 	add.w	lr, r12, #20
    68de:	9703      	str	r7, [sp, #12]
    68e0:	f100 0318 	add.w	r3, r0, #24
    68e4:	f106 0214 	add.w	r2, r6, #20
    68e8:	9d03      	ldr	r5, [sp, #12]
    68ea:	4611      	mov	r1, r2
    68ec:	42aa      	cmp	r2, r5
    68ee:	d24c      	bcs.n	698a <__multiply+0x108>
    68f0:	8809      	ldrh	r1, [r1, #0]
    68f2:	3204      	adds	r2, #4
    68f4:	b309      	cbz	r1, 693a <__multiply+0xb8>
    68f6:	9f02      	ldr	r7, [sp, #8]
    68f8:	1f1d      	subs	r5, r3, #4
    68fa:	2600      	movs	r6, #0
    68fc:	f857 9b04 	ldr.w	r9, [r7], #4
    6900:	f8d5 8000 	ldr.w	r8, [r5]
    6904:	fa1f fb89 	uxth.w	r11, r9
    6908:	fa1f fa88 	uxth.w	r10, r8
    690c:	fb01 ac0b 	mla	r12, r1, r11, r10
    6910:	ea4f 4919 	mov.w	r9, r9, lsr #16
    6914:	eb0c 0a06 	add.w	r10, r12, r6
    6918:	ea4f 4618 	mov.w	r6, r8, lsr #16
    691c:	fb01 6809 	mla	r8, r1, r9, r6
    6920:	fa1f fc8a 	uxth.w	r12, r10
    6924:	eb08 481a 	add.w	r8, r8, r10, lsr #16
    6928:	ea4c 4a08 	orr.w	r10, r12, r8, lsl #16
    692c:	45be      	cmp	lr, r7
    692e:	ea4f 4618 	mov.w	r6, r8, lsr #16
    6932:	f845 ab04 	str.w	r10, [r5], #4
    6936:	d8e1      	bhi.n	68fc <__multiply+0x7a>
    6938:	602e      	str	r6, [r5, #0]
    693a:	f832 1c02 	ldrh.w	r1, [r2, #-2]
    693e:	b311      	cbz	r1, 6986 <__multiply+0x104>
    6940:	f853 6c04 	ldr.w	r6, [r3, #-4]
    6944:	9f02      	ldr	r7, [sp, #8]
    6946:	461d      	mov	r5, r3
    6948:	f04f 0900 	mov.w	r9, #0
    694c:	f835 ac02 	ldrh.w	r10, [r5, #-2]
    6950:	f8b7 b000 	ldrh.w	r11, [r7]
    6954:	b2b6      	uxth	r6, r6
    6956:	fb01 ac0b 	mla	r12, r1, r11, r10
    695a:	44e1      	add	r9, r12
    695c:	ea46 4609 	orr.w	r6, r6, r9, lsl #16
    6960:	f845 6c04 	str.w	r6, [r5, #-4]
    6964:	46a8      	mov	r8, r5
    6966:	f857 6b04 	ldr.w	r6, [r7], #4
    696a:	f8b8 a000 	ldrh.w	r10, [r8]
    696e:	0c36      	lsrs	r6, r6, #16
    6970:	fb01 a606 	mla	r6, r1, r6, r10
    6974:	3504      	adds	r5, #4
    6976:	eb06 4619 	add.w	r6, r6, r9, lsr #16
    697a:	4577      	cmp	r7, lr
    697c:	ea4f 4916 	mov.w	r9, r6, lsr #16
    6980:	d3e4      	bcc.n	694c <__multiply+0xca>
    6982:	f8c8 6000 	str.w	r6, [r8]
    6986:	3304      	adds	r3, #4
    6988:	e7ae      	b.n	68e8 <__multiply+0x66>
    698a:	9b01      	ldr	r3, [sp, #4]
    698c:	2c00      	cmp	r4, #0
    698e:	dc03      	bgt.n	6998 <__multiply+0x116>
    6990:	6104      	str	r4, [r0, #16]
    6992:	b005      	add	sp, #20
    6994:	e8bd 8ff0 	ldmia.w	sp!, {r4, r5, r6, r7, r8, r9, r10, r11, pc}
    6998:	f853 2d04 	ldr.w	r2, [r3, #-4]!
    699c:	2a00      	cmp	r2, #0
    699e:	d1f7      	bne.n	6990 <__multiply+0x10e>
    69a0:	3c01      	subs	r4, #1
    69a2:	e7f3      	b.n	698c <__multiply+0x10a>

000069a4 <__pow5mult>:
    69a4:	f012 0303 	ands.w	r3, r2, #3
    69a8:	e92d 41f0 	stmdb	sp!, {r4, r5, r6, r7, r8, lr}
    69ac:	4605      	mov	r5, r0
    69ae:	460e      	mov	r6, r1
    69b0:	4617      	mov	r7, r2
    69b2:	d007      	beq.n	69c4 <__pow5mult+0x20>
    69b4:	4a23      	ldr	r2, [pc, #140]	; (6a44 <__pow5mult+0xa0>)
    69b6:	1e5e      	subs	r6, r3, #1
    69b8:	f852 2026 	ldr.w	r2, [r2, r6, lsl #2]
    69bc:	2300      	movs	r3, #0
    69be:	f7ff fe8d 	bl	66dc <__multadd>
    69c2:	4606      	mov	r6, r0
    69c4:	10bf      	asrs	r7, r7, #2
    69c6:	d039      	beq.n	6a3c <__pow5mult+0x98>
    69c8:	6a6c      	ldr	r4, [r5, #36]	; 0x24
    69ca:	b93c      	cbnz	r4, 69dc <__pow5mult+0x38>
    69cc:	2010      	movs	r0, #16
    69ce:	f7fd f81b 	bl	3a08 <malloc>
    69d2:	6268      	str	r0, [r5, #36]	; 0x24
    69d4:	6044      	str	r4, [r0, #4]
    69d6:	6084      	str	r4, [r0, #8]
    69d8:	6004      	str	r4, [r0, #0]
    69da:	60c4      	str	r4, [r0, #12]
    69dc:	f8d5 8024 	ldr.w	r8, [r5, #36]	; 0x24
    69e0:	f8d8 4008 	ldr.w	r4, [r8, #8]
    69e4:	b99c      	cbnz	r4, 6a0e <__pow5mult+0x6a>
    69e6:	4628      	mov	r0, r5
    69e8:	f240 2171 	movw	r1, #625	; 0x271
    69ec:	f7ff ff40 	bl	6870 <__i2b>
    69f0:	4604      	mov	r4, r0
    69f2:	f8c8 0008 	str.w	r0, [r8, #8]
    69f6:	2000      	movs	r0, #0
    69f8:	6020      	str	r0, [r4, #0]
    69fa:	e008      	b.n	6a0e <__pow5mult+0x6a>
    69fc:	107f      	asrs	r7, r7, #1
    69fe:	d01d      	beq.n	6a3c <__pow5mult+0x98>
    6a00:	f8d4 8000 	ldr.w	r8, [r4]
    6a04:	4640      	mov	r0, r8
    6a06:	f1b8 0f00 	cmp.w	r8, #0
    6a0a:	d00e      	beq.n	6a2a <__pow5mult+0x86>
    6a0c:	4604      	mov	r4, r0
    6a0e:	07f8      	lsls	r0, r7, #31
    6a10:	d5f4      	bpl.n	69fc <__pow5mult+0x58>
    6a12:	4631      	mov	r1, r6
    6a14:	4622      	mov	r2, r4
    6a16:	4628      	mov	r0, r5
    6a18:	f7ff ff33 	bl	6882 <__multiply>
    6a1c:	4631      	mov	r1, r6
    6a1e:	4680      	mov	r8, r0
    6a20:	4628      	mov	r0, r5
    6a22:	f7ff fe44 	bl	66ae <_Bfree>
    6a26:	4646      	mov	r6, r8
    6a28:	e7e8      	b.n	69fc <__pow5mult+0x58>
    6a2a:	4628      	mov	r0, r5
    6a2c:	4621      	mov	r1, r4
    6a2e:	4622      	mov	r2, r4
    6a30:	f7ff ff27 	bl	6882 <__multiply>
    6a34:	6020      	str	r0, [r4, #0]
    6a36:	f8c0 8000 	str.w	r8, [r0]
    6a3a:	e7e7      	b.n	6a0c <__pow5mult+0x68>
    6a3c:	4630      	mov	r0, r6
    6a3e:	e8bd 81f0 	ldmia.w	sp!, {r4, r5, r6, r7, r8, pc}
    6a42:	bf00      	nop
    6a44:	00008cf8 	.word	0x00008cf8

00006a48 <__lshift>:
    6a48:	e92d 47f0 	stmdb	sp!, {r4, r5, r6, r7, r8, r9, r10, lr}
    6a4c:	460c      	mov	r4, r1
    6a4e:	6923      	ldr	r3, [r4, #16]
    6a50:	ea4f 1862 	mov.w	r8, r2, asr #5
    6a54:	eb08 0a03 	add.w	r10, r8, r3
    6a58:	6849      	ldr	r1, [r1, #4]
    6a5a:	68a5      	ldr	r5, [r4, #8]
    6a5c:	4681      	mov	r9, r0
    6a5e:	4617      	mov	r7, r2
    6a60:	f10a 0601 	add.w	r6, r10, #1
    6a64:	42ae      	cmp	r6, r5
    6a66:	dd02      	ble.n	6a6e <__lshift+0x26>
    6a68:	3101      	adds	r1, #1
    6a6a:	006d      	lsls	r5, r5, #1
    6a6c:	e7fa      	b.n	6a64 <__lshift+0x1c>
    6a6e:	4648      	mov	r0, r9
    6a70:	f7ff fde8 	bl	6644 <_Balloc>
    6a74:	2200      	movs	r2, #0
    6a76:	4605      	mov	r5, r0
    6a78:	f100 0014 	add.w	r0, r0, #20
    6a7c:	4542      	cmp	r2, r8
    6a7e:	da04      	bge.n	6a8a <__lshift+0x42>
    6a80:	2100      	movs	r1, #0
    6a82:	f840 1022 	str.w	r1, [r0, r2, lsl #2]
    6a86:	3201      	adds	r2, #1
    6a88:	e7f8      	b.n	6a7c <__lshift+0x34>
    6a8a:	ea28 70e8 	bic.w	r0, r8, r8, asr #31
    6a8e:	6922      	ldr	r2, [r4, #16]
    6a90:	eb05 0380 	add.w	r3, r5, r0, lsl #2
    6a94:	3314      	adds	r3, #20
    6a96:	eb04 0082 	add.w	r0, r4, r2, lsl #2
    6a9a:	f017 071f 	ands.w	r7, r7, #31
    6a9e:	f104 0114 	add.w	r1, r4, #20
    6aa2:	f100 0e14 	add.w	lr, r0, #20
    6aa6:	d014      	beq.n	6ad2 <__lshift+0x8a>
    6aa8:	4618      	mov	r0, r3
    6aaa:	f1c7 0c20 	rsb	r12, r7, #32
    6aae:	2300      	movs	r3, #0
    6ab0:	680a      	ldr	r2, [r1, #0]
    6ab2:	fa02 f207 	lsl.w	r2, r2, r7
    6ab6:	4313      	orrs	r3, r2
    6ab8:	f840 3b04 	str.w	r3, [r0], #4
    6abc:	f851 3b04 	ldr.w	r3, [r1], #4
    6ac0:	4571      	cmp	r1, lr
    6ac2:	fa23 f30c 	lsr.w	r3, r3, r12
    6ac6:	d3f3      	bcc.n	6ab0 <__lshift+0x68>
    6ac8:	6003      	str	r3, [r0, #0]
    6aca:	b143      	cbz	r3, 6ade <__lshift+0x96>
    6acc:	f10a 0602 	add.w	r6, r10, #2
    6ad0:	e005      	b.n	6ade <__lshift+0x96>
    6ad2:	f851 2b04 	ldr.w	r2, [r1], #4
    6ad6:	458e      	cmp	lr, r1
    6ad8:	f843 2b04 	str.w	r2, [r3], #4
    6adc:	d8f9      	bhi.n	6ad2 <__lshift+0x8a>
    6ade:	3e01      	subs	r6, #1
    6ae0:	4648      	mov	r0, r9
    6ae2:	612e      	str	r6, [r5, #16]
    6ae4:	4621      	mov	r1, r4
    6ae6:	f7ff fde2 	bl	66ae <_Bfree>
    6aea:	4628      	mov	r0, r5
    6aec:	e8bd 87f0 	ldmia.w	sp!, {r4, r5, r6, r7, r8, r9, r10, pc}

00006af0 <__mcmp>:
    6af0:	4603      	mov	r3, r0
    6af2:	690a      	ldr	r2, [r1, #16]
    6af4:	6900      	ldr	r0, [r0, #16]
    6af6:	b530      	push	{r4, r5, lr}
    6af8:	1a80      	subs	r0, r0, r2
    6afa:	d115      	bne.n	6b28 <__mcmp+0x38>
    6afc:	1d15      	adds	r5, r2, #4
    6afe:	00aa      	lsls	r2, r5, #2
    6b00:	f103 0414 	add.w	r4, r3, #20
    6b04:	1889      	adds	r1, r1, r2
    6b06:	189b      	adds	r3, r3, r2
    6b08:	3304      	adds	r3, #4
    6b0a:	1d0a      	adds	r2, r1, #4
    6b0c:	f853 5d04 	ldr.w	r5, [r3, #-4]!
    6b10:	f852 1d04 	ldr.w	r1, [r2, #-4]!
    6b14:	428d      	cmp	r5, r1
    6b16:	d003      	beq.n	6b20 <__mcmp+0x30>
    6b18:	d205      	bcs.n	6b26 <__mcmp+0x36>
    6b1a:	f04f 30ff 	mov.w	r0, #4294967295
    6b1e:	bd30      	pop	{r4, r5, pc}
    6b20:	429c      	cmp	r4, r3
    6b22:	d3f3      	bcc.n	6b0c <__mcmp+0x1c>
    6b24:	bd30      	pop	{r4, r5, pc}
    6b26:	2001      	movs	r0, #1
    6b28:	bd30      	pop	{r4, r5, pc}

00006b2a <__mdiff>:
    6b2a:	e92d 47f0 	stmdb	sp!, {r4, r5, r6, r7, r8, r9, r10, lr}
    6b2e:	4606      	mov	r6, r0
    6b30:	460c      	mov	r4, r1
    6b32:	4608      	mov	r0, r1
    6b34:	4611      	mov	r1, r2
    6b36:	4615      	mov	r5, r2
    6b38:	f7ff ffda 	bl	6af0 <__mcmp>
    6b3c:	1e07      	subs	r7, r0, #0
    6b3e:	d108      	bne.n	6b52 <__mdiff+0x28>
    6b40:	4639      	mov	r1, r7
    6b42:	4630      	mov	r0, r6
    6b44:	f7ff fd7e 	bl	6644 <_Balloc>
    6b48:	2101      	movs	r1, #1
    6b4a:	6101      	str	r1, [r0, #16]
    6b4c:	6147      	str	r7, [r0, #20]
    6b4e:	e8bd 87f0 	ldmia.w	sp!, {r4, r5, r6, r7, r8, r9, r10, pc}
    6b52:	db01      	blt.n	6b58 <__mdiff+0x2e>
    6b54:	2700      	movs	r7, #0
    6b56:	e003      	b.n	6b60 <__mdiff+0x36>
    6b58:	4623      	mov	r3, r4
    6b5a:	2701      	movs	r7, #1
    6b5c:	462c      	mov	r4, r5
    6b5e:	461d      	mov	r5, r3
    6b60:	6861      	ldr	r1, [r4, #4]
    6b62:	4630      	mov	r0, r6
    6b64:	f7ff fd6e 	bl	6644 <_Balloc>
    6b68:	692a      	ldr	r2, [r5, #16]
    6b6a:	6923      	ldr	r3, [r4, #16]
    6b6c:	eb05 0182 	add.w	r1, r5, r2, lsl #2
    6b70:	eb04 0c83 	add.w	r12, r4, r3, lsl #2
    6b74:	60c7      	str	r7, [r0, #12]
    6b76:	f10c 0c14 	add.w	r12, r12, #20
    6b7a:	f101 0814 	add.w	r8, r1, #20
    6b7e:	3414      	adds	r4, #20
    6b80:	3514      	adds	r5, #20
    6b82:	f100 0714 	add.w	r7, r0, #20
    6b86:	2200      	movs	r2, #0
    6b88:	f854 6b04 	ldr.w	r6, [r4], #4
    6b8c:	f855 1b04 	ldr.w	r1, [r5], #4
    6b90:	fa1f f986 	uxth.w	r9, r6
    6b94:	444a      	add	r2, r9
    6b96:	fa1f fa81 	uxth.w	r10, r1
    6b9a:	0c09      	lsrs	r1, r1, #16
    6b9c:	ebca 0e02 	rsb	lr, r10, r2
    6ba0:	ebc1 4616 	rsb	r6, r1, r6, lsr #16
    6ba4:	eb06 412e 	add.w	r1, r6, lr, asr #16
    6ba8:	fa1f f98e 	uxth.w	r9, lr
    6bac:	140a      	asrs	r2, r1, #16
    6bae:	ea49 4101 	orr.w	r1, r9, r1, lsl #16
    6bb2:	f847 1b04 	str.w	r1, [r7], #4
    6bb6:	45a8      	cmp	r8, r5
    6bb8:	4626      	mov	r6, r4
    6bba:	4639      	mov	r1, r7
    6bbc:	d8e4      	bhi.n	6b88 <__mdiff+0x5e>
    6bbe:	4566      	cmp	r6, r12
    6bc0:	d20d      	bcs.n	6bde <__mdiff+0xb4>
    6bc2:	f856 4b04 	ldr.w	r4, [r6], #4
    6bc6:	b2a5      	uxth	r5, r4
    6bc8:	18ad      	adds	r5, r5, r2
    6bca:	0c22      	lsrs	r2, r4, #16
    6bcc:	eb02 4425 	add.w	r4, r2, r5, asr #16
    6bd0:	b2ad      	uxth	r5, r5
    6bd2:	1422      	asrs	r2, r4, #16
    6bd4:	ea45 4404 	orr.w	r4, r5, r4, lsl #16
    6bd8:	f841 4b04 	str.w	r4, [r1], #4
    6bdc:	e7ef      	b.n	6bbe <__mdiff+0x94>
    6bde:	f851 2d04 	ldr.w	r2, [r1, #-4]!
    6be2:	b90a      	cbnz	r2, 6be8 <__mdiff+0xbe>
    6be4:	3b01      	subs	r3, #1
    6be6:	e7fa      	b.n	6bde <__mdiff+0xb4>
    6be8:	6103      	str	r3, [r0, #16]
    6bea:	e8bd 87f0 	ldmia.w	sp!, {r4, r5, r6, r7, r8, r9, r10, pc}
	...

00006bf0 <__ulp>:
    6bf0:	4b0e      	ldr	r3, [pc, #56]	; (6c2c <__ulp+0x3c>)
    6bf2:	400b      	ands	r3, r1
    6bf4:	f1a3 7050 	sub.w	r0, r3, #54525952	; 0x3400000
    6bf8:	2800      	cmp	r0, #0
    6bfa:	dd01      	ble.n	6c00 <__ulp+0x10>
    6bfc:	4601      	mov	r1, r0
    6bfe:	e008      	b.n	6c12 <__ulp+0x22>
    6c00:	4241      	negs	r1, r0
    6c02:	150b      	asrs	r3, r1, #20
    6c04:	2100      	movs	r1, #0
    6c06:	2b13      	cmp	r3, #19
    6c08:	dc05      	bgt.n	6c16 <__ulp+0x26>
    6c0a:	f44f 2000 	mov.w	r0, #524288	; 0x80000
    6c0e:	fa40 f103 	asr.w	r1, r0, r3
    6c12:	2000      	movs	r0, #0
    6c14:	4770      	bx	lr
    6c16:	2b32      	cmp	r3, #50	; 0x32
    6c18:	f04f 0201 	mov.w	r2, #1
    6c1c:	bfda      	itte	le
    6c1e:	f1c3 0333 	rsble	r3, r3, #51	; 0x33
    6c22:	fa02 f303 	lslle.w	r3, r2, r3
    6c26:	4613      	movgt	r3, r2
    6c28:	4618      	mov	r0, r3
    6c2a:	4770      	bx	lr
    6c2c:	7ff00000 	.word	0x7ff00000

00006c30 <__b2d>:
    6c30:	e92d 43f8 	stmdb	sp!, {r3, r4, r5, r6, r7, r8, r9, lr}
    6c34:	6903      	ldr	r3, [r0, #16]
    6c36:	4689      	mov	r9, r1
    6c38:	1d19      	adds	r1, r3, #4
    6c3a:	eb00 0881 	add.w	r8, r0, r1, lsl #2
    6c3e:	4646      	mov	r6, r8
    6c40:	f856 4b04 	ldr.w	r4, [r6], #4
    6c44:	f100 0714 	add.w	r7, r0, #20
    6c48:	4620      	mov	r0, r4
    6c4a:	f7ff fdc5 	bl	67d8 <__hi0bits>
    6c4e:	f1c0 0220 	rsb	r2, r0, #32
    6c52:	280a      	cmp	r0, #10
    6c54:	4645      	mov	r5, r8
    6c56:	f8c9 2000 	str.w	r2, [r9]
    6c5a:	dc14      	bgt.n	6c86 <__b2d+0x56>
    6c5c:	f1c0 010b 	rsb	r1, r0, #11
    6c60:	fa24 f501 	lsr.w	r5, r4, r1
    6c64:	45b8      	cmp	r8, r7
    6c66:	f045 557f 	orr.w	r5, r5, #1069547520	; 0x3fc00000
    6c6a:	f445 1340 	orr.w	r3, r5, #3145728	; 0x300000
    6c6e:	bf8c      	ite	hi
    6c70:	f856 5c08 	ldrhi.w	r5, [r6, #-8]
    6c74:	2500      	movls	r5, #0
    6c76:	3015      	adds	r0, #21
    6c78:	fa25 f201 	lsr.w	r2, r5, r1
    6c7c:	fa04 f400 	lsl.w	r4, r4, r0
    6c80:	ea42 0004 	orr.w	r0, r2, r4
    6c84:	e025      	b.n	6cd2 <__b2d+0xa2>
    6c86:	45b8      	cmp	r8, r7
    6c88:	d903      	bls.n	6c92 <__b2d+0x62>
    6c8a:	3d04      	subs	r5, #4
    6c8c:	f856 1c08 	ldr.w	r1, [r6, #-8]
    6c90:	e000      	b.n	6c94 <__b2d+0x64>
    6c92:	2100      	movs	r1, #0
    6c94:	f1b0 060b 	subs.w	r6, r0, #11
    6c98:	d016      	beq.n	6cc8 <__b2d+0x98>
    6c9a:	fa04 f406 	lsl.w	r4, r4, r6
    6c9e:	f1c0 022b 	rsb	r2, r0, #43	; 0x2b
    6ca2:	fa21 fc02 	lsr.w	r12, r1, r2
    6ca6:	f044 547f 	orr.w	r4, r4, #1069547520	; 0x3fc00000
    6caa:	f444 1440 	orr.w	r4, r4, #3145728	; 0x300000
    6cae:	42bd      	cmp	r5, r7
    6cb0:	ea44 030c 	orr.w	r3, r4, r12
    6cb4:	bf8c      	ite	hi
    6cb6:	f855 4c04 	ldrhi.w	r4, [r5, #-4]
    6cba:	2400      	movls	r4, #0
    6cbc:	fa24 f002 	lsr.w	r0, r4, r2
    6cc0:	fa01 f106 	lsl.w	r1, r1, r6
    6cc4:	4308      	orrs	r0, r1
    6cc6:	e004      	b.n	6cd2 <__b2d+0xa2>
    6cc8:	f044 547f 	orr.w	r4, r4, #1069547520	; 0x3fc00000
    6ccc:	f444 1340 	orr.w	r3, r4, #3145728	; 0x300000
    6cd0:	4608      	mov	r0, r1
    6cd2:	4619      	mov	r1, r3
    6cd4:	e8bd 83f8 	ldmia.w	sp!, {r3, r4, r5, r6, r7, r8, r9, pc}

00006cd8 <__d2b>:
    6cd8:	e92d 43f7 	stmdb	sp!, {r0, r1, r2, r4, r5, r6, r7, r8, r9, lr}
    6cdc:	2101      	movs	r1, #1
    6cde:	461d      	mov	r5, r3
    6ce0:	f8dd 9028 	ldr.w	r9, [sp, #40]	; 0x28
    6ce4:	f8dd 802c 	ldr.w	r8, [sp, #44]	; 0x2c
    6ce8:	4614      	mov	r4, r2
    6cea:	f7ff fcab 	bl	6644 <_Balloc>
    6cee:	f3c5 570a 	ubfx	r7, r5, #20, #11
    6cf2:	f025 437f 	bic.w	r3, r5, #4278190080	; 0xff000000
    6cf6:	4606      	mov	r6, r0
    6cf8:	f423 0070 	bic.w	r0, r3, #15728640	; 0xf00000
    6cfc:	b10f      	cbz	r7, 6d02 <__d2b+0x2a>
    6cfe:	f440 1080 	orr.w	r0, r0, #1048576	; 0x100000
    6d02:	9001      	str	r0, [sp, #4]
    6d04:	b1dc      	cbz	r4, 6d3e <__d2b+0x66>
    6d06:	aa02      	add	r2, sp, #8
    6d08:	4668      	mov	r0, sp
    6d0a:	f842 4d08 	str.w	r4, [r2, #-8]!
    6d0e:	f7ff fd82 	bl	6816 <__lo0bits>
    6d12:	9c00      	ldr	r4, [sp, #0]
    6d14:	b150      	cbz	r0, 6d2c <__d2b+0x54>
    6d16:	9a01      	ldr	r2, [sp, #4]
    6d18:	f1c0 0320 	rsb	r3, r0, #32
    6d1c:	fa02 f103 	lsl.w	r1, r2, r3
    6d20:	fa22 f200 	lsr.w	r2, r2, r0
    6d24:	430c      	orrs	r4, r1
    6d26:	6174      	str	r4, [r6, #20]
    6d28:	9201      	str	r2, [sp, #4]
    6d2a:	e000      	b.n	6d2e <__d2b+0x56>
    6d2c:	6174      	str	r4, [r6, #20]
    6d2e:	9a01      	ldr	r2, [sp, #4]
    6d30:	2a00      	cmp	r2, #0
    6d32:	bf0c      	ite	eq
    6d34:	2401      	moveq	r4, #1
    6d36:	2402      	movne	r4, #2
    6d38:	61b2      	str	r2, [r6, #24]
    6d3a:	6134      	str	r4, [r6, #16]
    6d3c:	e007      	b.n	6d4e <__d2b+0x76>
    6d3e:	a801      	add	r0, sp, #4
    6d40:	f7ff fd69 	bl	6816 <__lo0bits>
    6d44:	9901      	ldr	r1, [sp, #4]
    6d46:	2401      	movs	r4, #1
    6d48:	6171      	str	r1, [r6, #20]
    6d4a:	6134      	str	r4, [r6, #16]
    6d4c:	3020      	adds	r0, #32
    6d4e:	b13f      	cbz	r7, 6d60 <__d2b+0x88>
    6d50:	f2a7 4733 	subw	r7, r7, #1075	; 0x433
    6d54:	183f      	adds	r7, r7, r0
    6d56:	f8c9 7000 	str.w	r7, [r9]
    6d5a:	f1c0 0135 	rsb	r1, r0, #53	; 0x35
    6d5e:	e00a      	b.n	6d76 <__d2b+0x9e>
    6d60:	eb06 0384 	add.w	r3, r6, r4, lsl #2
    6d64:	f2a0 4032 	subw	r0, r0, #1074	; 0x432
    6d68:	f8c9 0000 	str.w	r0, [r9]
    6d6c:	6918      	ldr	r0, [r3, #16]
    6d6e:	f7ff fd33 	bl	67d8 <__hi0bits>
    6d72:	0164      	lsls	r4, r4, #5
    6d74:	1a21      	subs	r1, r4, r0
    6d76:	f8c8 1000 	str.w	r1, [r8]
    6d7a:	4630      	mov	r0, r6
    6d7c:	e8bd 83fe 	ldmia.w	sp!, {r1, r2, r3, r4, r5, r6, r7, r8, r9, pc}

00006d80 <__ratio>:
    6d80:	e92d 41f3 	stmdb	sp!, {r0, r1, r4, r5, r6, r7, r8, lr}
    6d84:	460e      	mov	r6, r1
    6d86:	4669      	mov	r1, sp
    6d88:	4680      	mov	r8, r0
    6d8a:	f7ff ff51 	bl	6c30 <__b2d>
    6d8e:	460d      	mov	r5, r1
    6d90:	4604      	mov	r4, r0
    6d92:	a901      	add	r1, sp, #4
    6d94:	4630      	mov	r0, r6
    6d96:	f7ff ff4b 	bl	6c30 <__b2d>
    6d9a:	9f00      	ldr	r7, [sp, #0]
    6d9c:	460b      	mov	r3, r1
    6d9e:	9901      	ldr	r1, [sp, #4]
    6da0:	4602      	mov	r2, r0
    6da2:	1a7f      	subs	r7, r7, r1
    6da4:	f8d8 0010 	ldr.w	r0, [r8, #16]
    6da8:	6931      	ldr	r1, [r6, #16]
    6daa:	1a40      	subs	r0, r0, r1
    6dac:	eb07 1140 	add.w	r1, r7, r0, lsl #5
    6db0:	2900      	cmp	r1, #0
    6db2:	bfd6      	itet	le
    6db4:	eba3 5101 	suble.w	r1, r3, r1, lsl #20
    6db8:	eb05 5501 	addgt.w	r5, r5, r1, lsl #20
    6dbc:	460b      	movle	r3, r1
    6dbe:	4620      	mov	r0, r4
    6dc0:	4629      	mov	r1, r5
    6dc2:	f7fb fdad 	bl	2920 <__aeabi_ddiv>
    6dc6:	e8bd 81fc 	ldmia.w	sp!, {r2, r3, r4, r5, r6, r7, r8, pc}

00006dca <__copybits>:
    6dca:	3901      	subs	r1, #1
    6dcc:	114b      	asrs	r3, r1, #5
    6dce:	b510      	push	{r4, lr}
    6dd0:	1c59      	adds	r1, r3, #1
    6dd2:	6913      	ldr	r3, [r2, #16]
    6dd4:	eb00 0181 	add.w	r1, r0, r1, lsl #2
    6dd8:	eb02 0383 	add.w	r3, r2, r3, lsl #2
    6ddc:	3314      	adds	r3, #20
    6dde:	3214      	adds	r2, #20
    6de0:	429a      	cmp	r2, r3
    6de2:	d204      	bcs.n	6dee <__copybits+0x24>
    6de4:	f852 4b04 	ldr.w	r4, [r2], #4
    6de8:	f840 4b04 	str.w	r4, [r0], #4
    6dec:	e7f8      	b.n	6de0 <__copybits+0x16>
    6dee:	4288      	cmp	r0, r1
    6df0:	d203      	bcs.n	6dfa <__copybits+0x30>
    6df2:	2200      	movs	r2, #0
    6df4:	f840 2b04 	str.w	r2, [r0], #4
    6df8:	e7f9      	b.n	6dee <__copybits+0x24>
    6dfa:	bd10      	pop	{r4, pc}

00006dfc <__any_on>:
    6dfc:	6902      	ldr	r2, [r0, #16]
    6dfe:	114b      	asrs	r3, r1, #5
    6e00:	4293      	cmp	r3, r2
    6e02:	b530      	push	{r4, r5, lr}
    6e04:	f100 0414 	add.w	r4, r0, #20
    6e08:	dc0d      	bgt.n	6e26 <__any_on+0x2a>
    6e0a:	da0d      	bge.n	6e28 <__any_on+0x2c>
    6e0c:	f011 011f 	ands.w	r1, r1, #31
    6e10:	d00a      	beq.n	6e28 <__any_on+0x2c>
    6e12:	eb00 0583 	add.w	r5, r0, r3, lsl #2
    6e16:	696a      	ldr	r2, [r5, #20]
    6e18:	fa22 f501 	lsr.w	r5, r2, r1
    6e1c:	fa05 f101 	lsl.w	r1, r5, r1
    6e20:	4291      	cmp	r1, r2
    6e22:	d10f      	bne.n	6e44 <__any_on+0x48>
    6e24:	e000      	b.n	6e28 <__any_on+0x2c>
    6e26:	4613      	mov	r3, r2
    6e28:	eb00 0083 	add.w	r0, r0, r3, lsl #2
    6e2c:	3014      	adds	r0, #20
    6e2e:	42a0      	cmp	r0, r4
    6e30:	4602      	mov	r2, r0
    6e32:	d905      	bls.n	6e40 <__any_on+0x44>
    6e34:	f852 1c04 	ldr.w	r1, [r2, #-4]
    6e38:	3804      	subs	r0, #4
    6e3a:	2900      	cmp	r1, #0
    6e3c:	d0f7      	beq.n	6e2e <__any_on+0x32>
    6e3e:	e001      	b.n	6e44 <__any_on+0x48>
    6e40:	2000      	movs	r0, #0
    6e42:	bd30      	pop	{r4, r5, pc}
    6e44:	2001      	movs	r0, #1
    6e46:	bd30      	pop	{r4, r5, pc}

00006e48 <_malloc_usable_size_r>:
    6e48:	f851 0c04 	ldr.w	r0, [r1, #-4]
    6e4c:	2800      	cmp	r0, #0
    6e4e:	da02      	bge.n	6e56 <_malloc_usable_size_r+0xe>
    6e50:	3904      	subs	r1, #4
    6e52:	580b      	ldr	r3, [r1, r0]
    6e54:	18c0      	adds	r0, r0, r3
    6e56:	3804      	subs	r0, #4
    6e58:	4770      	bx	lr
	...

00006e5c <_read_r>:
    6e5c:	b538      	push	{r3, r4, r5, lr}
    6e5e:	4c07      	ldr	r4, [pc, #28]	; (6e7c <_read_r+0x20>)
    6e60:	4605      	mov	r5, r0
    6e62:	2000      	movs	r0, #0
    6e64:	6020      	str	r0, [r4, #0]
    6e66:	4608      	mov	r0, r1
    6e68:	4611      	mov	r1, r2
    6e6a:	461a      	mov	r2, r3
    6e6c:	f7f9 fde0 	bl	a30 <_read>
    6e70:	1c43      	adds	r3, r0, #1
    6e72:	d102      	bne.n	6e7a <_read_r+0x1e>
    6e74:	6823      	ldr	r3, [r4, #0]
    6e76:	b103      	cbz	r3, 6e7a <_read_r+0x1e>
    6e78:	602b      	str	r3, [r5, #0]
    6e7a:	bd38      	pop	{r3, r4, r5, pc}
    6e7c:	1000039c 	.word	0x1000039c

00006e80 <__fpclassifyd>:
    6e80:	460b      	mov	r3, r1
    6e82:	b111      	cbz	r1, 6e8a <__fpclassifyd+0xa>
    6e84:	f1b1 4f00 	cmp.w	r1, #2147483648	; 0x80000000
    6e88:	d100      	bne.n	6e8c <__fpclassifyd+0xc>
    6e8a:	b1e0      	cbz	r0, 6ec6 <__fpclassifyd+0x46>
    6e8c:	4a12      	ldr	r2, [pc, #72]	; (6ed8 <__fpclassifyd+0x58>)
    6e8e:	f5a3 1180 	sub.w	r1, r3, #1048576	; 0x100000
    6e92:	4291      	cmp	r1, r2
    6e94:	d919      	bls.n	6eca <__fpclassifyd+0x4a>
    6e96:	f103 41ff 	add.w	r1, r3, #2139095040	; 0x7f800000
    6e9a:	f501 01e0 	add.w	r1, r1, #7340032	; 0x700000
    6e9e:	4291      	cmp	r1, r2
    6ea0:	d913      	bls.n	6eca <__fpclassifyd+0x4a>
    6ea2:	4a0e      	ldr	r2, [pc, #56]	; (6edc <__fpclassifyd+0x5c>)
    6ea4:	4293      	cmp	r3, r2
    6ea6:	d912      	bls.n	6ece <__fpclassifyd+0x4e>
    6ea8:	f103 4100 	add.w	r1, r3, #2147483648	; 0x80000000
    6eac:	4291      	cmp	r1, r2
    6eae:	d90e      	bls.n	6ece <__fpclassifyd+0x4e>
    6eb0:	4a0b      	ldr	r2, [pc, #44]	; (6ee0 <__fpclassifyd+0x60>)
    6eb2:	4293      	cmp	r3, r2
    6eb4:	d002      	beq.n	6ebc <__fpclassifyd+0x3c>
    6eb6:	f513 1f80 	cmn.w	r3, #1048576	; 0x100000
    6eba:	d10a      	bne.n	6ed2 <__fpclassifyd+0x52>
    6ebc:	f1d0 0001 	rsbs	r0, r0, #1
    6ec0:	bf38      	it	cc
    6ec2:	2000      	movcc	r0, #0
    6ec4:	4770      	bx	lr
    6ec6:	2002      	movs	r0, #2
    6ec8:	4770      	bx	lr
    6eca:	2004      	movs	r0, #4
    6ecc:	4770      	bx	lr
    6ece:	2003      	movs	r0, #3
    6ed0:	4770      	bx	lr
    6ed2:	2000      	movs	r0, #0
    6ed4:	4770      	bx	lr
    6ed6:	bf00      	nop
    6ed8:	7fdfffff 	.word	0x7fdfffff
    6edc:	000fffff 	.word	0x000fffff
    6ee0:	7ff00000 	.word	0x7ff00000

00006ee4 <__sccl>:
    6ee4:	b5f0      	push	{r4, r5, r6, r7, lr}
    6ee6:	780b      	ldrb	r3, [r1, #0]
    6ee8:	2b5e      	cmp	r3, #94	; 0x5e
    6eea:	d002      	beq.n	6ef2 <__sccl+0xe>
    6eec:	3101      	adds	r1, #1
    6eee:	2400      	movs	r4, #0
    6ef0:	e002      	b.n	6ef8 <__sccl+0x14>
    6ef2:	784b      	ldrb	r3, [r1, #1]
    6ef4:	2401      	movs	r4, #1
    6ef6:	3102      	adds	r1, #2
    6ef8:	2200      	movs	r2, #0
    6efa:	5484      	strb	r4, [r0, r2]
    6efc:	3201      	adds	r2, #1
    6efe:	f5b2 7f80 	cmp.w	r2, #256	; 0x100
    6f02:	d1fa      	bne.n	6efa <__sccl+0x16>
    6f04:	b90b      	cbnz	r3, 6f0a <__sccl+0x26>
    6f06:	1e4a      	subs	r2, r1, #1
    6f08:	e01a      	b.n	6f40 <__sccl+0x5c>
    6f0a:	f1c4 0701 	rsb	r7, r4, #1
    6f0e:	b2fe      	uxtb	r6, r7
    6f10:	54c6      	strb	r6, [r0, r3]
    6f12:	460a      	mov	r2, r1
    6f14:	4611      	mov	r1, r2
    6f16:	f811 4b01 	ldrb.w	r4, [r1], #1
    6f1a:	2c2d      	cmp	r4, #45	; 0x2d
    6f1c:	d004      	beq.n	6f28 <__sccl+0x44>
    6f1e:	2c5d      	cmp	r4, #93	; 0x5d
    6f20:	d00d      	beq.n	6f3e <__sccl+0x5a>
    6f22:	b16c      	cbz	r4, 6f40 <__sccl+0x5c>
    6f24:	4623      	mov	r3, r4
    6f26:	e7f2      	b.n	6f0e <__sccl+0x2a>
    6f28:	7855      	ldrb	r5, [r2, #1]
    6f2a:	2d5d      	cmp	r5, #93	; 0x5d
    6f2c:	d0fa      	beq.n	6f24 <__sccl+0x40>
    6f2e:	429d      	cmp	r5, r3
    6f30:	dbf8      	blt.n	6f24 <__sccl+0x40>
    6f32:	3202      	adds	r2, #2
    6f34:	3301      	adds	r3, #1
    6f36:	42ab      	cmp	r3, r5
    6f38:	54c6      	strb	r6, [r0, r3]
    6f3a:	dbfb      	blt.n	6f34 <__sccl+0x50>
    6f3c:	e7ea      	b.n	6f14 <__sccl+0x30>
    6f3e:	460a      	mov	r2, r1
    6f40:	4610      	mov	r0, r2
    6f42:	bdf0      	pop	{r4, r5, r6, r7, pc}

00006f44 <nanf>:
    6f44:	4800      	ldr	r0, [pc, #0]	; (6f48 <nanf+0x4>)
    6f46:	4770      	bx	lr
    6f48:	7fc00000 	.word	0x7fc00000

00006f4c <match>:
    6f4c:	b530      	push	{r4, r5, lr}
    6f4e:	6805      	ldr	r5, [r0, #0]
    6f50:	f811 2b01 	ldrb.w	r2, [r1], #1
    6f54:	462c      	mov	r4, r5
    6f56:	1c6b      	adds	r3, r5, #1
    6f58:	b152      	cbz	r2, 6f70 <match+0x24>
    6f5a:	461d      	mov	r5, r3
    6f5c:	7863      	ldrb	r3, [r4, #1]
    6f5e:	2b40      	cmp	r3, #64	; 0x40
    6f60:	dd02      	ble.n	6f68 <match+0x1c>
    6f62:	2b5a      	cmp	r3, #90	; 0x5a
    6f64:	bfd8      	it	le
    6f66:	3320      	addle	r3, #32
    6f68:	4293      	cmp	r3, r2
    6f6a:	d0f1      	beq.n	6f50 <match+0x4>
    6f6c:	2000      	movs	r0, #0
    6f6e:	bd30      	pop	{r4, r5, pc}
    6f70:	6003      	str	r3, [r0, #0]
    6f72:	2001      	movs	r0, #1
    6f74:	bd30      	pop	{r4, r5, pc}
	...

00006f78 <_strtod_r>:
    6f78:	e92d 4ff0 	stmdb	sp!, {r4, r5, r6, r7, r8, r9, r10, r11, lr}
    6f7c:	b097      	sub	sp, #92	; 0x5c
    6f7e:	9002      	str	r0, [sp, #8]
    6f80:	4688      	mov	r8, r1
    6f82:	920f      	str	r2, [sp, #60]	; 0x3c
    6f84:	f04f 0a00 	mov.w	r10, #0
    6f88:	f04f 0b00 	mov.w	r11, #0
    6f8c:	9111      	str	r1, [sp, #68]	; 0x44
    6f8e:	9a11      	ldr	r2, [sp, #68]	; 0x44
    6f90:	7813      	ldrb	r3, [r2, #0]
    6f92:	2b0d      	cmp	r3, #13
    6f94:	d805      	bhi.n	6fa2 <_strtod_r+0x2a>
    6f96:	2b09      	cmp	r3, #9
    6f98:	d213      	bcs.n	6fc2 <_strtod_r+0x4a>
    6f9a:	2b00      	cmp	r3, #0
    6f9c:	f000 81af 	beq.w	72fe <_strtod_r+0x386>
    6fa0:	e012      	b.n	6fc8 <_strtod_r+0x50>
    6fa2:	2b2b      	cmp	r3, #43	; 0x2b
    6fa4:	d006      	beq.n	6fb4 <_strtod_r+0x3c>
    6fa6:	2b2d      	cmp	r3, #45	; 0x2d
    6fa8:	d002      	beq.n	6fb0 <_strtod_r+0x38>
    6faa:	2b20      	cmp	r3, #32
    6fac:	d10c      	bne.n	6fc8 <_strtod_r+0x50>
    6fae:	e008      	b.n	6fc2 <_strtod_r+0x4a>
    6fb0:	2301      	movs	r3, #1
    6fb2:	e000      	b.n	6fb6 <_strtod_r+0x3e>
    6fb4:	2300      	movs	r3, #0
    6fb6:	1c54      	adds	r4, r2, #1
    6fb8:	9411      	str	r4, [sp, #68]	; 0x44
    6fba:	7852      	ldrb	r2, [r2, #1]
    6fbc:	930b      	str	r3, [sp, #44]	; 0x2c
    6fbe:	b92a      	cbnz	r2, 6fcc <_strtod_r+0x54>
    6fc0:	e19d      	b.n	72fe <_strtod_r+0x386>
    6fc2:	1c51      	adds	r1, r2, #1
    6fc4:	9111      	str	r1, [sp, #68]	; 0x44
    6fc6:	e7e2      	b.n	6f8e <_strtod_r+0x16>
    6fc8:	2400      	movs	r4, #0
    6fca:	940b      	str	r4, [sp, #44]	; 0x2c
    6fcc:	9c11      	ldr	r4, [sp, #68]	; 0x44
    6fce:	7821      	ldrb	r1, [r4, #0]
    6fd0:	2930      	cmp	r1, #48	; 0x30
    6fd2:	d156      	bne.n	7082 <_strtod_r+0x10a>
    6fd4:	7863      	ldrb	r3, [r4, #1]
    6fd6:	2b58      	cmp	r3, #88	; 0x58
    6fd8:	d001      	beq.n	6fde <_strtod_r+0x66>
    6fda:	2b78      	cmp	r3, #120	; 0x78
    6fdc:	d145      	bne.n	706a <_strtod_r+0xf2>
    6fde:	990b      	ldr	r1, [sp, #44]	; 0x2c
    6fe0:	4e9f      	ldr	r6, [pc, #636]	; (7260 <_strtod_r+0x2e8>)
    6fe2:	af12      	add	r7, sp, #72	; 0x48
    6fe4:	9700      	str	r7, [sp, #0]
    6fe6:	9101      	str	r1, [sp, #4]
    6fe8:	9802      	ldr	r0, [sp, #8]
    6fea:	a911      	add	r1, sp, #68	; 0x44
    6fec:	4632      	mov	r2, r6
    6fee:	ab13      	add	r3, sp, #76	; 0x4c
    6ff0:	f000 feb8 	bl	7d64 <__gethex>
    6ff4:	f010 0707 	ands.w	r7, r0, #7
    6ff8:	4605      	mov	r5, r0
    6ffa:	f000 8525 	beq.w	7a48 <_strtod_r+0xad0>
    6ffe:	2f06      	cmp	r7, #6
    7000:	d103      	bne.n	700a <_strtod_r+0x92>
    7002:	1c61      	adds	r1, r4, #1
    7004:	9111      	str	r1, [sp, #68]	; 0x44
    7006:	f000 bd1f 	b.w	7a48 <_strtod_r+0xad0>
    700a:	9a12      	ldr	r2, [sp, #72]	; 0x48
    700c:	b13a      	cbz	r2, 701e <_strtod_r+0xa6>
    700e:	a814      	add	r0, sp, #80	; 0x50
    7010:	6831      	ldr	r1, [r6, #0]
    7012:	f7ff feda 	bl	6dca <__copybits>
    7016:	9802      	ldr	r0, [sp, #8]
    7018:	9912      	ldr	r1, [sp, #72]	; 0x48
    701a:	f7ff fb48 	bl	66ae <_Bfree>
    701e:	3f01      	subs	r7, #1
    7020:	9813      	ldr	r0, [sp, #76]	; 0x4c
    7022:	2f04      	cmp	r7, #4
    7024:	d81a      	bhi.n	705c <_strtod_r+0xe4>
    7026:	e8df f007 	tbb	[pc, r7]
    702a:	0308      	.short	0x0308
    702c:	1512      	.short	0x1512
    702e:	08          	.byte	0x08
    702f:	00          	.byte	0x00
    7030:	f8dd a050 	ldr.w	r10, [sp, #80]	; 0x50
    7034:	f8dd b054 	ldr.w	r11, [sp, #84]	; 0x54
    7038:	e010      	b.n	705c <_strtod_r+0xe4>
    703a:	9b15      	ldr	r3, [sp, #84]	; 0x54
    703c:	f200 4233 	addw	r2, r0, #1075	; 0x433
    7040:	f423 1480 	bic.w	r4, r3, #1048576	; 0x100000
    7044:	f8dd a050 	ldr.w	r10, [sp, #80]	; 0x50
    7048:	ea44 5b02 	orr.w	r11, r4, r2, lsl #20
    704c:	e006      	b.n	705c <_strtod_r+0xe4>
    704e:	f8df b214 	ldr.w	r11, [pc, #532]	; 7264 <_strtod_r+0x2ec>
    7052:	e003      	b.n	705c <_strtod_r+0xe4>
    7054:	f06f 4b00 	mvn.w	r11, #2147483648	; 0x80000000
    7058:	f04f 3aff 	mov.w	r10, #4294967295
    705c:	0729      	lsls	r1, r5, #28
    705e:	f140 84f3 	bpl.w	7a48 <_strtod_r+0xad0>
    7062:	f04b 4b00 	orr.w	r11, r11, #2147483648	; 0x80000000
    7066:	f000 bcef 	b.w	7a48 <_strtod_r+0xad0>
    706a:	9c11      	ldr	r4, [sp, #68]	; 0x44
    706c:	1c62      	adds	r2, r4, #1
    706e:	9211      	str	r2, [sp, #68]	; 0x44
    7070:	7861      	ldrb	r1, [r4, #1]
    7072:	2930      	cmp	r1, #48	; 0x30
    7074:	d0f9      	beq.n	706a <_strtod_r+0xf2>
    7076:	2900      	cmp	r1, #0
    7078:	f000 84e6 	beq.w	7a48 <_strtod_r+0xad0>
    707c:	2601      	movs	r6, #1
    707e:	9604      	str	r6, [sp, #16]
    7080:	e001      	b.n	7086 <_strtod_r+0x10e>
    7082:	2500      	movs	r5, #0
    7084:	9504      	str	r5, [sp, #16]
    7086:	9f11      	ldr	r7, [sp, #68]	; 0x44
    7088:	9706      	str	r7, [sp, #24]
    708a:	2700      	movs	r7, #0
    708c:	9703      	str	r7, [sp, #12]
    708e:	463e      	mov	r6, r7
    7090:	9d11      	ldr	r5, [sp, #68]	; 0x44
    7092:	782c      	ldrb	r4, [r5, #0]
    7094:	2c2f      	cmp	r4, #47	; 0x2f
    7096:	dc16      	bgt.n	70c6 <_strtod_r+0x14e>
    7098:	9802      	ldr	r0, [sp, #8]
    709a:	f7ff fabd 	bl	6618 <_localeconv_r>
    709e:	f8d0 9000 	ldr.w	r9, [r0]
    70a2:	9802      	ldr	r0, [sp, #8]
    70a4:	f7ff fab8 	bl	6618 <_localeconv_r>
    70a8:	6800      	ldr	r0, [r0, #0]
    70aa:	f7fc fea7 	bl	3dfc <strlen>
    70ae:	4649      	mov	r1, r9
    70b0:	4602      	mov	r2, r0
    70b2:	4628      	mov	r0, r5
    70b4:	f7fc feaa 	bl	3e0c <strncmp>
    70b8:	4681      	mov	r9, r0
    70ba:	b1c8      	cbz	r0, 70f0 <_strtod_r+0x178>
    70bc:	2300      	movs	r3, #0
    70be:	4635      	mov	r5, r6
    70c0:	461a      	mov	r2, r3
    70c2:	9307      	str	r3, [sp, #28]
    70c4:	e074      	b.n	71b0 <_strtod_r+0x238>
    70c6:	2c39      	cmp	r4, #57	; 0x39
    70c8:	dce6      	bgt.n	7098 <_strtod_r+0x120>
    70ca:	2e0f      	cmp	r6, #15
    70cc:	dc0c      	bgt.n	70e8 <_strtod_r+0x170>
    70ce:	2e08      	cmp	r6, #8
    70d0:	bfd8      	it	le
    70d2:	9803      	ldrle	r0, [sp, #12]
    70d4:	f04f 030a 	mov.w	r3, #10
    70d8:	f1a4 0430 	sub.w	r4, r4, #48	; 0x30
    70dc:	bfd6      	itet	le
    70de:	fb03 4000 	mlale	r0, r3, r0, r4
    70e2:	fb03 4707 	mlagt	r7, r3, r7, r4
    70e6:	9003      	strle	r0, [sp, #12]
    70e8:	1c6c      	adds	r4, r5, #1
    70ea:	3601      	adds	r6, #1
    70ec:	9411      	str	r4, [sp, #68]	; 0x44
    70ee:	e7cf      	b.n	7090 <_strtod_r+0x118>
    70f0:	9802      	ldr	r0, [sp, #8]
    70f2:	9c11      	ldr	r4, [sp, #68]	; 0x44
    70f4:	f7ff fa90 	bl	6618 <_localeconv_r>
    70f8:	6800      	ldr	r0, [r0, #0]
    70fa:	f7fc fe7f 	bl	3dfc <strlen>
    70fe:	1823      	adds	r3, r4, r0
    7100:	9311      	str	r3, [sp, #68]	; 0x44
    7102:	5c24      	ldrb	r4, [r4, r0]
    7104:	b11e      	cbz	r6, 710e <_strtod_r+0x196>
    7106:	4635      	mov	r5, r6
    7108:	464b      	mov	r3, r9
    710a:	464a      	mov	r2, r9
    710c:	e045      	b.n	719a <_strtod_r+0x222>
    710e:	4633      	mov	r3, r6
    7110:	2c30      	cmp	r4, #48	; 0x30
    7112:	d105      	bne.n	7120 <_strtod_r+0x1a8>
    7114:	9d11      	ldr	r5, [sp, #68]	; 0x44
    7116:	3301      	adds	r3, #1
    7118:	1c6a      	adds	r2, r5, #1
    711a:	9211      	str	r2, [sp, #68]	; 0x44
    711c:	786c      	ldrb	r4, [r5, #1]
    711e:	e7f7      	b.n	7110 <_strtod_r+0x198>
    7120:	f1a4 0031 	sub.w	r0, r4, #49	; 0x31
    7124:	2808      	cmp	r0, #8
    7126:	d83f      	bhi.n	71a8 <_strtod_r+0x230>
    7128:	9a11      	ldr	r2, [sp, #68]	; 0x44
    712a:	9206      	str	r2, [sp, #24]
    712c:	461a      	mov	r2, r3
    712e:	2300      	movs	r3, #0
    7130:	461d      	mov	r5, r3
    7132:	1c59      	adds	r1, r3, #1
    7134:	f1b4 0930 	subs.w	r9, r4, #48	; 0x30
    7138:	d02a      	beq.n	7190 <_strtod_r+0x218>
    713a:	1852      	adds	r2, r2, r1
    713c:	1c68      	adds	r0, r5, #1
    713e:	ebc5 0c00 	rsb	r12, r5, r0
    7142:	458c      	cmp	r12, r1
    7144:	da11      	bge.n	716a <_strtod_r+0x1f2>
    7146:	f100 3eff 	add.w	lr, r0, #4294967295
    714a:	f1be 0f10 	cmp.w	lr, #16
    714e:	dc0a      	bgt.n	7166 <_strtod_r+0x1ee>
    7150:	2809      	cmp	r0, #9
    7152:	bfd8      	it	le
    7154:	9c03      	ldrle	r4, [sp, #12]
    7156:	f04f 0c0a 	mov.w	r12, #10
    715a:	bfd6      	itet	le
    715c:	fb0c f404 	mulle.w	r4, r12, r4
    7160:	fb0c f707 	mulgt.w	r7, r12, r7
    7164:	9403      	strle	r4, [sp, #12]
    7166:	3001      	adds	r0, #1
    7168:	e7e9      	b.n	713e <_strtod_r+0x1c6>
    716a:	2b00      	cmp	r3, #0
    716c:	bfac      	ite	ge
    716e:	18eb      	addge	r3, r5, r3
    7170:	1c2b      	addlt	r3, r5, #0
    7172:	1c5d      	adds	r5, r3, #1
    7174:	2b10      	cmp	r3, #16
    7176:	dc0a      	bgt.n	718e <_strtod_r+0x216>
    7178:	2d09      	cmp	r5, #9
    717a:	bfd8      	it	le
    717c:	9c03      	ldrle	r4, [sp, #12]
    717e:	f04f 000a 	mov.w	r0, #10
    7182:	bfd6      	itet	le
    7184:	fb00 9404 	mlale	r4, r0, r4, r9
    7188:	fb00 9707 	mlagt	r7, r0, r7, r9
    718c:	9403      	strle	r4, [sp, #12]
    718e:	2100      	movs	r1, #0
    7190:	9c11      	ldr	r4, [sp, #68]	; 0x44
    7192:	1c63      	adds	r3, r4, #1
    7194:	9311      	str	r3, [sp, #68]	; 0x44
    7196:	7864      	ldrb	r4, [r4, #1]
    7198:	460b      	mov	r3, r1
    719a:	f1a4 0030 	sub.w	r0, r4, #48	; 0x30
    719e:	2809      	cmp	r0, #9
    71a0:	d9c7      	bls.n	7132 <_strtod_r+0x1ba>
    71a2:	2101      	movs	r1, #1
    71a4:	9107      	str	r1, [sp, #28]
    71a6:	e003      	b.n	71b0 <_strtod_r+0x238>
    71a8:	2500      	movs	r5, #0
    71aa:	2101      	movs	r1, #1
    71ac:	462a      	mov	r2, r5
    71ae:	9107      	str	r1, [sp, #28]
    71b0:	2c65      	cmp	r4, #101	; 0x65
    71b2:	d001      	beq.n	71b8 <_strtod_r+0x240>
    71b4:	2c45      	cmp	r4, #69	; 0x45
    71b6:	d159      	bne.n	726c <_strtod_r+0x2f4>
    71b8:	b925      	cbnz	r5, 71c4 <_strtod_r+0x24c>
    71ba:	b91b      	cbnz	r3, 71c4 <_strtod_r+0x24c>
    71bc:	9c04      	ldr	r4, [sp, #16]
    71be:	2c00      	cmp	r4, #0
    71c0:	f000 809d 	beq.w	72fe <_strtod_r+0x386>
    71c4:	f8dd 8044 	ldr.w	r8, [sp, #68]	; 0x44
    71c8:	f108 0001 	add.w	r0, r8, #1
    71cc:	9011      	str	r0, [sp, #68]	; 0x44
    71ce:	f898 4001 	ldrb.w	r4, [r8, #1]
    71d2:	2c2b      	cmp	r4, #43	; 0x2b
    71d4:	d003      	beq.n	71de <_strtod_r+0x266>
    71d6:	2c2d      	cmp	r4, #45	; 0x2d
    71d8:	d003      	beq.n	71e2 <_strtod_r+0x26a>
    71da:	2000      	movs	r0, #0
    71dc:	e007      	b.n	71ee <_strtod_r+0x276>
    71de:	2000      	movs	r0, #0
    71e0:	e000      	b.n	71e4 <_strtod_r+0x26c>
    71e2:	2001      	movs	r0, #1
    71e4:	f108 0102 	add.w	r1, r8, #2
    71e8:	9111      	str	r1, [sp, #68]	; 0x44
    71ea:	f898 4002 	ldrb.w	r4, [r8, #2]
    71ee:	f1a4 0e30 	sub.w	lr, r4, #48	; 0x30
    71f2:	f1be 0f09 	cmp.w	lr, #9
    71f6:	d837      	bhi.n	7268 <_strtod_r+0x2f0>
    71f8:	2c30      	cmp	r4, #48	; 0x30
    71fa:	d106      	bne.n	720a <_strtod_r+0x292>
    71fc:	9c11      	ldr	r4, [sp, #68]	; 0x44
    71fe:	f104 0901 	add.w	r9, r4, #1
    7202:	f8cd 9044 	str.w	r9, [sp, #68]	; 0x44
    7206:	7864      	ldrb	r4, [r4, #1]
    7208:	e7f6      	b.n	71f8 <_strtod_r+0x280>
    720a:	f1a4 0931 	sub.w	r9, r4, #49	; 0x31
    720e:	f1b9 0f08 	cmp.w	r9, #8
    7212:	d82b      	bhi.n	726c <_strtod_r+0x2f4>
    7214:	f1a4 0c30 	sub.w	r12, r4, #48	; 0x30
    7218:	9c11      	ldr	r4, [sp, #68]	; 0x44
    721a:	9405      	str	r4, [sp, #20]
    721c:	9911      	ldr	r1, [sp, #68]	; 0x44
    721e:	f101 0e01 	add.w	lr, r1, #1
    7222:	f8cd e044 	str.w	lr, [sp, #68]	; 0x44
    7226:	784c      	ldrb	r4, [r1, #1]
    7228:	2c2f      	cmp	r4, #47	; 0x2f
    722a:	dc0b      	bgt.n	7244 <_strtod_r+0x2cc>
    722c:	9905      	ldr	r1, [sp, #20]
    722e:	ebc1 090e 	rsb	r9, r1, lr
    7232:	f1b9 0f08 	cmp.w	r9, #8
    7236:	f644 691f 	movw	r9, #19999	; 0x4e1f
    723a:	dc0c      	bgt.n	7256 <_strtod_r+0x2de>
    723c:	45cc      	cmp	r12, r9
    723e:	bfb8      	it	lt
    7240:	46e1      	movlt	r9, r12
    7242:	e008      	b.n	7256 <_strtod_r+0x2de>
    7244:	2c39      	cmp	r4, #57	; 0x39
    7246:	dcf1      	bgt.n	722c <_strtod_r+0x2b4>
    7248:	f04f 0e0a 	mov.w	lr, #10
    724c:	fb0e 4c0c 	mla	r12, lr, r12, r4
    7250:	f1ac 0c30 	sub.w	r12, r12, #48	; 0x30
    7254:	e7e2      	b.n	721c <_strtod_r+0x2a4>
    7256:	b158      	cbz	r0, 7270 <_strtod_r+0x2f8>
    7258:	f1c9 0900 	rsb	r9, r9, #0
    725c:	e008      	b.n	7270 <_strtod_r+0x2f8>
    725e:	bf00      	nop
    7260:	10000174 	.word	0x10000174
    7264:	7ff00000 	.word	0x7ff00000
    7268:	f8cd 8044 	str.w	r8, [sp, #68]	; 0x44
    726c:	f04f 0900 	mov.w	r9, #0
    7270:	2d00      	cmp	r5, #0
    7272:	d149      	bne.n	7308 <_strtod_r+0x390>
    7274:	2b00      	cmp	r3, #0
    7276:	f040 83e7 	bne.w	7a48 <_strtod_r+0xad0>
    727a:	9a04      	ldr	r2, [sp, #16]
    727c:	2a00      	cmp	r2, #0
    727e:	f040 83e3 	bne.w	7a48 <_strtod_r+0xad0>
    7282:	9b07      	ldr	r3, [sp, #28]
    7284:	2b00      	cmp	r3, #0
    7286:	d13a      	bne.n	72fe <_strtod_r+0x386>
    7288:	2c4e      	cmp	r4, #78	; 0x4e
    728a:	d01b      	beq.n	72c4 <_strtod_r+0x34c>
    728c:	dc02      	bgt.n	7294 <_strtod_r+0x31c>
    728e:	2c49      	cmp	r4, #73	; 0x49
    7290:	d135      	bne.n	72fe <_strtod_r+0x386>
    7292:	e004      	b.n	729e <_strtod_r+0x326>
    7294:	2c69      	cmp	r4, #105	; 0x69
    7296:	d002      	beq.n	729e <_strtod_r+0x326>
    7298:	2c6e      	cmp	r4, #110	; 0x6e
    729a:	d130      	bne.n	72fe <_strtod_r+0x386>
    729c:	e012      	b.n	72c4 <_strtod_r+0x34c>
    729e:	a811      	add	r0, sp, #68	; 0x44
    72a0:	49a4      	ldr	r1, [pc, #656]	; (7534 <_strtod_r+0x5bc>)
    72a2:	f7ff fe53 	bl	6f4c <match>
    72a6:	b350      	cbz	r0, 72fe <_strtod_r+0x386>
    72a8:	9c11      	ldr	r4, [sp, #68]	; 0x44
    72aa:	a811      	add	r0, sp, #68	; 0x44
    72ac:	1e61      	subs	r1, r4, #1
    72ae:	9111      	str	r1, [sp, #68]	; 0x44
    72b0:	49a1      	ldr	r1, [pc, #644]	; (7538 <_strtod_r+0x5c0>)
    72b2:	f7ff fe4b 	bl	6f4c <match>
    72b6:	b910      	cbnz	r0, 72be <_strtod_r+0x346>
    72b8:	9811      	ldr	r0, [sp, #68]	; 0x44
    72ba:	1c42      	adds	r2, r0, #1
    72bc:	9211      	str	r2, [sp, #68]	; 0x44
    72be:	f8df b28c 	ldr.w	r11, [pc, #652]	; 754c <_strtod_r+0x5d4>
    72c2:	e019      	b.n	72f8 <_strtod_r+0x380>
    72c4:	a811      	add	r0, sp, #68	; 0x44
    72c6:	499d      	ldr	r1, [pc, #628]	; (753c <_strtod_r+0x5c4>)
    72c8:	f7ff fe40 	bl	6f4c <match>
    72cc:	b1b8      	cbz	r0, 72fe <_strtod_r+0x386>
    72ce:	9b11      	ldr	r3, [sp, #68]	; 0x44
    72d0:	781c      	ldrb	r4, [r3, #0]
    72d2:	2c28      	cmp	r4, #40	; 0x28
    72d4:	d10e      	bne.n	72f4 <_strtod_r+0x37c>
    72d6:	a811      	add	r0, sp, #68	; 0x44
    72d8:	4999      	ldr	r1, [pc, #612]	; (7540 <_strtod_r+0x5c8>)
    72da:	aa14      	add	r2, sp, #80	; 0x50
    72dc:	f000 ff90 	bl	8200 <__hexnan>
    72e0:	2805      	cmp	r0, #5
    72e2:	d107      	bne.n	72f4 <_strtod_r+0x37c>
    72e4:	9915      	ldr	r1, [sp, #84]	; 0x54
    72e6:	f8dd a050 	ldr.w	r10, [sp, #80]	; 0x50
    72ea:	f041 40ff 	orr.w	r0, r1, #2139095040	; 0x7f800000
    72ee:	f440 0be0 	orr.w	r11, r0, #7340032	; 0x700000
    72f2:	e3a9      	b.n	7a48 <_strtod_r+0xad0>
    72f4:	f8df b260 	ldr.w	r11, [pc, #608]	; 7558 <_strtod_r+0x5e0>
    72f8:	f04f 0a00 	mov.w	r10, #0
    72fc:	e3a4      	b.n	7a48 <_strtod_r+0xad0>
    72fe:	2100      	movs	r1, #0
    7300:	f8cd 8044 	str.w	r8, [sp, #68]	; 0x44
    7304:	910b      	str	r1, [sp, #44]	; 0x2c
    7306:	e39f      	b.n	7a48 <_strtod_r+0xad0>
    7308:	ebc2 0209 	rsb	r2, r2, r9
    730c:	9803      	ldr	r0, [sp, #12]
    730e:	9205      	str	r2, [sp, #20]
    7310:	f7fb f966 	bl	25e0 <__aeabi_ui2d>
    7314:	2d10      	cmp	r5, #16
    7316:	bfb4      	ite	lt
    7318:	462c      	movlt	r4, r5
    731a:	2410      	movge	r4, #16
    731c:	2e00      	cmp	r6, #0
    731e:	bf08      	it	eq
    7320:	462e      	moveq	r6, r5
    7322:	2c09      	cmp	r4, #9
    7324:	4682      	mov	r10, r0
    7326:	468b      	mov	r11, r1
    7328:	dd15      	ble.n	7356 <_strtod_r+0x3de>
    732a:	4b86      	ldr	r3, [pc, #536]	; (7544 <_strtod_r+0x5cc>)
    732c:	eb03 02c4 	add.w	r2, r3, r4, lsl #3
    7330:	f1a2 0348 	sub.w	r3, r2, #72	; 0x48
    7334:	e9d3 2300 	ldrd	r2, r3, [r3]
    7338:	f7fb f9c8 	bl	26cc <__aeabi_dmul>
    733c:	4680      	mov	r8, r0
    733e:	4638      	mov	r0, r7
    7340:	4689      	mov	r9, r1
    7342:	f7fb f94d 	bl	25e0 <__aeabi_ui2d>
    7346:	4602      	mov	r2, r0
    7348:	460b      	mov	r3, r1
    734a:	4640      	mov	r0, r8
    734c:	4649      	mov	r1, r9
    734e:	f7fb f80b 	bl	2368 <__adddf3>
    7352:	4682      	mov	r10, r0
    7354:	468b      	mov	r11, r1
    7356:	2d0f      	cmp	r5, #15
    7358:	dc36      	bgt.n	73c8 <_strtod_r+0x450>
    735a:	9805      	ldr	r0, [sp, #20]
    735c:	2800      	cmp	r0, #0
    735e:	f000 8373 	beq.w	7a48 <_strtod_r+0xad0>
    7362:	dd23      	ble.n	73ac <_strtod_r+0x434>
    7364:	2816      	cmp	r0, #22
    7366:	dc06      	bgt.n	7376 <_strtod_r+0x3fe>
    7368:	4976      	ldr	r1, [pc, #472]	; (7544 <_strtod_r+0x5cc>)
    736a:	4652      	mov	r2, r10
    736c:	eb01 00c0 	add.w	r0, r1, r0, lsl #3
    7370:	c803      	ldmia	r0, {r0, r1}
    7372:	465b      	mov	r3, r11
    7374:	e015      	b.n	73a2 <_strtod_r+0x42a>
    7376:	9805      	ldr	r0, [sp, #20]
    7378:	f1c5 0225 	rsb	r2, r5, #37	; 0x25
    737c:	4290      	cmp	r0, r2
    737e:	dc23      	bgt.n	73c8 <_strtod_r+0x450>
    7380:	4c70      	ldr	r4, [pc, #448]	; (7544 <_strtod_r+0x5cc>)
    7382:	f1c5 050f 	rsb	r5, r5, #15
    7386:	eb04 02c5 	add.w	r2, r4, r5, lsl #3
    738a:	e9d2 0100 	ldrd	r0, r1, [r2]
    738e:	465b      	mov	r3, r11
    7390:	4652      	mov	r2, r10
    7392:	f7fb f99b 	bl	26cc <__aeabi_dmul>
    7396:	9b05      	ldr	r3, [sp, #20]
    7398:	1b5d      	subs	r5, r3, r5
    739a:	eb04 04c5 	add.w	r4, r4, r5, lsl #3
    739e:	e9d4 2300 	ldrd	r2, r3, [r4]
    73a2:	f7fb f993 	bl	26cc <__aeabi_dmul>
    73a6:	4682      	mov	r10, r0
    73a8:	468b      	mov	r11, r1
    73aa:	e34d      	b.n	7a48 <_strtod_r+0xad0>
    73ac:	9905      	ldr	r1, [sp, #20]
    73ae:	f111 0f16 	cmn.w	r1, #22
    73b2:	db09      	blt.n	73c8 <_strtod_r+0x450>
    73b4:	4c63      	ldr	r4, [pc, #396]	; (7544 <_strtod_r+0x5cc>)
    73b6:	4650      	mov	r0, r10
    73b8:	eba4 03c1 	sub.w	r3, r4, r1, lsl #3
    73bc:	e9d3 2300 	ldrd	r2, r3, [r3]
    73c0:	4659      	mov	r1, r11
    73c2:	f7fb faad 	bl	2920 <__aeabi_ddiv>
    73c6:	e7ee      	b.n	73a6 <_strtod_r+0x42e>
    73c8:	1b29      	subs	r1, r5, r4
    73ca:	9c05      	ldr	r4, [sp, #20]
    73cc:	1864      	adds	r4, r4, r1
    73ce:	2c00      	cmp	r4, #0
    73d0:	dd54      	ble.n	747c <_strtod_r+0x504>
    73d2:	f014 000f 	ands.w	r0, r4, #15
    73d6:	d00a      	beq.n	73ee <_strtod_r+0x476>
    73d8:	4a5a      	ldr	r2, [pc, #360]	; (7544 <_strtod_r+0x5cc>)
    73da:	465b      	mov	r3, r11
    73dc:	eb02 01c0 	add.w	r1, r2, r0, lsl #3
    73e0:	e9d1 0100 	ldrd	r0, r1, [r1]
    73e4:	4652      	mov	r2, r10
    73e6:	f7fb f971 	bl	26cc <__aeabi_dmul>
    73ea:	4682      	mov	r10, r0
    73ec:	468b      	mov	r11, r1
    73ee:	f034 030f 	bics.w	r3, r4, #15
    73f2:	f000 80b5 	beq.w	7560 <_strtod_r+0x5e8>
    73f6:	f5b3 7f9a 	cmp.w	r3, #308	; 0x134
    73fa:	dd0f      	ble.n	741c <_strtod_r+0x4a4>
    73fc:	f04f 0800 	mov.w	r8, #0
    7400:	f8cd 800c 	str.w	r8, [sp, #12]
    7404:	f8cd 801c 	str.w	r8, [sp, #28]
    7408:	f8cd 8018 	str.w	r8, [sp, #24]
    740c:	9802      	ldr	r0, [sp, #8]
    740e:	2122      	movs	r1, #34	; 0x22
    7410:	6001      	str	r1, [r0, #0]
    7412:	f8df b138 	ldr.w	r11, [pc, #312]	; 754c <_strtod_r+0x5d4>
    7416:	f04f 0a00 	mov.w	r10, #0
    741a:	e172      	b.n	7702 <_strtod_r+0x78a>
    741c:	111f      	asrs	r7, r3, #4
    741e:	4650      	mov	r0, r10
    7420:	4659      	mov	r1, r11
    7422:	f04f 0800 	mov.w	r8, #0
    7426:	2f01      	cmp	r7, #1
    7428:	dd0c      	ble.n	7444 <_strtod_r+0x4cc>
    742a:	07fa      	lsls	r2, r7, #31
    742c:	d506      	bpl.n	743c <_strtod_r+0x4c4>
    742e:	4a46      	ldr	r2, [pc, #280]	; (7548 <_strtod_r+0x5d0>)
    7430:	eb02 03c8 	add.w	r3, r2, r8, lsl #3
    7434:	e9d3 2300 	ldrd	r2, r3, [r3]
    7438:	f7fb f948 	bl	26cc <__aeabi_dmul>
    743c:	f108 0801 	add.w	r8, r8, #1
    7440:	107f      	asrs	r7, r7, #1
    7442:	e7f0      	b.n	7426 <_strtod_r+0x4ae>
    7444:	4602      	mov	r2, r0
    7446:	4840      	ldr	r0, [pc, #256]	; (7548 <_strtod_r+0x5d0>)
    7448:	f1a1 7354 	sub.w	r3, r1, #55574528	; 0x3500000
    744c:	eb00 01c8 	add.w	r1, r0, r8, lsl #3
    7450:	e9d1 0100 	ldrd	r0, r1, [r1]
    7454:	f7fb f93a 	bl	26cc <__aeabi_dmul>
    7458:	4b3c      	ldr	r3, [pc, #240]	; (754c <_strtod_r+0x5d4>)
    745a:	4c3d      	ldr	r4, [pc, #244]	; (7550 <_strtod_r+0x5d8>)
    745c:	400b      	ands	r3, r1
    745e:	42a3      	cmp	r3, r4
    7460:	4682      	mov	r10, r0
    7462:	468b      	mov	r11, r1
    7464:	d8ca      	bhi.n	73fc <_strtod_r+0x484>
    7466:	f5a4 1780 	sub.w	r7, r4, #1048576	; 0x100000
    746a:	42bb      	cmp	r3, r7
    746c:	bf86      	itte	hi
    746e:	f8df b0ec 	ldrhi.w	r11, [pc, #236]	; 755c <_strtod_r+0x5e4>
    7472:	f04f 3aff 	movhi.w	r10, #4294967295
    7476:	f101 7b54 	addls.w	r11, r1, #55574528	; 0x3500000
    747a:	e071      	b.n	7560 <_strtod_r+0x5e8>
    747c:	d070      	beq.n	7560 <_strtod_r+0x5e8>
    747e:	4267      	negs	r7, r4
    7480:	f017 030f 	ands.w	r3, r7, #15
    7484:	d00a      	beq.n	749c <_strtod_r+0x524>
    7486:	4a2f      	ldr	r2, [pc, #188]	; (7544 <_strtod_r+0x5cc>)
    7488:	4650      	mov	r0, r10
    748a:	eb02 04c3 	add.w	r4, r2, r3, lsl #3
    748e:	4659      	mov	r1, r11
    7490:	e9d4 2300 	ldrd	r2, r3, [r4]
    7494:	f7fb fa44 	bl	2920 <__aeabi_ddiv>
    7498:	4682      	mov	r10, r0
    749a:	468b      	mov	r11, r1
    749c:	113f      	asrs	r7, r7, #4
    749e:	d05f      	beq.n	7560 <_strtod_r+0x5e8>
    74a0:	2f1f      	cmp	r7, #31
    74a2:	dd08      	ble.n	74b6 <_strtod_r+0x53e>
    74a4:	f04f 0800 	mov.w	r8, #0
    74a8:	f8cd 800c 	str.w	r8, [sp, #12]
    74ac:	f8cd 801c 	str.w	r8, [sp, #28]
    74b0:	f8cd 8018 	str.w	r8, [sp, #24]
    74b4:	e11e      	b.n	76f4 <_strtod_r+0x77c>
    74b6:	f017 0f10 	tst.w	r7, #16
    74ba:	bf14      	ite	ne
    74bc:	206a      	movne	r0, #106	; 0x6a
    74be:	2000      	moveq	r0, #0
    74c0:	4c24      	ldr	r4, [pc, #144]	; (7554 <_strtod_r+0x5dc>)
    74c2:	9004      	str	r0, [sp, #16]
    74c4:	4659      	mov	r1, r11
    74c6:	4650      	mov	r0, r10
    74c8:	2f00      	cmp	r7, #0
    74ca:	dd08      	ble.n	74de <_strtod_r+0x566>
    74cc:	07fb      	lsls	r3, r7, #31
    74ce:	d503      	bpl.n	74d8 <_strtod_r+0x560>
    74d0:	e9d4 2300 	ldrd	r2, r3, [r4]
    74d4:	f7fb f8fa 	bl	26cc <__aeabi_dmul>
    74d8:	107f      	asrs	r7, r7, #1
    74da:	3408      	adds	r4, #8
    74dc:	e7f4      	b.n	74c8 <_strtod_r+0x550>
    74de:	468b      	mov	r11, r1
    74e0:	9904      	ldr	r1, [sp, #16]
    74e2:	4682      	mov	r10, r0
    74e4:	b1e1      	cbz	r1, 7520 <_strtod_r+0x5a8>
    74e6:	f3cb 530a 	ubfx	r3, r11, #20, #11
    74ea:	f1c3 046b 	rsb	r4, r3, #107	; 0x6b
    74ee:	2c00      	cmp	r4, #0
    74f0:	dd16      	ble.n	7520 <_strtod_r+0x5a8>
    74f2:	2c1f      	cmp	r4, #31
    74f4:	dd0e      	ble.n	7514 <_strtod_r+0x59c>
    74f6:	2c34      	cmp	r4, #52	; 0x34
    74f8:	f04f 0a00 	mov.w	r10, #0
    74fc:	dd02      	ble.n	7504 <_strtod_r+0x58c>
    74fe:	f04f 7b5c 	mov.w	r11, #57671680	; 0x3700000
    7502:	e00d      	b.n	7520 <_strtod_r+0x5a8>
    7504:	3c20      	subs	r4, #32
    7506:	f04f 33ff 	mov.w	r3, #4294967295
    750a:	fa03 f404 	lsl.w	r4, r3, r4
    750e:	ea04 0b0b 	and.w	r11, r4, r11
    7512:	e005      	b.n	7520 <_strtod_r+0x5a8>
    7514:	f04f 30ff 	mov.w	r0, #4294967295
    7518:	fa00 f104 	lsl.w	r1, r0, r4
    751c:	ea01 0a0a 	and.w	r10, r1, r10
    7520:	4650      	mov	r0, r10
    7522:	4659      	mov	r1, r11
    7524:	2200      	movs	r2, #0
    7526:	2300      	movs	r3, #0
    7528:	f7fb fb38 	bl	2b9c <__aeabi_dcmpeq>
    752c:	2800      	cmp	r0, #0
    752e:	d1b9      	bne.n	74a4 <_strtod_r+0x52c>
    7530:	e018      	b.n	7564 <_strtod_r+0x5ec>
    7532:	bf00      	nop
    7534:	00008abe 	.word	0x00008abe
    7538:	00008c1b 	.word	0x00008c1b
    753c:	00008ac6 	.word	0x00008ac6
    7540:	10000188 	.word	0x10000188
    7544:	00008c30 	.word	0x00008c30
    7548:	00008d08 	.word	0x00008d08
    754c:	7ff00000 	.word	0x7ff00000
    7550:	7ca00000 	.word	0x7ca00000
    7554:	00008d30 	.word	0x00008d30
    7558:	fff80000 	.word	0xfff80000
    755c:	7fefffff 	.word	0x7fefffff
    7560:	2000      	movs	r0, #0
    7562:	9004      	str	r0, [sp, #16]
    7564:	9903      	ldr	r1, [sp, #12]
    7566:	4632      	mov	r2, r6
    7568:	9100      	str	r1, [sp, #0]
    756a:	9802      	ldr	r0, [sp, #8]
    756c:	9906      	ldr	r1, [sp, #24]
    756e:	462b      	mov	r3, r5
    7570:	f7ff f8f0 	bl	6754 <__s2b>
    7574:	9e05      	ldr	r6, [sp, #20]
    7576:	9007      	str	r0, [sp, #28]
    7578:	2e00      	cmp	r6, #0
    757a:	f2c0 80c7 	blt.w	770c <_strtod_r+0x794>
    757e:	2200      	movs	r2, #0
    7580:	920e      	str	r2, [sp, #56]	; 0x38
    7582:	9c07      	ldr	r4, [sp, #28]
    7584:	9802      	ldr	r0, [sp, #8]
    7586:	6861      	ldr	r1, [r4, #4]
    7588:	f7ff f85c 	bl	6644 <_Balloc>
    758c:	6923      	ldr	r3, [r4, #16]
    758e:	4621      	mov	r1, r4
    7590:	1c9f      	adds	r7, r3, #2
    7592:	00ba      	lsls	r2, r7, #2
    7594:	310c      	adds	r1, #12
    7596:	9006      	str	r0, [sp, #24]
    7598:	300c      	adds	r0, #12
    759a:	f7fc fa9d 	bl	3ad8 <memcpy>
    759e:	a913      	add	r1, sp, #76	; 0x4c
    75a0:	a810      	add	r0, sp, #64	; 0x40
    75a2:	4652      	mov	r2, r10
    75a4:	9000      	str	r0, [sp, #0]
    75a6:	9101      	str	r1, [sp, #4]
    75a8:	465b      	mov	r3, r11
    75aa:	9802      	ldr	r0, [sp, #8]
    75ac:	e9cd ab08 	strd	r10, r11, [sp, #32]
    75b0:	f7ff fb92 	bl	6cd8 <__d2b>
    75b4:	2101      	movs	r1, #1
    75b6:	9012      	str	r0, [sp, #72]	; 0x48
    75b8:	9802      	ldr	r0, [sp, #8]
    75ba:	f7ff f959 	bl	6870 <__i2b>
    75be:	9a10      	ldr	r2, [sp, #64]	; 0x40
    75c0:	9e05      	ldr	r6, [sp, #20]
    75c2:	2a00      	cmp	r2, #0
    75c4:	9003      	str	r0, [sp, #12]
    75c6:	ea26 77e6 	bic.w	r7, r6, r6, asr #31
    75ca:	f2c0 80a2 	blt.w	7712 <_strtod_r+0x79a>
    75ce:	9d0e      	ldr	r5, [sp, #56]	; 0x38
    75d0:	463b      	mov	r3, r7
    75d2:	18ad      	adds	r5, r5, r2
    75d4:	9c04      	ldr	r4, [sp, #16]
    75d6:	9e13      	ldr	r6, [sp, #76]	; 0x4c
    75d8:	1b14      	subs	r4, r2, r4
    75da:	19a0      	adds	r0, r4, r6
    75dc:	f46f 717f 	mvn.w	r1, #1020	; 0x3fc
    75e0:	4288      	cmp	r0, r1
    75e2:	bfb4      	ite	lt
    75e4:	f204 4433 	addwlt	r4, r4, #1075	; 0x433
    75e8:	f1c6 0436 	rsbge	r4, r6, #54	; 0x36
    75ec:	9a04      	ldr	r2, [sp, #16]
    75ee:	192e      	adds	r6, r5, r4
    75f0:	191b      	adds	r3, r3, r4
    75f2:	42ae      	cmp	r6, r5
    75f4:	bfb4      	ite	lt
    75f6:	4630      	movlt	r0, r6
    75f8:	4628      	movge	r0, r5
    75fa:	189c      	adds	r4, r3, r2
    75fc:	42a0      	cmp	r0, r4
    75fe:	bfa8      	it	ge
    7600:	4620      	movge	r0, r4
    7602:	2800      	cmp	r0, #0
    7604:	dd02      	ble.n	760c <_strtod_r+0x694>
    7606:	1a36      	subs	r6, r6, r0
    7608:	1a24      	subs	r4, r4, r0
    760a:	1a2d      	subs	r5, r5, r0
    760c:	9b0e      	ldr	r3, [sp, #56]	; 0x38
    760e:	b18b      	cbz	r3, 7634 <_strtod_r+0x6bc>
    7610:	461a      	mov	r2, r3
    7612:	9903      	ldr	r1, [sp, #12]
    7614:	9802      	ldr	r0, [sp, #8]
    7616:	f7ff f9c5 	bl	69a4 <__pow5mult>
    761a:	9003      	str	r0, [sp, #12]
    761c:	9903      	ldr	r1, [sp, #12]
    761e:	9a12      	ldr	r2, [sp, #72]	; 0x48
    7620:	9802      	ldr	r0, [sp, #8]
    7622:	f7ff f92e 	bl	6882 <__multiply>
    7626:	9912      	ldr	r1, [sp, #72]	; 0x48
    7628:	4680      	mov	r8, r0
    762a:	9802      	ldr	r0, [sp, #8]
    762c:	f7ff f83f 	bl	66ae <_Bfree>
    7630:	f8cd 8048 	str.w	r8, [sp, #72]	; 0x48
    7634:	2e00      	cmp	r6, #0
    7636:	dd05      	ble.n	7644 <_strtod_r+0x6cc>
    7638:	9802      	ldr	r0, [sp, #8]
    763a:	9912      	ldr	r1, [sp, #72]	; 0x48
    763c:	4632      	mov	r2, r6
    763e:	f7ff fa03 	bl	6a48 <__lshift>
    7642:	9012      	str	r0, [sp, #72]	; 0x48
    7644:	b12f      	cbz	r7, 7652 <_strtod_r+0x6da>
    7646:	9802      	ldr	r0, [sp, #8]
    7648:	9906      	ldr	r1, [sp, #24]
    764a:	463a      	mov	r2, r7
    764c:	f7ff f9aa 	bl	69a4 <__pow5mult>
    7650:	9006      	str	r0, [sp, #24]
    7652:	2c00      	cmp	r4, #0
    7654:	dd05      	ble.n	7662 <_strtod_r+0x6ea>
    7656:	9802      	ldr	r0, [sp, #8]
    7658:	9906      	ldr	r1, [sp, #24]
    765a:	4622      	mov	r2, r4
    765c:	f7ff f9f4 	bl	6a48 <__lshift>
    7660:	9006      	str	r0, [sp, #24]
    7662:	2d00      	cmp	r5, #0
    7664:	dd05      	ble.n	7672 <_strtod_r+0x6fa>
    7666:	9802      	ldr	r0, [sp, #8]
    7668:	9903      	ldr	r1, [sp, #12]
    766a:	462a      	mov	r2, r5
    766c:	f7ff f9ec 	bl	6a48 <__lshift>
    7670:	9003      	str	r0, [sp, #12]
    7672:	9912      	ldr	r1, [sp, #72]	; 0x48
    7674:	9a06      	ldr	r2, [sp, #24]
    7676:	9802      	ldr	r0, [sp, #8]
    7678:	f7ff fa57 	bl	6b2a <__mdiff>
    767c:	f04f 0900 	mov.w	r9, #0
    7680:	68c4      	ldr	r4, [r0, #12]
    7682:	9903      	ldr	r1, [sp, #12]
    7684:	f8c0 900c 	str.w	r9, [r0, #12]
    7688:	4680      	mov	r8, r0
    768a:	940a      	str	r4, [sp, #40]	; 0x28
    768c:	f7ff fa30 	bl	6af0 <__mcmp>
    7690:	4548      	cmp	r0, r9
    7692:	da46      	bge.n	7722 <_strtod_r+0x7aa>
    7694:	2c00      	cmp	r4, #0
    7696:	f040 81b0 	bne.w	79fa <_strtod_r+0xa82>
    769a:	f1ba 0f00 	cmp.w	r10, #0
    769e:	f040 81ac 	bne.w	79fa <_strtod_r+0xa82>
    76a2:	f3cb 0013 	ubfx	r0, r11, #0, #20
    76a6:	465c      	mov	r4, r11
    76a8:	2800      	cmp	r0, #0
    76aa:	f040 81a6 	bne.w	79fa <_strtod_r+0xa82>
    76ae:	4a9c      	ldr	r2, [pc, #624]	; (7920 <_strtod_r+0x9a8>)
    76b0:	4022      	ands	r2, r4
    76b2:	f1b2 6fd6 	cmp.w	r2, #112197632	; 0x6b00000
    76b6:	f240 81a0 	bls.w	79fa <_strtod_r+0xa82>
    76ba:	f8d8 3014 	ldr.w	r3, [r8, #20]
    76be:	b35b      	cbz	r3, 7718 <_strtod_r+0x7a0>
    76c0:	4641      	mov	r1, r8
    76c2:	2201      	movs	r2, #1
    76c4:	9802      	ldr	r0, [sp, #8]
    76c6:	f7ff f9bf 	bl	6a48 <__lshift>
    76ca:	9903      	ldr	r1, [sp, #12]
    76cc:	4680      	mov	r8, r0
    76ce:	f7ff fa0f 	bl	6af0 <__mcmp>
    76d2:	2800      	cmp	r0, #0
    76d4:	f340 8191 	ble.w	79fa <_strtod_r+0xa82>
    76d8:	f02b 4400 	bic.w	r4, r11, #2147483648	; 0x80000000
    76dc:	9b04      	ldr	r3, [sp, #16]
    76de:	0d20      	lsrs	r0, r4, #20
    76e0:	0502      	lsls	r2, r0, #20
    76e2:	2b00      	cmp	r3, #0
    76e4:	d04a      	beq.n	777c <_strtod_r+0x804>
    76e6:	f1b2 6fd6 	cmp.w	r2, #112197632	; 0x6b00000
    76ea:	d847      	bhi.n	777c <_strtod_r+0x804>
    76ec:	f1b2 7f5c 	cmp.w	r2, #57671680	; 0x3700000
    76f0:	f200 8185 	bhi.w	79fe <_strtod_r+0xa86>
    76f4:	9c02      	ldr	r4, [sp, #8]
    76f6:	2022      	movs	r0, #34	; 0x22
    76f8:	f04f 0a00 	mov.w	r10, #0
    76fc:	f04f 0b00 	mov.w	r11, #0
    7700:	6020      	str	r0, [r4, #0]
    7702:	9c07      	ldr	r4, [sp, #28]
    7704:	2c00      	cmp	r4, #0
    7706:	f040 818b 	bne.w	7a20 <_strtod_r+0xaa8>
    770a:	e19d      	b.n	7a48 <_strtod_r+0xad0>
    770c:	9d05      	ldr	r5, [sp, #20]
    770e:	426a      	negs	r2, r5
    7710:	e736      	b.n	7580 <_strtod_r+0x608>
    7712:	1abb      	subs	r3, r7, r2
    7714:	9d0e      	ldr	r5, [sp, #56]	; 0x38
    7716:	e75d      	b.n	75d4 <_strtod_r+0x65c>
    7718:	f8d8 1010 	ldr.w	r1, [r8, #16]
    771c:	2901      	cmp	r1, #1
    771e:	dccf      	bgt.n	76c0 <_strtod_r+0x748>
    7720:	e16b      	b.n	79fa <_strtod_r+0xa82>
    7722:	d159      	bne.n	77d8 <_strtod_r+0x860>
    7724:	9c0a      	ldr	r4, [sp, #40]	; 0x28
    7726:	b314      	cbz	r4, 776e <_strtod_r+0x7f6>
    7728:	f02b 407f 	bic.w	r0, r11, #4278190080	; 0xff000000
    772c:	4c7d      	ldr	r4, [pc, #500]	; (7924 <_strtod_r+0x9ac>)
    772e:	f420 0170 	bic.w	r1, r0, #15728640	; 0xf00000
    7732:	42a1      	cmp	r1, r4
    7734:	465a      	mov	r2, r11
    7736:	d12a      	bne.n	778e <_strtod_r+0x816>
    7738:	9b04      	ldr	r3, [sp, #16]
    773a:	4651      	mov	r1, r10
    773c:	b163      	cbz	r3, 7758 <_strtod_r+0x7e0>
    773e:	4878      	ldr	r0, [pc, #480]	; (7920 <_strtod_r+0x9a8>)
    7740:	4010      	ands	r0, r2
    7742:	f1b0 6fd4 	cmp.w	r0, #111149056	; 0x6a00000
    7746:	d807      	bhi.n	7758 <_strtod_r+0x7e0>
    7748:	0d03      	lsrs	r3, r0, #20
    774a:	f1c3 046b 	rsb	r4, r3, #107	; 0x6b
    774e:	f04f 30ff 	mov.w	r0, #4294967295
    7752:	fa00 f404 	lsl.w	r4, r0, r4
    7756:	e001      	b.n	775c <_strtod_r+0x7e4>
    7758:	f04f 34ff 	mov.w	r4, #4294967295
    775c:	42a1      	cmp	r1, r4
    775e:	d116      	bne.n	778e <_strtod_r+0x816>
    7760:	496f      	ldr	r1, [pc, #444]	; (7920 <_strtod_r+0x9a8>)
    7762:	f04f 0a00 	mov.w	r10, #0
    7766:	4011      	ands	r1, r2
    7768:	f501 1b80 	add.w	r11, r1, #1048576	; 0x100000
    776c:	e145      	b.n	79fa <_strtod_r+0xa82>
    776e:	f3cb 0313 	ubfx	r3, r11, #0, #20
    7772:	b963      	cbnz	r3, 778e <_strtod_r+0x816>
    7774:	f1ba 0f00 	cmp.w	r10, #0
    7778:	d109      	bne.n	778e <_strtod_r+0x816>
    777a:	e7ad      	b.n	76d8 <_strtod_r+0x760>
    777c:	f5a2 1180 	sub.w	r1, r2, #1048576	; 0x100000
    7780:	ea6f 5a11 	mvn.w	r10, r1, lsr #20
    7784:	ea6f 5b0a 	mvn.w	r11, r10, lsl #20
    7788:	f04f 3aff 	mov.w	r10, #4294967295
    778c:	e135      	b.n	79fa <_strtod_r+0xa82>
    778e:	f00a 0201 	and.w	r2, r10, #1
    7792:	2a00      	cmp	r2, #0
    7794:	f000 8131 	beq.w	79fa <_strtod_r+0xa82>
    7798:	9b0a      	ldr	r3, [sp, #40]	; 0x28
    779a:	e9dd 0108 	ldrd	r0, r1, [sp, #32]
    779e:	b153      	cbz	r3, 77b6 <_strtod_r+0x83e>
    77a0:	f7ff fa26 	bl	6bf0 <__ulp>
    77a4:	4602      	mov	r2, r0
    77a6:	460b      	mov	r3, r1
    77a8:	e9dd 0108 	ldrd	r0, r1, [sp, #32]
    77ac:	f7fa fddc 	bl	2368 <__adddf3>
    77b0:	4682      	mov	r10, r0
    77b2:	468b      	mov	r11, r1
    77b4:	e121      	b.n	79fa <_strtod_r+0xa82>
    77b6:	f7ff fa1b 	bl	6bf0 <__ulp>
    77ba:	4602      	mov	r2, r0
    77bc:	460b      	mov	r3, r1
    77be:	e9dd 0108 	ldrd	r0, r1, [sp, #32]
    77c2:	f7fa fdcf 	bl	2364 <__aeabi_dsub>
    77c6:	2200      	movs	r2, #0
    77c8:	2300      	movs	r3, #0
    77ca:	4682      	mov	r10, r0
    77cc:	468b      	mov	r11, r1
    77ce:	f7fb f9e5 	bl	2b9c <__aeabi_dcmpeq>
    77d2:	2800      	cmp	r0, #0
    77d4:	d18e      	bne.n	76f4 <_strtod_r+0x77c>
    77d6:	e110      	b.n	79fa <_strtod_r+0xa82>
    77d8:	4640      	mov	r0, r8
    77da:	9903      	ldr	r1, [sp, #12]
    77dc:	f7ff fad0 	bl	6d80 <__ratio>
    77e0:	2200      	movs	r2, #0
    77e2:	f04f 4380 	mov.w	r3, #1073741824	; 0x40000000
    77e6:	4604      	mov	r4, r0
    77e8:	460d      	mov	r5, r1
    77ea:	f7fb f9eb 	bl	2bc4 <__aeabi_dcmple>
    77ee:	b378      	cbz	r0, 7850 <_strtod_r+0x8d8>
    77f0:	990a      	ldr	r1, [sp, #40]	; 0x28
    77f2:	b111      	cbz	r1, 77fa <_strtod_r+0x882>
    77f4:	2600      	movs	r6, #0
    77f6:	4f4c      	ldr	r7, [pc, #304]	; (7928 <_strtod_r+0x9b0>)
    77f8:	e00f      	b.n	781a <_strtod_r+0x8a2>
    77fa:	4652      	mov	r2, r10
    77fc:	f1ba 0f00 	cmp.w	r10, #0
    7800:	d103      	bne.n	780a <_strtod_r+0x892>
    7802:	f3cb 0613 	ubfx	r6, r11, #0, #20
    7806:	b936      	cbnz	r6, 7816 <_strtod_r+0x89e>
    7808:	e00b      	b.n	7822 <_strtod_r+0x8aa>
    780a:	2a01      	cmp	r2, #1
    780c:	d103      	bne.n	7816 <_strtod_r+0x89e>
    780e:	f1bb 0f00 	cmp.w	r11, #0
    7812:	f43f af6f 	beq.w	76f4 <_strtod_r+0x77c>
    7816:	4f45      	ldr	r7, [pc, #276]	; (792c <_strtod_r+0x9b4>)
    7818:	2600      	movs	r6, #0
    781a:	2400      	movs	r4, #0
    781c:	f8df 9108 	ldr.w	r9, [pc, #264]	; 7928 <_strtod_r+0x9b0>
    7820:	e026      	b.n	7870 <_strtod_r+0x8f8>
    7822:	4620      	mov	r0, r4
    7824:	4629      	mov	r1, r5
    7826:	2200      	movs	r2, #0
    7828:	4b3f      	ldr	r3, [pc, #252]	; (7928 <_strtod_r+0x9b0>)
    782a:	f7fb f9c1 	bl	2bb0 <__aeabi_dcmplt>
    782e:	b940      	cbnz	r0, 7842 <_strtod_r+0x8ca>
    7830:	4620      	mov	r0, r4
    7832:	4629      	mov	r1, r5
    7834:	2200      	movs	r2, #0
    7836:	4b3e      	ldr	r3, [pc, #248]	; (7930 <_strtod_r+0x9b8>)
    7838:	f7fa ff48 	bl	26cc <__aeabi_dmul>
    783c:	4604      	mov	r4, r0
    783e:	4689      	mov	r9, r1
    7840:	e002      	b.n	7848 <_strtod_r+0x8d0>
    7842:	9c0a      	ldr	r4, [sp, #40]	; 0x28
    7844:	f8df 90e8 	ldr.w	r9, [pc, #232]	; 7930 <_strtod_r+0x9b8>
    7848:	4626      	mov	r6, r4
    784a:	f109 4700 	add.w	r7, r9, #2147483648	; 0x80000000
    784e:	e00f      	b.n	7870 <_strtod_r+0x8f8>
    7850:	4620      	mov	r0, r4
    7852:	4629      	mov	r1, r5
    7854:	2200      	movs	r2, #0
    7856:	4b36      	ldr	r3, [pc, #216]	; (7930 <_strtod_r+0x9b8>)
    7858:	f7fa ff38 	bl	26cc <__aeabi_dmul>
    785c:	9f0a      	ldr	r7, [sp, #40]	; 0x28
    785e:	4604      	mov	r4, r0
    7860:	4689      	mov	r9, r1
    7862:	b917      	cbnz	r7, 786a <_strtod_r+0x8f2>
    7864:	f101 4500 	add.w	r5, r1, #2147483648	; 0x80000000
    7868:	e000      	b.n	786c <_strtod_r+0x8f4>
    786a:	460d      	mov	r5, r1
    786c:	4626      	mov	r6, r4
    786e:	462f      	mov	r7, r5
    7870:	4d2b      	ldr	r5, [pc, #172]	; (7920 <_strtod_r+0x9a8>)
    7872:	465b      	mov	r3, r11
    7874:	482f      	ldr	r0, [pc, #188]	; (7934 <_strtod_r+0x9bc>)
    7876:	401d      	ands	r5, r3
    7878:	4285      	cmp	r5, r0
    787a:	d12c      	bne.n	78d6 <_strtod_r+0x95e>
    787c:	f1ab 7b54 	sub.w	r11, r11, #55574528	; 0x3500000
    7880:	e9dd 0108 	ldrd	r0, r1, [sp, #32]
    7884:	e9cd 010c 	strd	r0, r1, [sp, #48]	; 0x30
    7888:	4650      	mov	r0, r10
    788a:	4659      	mov	r1, r11
    788c:	f7ff f9b0 	bl	6bf0 <__ulp>
    7890:	4602      	mov	r2, r0
    7892:	460b      	mov	r3, r1
    7894:	4630      	mov	r0, r6
    7896:	4639      	mov	r1, r7
    7898:	f7fa ff18 	bl	26cc <__aeabi_dmul>
    789c:	460b      	mov	r3, r1
    789e:	4602      	mov	r2, r0
    78a0:	4659      	mov	r1, r11
    78a2:	4650      	mov	r0, r10
    78a4:	f7fa fd60 	bl	2368 <__adddf3>
    78a8:	4682      	mov	r10, r0
    78aa:	481d      	ldr	r0, [pc, #116]	; (7920 <_strtod_r+0x9a8>)
    78ac:	460b      	mov	r3, r1
    78ae:	4008      	ands	r0, r1
    78b0:	4921      	ldr	r1, [pc, #132]	; (7938 <_strtod_r+0x9c0>)
    78b2:	4288      	cmp	r0, r1
    78b4:	d90c      	bls.n	78d0 <_strtod_r+0x958>
    78b6:	4821      	ldr	r0, [pc, #132]	; (793c <_strtod_r+0x9c4>)
    78b8:	990d      	ldr	r1, [sp, #52]	; 0x34
    78ba:	4281      	cmp	r1, r0
    78bc:	d103      	bne.n	78c6 <_strtod_r+0x94e>
    78be:	9a0c      	ldr	r2, [sp, #48]	; 0x30
    78c0:	3201      	adds	r2, #1
    78c2:	f43f ada3 	beq.w	740c <_strtod_r+0x494>
    78c6:	f8df b074 	ldr.w	r11, [pc, #116]	; 793c <_strtod_r+0x9c4>
    78ca:	f04f 3aff 	mov.w	r10, #4294967295
    78ce:	e083      	b.n	79d8 <_strtod_r+0xa60>
    78d0:	f103 7b54 	add.w	r11, r3, #55574528	; 0x3500000
    78d4:	e04b      	b.n	796e <_strtod_r+0x9f6>
    78d6:	9904      	ldr	r1, [sp, #16]
    78d8:	2900      	cmp	r1, #0
    78da:	d036      	beq.n	794a <_strtod_r+0x9d2>
    78dc:	f1b5 6fd4 	cmp.w	r5, #111149056	; 0x6a00000
    78e0:	d833      	bhi.n	794a <_strtod_r+0x9d2>
    78e2:	4620      	mov	r0, r4
    78e4:	4649      	mov	r1, r9
    78e6:	a30c      	add	r3, pc, #48	; (adr r3, 7918 <_strtod_r+0x9a0>)
    78e8:	e9d3 2300 	ldrd	r2, r3, [r3]
    78ec:	f7fb f96a 	bl	2bc4 <__aeabi_dcmple>
    78f0:	b340      	cbz	r0, 7944 <_strtod_r+0x9cc>
    78f2:	4649      	mov	r1, r9
    78f4:	4620      	mov	r0, r4
    78f6:	f000 fd15 	bl	8324 <__aeabi_d2uiz>
    78fa:	2800      	cmp	r0, #0
    78fc:	bf08      	it	eq
    78fe:	2001      	moveq	r0, #1
    7900:	f7fa fe6e 	bl	25e0 <__aeabi_ui2d>
    7904:	4604      	mov	r4, r0
    7906:	980a      	ldr	r0, [sp, #40]	; 0x28
    7908:	4689      	mov	r9, r1
    790a:	b9c8      	cbnz	r0, 7940 <_strtod_r+0x9c8>
    790c:	f101 4700 	add.w	r7, r1, #2147483648	; 0x80000000
    7910:	e017      	b.n	7942 <_strtod_r+0x9ca>
    7912:	bf00      	nop
    7914:	f3af 8000 	nop.w
    7918:	ffc00000 	.word	0xffc00000
    791c:	41dfffff 	.word	0x41dfffff
    7920:	7ff00000 	.word	0x7ff00000
    7924:	000fffff 	.word	0x000fffff
    7928:	3ff00000 	.word	0x3ff00000
    792c:	bff00000 	.word	0xbff00000
    7930:	3fe00000 	.word	0x3fe00000
    7934:	7fe00000 	.word	0x7fe00000
    7938:	7c9fffff 	.word	0x7c9fffff
    793c:	7fefffff 	.word	0x7fefffff
    7940:	460f      	mov	r7, r1
    7942:	4626      	mov	r6, r4
    7944:	f107 62d6 	add.w	r2, r7, #112197632	; 0x6b00000
    7948:	1b57      	subs	r7, r2, r5
    794a:	e9dd 0108 	ldrd	r0, r1, [sp, #32]
    794e:	f7ff f94f 	bl	6bf0 <__ulp>
    7952:	4602      	mov	r2, r0
    7954:	460b      	mov	r3, r1
    7956:	4630      	mov	r0, r6
    7958:	4639      	mov	r1, r7
    795a:	f7fa feb7 	bl	26cc <__aeabi_dmul>
    795e:	4602      	mov	r2, r0
    7960:	460b      	mov	r3, r1
    7962:	e9dd 0108 	ldrd	r0, r1, [sp, #32]
    7966:	f7fa fcff 	bl	2368 <__adddf3>
    796a:	4682      	mov	r10, r0
    796c:	468b      	mov	r11, r1
    796e:	9b04      	ldr	r3, [sp, #16]
    7970:	465e      	mov	r6, r11
    7972:	2b00      	cmp	r3, #0
    7974:	d130      	bne.n	79d8 <_strtod_r+0xa60>
    7976:	4a42      	ldr	r2, [pc, #264]	; (7a80 <_strtod_r+0xb08>)
    7978:	4032      	ands	r2, r6
    797a:	4295      	cmp	r5, r2
    797c:	d12c      	bne.n	79d8 <_strtod_r+0xa60>
    797e:	4620      	mov	r0, r4
    7980:	4649      	mov	r1, r9
    7982:	f7fb f93d 	bl	2c00 <__aeabi_d2iz>
    7986:	f7fa fe3b 	bl	2600 <__aeabi_i2d>
    798a:	460b      	mov	r3, r1
    798c:	4602      	mov	r2, r0
    798e:	4649      	mov	r1, r9
    7990:	4620      	mov	r0, r4
    7992:	f7fa fce7 	bl	2364 <__aeabi_dsub>
    7996:	9b0a      	ldr	r3, [sp, #40]	; 0x28
    7998:	4604      	mov	r4, r0
    799a:	460d      	mov	r5, r1
    799c:	b92b      	cbnz	r3, 79aa <_strtod_r+0xa32>
    799e:	f1ba 0f00 	cmp.w	r10, #0
    79a2:	d102      	bne.n	79aa <_strtod_r+0xa32>
    79a4:	f3cb 0613 	ubfx	r6, r11, #0, #20
    79a8:	b186      	cbz	r6, 79cc <_strtod_r+0xa54>
    79aa:	4620      	mov	r0, r4
    79ac:	4629      	mov	r1, r5
    79ae:	a32e      	add	r3, pc, #184	; (adr r3, 7a68 <_strtod_r+0xaf0>)
    79b0:	e9d3 2300 	ldrd	r2, r3, [r3]
    79b4:	f7fb f8fc 	bl	2bb0 <__aeabi_dcmplt>
    79b8:	2800      	cmp	r0, #0
    79ba:	d131      	bne.n	7a20 <_strtod_r+0xaa8>
    79bc:	4620      	mov	r0, r4
    79be:	4629      	mov	r1, r5
    79c0:	a32b      	add	r3, pc, #172	; (adr r3, 7a70 <_strtod_r+0xaf8>)
    79c2:	e9d3 2300 	ldrd	r2, r3, [r3]
    79c6:	f7fb f911 	bl	2bec <__aeabi_dcmpgt>
    79ca:	e004      	b.n	79d6 <_strtod_r+0xa5e>
    79cc:	a32a      	add	r3, pc, #168	; (adr r3, 7a78 <_strtod_r+0xb00>)
    79ce:	e9d3 2300 	ldrd	r2, r3, [r3]
    79d2:	f7fb f8ed 	bl	2bb0 <__aeabi_dcmplt>
    79d6:	bb18      	cbnz	r0, 7a20 <_strtod_r+0xaa8>
    79d8:	9802      	ldr	r0, [sp, #8]
    79da:	9912      	ldr	r1, [sp, #72]	; 0x48
    79dc:	f7fe fe67 	bl	66ae <_Bfree>
    79e0:	9802      	ldr	r0, [sp, #8]
    79e2:	9906      	ldr	r1, [sp, #24]
    79e4:	f7fe fe63 	bl	66ae <_Bfree>
    79e8:	9802      	ldr	r0, [sp, #8]
    79ea:	9903      	ldr	r1, [sp, #12]
    79ec:	f7fe fe5f 	bl	66ae <_Bfree>
    79f0:	9802      	ldr	r0, [sp, #8]
    79f2:	4641      	mov	r1, r8
    79f4:	f7fe fe5b 	bl	66ae <_Bfree>
    79f8:	e5c3      	b.n	7582 <_strtod_r+0x60a>
    79fa:	9a04      	ldr	r2, [sp, #16]
    79fc:	b182      	cbz	r2, 7a20 <_strtod_r+0xaa8>
    79fe:	4b21      	ldr	r3, [pc, #132]	; (7a84 <_strtod_r+0xb0c>)
    7a00:	2100      	movs	r1, #0
    7a02:	910c      	str	r1, [sp, #48]	; 0x30
    7a04:	930d      	str	r3, [sp, #52]	; 0x34
    7a06:	4650      	mov	r0, r10
    7a08:	4659      	mov	r1, r11
    7a0a:	e9dd 230c 	ldrd	r2, r3, [sp, #48]	; 0x30
    7a0e:	f7fa fe5d 	bl	26cc <__aeabi_dmul>
    7a12:	4682      	mov	r10, r0
    7a14:	468b      	mov	r11, r1
    7a16:	b919      	cbnz	r1, 7a20 <_strtod_r+0xaa8>
    7a18:	b910      	cbnz	r0, 7a20 <_strtod_r+0xaa8>
    7a1a:	9c02      	ldr	r4, [sp, #8]
    7a1c:	2022      	movs	r0, #34	; 0x22
    7a1e:	6020      	str	r0, [r4, #0]
    7a20:	9802      	ldr	r0, [sp, #8]
    7a22:	9912      	ldr	r1, [sp, #72]	; 0x48
    7a24:	f7fe fe43 	bl	66ae <_Bfree>
    7a28:	9802      	ldr	r0, [sp, #8]
    7a2a:	9906      	ldr	r1, [sp, #24]
    7a2c:	f7fe fe3f 	bl	66ae <_Bfree>
    7a30:	9802      	ldr	r0, [sp, #8]
    7a32:	9903      	ldr	r1, [sp, #12]
    7a34:	f7fe fe3b 	bl	66ae <_Bfree>
    7a38:	9802      	ldr	r0, [sp, #8]
    7a3a:	9907      	ldr	r1, [sp, #28]
    7a3c:	f7fe fe37 	bl	66ae <_Bfree>
    7a40:	9802      	ldr	r0, [sp, #8]
    7a42:	4641      	mov	r1, r8
    7a44:	f7fe fe33 	bl	66ae <_Bfree>
    7a48:	980f      	ldr	r0, [sp, #60]	; 0x3c
    7a4a:	b108      	cbz	r0, 7a50 <_strtod_r+0xad8>
    7a4c:	9a11      	ldr	r2, [sp, #68]	; 0x44
    7a4e:	6002      	str	r2, [r0, #0]
    7a50:	9c0b      	ldr	r4, [sp, #44]	; 0x2c
    7a52:	4651      	mov	r1, r10
    7a54:	b114      	cbz	r4, 7a5c <_strtod_r+0xae4>
    7a56:	f10b 4300 	add.w	r3, r11, #2147483648	; 0x80000000
    7a5a:	e000      	b.n	7a5e <_strtod_r+0xae6>
    7a5c:	465b      	mov	r3, r11
    7a5e:	4608      	mov	r0, r1
    7a60:	4619      	mov	r1, r3
    7a62:	b017      	add	sp, #92	; 0x5c
    7a64:	e8bd 8ff0 	ldmia.w	sp!, {r4, r5, r6, r7, r8, r9, r10, r11, pc}
    7a68:	94a03595 	.word	0x94a03595
    7a6c:	3fdfffff 	.word	0x3fdfffff
    7a70:	35afe535 	.word	0x35afe535
    7a74:	3fe00000 	.word	0x3fe00000
    7a78:	94a03595 	.word	0x94a03595
    7a7c:	3fcfffff 	.word	0x3fcfffff
    7a80:	7ff00000 	.word	0x7ff00000
    7a84:	39500000 	.word	0x39500000

00007a88 <_strtol_r>:
    7a88:	e92d 4ff7 	stmdb	sp!, {r0, r1, r2, r4, r5, r6, r7, r8, r9, r10, r11, lr}
    7a8c:	9001      	str	r0, [sp, #4]
    7a8e:	4840      	ldr	r0, [pc, #256]	; (7b90 <_strtol_r+0x108>)
    7a90:	f8d0 9000 	ldr.w	r9, [r0]
    7a94:	4608      	mov	r0, r1
    7a96:	4604      	mov	r4, r0
    7a98:	f814 5b01 	ldrb.w	r5, [r4], #1
    7a9c:	eb09 0605 	add.w	r6, r9, r5
    7aa0:	7877      	ldrb	r7, [r6, #1]
    7aa2:	4620      	mov	r0, r4
    7aa4:	f007 0608 	and.w	r6, r7, #8
    7aa8:	b2f7      	uxtb	r7, r6
    7aaa:	2f00      	cmp	r7, #0
    7aac:	d1f3      	bne.n	7a96 <_strtol_r+0xe>
    7aae:	2d2d      	cmp	r5, #45	; 0x2d
    7ab0:	d103      	bne.n	7aba <_strtol_r+0x32>
    7ab2:	f814 5b01 	ldrb.w	r5, [r4], #1
    7ab6:	2701      	movs	r7, #1
    7ab8:	e004      	b.n	7ac4 <_strtol_r+0x3c>
    7aba:	2d2b      	cmp	r5, #43	; 0x2b
    7abc:	bf04      	itt	eq
    7abe:	4624      	moveq	r4, r4
    7ac0:	f814 5b01 	ldrbeq.w	r5, [r4], #1
    7ac4:	2b00      	cmp	r3, #0
    7ac6:	d05c      	beq.n	7b82 <_strtol_r+0xfa>
    7ac8:	2b10      	cmp	r3, #16
    7aca:	d107      	bne.n	7adc <_strtol_r+0x54>
    7acc:	2d30      	cmp	r5, #48	; 0x30
    7ace:	d105      	bne.n	7adc <_strtol_r+0x54>
    7ad0:	7825      	ldrb	r5, [r4, #0]
    7ad2:	2d78      	cmp	r5, #120	; 0x78
    7ad4:	d14e      	bne.n	7b74 <_strtol_r+0xec>
    7ad6:	7865      	ldrb	r5, [r4, #1]
    7ad8:	2310      	movs	r3, #16
    7ada:	3402      	adds	r4, #2
    7adc:	2f00      	cmp	r7, #0
    7ade:	bf0c      	ite	eq
    7ae0:	f06f 4000 	mvneq.w	r0, #2147483648	; 0x80000000
    7ae4:	f04f 4000 	movne.w	r0, #2147483648	; 0x80000000
    7ae8:	fbb0 faf3 	udiv	r10, r0, r3
    7aec:	2600      	movs	r6, #0
    7aee:	fb03 081a 	mls	r8, r3, r10, r0
    7af2:	4630      	mov	r0, r6
    7af4:	eb09 0c05 	add.w	r12, r9, r5
    7af8:	f89c c001 	ldrb.w	r12, [r12, #1]
    7afc:	f00c 0b04 	and.w	r11, r12, #4
    7b00:	fa5f fb8b 	uxtb.w	r11, r11
    7b04:	f1bb 0f00 	cmp.w	r11, #0
    7b08:	d001      	beq.n	7b0e <_strtol_r+0x86>
    7b0a:	3d30      	subs	r5, #48	; 0x30
    7b0c:	e00b      	b.n	7b26 <_strtol_r+0x9e>
    7b0e:	f01c 0c03 	ands.w	r12, r12, #3
    7b12:	d01b      	beq.n	7b4c <_strtol_r+0xc4>
    7b14:	f1bc 0f01 	cmp.w	r12, #1
    7b18:	bf14      	ite	ne
    7b1a:	f04f 0c57 	movne.w	r12, #87	; 0x57
    7b1e:	f04f 0c37 	moveq.w	r12, #55	; 0x37
    7b22:	ebcc 0505 	rsb	r5, r12, r5
    7b26:	429d      	cmp	r5, r3
    7b28:	da10      	bge.n	7b4c <_strtol_r+0xc4>
    7b2a:	f1b6 3fff 	cmp.w	r6, #4294967295
    7b2e:	d00a      	beq.n	7b46 <_strtol_r+0xbe>
    7b30:	4550      	cmp	r0, r10
    7b32:	d806      	bhi.n	7b42 <_strtol_r+0xba>
    7b34:	d101      	bne.n	7b3a <_strtol_r+0xb2>
    7b36:	4545      	cmp	r5, r8
    7b38:	dc03      	bgt.n	7b42 <_strtol_r+0xba>
    7b3a:	fb03 5000 	mla	r0, r3, r0, r5
    7b3e:	2601      	movs	r6, #1
    7b40:	e001      	b.n	7b46 <_strtol_r+0xbe>
    7b42:	f04f 36ff 	mov.w	r6, #4294967295
    7b46:	f814 5b01 	ldrb.w	r5, [r4], #1
    7b4a:	e7d3      	b.n	7af4 <_strtol_r+0x6c>
    7b4c:	1c73      	adds	r3, r6, #1
    7b4e:	d10a      	bne.n	7b66 <_strtol_r+0xde>
    7b50:	2f00      	cmp	r7, #0
    7b52:	9901      	ldr	r1, [sp, #4]
    7b54:	bf0c      	ite	eq
    7b56:	f06f 4000 	mvneq.w	r0, #2147483648	; 0x80000000
    7b5a:	f04f 4000 	movne.w	r0, #2147483648	; 0x80000000
    7b5e:	2322      	movs	r3, #34	; 0x22
    7b60:	600b      	str	r3, [r1, #0]
    7b62:	b922      	cbnz	r2, 7b6e <_strtol_r+0xe6>
    7b64:	e011      	b.n	7b8a <_strtol_r+0x102>
    7b66:	b107      	cbz	r7, 7b6a <_strtol_r+0xe2>
    7b68:	4240      	negs	r0, r0
    7b6a:	b172      	cbz	r2, 7b8a <_strtol_r+0x102>
    7b6c:	b106      	cbz	r6, 7b70 <_strtol_r+0xe8>
    7b6e:	1e61      	subs	r1, r4, #1
    7b70:	6011      	str	r1, [r2, #0]
    7b72:	e00a      	b.n	7b8a <_strtol_r+0x102>
    7b74:	2d58      	cmp	r5, #88	; 0x58
    7b76:	d0ae      	beq.n	7ad6 <_strtol_r+0x4e>
    7b78:	2530      	movs	r5, #48	; 0x30
    7b7a:	2b00      	cmp	r3, #0
    7b7c:	d1ae      	bne.n	7adc <_strtol_r+0x54>
    7b7e:	2308      	movs	r3, #8
    7b80:	e7ac      	b.n	7adc <_strtol_r+0x54>
    7b82:	2d30      	cmp	r5, #48	; 0x30
    7b84:	d0a4      	beq.n	7ad0 <_strtol_r+0x48>
    7b86:	230a      	movs	r3, #10
    7b88:	e7a8      	b.n	7adc <_strtol_r+0x54>
    7b8a:	e8bd 8ffe 	ldmia.w	sp!, {r1, r2, r3, r4, r5, r6, r7, r8, r9, r10, r11, pc}
    7b8e:	bf00      	nop
    7b90:	10000138 	.word	0x10000138

00007b94 <_strtoul_r>:
    7b94:	e92d 4ff7 	stmdb	sp!, {r0, r1, r2, r4, r5, r6, r7, r8, r9, r10, r11, lr}
    7b98:	9001      	str	r0, [sp, #4]
    7b9a:	483c      	ldr	r0, [pc, #240]	; (7c8c <_strtoul_r+0xf8>)
    7b9c:	f8d0 9000 	ldr.w	r9, [r0]
    7ba0:	4608      	mov	r0, r1
    7ba2:	4604      	mov	r4, r0
    7ba4:	f814 5b01 	ldrb.w	r5, [r4], #1
    7ba8:	eb09 0605 	add.w	r6, r9, r5
    7bac:	7877      	ldrb	r7, [r6, #1]
    7bae:	4620      	mov	r0, r4
    7bb0:	f007 0608 	and.w	r6, r7, #8
    7bb4:	b2f7      	uxtb	r7, r6
    7bb6:	2f00      	cmp	r7, #0
    7bb8:	d1f3      	bne.n	7ba2 <_strtoul_r+0xe>
    7bba:	2d2d      	cmp	r5, #45	; 0x2d
    7bbc:	d103      	bne.n	7bc6 <_strtoul_r+0x32>
    7bbe:	f814 5b01 	ldrb.w	r5, [r4], #1
    7bc2:	2701      	movs	r7, #1
    7bc4:	e004      	b.n	7bd0 <_strtoul_r+0x3c>
    7bc6:	2d2b      	cmp	r5, #43	; 0x2b
    7bc8:	bf04      	itt	eq
    7bca:	4624      	moveq	r4, r4
    7bcc:	f814 5b01 	ldrbeq.w	r5, [r4], #1
    7bd0:	2b00      	cmp	r3, #0
    7bd2:	d055      	beq.n	7c80 <_strtoul_r+0xec>
    7bd4:	2b10      	cmp	r3, #16
    7bd6:	d107      	bne.n	7be8 <_strtoul_r+0x54>
    7bd8:	2d30      	cmp	r5, #48	; 0x30
    7bda:	d105      	bne.n	7be8 <_strtoul_r+0x54>
    7bdc:	7825      	ldrb	r5, [r4, #0]
    7bde:	2d78      	cmp	r5, #120	; 0x78
    7be0:	d147      	bne.n	7c72 <_strtoul_r+0xde>
    7be2:	7865      	ldrb	r5, [r4, #1]
    7be4:	2310      	movs	r3, #16
    7be6:	3402      	adds	r4, #2
    7be8:	f04f 3aff 	mov.w	r10, #4294967295
    7bec:	fbba faf3 	udiv	r10, r10, r3
    7bf0:	fb03 f00a 	mul.w	r0, r3, r10
    7bf4:	2600      	movs	r6, #0
    7bf6:	ea6f 0800 	mvn.w	r8, r0
    7bfa:	4630      	mov	r0, r6
    7bfc:	eb09 0c05 	add.w	r12, r9, r5
    7c00:	f89c c001 	ldrb.w	r12, [r12, #1]
    7c04:	f00c 0b04 	and.w	r11, r12, #4
    7c08:	fa5f fb8b 	uxtb.w	r11, r11
    7c0c:	f1bb 0f00 	cmp.w	r11, #0
    7c10:	d001      	beq.n	7c16 <_strtoul_r+0x82>
    7c12:	3d30      	subs	r5, #48	; 0x30
    7c14:	e00b      	b.n	7c2e <_strtoul_r+0x9a>
    7c16:	f01c 0c03 	ands.w	r12, r12, #3
    7c1a:	d01b      	beq.n	7c54 <_strtoul_r+0xc0>
    7c1c:	f1bc 0f01 	cmp.w	r12, #1
    7c20:	bf14      	ite	ne
    7c22:	f04f 0c57 	movne.w	r12, #87	; 0x57
    7c26:	f04f 0c37 	moveq.w	r12, #55	; 0x37
    7c2a:	ebcc 0505 	rsb	r5, r12, r5
    7c2e:	429d      	cmp	r5, r3
    7c30:	da10      	bge.n	7c54 <_strtoul_r+0xc0>
    7c32:	f1b6 3fff 	cmp.w	r6, #4294967295
    7c36:	d00a      	beq.n	7c4e <_strtoul_r+0xba>
    7c38:	4550      	cmp	r0, r10
    7c3a:	d806      	bhi.n	7c4a <_strtoul_r+0xb6>
    7c3c:	d101      	bne.n	7c42 <_strtoul_r+0xae>
    7c3e:	4545      	cmp	r5, r8
    7c40:	dc03      	bgt.n	7c4a <_strtoul_r+0xb6>
    7c42:	fb03 5000 	mla	r0, r3, r0, r5
    7c46:	2601      	movs	r6, #1
    7c48:	e001      	b.n	7c4e <_strtoul_r+0xba>
    7c4a:	f04f 36ff 	mov.w	r6, #4294967295
    7c4e:	f814 5b01 	ldrb.w	r5, [r4], #1
    7c52:	e7d3      	b.n	7bfc <_strtoul_r+0x68>
    7c54:	1c73      	adds	r3, r6, #1
    7c56:	d105      	bne.n	7c64 <_strtoul_r+0xd0>
    7c58:	9901      	ldr	r1, [sp, #4]
    7c5a:	2322      	movs	r3, #34	; 0x22
    7c5c:	600b      	str	r3, [r1, #0]
    7c5e:	4630      	mov	r0, r6
    7c60:	b922      	cbnz	r2, 7c6c <_strtoul_r+0xd8>
    7c62:	e011      	b.n	7c88 <_strtoul_r+0xf4>
    7c64:	b107      	cbz	r7, 7c68 <_strtoul_r+0xd4>
    7c66:	4240      	negs	r0, r0
    7c68:	b172      	cbz	r2, 7c88 <_strtoul_r+0xf4>
    7c6a:	b106      	cbz	r6, 7c6e <_strtoul_r+0xda>
    7c6c:	1e61      	subs	r1, r4, #1
    7c6e:	6011      	str	r1, [r2, #0]
    7c70:	e00a      	b.n	7c88 <_strtoul_r+0xf4>
    7c72:	2d58      	cmp	r5, #88	; 0x58
    7c74:	d0b5      	beq.n	7be2 <_strtoul_r+0x4e>
    7c76:	2530      	movs	r5, #48	; 0x30
    7c78:	2b00      	cmp	r3, #0
    7c7a:	d1b5      	bne.n	7be8 <_strtoul_r+0x54>
    7c7c:	2308      	movs	r3, #8
    7c7e:	e7b3      	b.n	7be8 <_strtoul_r+0x54>
    7c80:	2d30      	cmp	r5, #48	; 0x30
    7c82:	d0ab      	beq.n	7bdc <_strtoul_r+0x48>
    7c84:	230a      	movs	r3, #10
    7c86:	e7af      	b.n	7be8 <_strtoul_r+0x54>
    7c88:	e8bd 8ffe 	ldmia.w	sp!, {r1, r2, r3, r4, r5, r6, r7, r8, r9, r10, r11, pc}
    7c8c:	10000138 	.word	0x10000138

00007c90 <_calloc_r>:
    7c90:	b538      	push	{r3, r4, r5, lr}
    7c92:	fb01 f402 	mul.w	r4, r1, r2
    7c96:	4621      	mov	r1, r4
    7c98:	f7fb fec6 	bl	3a28 <_malloc_r>
    7c9c:	4605      	mov	r5, r0
    7c9e:	b118      	cbz	r0, 7ca8 <_calloc_r+0x18>
    7ca0:	2100      	movs	r1, #0
    7ca2:	4622      	mov	r2, r4
    7ca4:	f7fb ff21 	bl	3aea <memset>
    7ca8:	4628      	mov	r0, r5
    7caa:	bd38      	pop	{r3, r4, r5, pc}

00007cac <rshift>:
    7cac:	b5f0      	push	{r4, r5, r6, r7, lr}
    7cae:	6906      	ldr	r6, [r0, #16]
    7cb0:	114b      	asrs	r3, r1, #5
    7cb2:	42b3      	cmp	r3, r6
    7cb4:	f100 0214 	add.w	r2, r0, #20
    7cb8:	da2a      	bge.n	7d10 <rshift+0x64>
    7cba:	1d1d      	adds	r5, r3, #4
    7cbc:	eb00 0686 	add.w	r6, r0, r6, lsl #2
    7cc0:	eb00 0385 	add.w	r3, r0, r5, lsl #2
    7cc4:	3614      	adds	r6, #20
    7cc6:	1d1d      	adds	r5, r3, #4
    7cc8:	f011 011f 	ands.w	r1, r1, #31
    7ccc:	d101      	bne.n	7cd2 <rshift+0x26>
    7cce:	4613      	mov	r3, r2
    7cd0:	e017      	b.n	7d02 <rshift+0x56>
    7cd2:	685c      	ldr	r4, [r3, #4]
    7cd4:	f1c1 0c20 	rsb	r12, r1, #32
    7cd8:	fa24 f401 	lsr.w	r4, r4, r1
    7cdc:	3504      	adds	r5, #4
    7cde:	4613      	mov	r3, r2
    7ce0:	42b5      	cmp	r5, r6
    7ce2:	d20a      	bcs.n	7cfa <rshift+0x4e>
    7ce4:	682f      	ldr	r7, [r5, #0]
    7ce6:	fa07 f70c 	lsl.w	r7, r7, r12
    7cea:	433c      	orrs	r4, r7
    7cec:	f843 4b04 	str.w	r4, [r3], #4
    7cf0:	f855 4b04 	ldr.w	r4, [r5], #4
    7cf4:	fa24 f401 	lsr.w	r4, r4, r1
    7cf8:	e7f2      	b.n	7ce0 <rshift+0x34>
    7cfa:	601c      	str	r4, [r3, #0]
    7cfc:	b14c      	cbz	r4, 7d12 <rshift+0x66>
    7cfe:	3304      	adds	r3, #4
    7d00:	e007      	b.n	7d12 <rshift+0x66>
    7d02:	42b5      	cmp	r5, r6
    7d04:	d205      	bcs.n	7d12 <rshift+0x66>
    7d06:	f855 1b04 	ldr.w	r1, [r5], #4
    7d0a:	f843 1b04 	str.w	r1, [r3], #4
    7d0e:	e7f8      	b.n	7d02 <rshift+0x56>
    7d10:	4613      	mov	r3, r2
    7d12:	1a9b      	subs	r3, r3, r2
    7d14:	109a      	asrs	r2, r3, #2
    7d16:	6102      	str	r2, [r0, #16]
    7d18:	b902      	cbnz	r2, 7d1c <rshift+0x70>
    7d1a:	6142      	str	r2, [r0, #20]
    7d1c:	bdf0      	pop	{r4, r5, r6, r7, pc}
	...

00007d20 <htinit.constprop.0>:
    7d20:	b530      	push	{r4, r5, lr}
    7d22:	2300      	movs	r3, #0
    7d24:	5cc2      	ldrb	r2, [r0, r3]
    7d26:	b122      	cbz	r2, 7d32 <htinit.constprop.0+0x12>
    7d28:	4c02      	ldr	r4, [pc, #8]	; (7d34 <htinit.constprop.0+0x14>)
    7d2a:	185d      	adds	r5, r3, r1
    7d2c:	5515      	strb	r5, [r2, r4]
    7d2e:	3301      	adds	r3, #1
    7d30:	e7f8      	b.n	7d24 <htinit.constprop.0+0x4>
    7d32:	bd30      	pop	{r4, r5, pc}
    7d34:	100003a0 	.word	0x100003a0

00007d38 <__hexdig_init>:
    7d38:	b508      	push	{r3, lr}
    7d3a:	2110      	movs	r1, #16
    7d3c:	4806      	ldr	r0, [pc, #24]	; (7d58 <__hexdig_init+0x20>)
    7d3e:	f7ff ffef 	bl	7d20 <htinit.constprop.0>
    7d42:	211a      	movs	r1, #26
    7d44:	4805      	ldr	r0, [pc, #20]	; (7d5c <__hexdig_init+0x24>)
    7d46:	f7ff ffeb 	bl	7d20 <htinit.constprop.0>
    7d4a:	4805      	ldr	r0, [pc, #20]	; (7d60 <__hexdig_init+0x28>)
    7d4c:	211a      	movs	r1, #26
    7d4e:	e8bd 4008 	ldmia.w	sp!, {r3, lr}
    7d52:	f7ff bfe5 	b.w	7d20 <htinit.constprop.0>
    7d56:	bf00      	nop
    7d58:	00008d58 	.word	0x00008d58
    7d5c:	00008ae4 	.word	0x00008ae4
    7d60:	00008ad3 	.word	0x00008ad3

00007d64 <__gethex>:
    7d64:	e92d 4ff0 	stmdb	sp!, {r4, r5, r6, r7, r8, r9, r10, r11, lr}
    7d68:	b089      	sub	sp, #36	; 0x24
    7d6a:	468a      	mov	r10, r1
    7d6c:	4616      	mov	r6, r2
    7d6e:	9306      	str	r3, [sp, #24]
    7d70:	9003      	str	r0, [sp, #12]
    7d72:	f7fe fc51 	bl	6618 <_localeconv_r>
    7d76:	6800      	ldr	r0, [r0, #0]
    7d78:	9004      	str	r0, [sp, #16]
    7d7a:	f7fc f83f 	bl	3dfc <strlen>
    7d7e:	9904      	ldr	r1, [sp, #16]
    7d80:	4a9d      	ldr	r2, [pc, #628]	; (7ff8 <__gethex+0x294>)
    7d82:	180b      	adds	r3, r1, r0
    7d84:	4680      	mov	r8, r0
    7d86:	f892 4030 	ldrb.w	r4, [r2, #48]	; 0x30
    7d8a:	f813 0c01 	ldrb.w	r0, [r3, #-1]
    7d8e:	9007      	str	r0, [sp, #28]
    7d90:	b90c      	cbnz	r4, 7d96 <__gethex+0x32>
    7d92:	f7ff ffd1 	bl	7d38 <__hexdig_init>
    7d96:	f8da 5000 	ldr.w	r5, [r10]
    7d9a:	f04f 0900 	mov.w	r9, #0
    7d9e:	1cac      	adds	r4, r5, #2
    7da0:	46a3      	mov	r11, r4
    7da2:	f814 7b01 	ldrb.w	r7, [r4], #1
    7da6:	2f30      	cmp	r7, #48	; 0x30
    7da8:	d102      	bne.n	7db0 <__gethex+0x4c>
    7daa:	f109 0901 	add.w	r9, r9, #1
    7dae:	e7f7      	b.n	7da0 <__gethex+0x3c>
    7db0:	4c91      	ldr	r4, [pc, #580]	; (7ff8 <__gethex+0x294>)
    7db2:	5de5      	ldrb	r5, [r4, r7]
    7db4:	b9d5      	cbnz	r5, 7dec <__gethex+0x88>
    7db6:	4658      	mov	r0, r11
    7db8:	9904      	ldr	r1, [sp, #16]
    7dba:	4642      	mov	r2, r8
    7dbc:	f7fc f826 	bl	3e0c <strncmp>
    7dc0:	2800      	cmp	r0, #0
    7dc2:	d136      	bne.n	7e32 <__gethex+0xce>
    7dc4:	f81b 1008 	ldrb.w	r1, [r11, r8]
    7dc8:	eb0b 0708 	add.w	r7, r11, r8
    7dcc:	5c65      	ldrb	r5, [r4, r1]
    7dce:	2d00      	cmp	r5, #0
    7dd0:	d030      	beq.n	7e34 <__gethex+0xd0>
    7dd2:	463b      	mov	r3, r7
    7dd4:	4618      	mov	r0, r3
    7dd6:	f813 2b01 	ldrb.w	r2, [r3], #1
    7dda:	2a30      	cmp	r2, #48	; 0x30
    7ddc:	d0fa      	beq.n	7dd4 <__gethex+0x70>
    7dde:	4d86      	ldr	r5, [pc, #536]	; (7ff8 <__gethex+0x294>)
    7de0:	4683      	mov	r11, r0
    7de2:	5cac      	ldrb	r4, [r5, r2]
    7de4:	463d      	mov	r5, r7
    7de6:	b924      	cbnz	r4, 7df2 <__gethex+0x8e>
    7de8:	2401      	movs	r4, #1
    7dea:	e003      	b.n	7df4 <__gethex+0x90>
    7dec:	2400      	movs	r4, #0
    7dee:	4625      	mov	r5, r4
    7df0:	e002      	b.n	7df8 <__gethex+0x94>
    7df2:	2400      	movs	r4, #0
    7df4:	f04f 0901 	mov.w	r9, #1
    7df8:	465b      	mov	r3, r11
    7dfa:	461f      	mov	r7, r3
    7dfc:	7838      	ldrb	r0, [r7, #0]
    7dfe:	497e      	ldr	r1, [pc, #504]	; (7ff8 <__gethex+0x294>)
    7e00:	3301      	adds	r3, #1
    7e02:	5c0a      	ldrb	r2, [r1, r0]
    7e04:	2a00      	cmp	r2, #0
    7e06:	d1f8      	bne.n	7dfa <__gethex+0x96>
    7e08:	4638      	mov	r0, r7
    7e0a:	9904      	ldr	r1, [sp, #16]
    7e0c:	4642      	mov	r2, r8
    7e0e:	f7fb fffd 	bl	3e0c <strncmp>
    7e12:	b950      	cbnz	r0, 7e2a <__gethex+0xc6>
    7e14:	b955      	cbnz	r5, 7e2c <__gethex+0xc8>
    7e16:	eb07 0508 	add.w	r5, r7, r8
    7e1a:	462b      	mov	r3, r5
    7e1c:	461f      	mov	r7, r3
    7e1e:	7838      	ldrb	r0, [r7, #0]
    7e20:	4975      	ldr	r1, [pc, #468]	; (7ff8 <__gethex+0x294>)
    7e22:	3301      	adds	r3, #1
    7e24:	5c0a      	ldrb	r2, [r1, r0]
    7e26:	2a00      	cmp	r2, #0
    7e28:	d1f8      	bne.n	7e1c <__gethex+0xb8>
    7e2a:	b125      	cbz	r5, 7e36 <__gethex+0xd2>
    7e2c:	1bed      	subs	r5, r5, r7
    7e2e:	00ad      	lsls	r5, r5, #2
    7e30:	e001      	b.n	7e36 <__gethex+0xd2>
    7e32:	465f      	mov	r7, r11
    7e34:	2401      	movs	r4, #1
    7e36:	783b      	ldrb	r3, [r7, #0]
    7e38:	2b50      	cmp	r3, #80	; 0x50
    7e3a:	d001      	beq.n	7e40 <__gethex+0xdc>
    7e3c:	2b70      	cmp	r3, #112	; 0x70
    7e3e:	d12e      	bne.n	7e9e <__gethex+0x13a>
    7e40:	7878      	ldrb	r0, [r7, #1]
    7e42:	282b      	cmp	r0, #43	; 0x2b
    7e44:	d005      	beq.n	7e52 <__gethex+0xee>
    7e46:	282d      	cmp	r0, #45	; 0x2d
    7e48:	d006      	beq.n	7e58 <__gethex+0xf4>
    7e4a:	2100      	movs	r1, #0
    7e4c:	1c78      	adds	r0, r7, #1
    7e4e:	9105      	str	r1, [sp, #20]
    7e50:	e005      	b.n	7e5e <__gethex+0xfa>
    7e52:	2300      	movs	r3, #0
    7e54:	9305      	str	r3, [sp, #20]
    7e56:	e001      	b.n	7e5c <__gethex+0xf8>
    7e58:	2201      	movs	r2, #1
    7e5a:	9205      	str	r2, [sp, #20]
    7e5c:	1cb8      	adds	r0, r7, #2
    7e5e:	7801      	ldrb	r1, [r0, #0]
    7e60:	4a65      	ldr	r2, [pc, #404]	; (7ff8 <__gethex+0x294>)
    7e62:	5c52      	ldrb	r2, [r2, r1]
    7e64:	b1da      	cbz	r2, 7e9e <__gethex+0x13a>
    7e66:	2a19      	cmp	r2, #25
    7e68:	dc19      	bgt.n	7e9e <__gethex+0x13a>
    7e6a:	3a10      	subs	r2, #16
    7e6c:	3001      	adds	r0, #1
    7e6e:	4603      	mov	r3, r0
    7e70:	f893 c000 	ldrb.w	r12, [r3]
    7e74:	4960      	ldr	r1, [pc, #384]	; (7ff8 <__gethex+0x294>)
    7e76:	3001      	adds	r0, #1
    7e78:	f811 100c 	ldrb.w	r1, [r1, r12]
    7e7c:	9102      	str	r1, [sp, #8]
    7e7e:	b919      	cbnz	r1, 7e88 <__gethex+0x124>
    7e80:	9805      	ldr	r0, [sp, #20]
    7e82:	b150      	cbz	r0, 7e9a <__gethex+0x136>
    7e84:	4252      	negs	r2, r2
    7e86:	e008      	b.n	7e9a <__gethex+0x136>
    7e88:	9902      	ldr	r1, [sp, #8]
    7e8a:	2919      	cmp	r1, #25
    7e8c:	dcf8      	bgt.n	7e80 <__gethex+0x11c>
    7e8e:	9b02      	ldr	r3, [sp, #8]
    7e90:	210a      	movs	r1, #10
    7e92:	fb01 3202 	mla	r2, r1, r2, r3
    7e96:	3a10      	subs	r2, #16
    7e98:	e7e9      	b.n	7e6e <__gethex+0x10a>
    7e9a:	18ad      	adds	r5, r5, r2
    7e9c:	e000      	b.n	7ea0 <__gethex+0x13c>
    7e9e:	463b      	mov	r3, r7
    7ea0:	f8ca 3000 	str.w	r3, [r10]
    7ea4:	b13c      	cbz	r4, 7eb6 <__gethex+0x152>
    7ea6:	f1b9 0f00 	cmp.w	r9, #0
    7eaa:	bf0c      	ite	eq
    7eac:	f04f 0906 	moveq.w	r9, #6
    7eb0:	f04f 0900 	movne.w	r9, #0
    7eb4:	e18b      	b.n	81ce <__gethex+0x46a>
    7eb6:	ebcb 0007 	rsb	r0, r11, r7
    7eba:	1e43      	subs	r3, r0, #1
    7ebc:	4621      	mov	r1, r4
    7ebe:	2b07      	cmp	r3, #7
    7ec0:	dd02      	ble.n	7ec8 <__gethex+0x164>
    7ec2:	3101      	adds	r1, #1
    7ec4:	105b      	asrs	r3, r3, #1
    7ec6:	e7fa      	b.n	7ebe <__gethex+0x15a>
    7ec8:	9803      	ldr	r0, [sp, #12]
    7eca:	f7fe fbbb 	bl	6644 <_Balloc>
    7ece:	46b9      	mov	r9, r7
    7ed0:	f100 0314 	add.w	r3, r0, #20
    7ed4:	2700      	movs	r7, #0
    7ed6:	4604      	mov	r4, r0
    7ed8:	9302      	str	r3, [sp, #8]
    7eda:	46ba      	mov	r10, r7
    7edc:	45d9      	cmp	r9, r11
    7ede:	d932      	bls.n	7f46 <__gethex+0x1e2>
    7ee0:	f819 1c01 	ldrb.w	r1, [r9, #-1]
    7ee4:	f8dd c01c 	ldr.w	r12, [sp, #28]
    7ee8:	f109 3eff 	add.w	lr, r9, #4294967295
    7eec:	4561      	cmp	r1, r12
    7eee:	f8cd e014 	str.w	lr, [sp, #20]
    7ef2:	d007      	beq.n	7f04 <__gethex+0x1a0>
    7ef4:	f1ba 0f20 	cmp.w	r10, #32
    7ef8:	d116      	bne.n	7f28 <__gethex+0x1c4>
    7efa:	f843 7b04 	str.w	r7, [r3], #4
    7efe:	2700      	movs	r7, #0
    7f00:	46ba      	mov	r10, r7
    7f02:	e011      	b.n	7f28 <__gethex+0x1c4>
    7f04:	9a05      	ldr	r2, [sp, #20]
    7f06:	f1c8 0001 	rsb	r0, r8, #1
    7f0a:	eb02 0c00 	add.w	r12, r2, r0
    7f0e:	45dc      	cmp	r12, r11
    7f10:	d3f0      	bcc.n	7ef4 <__gethex+0x190>
    7f12:	4660      	mov	r0, r12
    7f14:	9904      	ldr	r1, [sp, #16]
    7f16:	4642      	mov	r2, r8
    7f18:	e88d 1008 	stmia.w	sp, {r3, r12}
    7f1c:	f7fb ff76 	bl	3e0c <strncmp>
    7f20:	e89d 1008 	ldmia.w	sp, {r3, r12}
    7f24:	b168      	cbz	r0, 7f42 <__gethex+0x1de>
    7f26:	e7e5      	b.n	7ef4 <__gethex+0x190>
    7f28:	f819 0c01 	ldrb.w	r0, [r9, #-1]
    7f2c:	4932      	ldr	r1, [pc, #200]	; (7ff8 <__gethex+0x294>)
    7f2e:	f8dd c014 	ldr.w	r12, [sp, #20]
    7f32:	5c0a      	ldrb	r2, [r1, r0]
    7f34:	f002 000f 	and.w	r0, r2, #15
    7f38:	fa00 f10a 	lsl.w	r1, r0, r10
    7f3c:	f10a 0a04 	add.w	r10, r10, #4
    7f40:	430f      	orrs	r7, r1
    7f42:	46e1      	mov	r9, r12
    7f44:	e7ca      	b.n	7edc <__gethex+0x178>
    7f46:	9a02      	ldr	r2, [sp, #8]
    7f48:	f843 7b04 	str.w	r7, [r3], #4
    7f4c:	1a99      	subs	r1, r3, r2
    7f4e:	108b      	asrs	r3, r1, #2
    7f50:	4638      	mov	r0, r7
    7f52:	6123      	str	r3, [r4, #16]
    7f54:	ea4f 1a43 	mov.w	r10, r3, lsl #5
    7f58:	f7fe fc3e 	bl	67d8 <__hi0bits>
    7f5c:	6837      	ldr	r7, [r6, #0]
    7f5e:	ebc0 000a 	rsb	r0, r0, r10
    7f62:	42b8      	cmp	r0, r7
    7f64:	dd2a      	ble.n	7fbc <__gethex+0x258>
    7f66:	ebc7 0900 	rsb	r9, r7, r0
    7f6a:	4649      	mov	r1, r9
    7f6c:	4620      	mov	r0, r4
    7f6e:	f7fe ff45 	bl	6dfc <__any_on>
    7f72:	b1e0      	cbz	r0, 7fae <__gethex+0x24a>
    7f74:	f109 33ff 	add.w	r3, r9, #4294967295
    7f78:	f003 011f 	and.w	r1, r3, #31
    7f7c:	f04f 0a01 	mov.w	r10, #1
    7f80:	fa0a f001 	lsl.w	r0, r10, r1
    7f84:	115a      	asrs	r2, r3, #5
    7f86:	eb04 0182 	add.w	r1, r4, r2, lsl #2
    7f8a:	694a      	ldr	r2, [r1, #20]
    7f8c:	4210      	tst	r0, r2
    7f8e:	d00f      	beq.n	7fb0 <__gethex+0x24c>
    7f90:	4553      	cmp	r3, r10
    7f92:	dc02      	bgt.n	7f9a <__gethex+0x236>
    7f94:	f04f 0a02 	mov.w	r10, #2
    7f98:	e00a      	b.n	7fb0 <__gethex+0x24c>
    7f9a:	4620      	mov	r0, r4
    7f9c:	f1a9 0102 	sub.w	r1, r9, #2
    7fa0:	f7fe ff2c 	bl	6dfc <__any_on>
    7fa4:	2800      	cmp	r0, #0
    7fa6:	d0f5      	beq.n	7f94 <__gethex+0x230>
    7fa8:	f04f 0a03 	mov.w	r10, #3
    7fac:	e000      	b.n	7fb0 <__gethex+0x24c>
    7fae:	4682      	mov	r10, r0
    7fb0:	4620      	mov	r0, r4
    7fb2:	4649      	mov	r1, r9
    7fb4:	f7ff fe7a 	bl	7cac <rshift>
    7fb8:	444d      	add	r5, r9
    7fba:	e00f      	b.n	7fdc <__gethex+0x278>
    7fbc:	da0c      	bge.n	7fd8 <__gethex+0x274>
    7fbe:	ebc0 0907 	rsb	r9, r0, r7
    7fc2:	4621      	mov	r1, r4
    7fc4:	464a      	mov	r2, r9
    7fc6:	9803      	ldr	r0, [sp, #12]
    7fc8:	f7fe fd3e 	bl	6a48 <__lshift>
    7fcc:	f100 0214 	add.w	r2, r0, #20
    7fd0:	4604      	mov	r4, r0
    7fd2:	ebc9 0505 	rsb	r5, r9, r5
    7fd6:	9202      	str	r2, [sp, #8]
    7fd8:	f04f 0a00 	mov.w	r10, #0
    7fdc:	68b3      	ldr	r3, [r6, #8]
    7fde:	429d      	cmp	r5, r3
    7fe0:	dd0c      	ble.n	7ffc <__gethex+0x298>
    7fe2:	9803      	ldr	r0, [sp, #12]
    7fe4:	4621      	mov	r1, r4
    7fe6:	f7fe fb62 	bl	66ae <_Bfree>
    7fea:	9a12      	ldr	r2, [sp, #72]	; 0x48
    7fec:	2000      	movs	r0, #0
    7fee:	6010      	str	r0, [r2, #0]
    7ff0:	f04f 09a3 	mov.w	r9, #163	; 0xa3
    7ff4:	e0eb      	b.n	81ce <__gethex+0x46a>
    7ff6:	bf00      	nop
    7ff8:	100003a0 	.word	0x100003a0
    7ffc:	6870      	ldr	r0, [r6, #4]
    7ffe:	4285      	cmp	r5, r0
    8000:	da58      	bge.n	80b4 <__gethex+0x350>
    8002:	1b45      	subs	r5, r0, r5
    8004:	42bd      	cmp	r5, r7
    8006:	db2e      	blt.n	8066 <__gethex+0x302>
    8008:	68f2      	ldr	r2, [r6, #12]
    800a:	2a02      	cmp	r2, #2
    800c:	d01a      	beq.n	8044 <__gethex+0x2e0>
    800e:	2a03      	cmp	r2, #3
    8010:	d01c      	beq.n	804c <__gethex+0x2e8>
    8012:	2a01      	cmp	r2, #1
    8014:	d11d      	bne.n	8052 <__gethex+0x2ee>
    8016:	42bd      	cmp	r5, r7
    8018:	d11b      	bne.n	8052 <__gethex+0x2ee>
    801a:	2f01      	cmp	r7, #1
    801c:	dc0b      	bgt.n	8036 <__gethex+0x2d2>
    801e:	6873      	ldr	r3, [r6, #4]
    8020:	9806      	ldr	r0, [sp, #24]
    8022:	9902      	ldr	r1, [sp, #8]
    8024:	6003      	str	r3, [r0, #0]
    8026:	9b12      	ldr	r3, [sp, #72]	; 0x48
    8028:	2201      	movs	r2, #1
    802a:	6122      	str	r2, [r4, #16]
    802c:	f04f 0962 	mov.w	r9, #98	; 0x62
    8030:	600a      	str	r2, [r1, #0]
    8032:	601c      	str	r4, [r3, #0]
    8034:	e0cb      	b.n	81ce <__gethex+0x46a>
    8036:	4620      	mov	r0, r4
    8038:	1e79      	subs	r1, r7, #1
    803a:	f7fe fedf 	bl	6dfc <__any_on>
    803e:	2800      	cmp	r0, #0
    8040:	d1ed      	bne.n	801e <__gethex+0x2ba>
    8042:	e006      	b.n	8052 <__gethex+0x2ee>
    8044:	9813      	ldr	r0, [sp, #76]	; 0x4c
    8046:	2800      	cmp	r0, #0
    8048:	d0e9      	beq.n	801e <__gethex+0x2ba>
    804a:	e002      	b.n	8052 <__gethex+0x2ee>
    804c:	9b13      	ldr	r3, [sp, #76]	; 0x4c
    804e:	2b00      	cmp	r3, #0
    8050:	d1e5      	bne.n	801e <__gethex+0x2ba>
    8052:	4621      	mov	r1, r4
    8054:	9803      	ldr	r0, [sp, #12]
    8056:	f7fe fb2a 	bl	66ae <_Bfree>
    805a:	9912      	ldr	r1, [sp, #72]	; 0x48
    805c:	2200      	movs	r2, #0
    805e:	600a      	str	r2, [r1, #0]
    8060:	f04f 0950 	mov.w	r9, #80	; 0x50
    8064:	e0b3      	b.n	81ce <__gethex+0x46a>
    8066:	f105 39ff 	add.w	r9, r5, #4294967295
    806a:	f1ba 0f00 	cmp.w	r10, #0
    806e:	d108      	bne.n	8082 <__gethex+0x31e>
    8070:	f1b9 0f00 	cmp.w	r9, #0
    8074:	dd07      	ble.n	8086 <__gethex+0x322>
    8076:	4620      	mov	r0, r4
    8078:	4649      	mov	r1, r9
    807a:	f7fe febf 	bl	6dfc <__any_on>
    807e:	4682      	mov	r10, r0
    8080:	e001      	b.n	8086 <__gethex+0x322>
    8082:	f04f 0a01 	mov.w	r10, #1
    8086:	f009 031f 	and.w	r3, r9, #31
    808a:	2201      	movs	r2, #1
    808c:	fa02 f003 	lsl.w	r0, r2, r3
    8090:	9b02      	ldr	r3, [sp, #8]
    8092:	ea4f 1169 	mov.w	r1, r9, asr #5
    8096:	f853 1021 	ldr.w	r1, [r3, r1, lsl #2]
    809a:	1b7f      	subs	r7, r7, r5
    809c:	4208      	tst	r0, r1
    809e:	4629      	mov	r1, r5
    80a0:	4620      	mov	r0, r4
    80a2:	bf18      	it	ne
    80a4:	f04a 0a02 	orrne.w	r10, r10, #2
    80a8:	f04f 0902 	mov.w	r9, #2
    80ac:	f7ff fdfe 	bl	7cac <rshift>
    80b0:	6875      	ldr	r5, [r6, #4]
    80b2:	e001      	b.n	80b8 <__gethex+0x354>
    80b4:	f04f 0901 	mov.w	r9, #1
    80b8:	f1ba 0f00 	cmp.w	r10, #0
    80bc:	f000 8083 	beq.w	81c6 <__gethex+0x462>
    80c0:	68f2      	ldr	r2, [r6, #12]
    80c2:	2a02      	cmp	r2, #2
    80c4:	d00e      	beq.n	80e4 <__gethex+0x380>
    80c6:	2a03      	cmp	r2, #3
    80c8:	d010      	beq.n	80ec <__gethex+0x388>
    80ca:	2a01      	cmp	r2, #1
    80cc:	d179      	bne.n	81c2 <__gethex+0x45e>
    80ce:	f01a 0f02 	tst.w	r10, #2
    80d2:	d076      	beq.n	81c2 <__gethex+0x45e>
    80d4:	9802      	ldr	r0, [sp, #8]
    80d6:	6803      	ldr	r3, [r0, #0]
    80d8:	ea4a 0a03 	orr.w	r10, r10, r3
    80dc:	f01a 0f01 	tst.w	r10, #1
    80e0:	d107      	bne.n	80f2 <__gethex+0x38e>
    80e2:	e06e      	b.n	81c2 <__gethex+0x45e>
    80e4:	9a13      	ldr	r2, [sp, #76]	; 0x4c
    80e6:	f1c2 0101 	rsb	r1, r2, #1
    80ea:	e000      	b.n	80ee <__gethex+0x38a>
    80ec:	9913      	ldr	r1, [sp, #76]	; 0x4c
    80ee:	2900      	cmp	r1, #0
    80f0:	d067      	beq.n	81c2 <__gethex+0x45e>
    80f2:	f8d4 8010 	ldr.w	r8, [r4, #16]
    80f6:	f104 0314 	add.w	r3, r4, #20
    80fa:	eb04 0188 	add.w	r1, r4, r8, lsl #2
    80fe:	3114      	adds	r1, #20
    8100:	4618      	mov	r0, r3
    8102:	f853 2b04 	ldr.w	r2, [r3], #4
    8106:	f1b2 3fff 	cmp.w	r2, #4294967295
    810a:	d002      	beq.n	8112 <__gethex+0x3ae>
    810c:	3201      	adds	r2, #1
    810e:	6002      	str	r2, [r0, #0]
    8110:	e022      	b.n	8158 <__gethex+0x3f4>
    8112:	2000      	movs	r0, #0
    8114:	428b      	cmp	r3, r1
    8116:	f843 0c04 	str.w	r0, [r3, #-4]
    811a:	d3f1      	bcc.n	8100 <__gethex+0x39c>
    811c:	68a1      	ldr	r1, [r4, #8]
    811e:	4588      	cmp	r8, r1
    8120:	db13      	blt.n	814a <__gethex+0x3e6>
    8122:	6863      	ldr	r3, [r4, #4]
    8124:	9803      	ldr	r0, [sp, #12]
    8126:	1c59      	adds	r1, r3, #1
    8128:	f7fe fa8c 	bl	6644 <_Balloc>
    812c:	6922      	ldr	r2, [r4, #16]
    812e:	f104 010c 	add.w	r1, r4, #12
    8132:	1c93      	adds	r3, r2, #2
    8134:	4682      	mov	r10, r0
    8136:	009a      	lsls	r2, r3, #2
    8138:	f100 000c 	add.w	r0, r0, #12
    813c:	f7fb fccc 	bl	3ad8 <memcpy>
    8140:	4621      	mov	r1, r4
    8142:	9803      	ldr	r0, [sp, #12]
    8144:	f7fe fab3 	bl	66ae <_Bfree>
    8148:	4654      	mov	r4, r10
    814a:	6920      	ldr	r0, [r4, #16]
    814c:	2101      	movs	r1, #1
    814e:	eb04 0280 	add.w	r2, r4, r0, lsl #2
    8152:	1843      	adds	r3, r0, r1
    8154:	6151      	str	r1, [r2, #20]
    8156:	6123      	str	r3, [r4, #16]
    8158:	f1b9 0f02 	cmp.w	r9, #2
    815c:	d113      	bne.n	8186 <__gethex+0x422>
    815e:	6832      	ldr	r2, [r6, #0]
    8160:	1e50      	subs	r0, r2, #1
    8162:	4287      	cmp	r7, r0
    8164:	d12a      	bne.n	81bc <__gethex+0x458>
    8166:	f007 011f 	and.w	r1, r7, #31
    816a:	2201      	movs	r2, #1
    816c:	fa02 f201 	lsl.w	r2, r2, r1
    8170:	117f      	asrs	r7, r7, #5
    8172:	eb04 0787 	add.w	r7, r4, r7, lsl #2
    8176:	697b      	ldr	r3, [r7, #20]
    8178:	421a      	tst	r2, r3
    817a:	bf0c      	ite	eq
    817c:	f04f 0902 	moveq.w	r9, #2
    8180:	f04f 0901 	movne.w	r9, #1
    8184:	e01a      	b.n	81bc <__gethex+0x458>
    8186:	6920      	ldr	r0, [r4, #16]
    8188:	4540      	cmp	r0, r8
    818a:	dd09      	ble.n	81a0 <__gethex+0x43c>
    818c:	2101      	movs	r1, #1
    818e:	4620      	mov	r0, r4
    8190:	f7ff fd8c 	bl	7cac <rshift>
    8194:	68b3      	ldr	r3, [r6, #8]
    8196:	3501      	adds	r5, #1
    8198:	429d      	cmp	r5, r3
    819a:	f73f af22 	bgt.w	7fe2 <__gethex+0x27e>
    819e:	e00b      	b.n	81b8 <__gethex+0x454>
    81a0:	f017 071f 	ands.w	r7, r7, #31
    81a4:	d008      	beq.n	81b8 <__gethex+0x454>
    81a6:	eb04 0188 	add.w	r1, r4, r8, lsl #2
    81aa:	6908      	ldr	r0, [r1, #16]
    81ac:	f7fe fb14 	bl	67d8 <__hi0bits>
    81b0:	f1c7 0720 	rsb	r7, r7, #32
    81b4:	42b8      	cmp	r0, r7
    81b6:	dbe9      	blt.n	818c <__gethex+0x428>
    81b8:	f04f 0901 	mov.w	r9, #1
    81bc:	f049 0920 	orr.w	r9, r9, #32
    81c0:	e001      	b.n	81c6 <__gethex+0x462>
    81c2:	f049 0910 	orr.w	r9, r9, #16
    81c6:	9812      	ldr	r0, [sp, #72]	; 0x48
    81c8:	9906      	ldr	r1, [sp, #24]
    81ca:	6004      	str	r4, [r0, #0]
    81cc:	600d      	str	r5, [r1, #0]
    81ce:	4648      	mov	r0, r9
    81d0:	b009      	add	sp, #36	; 0x24
    81d2:	e8bd 8ff0 	ldmia.w	sp!, {r4, r5, r6, r7, r8, r9, r10, r11, pc}
    81d6:	bf00      	nop

000081d8 <L_shift>:
    81d8:	f1c2 0208 	rsb	r2, r2, #8
    81dc:	0092      	lsls	r2, r2, #2
    81de:	b570      	push	{r4, r5, r6, lr}
    81e0:	f1c2 0420 	rsb	r4, r2, #32
    81e4:	6805      	ldr	r5, [r0, #0]
    81e6:	f850 3f04 	ldr.w	r3, [r0, #4]!
    81ea:	fa03 f604 	lsl.w	r6, r3, r4
    81ee:	fa23 f302 	lsr.w	r3, r3, r2
    81f2:	4335      	orrs	r5, r6
    81f4:	4288      	cmp	r0, r1
    81f6:	f840 5c04 	str.w	r5, [r0, #-4]
    81fa:	6003      	str	r3, [r0, #0]
    81fc:	d3f2      	bcc.n	81e4 <L_shift+0xc>
    81fe:	bd70      	pop	{r4, r5, r6, pc}

00008200 <__hexnan>:
    8200:	e92d 4ff7 	stmdb	sp!, {r0, r1, r2, r4, r5, r6, r7, r8, r9, r10, r11, lr}
    8204:	4b46      	ldr	r3, [pc, #280]	; (8320 <__hexnan+0x120>)
    8206:	4683      	mov	r11, r0
    8208:	f893 0030 	ldrb.w	r0, [r3, #48]	; 0x30
    820c:	460c      	mov	r4, r1
    820e:	4615      	mov	r5, r2
    8210:	b908      	cbnz	r0, 8216 <__hexnan+0x16>
    8212:	f7ff fd91 	bl	7d38 <__hexdig_init>
    8216:	6821      	ldr	r1, [r4, #0]
    8218:	f8db 3000 	ldr.w	r3, [r11]
    821c:	114e      	asrs	r6, r1, #5
    821e:	eb05 0686 	add.w	r6, r5, r6, lsl #2
    8222:	f011 0a1f 	ands.w	r10, r1, #31
    8226:	bf18      	it	ne
    8228:	3604      	addne	r6, #4
    822a:	f1a6 0904 	sub.w	r9, r6, #4
    822e:	2200      	movs	r2, #0
    8230:	f846 2c04 	str.w	r2, [r6, #-4]
    8234:	464f      	mov	r7, r9
    8236:	464c      	mov	r4, r9
    8238:	4694      	mov	r12, r2
    823a:	4690      	mov	r8, r2
    823c:	7859      	ldrb	r1, [r3, #1]
    823e:	b3b9      	cbz	r1, 82b0 <__hexnan+0xb0>
    8240:	4837      	ldr	r0, [pc, #220]	; (8320 <__hexnan+0x120>)
    8242:	5c40      	ldrb	r0, [r0, r1]
    8244:	b9f0      	cbnz	r0, 8284 <__hexnan+0x84>
    8246:	2920      	cmp	r1, #32
    8248:	d816      	bhi.n	8278 <__hexnan+0x78>
    824a:	45c4      	cmp	r12, r8
    824c:	da2e      	bge.n	82ac <__hexnan+0xac>
    824e:	42bc      	cmp	r4, r7
    8250:	d209      	bcs.n	8266 <__hexnan+0x66>
    8252:	2a07      	cmp	r2, #7
    8254:	dc07      	bgt.n	8266 <__hexnan+0x66>
    8256:	4620      	mov	r0, r4
    8258:	4639      	mov	r1, r7
    825a:	e88d 1008 	stmia.w	sp, {r3, r12}
    825e:	f7ff ffbb 	bl	81d8 <L_shift>
    8262:	e89d 1008 	ldmia.w	sp, {r3, r12}
    8266:	42ac      	cmp	r4, r5
    8268:	d91f      	bls.n	82aa <__hexnan+0xaa>
    826a:	2200      	movs	r2, #0
    826c:	f844 2c04 	str.w	r2, [r4, #-4]
    8270:	3c04      	subs	r4, #4
    8272:	46c4      	mov	r12, r8
    8274:	4627      	mov	r7, r4
    8276:	e019      	b.n	82ac <__hexnan+0xac>
    8278:	2929      	cmp	r1, #41	; 0x29
    827a:	d14c      	bne.n	8316 <__hexnan+0x116>
    827c:	3302      	adds	r3, #2
    827e:	f8cb 3000 	str.w	r3, [r11]
    8282:	e015      	b.n	82b0 <__hexnan+0xb0>
    8284:	3201      	adds	r2, #1
    8286:	2a08      	cmp	r2, #8
    8288:	f108 0801 	add.w	r8, r8, #1
    828c:	dd06      	ble.n	829c <__hexnan+0x9c>
    828e:	42ac      	cmp	r4, r5
    8290:	d90c      	bls.n	82ac <__hexnan+0xac>
    8292:	2200      	movs	r2, #0
    8294:	f844 2c04 	str.w	r2, [r4, #-4]
    8298:	3c04      	subs	r4, #4
    829a:	2201      	movs	r2, #1
    829c:	6821      	ldr	r1, [r4, #0]
    829e:	f000 000f 	and.w	r0, r0, #15
    82a2:	ea40 1101 	orr.w	r1, r0, r1, lsl #4
    82a6:	6021      	str	r1, [r4, #0]
    82a8:	e000      	b.n	82ac <__hexnan+0xac>
    82aa:	2208      	movs	r2, #8
    82ac:	3301      	adds	r3, #1
    82ae:	e7c5      	b.n	823c <__hexnan+0x3c>
    82b0:	f1b8 0f00 	cmp.w	r8, #0
    82b4:	d02f      	beq.n	8316 <__hexnan+0x116>
    82b6:	42bc      	cmp	r4, r7
    82b8:	d205      	bcs.n	82c6 <__hexnan+0xc6>
    82ba:	2a07      	cmp	r2, #7
    82bc:	dc03      	bgt.n	82c6 <__hexnan+0xc6>
    82be:	4620      	mov	r0, r4
    82c0:	4639      	mov	r1, r7
    82c2:	f7ff ff89 	bl	81d8 <L_shift>
    82c6:	42ac      	cmp	r4, r5
    82c8:	d90d      	bls.n	82e6 <__hexnan+0xe6>
    82ca:	462a      	mov	r2, r5
    82cc:	f854 3b04 	ldr.w	r3, [r4], #4
    82d0:	f842 3b04 	str.w	r3, [r2], #4
    82d4:	45a1      	cmp	r9, r4
    82d6:	4610      	mov	r0, r2
    82d8:	d2f8      	bcs.n	82cc <__hexnan+0xcc>
    82da:	2100      	movs	r1, #0
    82dc:	f840 1b04 	str.w	r1, [r0], #4
    82e0:	4548      	cmp	r0, r9
    82e2:	d9fa      	bls.n	82da <__hexnan+0xda>
    82e4:	e00e      	b.n	8304 <__hexnan+0x104>
    82e6:	f1ba 0f00 	cmp.w	r10, #0
    82ea:	d00b      	beq.n	8304 <__hexnan+0x104>
    82ec:	f1ca 0a20 	rsb	r10, r10, #32
    82f0:	f04f 32ff 	mov.w	r2, #4294967295
    82f4:	fa22 fa0a 	lsr.w	r10, r2, r10
    82f8:	f856 0c04 	ldr.w	r0, [r6, #-4]
    82fc:	ea00 010a 	and.w	r1, r0, r10
    8300:	f846 1c04 	str.w	r1, [r6, #-4]
    8304:	f856 2c04 	ldr.w	r2, [r6, #-4]
    8308:	3e04      	subs	r6, #4
    830a:	b932      	cbnz	r2, 831a <__hexnan+0x11a>
    830c:	42b5      	cmp	r5, r6
    830e:	d1f9      	bne.n	8304 <__hexnan+0x104>
    8310:	2301      	movs	r3, #1
    8312:	602b      	str	r3, [r5, #0]
    8314:	e001      	b.n	831a <__hexnan+0x11a>
    8316:	2004      	movs	r0, #4
    8318:	e000      	b.n	831c <__hexnan+0x11c>
    831a:	2005      	movs	r0, #5
    831c:	e8bd 8ffe 	ldmia.w	sp!, {r1, r2, r3, r4, r5, r6, r7, r8, r9, r10, r11, pc}
    8320:	100003a0 	.word	0x100003a0

00008324 <__aeabi_d2uiz>:
    8324:	004a      	lsls	r2, r1, #1
    8326:	d211      	bcs.n	834c <__aeabi_d2uiz+0x28>
    8328:	f512 1200 	adds.w	r2, r2, #2097152	; 0x200000
    832c:	d211      	bcs.n	8352 <__aeabi_d2uiz+0x2e>
    832e:	d50d      	bpl.n	834c <__aeabi_d2uiz+0x28>
    8330:	f46f 7378 	mvn.w	r3, #992	; 0x3e0
    8334:	ebb3 5262 	subs.w	r2, r3, r2, asr #21
    8338:	d40e      	bmi.n	8358 <__aeabi_d2uiz+0x34>
    833a:	ea4f 23c1 	mov.w	r3, r1, lsl #11
    833e:	f043 4300 	orr.w	r3, r3, #2147483648	; 0x80000000
    8342:	ea43 5350 	orr.w	r3, r3, r0, lsr #21
    8346:	fa23 f002 	lsr.w	r0, r3, r2
    834a:	4770      	bx	lr
    834c:	f04f 0000 	mov.w	r0, #0
    8350:	4770      	bx	lr
    8352:	ea50 3001 	orrs.w	r0, r0, r1, lsl #12
    8356:	d102      	bne.n	835e <__aeabi_d2uiz+0x3a>
    8358:	f04f 30ff 	mov.w	r0, #4294967295
    835c:	4770      	bx	lr
    835e:	f04f 0000 	mov.w	r0, #0
    8362:	4770      	bx	lr

00008364 <_isatty>:
    8364:	f240 339c 	movw	r3, #924	; 0x39c
    8368:	f2c1 0300 	movt	r3, #4096	; 0x1000
    836c:	2258      	movs	r2, #88	; 0x58
    836e:	601a      	str	r2, [r3, #0]
    8370:	2000      	movs	r0, #0
    8372:	4770      	bx	lr

00008374 <_sbrk>:
    8374:	4a06      	ldr	r2, [pc, #24]	; (8390 <_sbrk+0x1c>)
    8376:	f240 43a0 	movw	r3, #1184	; 0x4a0
    837a:	6811      	ldr	r1, [r2, #0]
    837c:	f2c1 0300 	movt	r3, #4096	; 0x1000
    8380:	2900      	cmp	r1, #0
    8382:	bf18      	it	ne
    8384:	460b      	movne	r3, r1
    8386:	1818      	adds	r0, r3, r0
    8388:	6010      	str	r0, [r2, #0]
    838a:	4618      	mov	r0, r3
    838c:	4770      	bx	lr
    838e:	bf00      	nop
    8390:	10000390 	.word	0x10000390

00008394 <fabs>:
    8394:	f021 4100 	bic.w	r1, r1, #2147483648	; 0x80000000
    8398:	4770      	bx	lr
    839a:	bf00      	nop

0000839c <_init>:
    839c:	b5f8      	push	{r3, r4, r5, r6, r7, lr}
    839e:	bf00      	nop
    83a0:	bcf8      	pop	{r3, r4, r5, r6, r7}
    83a2:	bc08      	pop	{r3}
    83a4:	469e      	mov	lr, r3
    83a6:	4770      	bx	lr

000083a8 <_fini>:
    83a8:	b5f8      	push	{r3, r4, r5, r6, r7, lr}
    83aa:	bf00      	nop
    83ac:	bcf8      	pop	{r3, r4, r5, r6, r7}
    83ae:	bc08      	pop	{r3}
    83b0:	469e      	mov	lr, r3
    83b2:	4770      	bx	lr
    83b4:	6174530d 	.word	0x6174530d
    83b8:	72207472 	.word	0x72207472
    83bc:	69676e61 	.word	0x69676e61
    83c0:	7420676e 	.word	0x7420676e
    83c4:	0d747365 	.word	0x0d747365
    83c8:	0000000a 	.word	0x0000000a
    83cc:	00000a20 	.word	0x00000a20
    83d0:	6e615220 	.word	0x6e615220
    83d4:	315f6567 	.word	0x315f6567
    83d8:	6925203a 	.word	0x6925203a
    83dc:	00000000 	.word	0x00000000
    83e0:	67694c20 	.word	0x67694c20
    83e4:	315f7468 	.word	0x315f7468
    83e8:	6925203a 	.word	0x6925203a
    83ec:	00000000 	.word	0x00000000
    83f0:	00000a0d 	.word	0x00000a0d

000083f4 <_ZTSN4mbed6SerialE>:
    83f4:	626d344e 53366465 61697265 0000456c     N4mbed6SerialE..
    8404:	00000000                                ....

00008408 <_ZTVN4mbed6SerialE>:
    8408:	00000000 00008450 00000ab9 00000ab5     ....P...........
    8418:	00000b31 00000bb1 00000bad 00000bb5     1...............
    8428:	00000bb9 00000121 000001e1 0000071d     ....!...........
    8438:	0000072d fffffffc 00008450 0000013d     -.......P...=...
    8448:	00000201 00000000                       ........

00008450 <_ZTIN4mbed6SerialE>:
    8450:	000088e0 000083f4 00008518              ............

0000845c <__stdin_name>:
    845c:	6474732f 00006e69                       /stdin..

00008464 <__stderr_name>:
    8464:	6474732f 00727265                       /stderr.

0000846c <_ZTSN4mbed10FileHandleE>:
    846c:	626d344e 30316465 656c6946 646e6148     N4mbed10FileHand
    847c:	0045656c                                leE.

00008480 <__stdout_name>:
    8480:	6474732f 0074756f                       /stdout.

00008488 <_ZTIN4mbed10FileHandleE>:
    8488:	00008948 0000846c                       H...l...

00008490 <_ZTVN4mbed10FileHandleE>:
    8490:	00000000 00008488 00000419 00000419     ................
    84a0:	00000419 00000419 00000419 00000419     ................
    84b0:	0000079d 000007d5 00000815 00000000     ................
    84c0:	0070253a 65637845 6f697470 0000006e     :%p.Exception...

000084d0 <_ZTVN4mbed6StreamE>:
    84d0:	00000000 00008518 00000ab9 00000ab5     ................
    84e0:	00000b31 00000bb1 00000bad 00000bb5     1...............
    84f0:	00000bb9 00000bbd 00000bed 00000419     ................
    8500:	00000419 fffffffc 00008518 00000be5     ................
    8510:	00000c01 00000000                       ........

00008518 <_ZTIN4mbed6StreamE>:
    8518:	000088e0 00008528 00008834 00002b77     ....(...4...w+..

00008528 <_ZTSN4mbed6StreamE>:
    8528:	626d344e 53366465 61657274 0000456d     N4mbed6StreamE..

00008538 <_ZTIN4mbed6TickerE>:
    8538:	000088e0 00008544 000085a8              ....D.......

00008544 <_ZTSN4mbed6TickerE>:
    8544:	626d344e 54366465 656b6369 00004572     N4mbed6TickerE..
    8554:	00000000                                ....

00008558 <_ZTVN4mbed6TickerE>:
    8558:	00000000 00008538 00000c7d 00000cad     ....8...}.......
    8568:	00000c91 00000000                       ........

00008570 <_ZTIN4mbed7TimeoutE>:
    8570:	000088e0 00008598 00008538 00000000     ........8.......

00008580 <_ZTVN4mbed7TimeoutE>:
    8580:	00000000 00008570 00000ced 00000d01     ....p...........
    8590:	00000ce5 00000000                       ........

00008598 <_ZTSN4mbed7TimeoutE>:
    8598:	626d344e 54376465 6f656d69 00457475     N4mbed7TimeoutE.

000085a8 <_ZTIN4mbed10TimerEventE>:
    85a8:	00008948 000085c8                       H.......

000085b0 <_ZTVN4mbed10TimerEventE>:
    85b0:	00000000 000085a8 00000d55 00000d69     ........U...i...
    85c0:	00000419 00000000                       ........

000085c8 <_ZTSN4mbed10TimerEventE>:
    85c8:	626d344e 30316465 656d6954 65764572     N4mbed10TimerEve
    85d8:	0045746e                                ntE.

000085dc <PinMap_I2C_SDA>:
    85dc:	2009c000 4005c000 00000003 2009c00a     ... ...@....... 
    85ec:	400a0000 00000002 2009c013 4005c000     ...@....... ...@
    85fc:	00000003 2009c01b 4001c000 00000001     ....... ...@....
    860c:	ffffffff ffffffff 00000000 20433249     ............I2C 
    861c:	206e6970 7070616d 20676e69 6c696166     pin mapping fail
    862c:	00006465                                ed..

00008630 <PinMap_I2C_SCL>:
    8630:	2009c001 4005c000 00000003 2009c00b     ... ...@....... 
    8640:	400a0000 00000002 2009c014 4005c000     ...@....... ...@
    8650:	00000003 2009c01c 4001c000 00000001     ....... ...@....
    8660:	ffffffff ffffffff 00000000              ............

0000866c <PinMap_UART_RX>:
    866c:	2009c001 4009c000 00000002 2009c003     ... ...@....... 
    867c:	4000c000 00000001 2009c00b 40098000     ...@....... ...@
    868c:	00000001 2009c010 40010000 00000001     ....... ...@....
    869c:	2009c01a 4009c000 00000003 2009c041     ... ...@....A.. 
    86ac:	40010000 00000002 2009c049 40098000     ...@....I.. ...@
    86bc:	00000002 2009c09d 4009c000 00000003     ....... ...@....
    86cc:	ffffffff ffffffff 00000000 69726573     ............seri
    86dc:	625f6c61 00647561 61766e49 2064696c     al_baud.Invalid 
    86ec:	626d756e 6f207265 69622066 28207374     number of bits (
    86fc:	20296425 73206e69 61697265 6f66206c     %d) in serial fo
    870c:	74616d72 6873202c 646c756f 20656220     rmat, should be 
    871c:	382e2e35 00000000 61766e49 2064696c     5..8....Invalid 
    872c:	69726573 70206c61 74697261 65732079     serial parity se
    873c:	6e697474 00000067 61766e49 2064696c     tting...Invalid 
    874c:	706f7473 74696220 70732073 66696365     stop bits specif
    875c:	00646569 69726553 70206c61 756f6e69     ied.Serial pinou
    876c:	616d2074 6e697070 61662067 64656c69     t mapping failed
    877c:	00000000                                ....

00008780 <PinMap_UART_TX>:
    8780:	2009c000 4009c000 00000002 2009c002     ... ...@....... 
    8790:	4000c000 00000001 2009c00a 40098000     ...@....... ...@
    87a0:	00000001 2009c00f 40010000 00000001     ....... ...@....
    87b0:	2009c019 4009c000 00000003 2009c040     ... ...@....@.. 
    87c0:	40010000 00000002 2009c048 40098000     ...@....H.. ...@
    87d0:	00000002 2009c09c 4009c000 00000003     ....... ...@....
    87e0:	ffffffff ffffffff 00000000 6c756f63     ............coul
    87f0:	6f6e2064 69702074 74756f6e 00000000     d not pinout....
    8800:	6d6e6970 6d207061 6d2d7369 68637461     pinmap mis-match
    8810:	00000000 6d6e6970 6e207061 6620746f     ....pinmap not f
    8820:	646e756f 726f6620 72657020 65687069     ound for periphe
    8830:	006c6172                                ral.

00008834 <_ZTIN4mbed8FileLikeE>:
    8834:	000089e0 00008854 00000000 00000002     ....T...........
    8844:	00008488 00000002 000088d0 00000402     ................

00008854 <_ZTSN4mbed8FileLikeE>:
    8854:	626d344e 46386465 4c656c69 45656b69     N4mbed8FileLikeE
    8864:	00000000                                ....

00008868 <_ZTVN4mbed8FileLikeE>:
    8868:	00000000 00008834 00000419 00000419     ....4...........
    8878:	00000419 00000419 00000419 00000419     ................
    8888:	0000079d 00001ac5 00001af5 fffffffc     ................
    8898:	00008834 00001aed 00001b09 00000000     4...............

000088a8 <_ZTSN4mbed8FileBaseE>:
    88a8:	626d344e 46386465 42656c69 45657361     N4mbed8FileBaseE
	...

000088c0 <_ZTVN4mbed8FileBaseE>:
    88c0:	00000000 000088d0 00001bed 00001c1d     ................

000088d0 <_ZTIN4mbed8FileBaseE>:
    88d0:	00008948 000088a8                       H.......

000088d8 <_ZTVN10__cxxabiv120__si_class_type_infoE>:
    88d8:	00000000 00008908 00001d39 00001d4d     ........9...M...
    88e8:	00002311 00002315 00001e77 00001dbd     .#...#..w.......
    88f8:	00001d5f 00001cbd 00001d83 00000000     _...............

00008908 <_ZTIN10__cxxabiv120__si_class_type_infoE>:
    8908:	000088e0 00008914 00008970              ........p...

00008914 <_ZTSN10__cxxabiv120__si_class_type_infoE>:
    8914:	5f30314e 7878635f 76696261 5f303231     N10__cxxabiv120_
    8924:	5f69735f 73616c63 79745f73 695f6570     _si_class_type_i
    8934:	456f666e 00000000 00000000              nfoE........

00008940 <_ZTVN10__cxxabiv117__class_type_infoE>:
    8940:	00000000 00008970 00001e19 00001e2d     ....p.......-...
    8950:	00002311 00002315 00001e77 00001dbd     .#...#..w.......
    8960:	00001dff 00001e3f 00001df3 00000000     ....?...........

00008970 <_ZTIN10__cxxabiv117__class_type_infoE>:
    8970:	000088e0 0000897c 00008a08              ....|.......

0000897c <_ZTSN10__cxxabiv117__class_type_infoE>:
    897c:	5f30314e 7878635f 76696261 5f373131     N10__cxxabiv117_
    898c:	616c635f 745f7373 5f657079 6f666e69     _class_type_info
    899c:	00000045                                E...

000089a0 <_ZTIN10__cxxabiv121__vmi_class_type_infoE>:
    89a0:	000088e0 000089ac 00008970              ........p...

000089ac <_ZTSN10__cxxabiv121__vmi_class_type_infoE>:
    89ac:	5f30314e 7878635f 76696261 5f313231     N10__cxxabiv121_
    89bc:	696d765f 616c635f 745f7373 5f657079     _vmi_class_type_
    89cc:	6f666e69 00000045 00000000              infoE.......

000089d8 <_ZTVN10__cxxabiv121__vmi_class_type_infoE>:
    89d8:	00000000 000089a0 00001ea9 00001ebd     ................
    89e8:	00002311 00002315 00001e77 00001dbd     .#...#..w.......
    89f8:	00001f41 00002067 00001ecf 00000000     A...g ..........

00008a08 <_ZTISt9type_info>:
    8a08:	00008948 00008a10                       H.......

00008a10 <_ZTSSt9type_info>:
    8a10:	74397453 5f657079 6f666e69 00000000     St9type_info....

00008a20 <_ZTVSt9type_info>:
    8a20:	00000000 00008a08 00002305 0000231d     .........#...#..
    8a30:	00002311 00002315 00002359 00002319     .#...#..Y#...#..

00008a40 <__sf_fake_stdin>:
	...

00008a60 <__sf_fake_stdout>:
	...

00008a80 <__sf_fake_stderr>:
	...
    8aa0:	00000043                                C...

00008aa4 <_global_impure_ptr>:
    8aa4:	100000d0 2b302d23 6c680020 6665004c     ....#-0+ .hlL.ef
    8ab4:	47464567 464e4900 666e6900 4e414e00     gEFG.INF.inf.NAN
    8ac4:	6e616e00 32313000 36353433 41393837     .nan.0123456789A
    8ad4:	45444342 31300046 35343332 39383736     BCDEF.0123456789
    8ae4:	64636261 65006665 00646c25 00008b0e     abcdef.e%ld.....
    8af4:	00008b11 00008b14 61462d41 3938662d     ........A-Fa-f89
    8b04:	33323130 37363534 2d2b005d 00303000     01234567].+-.00.
    8b14:	00005878                                         xX.

00008b17 <_ctype_>:
    8b17:	20202000 20202020 28282020 20282828     .         ((((( 
    8b27:	20202020 20202020 20202020 20202020                     
    8b37:	10108820 10101010 10101010 10101010      ...............
    8b47:	04040410 04040404 10040404 10101010     ................
    8b57:	41411010 41414141 01010101 01010101     ..AAAAAA........
    8b67:	01010101 01010101 01010101 10101010     ................
    8b77:	42421010 42424242 02020202 02020202     ..BBBBBB........
    8b87:	02020202 02020202 02020202 10101010     ................
    8b97:	00000020 00000000 00000000 00000000      ...............
	...
    8c17:	666e4900 74696e69 614e0079 4f50004e     .Infinity.NaN.PO
    8c27:	00584953 0000002e 00000000                       SIX......

00008c30 <__mprec_tens>:
    8c30:	00000000 3ff00000 00000000 40240000     .......?......$@
    8c40:	00000000 40590000 00000000 408f4000     ......Y@.....@.@
    8c50:	00000000 40c38800 00000000 40f86a00     .......@.....j.@
    8c60:	00000000 412e8480 00000000 416312d0     .......A......cA
    8c70:	00000000 4197d784 00000000 41cdcd65     .......A....e..A
    8c80:	20000000 4202a05f e8000000 42374876     ... _..B....vH7B
    8c90:	a2000000 426d1a94 e5400000 42a2309c     ......mB..@..0.B
    8ca0:	1e900000 42d6bcc4 26340000 430c6bf5     .......B..4&.k.C
    8cb0:	37e08000 4341c379 85d8a000 43763457     ...7y.AC....W4vC
    8cc0:	674ec800 43abc16d 60913d00 43e158e4     ..Ngm..C.=.`.X.C
    8cd0:	78b58c40 4415af1d d6e2ef50 444b1ae4     @..x...DP.....KD
    8ce0:	064dd592 4480f0cf c7e14af6 44b52d02     ..M....D.J...-.D
    8cf0:	79d99db4 44ea7843                       ...yCx.D

00008cf8 <p05.5252>:
    8cf8:	00000005 00000019 0000007d 00000000     ........}.......

00008d08 <__mprec_bigtens>:
    8d08:	37e08000 4341c379 b5056e17 4693b8b5     ...7y.AC.n.....F
    8d18:	e93ff9f5 4d384f03 f9301d32 5a827748     ..?..O8M2.0.Hw.Z
    8d28:	7f73bf3c 75154fdd                       <.s..O.u

00008d30 <tinytens>:
    8d30:	97d889bc 3c9cd2b2 d5a8a733 3949f623     .......<3...#.I9
    8d40:	44f4a73d 32a50ffd cf8c979d 255bba08     =..D...2......[%
    8d50:	64ac6f43 0e180628 33323130 37363534     Co.d(...01234567
    8d60:	00003938                                89..

00008d64 <__EH_FRAME_BEGIN__>:
    8d64:	00000000                                ....
