
maxbotixEMbed.elf:     file format elf32-littlearm
architecture: arm, flags 0x00000112:
EXEC_P, HAS_SYMS, D_PAGED
start address 0x00000191


Disassembly of section .text:

00000000 <__isr_vector>:
       0:	10008000 	.word	0x10008000
       4:	00000191 	.word	0x00000191
       8:	000001c5 	.word	0x000001c5
       c:	000001c7 	.word	0x000001c7
      10:	000001c9 	.word	0x000001c9
      14:	000001cb 	.word	0x000001cb
      18:	000001cd 	.word	0x000001cd
	...
      2c:	000001cf 	.word	0x000001cf
      30:	000001d1 	.word	0x000001d1
      34:	00000000 	.word	0x00000000
      38:	000001d3 	.word	0x000001d3
      3c:	000001d5 	.word	0x000001d5
      40:	000001d9 	.word	0x000001d9
      44:	000001db 	.word	0x000001db
      48:	000001dd 	.word	0x000001dd
      4c:	000001df 	.word	0x000001df
      50:	000001e1 	.word	0x000001e1
      54:	000001e3 	.word	0x000001e3
      58:	000001e5 	.word	0x000001e5
      5c:	000001e7 	.word	0x000001e7
      60:	000001e9 	.word	0x000001e9
      64:	000001eb 	.word	0x000001eb
      68:	000001ed 	.word	0x000001ed
      6c:	000001ef 	.word	0x000001ef
      70:	000001f1 	.word	0x000001f1
      74:	000001f3 	.word	0x000001f3
      78:	000001f5 	.word	0x000001f5
      7c:	000001f7 	.word	0x000001f7
      80:	000001f9 	.word	0x000001f9
      84:	000001fb 	.word	0x000001fb
      88:	000001fd 	.word	0x000001fd
      8c:	000001ff 	.word	0x000001ff
      90:	00000201 	.word	0x00000201
      94:	00000203 	.word	0x00000203
      98:	00000205 	.word	0x00000205
      9c:	00000207 	.word	0x00000207
      a0:	00000209 	.word	0x00000209
      a4:	0000020b 	.word	0x0000020b
      a8:	0000020d 	.word	0x0000020d
      ac:	0000020f 	.word	0x0000020f
      b0:	00000211 	.word	0x00000211
      b4:	00000213 	.word	0x00000213
      b8:	00000215 	.word	0x00000215
      bc:	00000217 	.word	0x00000217
      c0:	00000219 	.word	0x00000219
      c4:	0000021b 	.word	0x0000021b
      c8:	0000021d 	.word	0x0000021d

000000cc <__do_global_dtors_aux>:
      cc:	b510      	push	{r4, lr}
      ce:	4c05      	ldr	r4, [pc, #20]	; (e4 <__do_global_dtors_aux+0x18>)
      d0:	7823      	ldrb	r3, [r4, #0]
      d2:	b933      	cbnz	r3, e2 <__do_global_dtors_aux+0x16>
      d4:	4804      	ldr	r0, [pc, #16]	; (e8 <__do_global_dtors_aux+0x1c>)
      d6:	b110      	cbz	r0, de <__do_global_dtors_aux+0x12>
      d8:	4804      	ldr	r0, [pc, #16]	; (ec <__do_global_dtors_aux+0x20>)
      da:	f3af 8000 	nop.w
      de:	2101      	movs	r1, #1
      e0:	7021      	strb	r1, [r4, #0]
      e2:	bd10      	pop	{r4, pc}
      e4:	100001a0 	.word	0x100001a0
      e8:	00000000 	.word	0x00000000
      ec:	0000656c 	.word	0x0000656c

000000f0 <frame_dummy>:
      f0:	b508      	push	{r3, lr}
      f2:	4b06      	ldr	r3, [pc, #24]	; (10c <frame_dummy+0x1c>)
      f4:	b11b      	cbz	r3, fe <frame_dummy+0xe>
      f6:	4806      	ldr	r0, [pc, #24]	; (110 <frame_dummy+0x20>)
      f8:	4906      	ldr	r1, [pc, #24]	; (114 <frame_dummy+0x24>)
      fa:	f3af 8000 	nop.w
      fe:	4806      	ldr	r0, [pc, #24]	; (118 <frame_dummy+0x28>)
     100:	6801      	ldr	r1, [r0, #0]
     102:	b111      	cbz	r1, 10a <frame_dummy+0x1a>
     104:	4a05      	ldr	r2, [pc, #20]	; (11c <frame_dummy+0x2c>)
     106:	b102      	cbz	r2, 10a <frame_dummy+0x1a>
     108:	4790      	blx	r2
     10a:	bd08      	pop	{r3, pc}
     10c:	00000000 	.word	0x00000000
     110:	0000656c 	.word	0x0000656c
     114:	100001a4 	.word	0x100001a4
     118:	100001a0 	.word	0x100001a0
     11c:	00000000 	.word	0x00000000

00000120 <main>:
     120:	b510      	push	{r4, lr}
     122:	f246 046c 	movw	r4, #24684	; 0x606c
     126:	f2c0 0400 	movt	r4, #0
     12a:	4620      	mov	r0, r4
     12c:	f001 fe42 	bl	1db4 <puts>
     130:	f246 0070 	movw	r0, #24688	; 0x6070
     134:	f2c0 0000 	movt	r0, #0
     138:	f001 fe3c 	bl	1db4 <puts>
     13c:	4620      	mov	r0, r4
     13e:	f001 fe39 	bl	1db4 <puts>
     142:	4620      	mov	r0, r4
     144:	f001 fe36 	bl	1db4 <puts>
     148:	f246 008c 	movw	r0, #24716	; 0x608c
     14c:	f2c0 0000 	movt	r0, #0
     150:	f001 fe30 	bl	1db4 <puts>
     154:	2000      	movs	r0, #0
     156:	bd10      	pop	{r4, pc}

00000158 <_start>:
     158:	f240 10a0 	movw	r0, #416	; 0x1a0
     15c:	f240 32dc 	movw	r2, #988	; 0x3dc
     160:	f2c1 0000 	movt	r0, #4096	; 0x1000
     164:	f2c1 0200 	movt	r2, #4096	; 0x1000
     168:	b508      	push	{r3, lr}
     16a:	2100      	movs	r1, #0
     16c:	1a12      	subs	r2, r2, r0
     16e:	f001 fe18 	bl	1da2 <memset>
     172:	f3af 8000 	nop.w
     176:	f001 fd93 	bl	1ca0 <__libc_init_array>
     17a:	f7ff ffd1 	bl	120 <main>
     17e:	f000 f8bd 	bl	2fc <exit>
     182:	bf00      	nop

00000184 <__wrap__isatty>:
     184:	2802      	cmp	r0, #2
     186:	dc01      	bgt.n	18c <__wrap__isatty+0x8>
     188:	2001      	movs	r0, #1
     18a:	4770      	bx	lr
     18c:	f005 bf46 	b.w	601c <_isatty>

00000190 <Reset_Handler>:
     190:	4907      	ldr	r1, [pc, #28]	; (1b0 <.flash_to_ram_loop+0x1a>)
     192:	4a08      	ldr	r2, [pc, #32]	; (1b4 <.flash_to_ram_loop+0x1e>)
     194:	4b08      	ldr	r3, [pc, #32]	; (1b8 <.flash_to_ram_loop+0x22>)

00000196 <.flash_to_ram_loop>:
     196:	429a      	cmp	r2, r3
     198:	bfbe      	ittt	lt
     19a:	f851 0b04 	ldrlt.w	r0, [r1], #4
     19e:	f842 0b04 	strlt.w	r0, [r2], #4
     1a2:	f7ff bff8 	blt.w	196 <.flash_to_ram_loop>
     1a6:	4805      	ldr	r0, [pc, #20]	; (1bc <.flash_to_ram_loop+0x26>)
     1a8:	4780      	blx	r0
     1aa:	4805      	ldr	r0, [pc, #20]	; (1c0 <.flash_to_ram_loop+0x2a>)
     1ac:	4700      	bx	r0
     1ae:	0000      	.short	0x0000
     1b0:	00006570 	.word	0x00006570
     1b4:	100000c8 	.word	0x100000c8
     1b8:	100001a0 	.word	0x100001a0
     1bc:	00000221 	.word	0x00000221
     1c0:	00000159 	.word	0x00000159

000001c4 <NMI_Handler>:
     1c4:	e7fe      	b.n	1c4 <NMI_Handler>

000001c6 <HardFault_Handler>:
     1c6:	e7fe      	b.n	1c6 <HardFault_Handler>

000001c8 <MemManage_Handler>:
     1c8:	e7fe      	b.n	1c8 <MemManage_Handler>

000001ca <BusFault_Handler>:
     1ca:	e7fe      	b.n	1ca <BusFault_Handler>

000001cc <UsageFault_Handler>:
     1cc:	e7fe      	b.n	1cc <UsageFault_Handler>

000001ce <SVC_Handler>:
     1ce:	e7fe      	b.n	1ce <SVC_Handler>

000001d0 <DebugMon_Handler>:
     1d0:	e7fe      	b.n	1d0 <DebugMon_Handler>

000001d2 <PendSV_Handler>:
     1d2:	e7fe      	b.n	1d2 <PendSV_Handler>

000001d4 <SysTick_Handler>:
     1d4:	e7fe      	b.n	1d4 <SysTick_Handler>

000001d6 <DEF_IRQHandler>:
     1d6:	e7fe      	b.n	1d6 <DEF_IRQHandler>

000001d8 <WDT_IRQHandler>:
     1d8:	e7fe      	b.n	1d8 <WDT_IRQHandler>

000001da <TIMER0_IRQHandler>:
     1da:	e7fe      	b.n	1da <TIMER0_IRQHandler>

000001dc <TIMER1_IRQHandler>:
     1dc:	e7fe      	b.n	1dc <TIMER1_IRQHandler>

000001de <TIMER2_IRQHandler>:
     1de:	e7fe      	b.n	1de <TIMER2_IRQHandler>

000001e0 <TIMER3_IRQHandler>:
     1e0:	e7fe      	b.n	1e0 <TIMER3_IRQHandler>

000001e2 <UART0_IRQHandler>:
     1e2:	e7fe      	b.n	1e2 <UART0_IRQHandler>

000001e4 <UART1_IRQHandler>:
     1e4:	e7fe      	b.n	1e4 <UART1_IRQHandler>

000001e6 <UART2_IRQHandler>:
     1e6:	e7fe      	b.n	1e6 <UART2_IRQHandler>

000001e8 <UART3_IRQHandler>:
     1e8:	e7fe      	b.n	1e8 <UART3_IRQHandler>

000001ea <PWM1_IRQHandler>:
     1ea:	e7fe      	b.n	1ea <PWM1_IRQHandler>

000001ec <I2C0_IRQHandler>:
     1ec:	e7fe      	b.n	1ec <I2C0_IRQHandler>

000001ee <I2C1_IRQHandler>:
     1ee:	e7fe      	b.n	1ee <I2C1_IRQHandler>

000001f0 <I2C2_IRQHandler>:
     1f0:	e7fe      	b.n	1f0 <I2C2_IRQHandler>

000001f2 <SPI_IRQHandler>:
     1f2:	e7fe      	b.n	1f2 <SPI_IRQHandler>

000001f4 <SSP0_IRQHandler>:
     1f4:	e7fe      	b.n	1f4 <SSP0_IRQHandler>

000001f6 <SSP1_IRQHandler>:
     1f6:	e7fe      	b.n	1f6 <SSP1_IRQHandler>

000001f8 <PLL0_IRQHandler>:
     1f8:	e7fe      	b.n	1f8 <PLL0_IRQHandler>

000001fa <RTC_IRQHandler>:
     1fa:	e7fe      	b.n	1fa <RTC_IRQHandler>

000001fc <EINT0_IRQHandler>:
     1fc:	e7fe      	b.n	1fc <EINT0_IRQHandler>

000001fe <EINT1_IRQHandler>:
     1fe:	e7fe      	b.n	1fe <EINT1_IRQHandler>

00000200 <EINT2_IRQHandler>:
     200:	e7fe      	b.n	200 <EINT2_IRQHandler>

00000202 <EINT3_IRQHandler>:
     202:	e7fe      	b.n	202 <EINT3_IRQHandler>

00000204 <ADC_IRQHandler>:
     204:	e7fe      	b.n	204 <ADC_IRQHandler>

00000206 <BOD_IRQHandler>:
     206:	e7fe      	b.n	206 <BOD_IRQHandler>

00000208 <USB_IRQHandler>:
     208:	e7fe      	b.n	208 <USB_IRQHandler>

0000020a <CAN_IRQHandler>:
     20a:	e7fe      	b.n	20a <CAN_IRQHandler>

0000020c <DMA_IRQHandler>:
     20c:	e7fe      	b.n	20c <DMA_IRQHandler>

0000020e <I2S_IRQHandler>:
     20e:	e7fe      	b.n	20e <I2S_IRQHandler>

00000210 <ENET_IRQHandler>:
     210:	e7fe      	b.n	210 <ENET_IRQHandler>

00000212 <RIT_IRQHandler>:
     212:	e7fe      	b.n	212 <RIT_IRQHandler>

00000214 <MCPWM_IRQHandler>:
     214:	e7fe      	b.n	214 <MCPWM_IRQHandler>

00000216 <QEI_IRQHandler>:
     216:	e7fe      	b.n	216 <QEI_IRQHandler>

00000218 <PLL1_IRQHandler>:
     218:	e7fe      	b.n	218 <PLL1_IRQHandler>

0000021a <USBActivity_IRQHandler>:
     21a:	e7fe      	b.n	21a <USBActivity_IRQHandler>

0000021c <CANActivity_IRQHandler>:
     21c:	e7fe      	b.n	21c <CANActivity_IRQHandler>
     21e:	bf00      	nop

00000220 <SystemInit>:
     220:	f44f 4240 	mov.w	r2, #49152	; 0xc000
     224:	f2c4 020f 	movt	r2, #16399	; 0x400f
     228:	2320      	movs	r3, #32
     22a:	b430      	push	{r4, r5}
     22c:	f8c2 31a0 	str.w	r3, [r2, #416]	; 0x1a0
     230:	f8d2 01a0 	ldr.w	r0, [r2, #416]	; 0x1a0
     234:	0680      	lsls	r0, r0, #26
     236:	d456      	bmi.n	2e6 <SystemInit+0xc6>
     238:	f44f 4c40 	mov.w	r12, #49152	; 0xc000
     23c:	f2c4 0c0f 	movt	r12, #16399	; 0x400f
     240:	2500      	movs	r5, #0
     242:	2002      	movs	r0, #2
     244:	f8cc 0104 	str.w	r0, [r12, #260]	; 0x104
     248:	2401      	movs	r4, #1
     24a:	f8cc 51a8 	str.w	r5, [r12, #424]	; 0x1a8
     24e:	23aa      	movs	r3, #170	; 0xaa
     250:	f8cc 51ac 	str.w	r5, [r12, #428]	; 0x1ac
     254:	2255      	movs	r2, #85	; 0x55
     256:	250b      	movs	r5, #11
     258:	f8cc 410c 	str.w	r4, [r12, #268]	; 0x10c
     25c:	4661      	mov	r1, r12
     25e:	f8cc 5084 	str.w	r5, [r12, #132]	; 0x84
     262:	f8cc 308c 	str.w	r3, [r12, #140]	; 0x8c
     266:	f8cc 208c 	str.w	r2, [r12, #140]	; 0x8c
     26a:	f8cc 4080 	str.w	r4, [r12, #128]	; 0x80
     26e:	f8cc 308c 	str.w	r3, [r12, #140]	; 0x8c
     272:	f8cc 208c 	str.w	r2, [r12, #140]	; 0x8c
     276:	f8d1 2088 	ldr.w	r2, [r1, #136]	; 0x88
     27a:	f44f 4c40 	mov.w	r12, #49152	; 0xc000
     27e:	0152      	lsls	r2, r2, #5
     280:	f2c4 0c0f 	movt	r12, #16399	; 0x400f
     284:	d5f7      	bpl.n	276 <SystemInit+0x56>
     286:	2303      	movs	r3, #3
     288:	21aa      	movs	r1, #170	; 0xaa
     28a:	2255      	movs	r2, #85	; 0x55
     28c:	f8cc 3080 	str.w	r3, [r12, #128]	; 0x80
     290:	4660      	mov	r0, r12
     292:	f8cc 108c 	str.w	r1, [r12, #140]	; 0x8c
     296:	f8cc 208c 	str.w	r2, [r12, #140]	; 0x8c
     29a:	f8d0 1088 	ldr.w	r1, [r0, #136]	; 0x88
     29e:	f44f 4c40 	mov.w	r12, #49152	; 0xc000
     2a2:	f011 7f40 	tst.w	r1, #50331648	; 0x3000000
     2a6:	f2c4 0c0f 	movt	r12, #16399	; 0x400f
     2aa:	d0f6      	beq.n	29a <SystemInit+0x7a>
     2ac:	f248 73de 	movw	r3, #34782	; 0x87de
     2b0:	f2c0 4328 	movt	r3, #1064	; 0x428
     2b4:	2005      	movs	r0, #5
     2b6:	2200      	movs	r2, #0
     2b8:	f8cc 0108 	str.w	r0, [r12, #264]	; 0x108
     2bc:	f8cc 30c4 	str.w	r3, [r12, #196]	; 0xc4
     2c0:	f8cc 21c8 	str.w	r2, [r12, #456]	; 0x1c8
     2c4:	f8dc 1000 	ldr.w	r1, [r12]
     2c8:	f421 4370 	bic.w	r3, r1, #61440	; 0xf000
     2cc:	f023 003a 	bic.w	r0, r3, #58	; 0x3a
     2d0:	f440 5240 	orr.w	r2, r0, #12288	; 0x3000
     2d4:	4b08      	ldr	r3, [pc, #32]	; (2f8 <SystemInit+0xd8>)
     2d6:	f042 013a 	orr.w	r1, r2, #58	; 0x3a
     2da:	2001      	movs	r0, #1
     2dc:	f8cc 1000 	str.w	r1, [r12]
     2e0:	6018      	str	r0, [r3, #0]
     2e2:	bc30      	pop	{r4, r5}
     2e4:	4770      	bx	lr
     2e6:	f8d2 11a0 	ldr.w	r1, [r2, #416]	; 0x1a0
     2ea:	0649      	lsls	r1, r1, #25
     2ec:	d4a4      	bmi.n	238 <SystemInit+0x18>
     2ee:	f8d2 11a0 	ldr.w	r1, [r2, #416]	; 0x1a0
     2f2:	0649      	lsls	r1, r1, #25
     2f4:	d5f7      	bpl.n	2e6 <SystemInit+0xc6>
     2f6:	e79f      	b.n	238 <SystemInit+0x18>
     2f8:	100001bc 	.word	0x100001bc

000002fc <exit>:
     2fc:	b510      	push	{r4, lr}
     2fe:	4604      	mov	r4, r0
     300:	f000 f80a 	bl	318 <mbed_interface_connected>
     304:	b920      	cbnz	r0, 310 <exit+0x14>
     306:	b904      	cbnz	r4, 30a <exit+0xe>
     308:	e7fe      	b.n	308 <exit+0xc>
     30a:	f000 f8d3 	bl	4b4 <mbed_die>
     30e:	e7fb      	b.n	308 <exit+0xc>
     310:	f000 f804 	bl	31c <semihost_exit>
     314:	e7f7      	b.n	306 <exit+0xa>
     316:	bf00      	nop

00000318 <mbed_interface_connected>:
     318:	f000 b9b2 	b.w	680 <semihost_connected>

0000031c <semihost_exit>:
     31c:	b530      	push	{r4, r5, lr}
     31e:	b085      	sub	sp, #20
     320:	466d      	mov	r5, sp
     322:	2418      	movs	r4, #24
     324:	4620      	mov	r0, r4
     326:	4629      	mov	r1, r5
     328:	beab      	bkpt	0x00ab
     32a:	4604      	mov	r4, r0
     32c:	4620      	mov	r0, r4
     32e:	b005      	add	sp, #20
     330:	bd30      	pop	{r4, r5, pc}
     332:	bf00      	nop

00000334 <_ZL11init_serialv>:
     334:	4b0e      	ldr	r3, [pc, #56]	; (370 <_ZL11init_serialv+0x3c>)
     336:	b510      	push	{r4, lr}
     338:	681c      	ldr	r4, [r3, #0]
     33a:	b104      	cbz	r4, 33e <_ZL11init_serialv+0xa>
     33c:	bd10      	pop	{r4, pc}
     33e:	f24c 0102 	movw	r1, #49154	; 0xc002
     342:	f24c 0203 	movw	r2, #49155	; 0xc003
     346:	480b      	ldr	r0, [pc, #44]	; (374 <_ZL11init_serialv+0x40>)
     348:	f2c2 0109 	movt	r1, #8201	; 0x2009
     34c:	f2c2 0209 	movt	r2, #8201	; 0x2009
     350:	f000 fb16 	bl	980 <serial_init>
     354:	2108      	movs	r1, #8
     356:	4807      	ldr	r0, [pc, #28]	; (374 <_ZL11init_serialv+0x40>)
     358:	4622      	mov	r2, r4
     35a:	2301      	movs	r3, #1
     35c:	f000 facc 	bl	8f8 <serial_format>
     360:	4804      	ldr	r0, [pc, #16]	; (374 <_ZL11init_serialv+0x40>)
     362:	f44f 5116 	mov.w	r1, #9600	; 0x2580
     366:	e8bd 4010 	ldmia.w	sp!, {r4, lr}
     36a:	f000 b991 	b.w	690 <serial_baud>
     36e:	bf00      	nop
     370:	100002c0 	.word	0x100002c0
     374:	100002d0 	.word	0x100002d0

00000378 <_close>:
     378:	2802      	cmp	r0, #2
     37a:	b508      	push	{r3, lr}
     37c:	dd0b      	ble.n	396 <_close+0x1e>
     37e:	4b08      	ldr	r3, [pc, #32]	; (3a0 <_close+0x28>)
     380:	1ec2      	subs	r2, r0, #3
     382:	f853 0022 	ldr.w	r0, [r3, r2, lsl #2]
     386:	2100      	movs	r1, #0
     388:	f843 1022 	str.w	r1, [r3, r2, lsl #2]
     38c:	b128      	cbz	r0, 39a <_close+0x22>
     38e:	6803      	ldr	r3, [r0, #0]
     390:	685a      	ldr	r2, [r3, #4]
     392:	4790      	blx	r2
     394:	bd08      	pop	{r3, pc}
     396:	2000      	movs	r0, #0
     398:	bd08      	pop	{r3, pc}
     39a:	f04f 30ff 	mov.w	r0, #4294967295
     39e:	bd08      	pop	{r3, pc}
     3a0:	100001c0 	.word	0x100001c0

000003a4 <_write>:
     3a4:	2802      	cmp	r0, #2
     3a6:	b5f8      	push	{r3, r4, r5, r6, r7, lr}
     3a8:	460d      	mov	r5, r1
     3aa:	4617      	mov	r7, r2
     3ac:	dc28      	bgt.n	400 <_write+0x5c>
     3ae:	491d      	ldr	r1, [pc, #116]	; (424 <_write+0x80>)
     3b0:	680a      	ldr	r2, [r1, #0]
     3b2:	2a00      	cmp	r2, #0
     3b4:	d02d      	beq.n	412 <_write+0x6e>
     3b6:	b30f      	cbz	r7, 3fc <_write+0x58>
     3b8:	462c      	mov	r4, r5
     3ba:	19ee      	adds	r6, r5, r7
     3bc:	f814 1b01 	ldrb.w	r1, [r4], #1
     3c0:	43ed      	mvns	r5, r5
     3c2:	19ab      	adds	r3, r5, r6
     3c4:	4818      	ldr	r0, [pc, #96]	; (428 <_write+0x84>)
     3c6:	f003 0501 	and.w	r5, r3, #1
     3ca:	f000 fc0b 	bl	be4 <serial_putc>
     3ce:	42b4      	cmp	r4, r6
     3d0:	d014      	beq.n	3fc <_write+0x58>
     3d2:	b135      	cbz	r5, 3e2 <_write+0x3e>
     3d4:	f814 1b01 	ldrb.w	r1, [r4], #1
     3d8:	4813      	ldr	r0, [pc, #76]	; (428 <_write+0x84>)
     3da:	f000 fc03 	bl	be4 <serial_putc>
     3de:	42b4      	cmp	r4, r6
     3e0:	d00c      	beq.n	3fc <_write+0x58>
     3e2:	4625      	mov	r5, r4
     3e4:	f815 1b01 	ldrb.w	r1, [r5], #1
     3e8:	480f      	ldr	r0, [pc, #60]	; (428 <_write+0x84>)
     3ea:	f000 fbfb 	bl	be4 <serial_putc>
     3ee:	7861      	ldrb	r1, [r4, #1]
     3f0:	480d      	ldr	r0, [pc, #52]	; (428 <_write+0x84>)
     3f2:	1c6c      	adds	r4, r5, #1
     3f4:	f000 fbf6 	bl	be4 <serial_putc>
     3f8:	42b4      	cmp	r4, r6
     3fa:	d1f2      	bne.n	3e2 <_write+0x3e>
     3fc:	4638      	mov	r0, r7
     3fe:	bdf8      	pop	{r3, r4, r5, r6, r7, pc}
     400:	4b0a      	ldr	r3, [pc, #40]	; (42c <_write+0x88>)
     402:	3803      	subs	r0, #3
     404:	f853 0020 	ldr.w	r0, [r3, r0, lsl #2]
     408:	b140      	cbz	r0, 41c <_write+0x78>
     40a:	6803      	ldr	r3, [r0, #0]
     40c:	681b      	ldr	r3, [r3, #0]
     40e:	4798      	blx	r3
     410:	bdf8      	pop	{r3, r4, r5, r6, r7, pc}
     412:	f7ff ff8f 	bl	334 <_ZL11init_serialv>
     416:	2f00      	cmp	r7, #0
     418:	d1ce      	bne.n	3b8 <_write+0x14>
     41a:	e7ef      	b.n	3fc <_write+0x58>
     41c:	f04f 30ff 	mov.w	r0, #4294967295
     420:	bdf8      	pop	{r3, r4, r5, r6, r7, pc}
     422:	bf00      	nop
     424:	100002c0 	.word	0x100002c0
     428:	100002d0 	.word	0x100002d0
     42c:	100001c0 	.word	0x100001c0

00000430 <_read>:
     430:	2802      	cmp	r0, #2
     432:	b510      	push	{r4, lr}
     434:	460c      	mov	r4, r1
     436:	dd0a      	ble.n	44e <_read+0x1e>
     438:	4b0a      	ldr	r3, [pc, #40]	; (464 <_read+0x34>)
     43a:	3803      	subs	r0, #3
     43c:	f853 0020 	ldr.w	r0, [r3, r0, lsl #2]
     440:	b160      	cbz	r0, 45c <_read+0x2c>
     442:	6803      	ldr	r3, [r0, #0]
     444:	689b      	ldr	r3, [r3, #8]
     446:	4798      	blx	r3
     448:	4601      	mov	r1, r0
     44a:	4608      	mov	r0, r1
     44c:	bd10      	pop	{r4, pc}
     44e:	4806      	ldr	r0, [pc, #24]	; (468 <_read+0x38>)
     450:	f000 fbc2 	bl	bd8 <serial_getc>
     454:	2101      	movs	r1, #1
     456:	7020      	strb	r0, [r4, #0]
     458:	4608      	mov	r0, r1
     45a:	bd10      	pop	{r4, pc}
     45c:	f04f 31ff 	mov.w	r1, #4294967295
     460:	e7f3      	b.n	44a <_read+0x1a>
     462:	bf00      	nop
     464:	100001c0 	.word	0x100001c0
     468:	100002d0 	.word	0x100002d0

0000046c <_lseek>:
     46c:	2802      	cmp	r0, #2
     46e:	b508      	push	{r3, lr}
     470:	dd08      	ble.n	484 <_lseek+0x18>
     472:	4b07      	ldr	r3, [pc, #28]	; (490 <_lseek+0x24>)
     474:	3803      	subs	r0, #3
     476:	f853 0020 	ldr.w	r0, [r3, r0, lsl #2]
     47a:	b128      	cbz	r0, 488 <_lseek+0x1c>
     47c:	6803      	ldr	r3, [r0, #0]
     47e:	691b      	ldr	r3, [r3, #16]
     480:	4798      	blx	r3
     482:	bd08      	pop	{r3, pc}
     484:	2000      	movs	r0, #0
     486:	bd08      	pop	{r3, pc}
     488:	f04f 30ff 	mov.w	r0, #4294967295
     48c:	bd08      	pop	{r3, pc}
     48e:	bf00      	nop
     490:	100001c0 	.word	0x100001c0

00000494 <_fstat>:
     494:	2802      	cmp	r0, #2
     496:	b508      	push	{r3, lr}
     498:	d804      	bhi.n	4a4 <_fstat+0x10>
     49a:	f44f 5000 	mov.w	r0, #8192	; 0x2000
     49e:	6048      	str	r0, [r1, #4]
     4a0:	2000      	movs	r0, #0
     4a2:	bd08      	pop	{r3, pc}
     4a4:	f001 fbe4 	bl	1c70 <__errno>
     4a8:	2309      	movs	r3, #9
     4aa:	6003      	str	r3, [r0, #0]
     4ac:	f04f 30ff 	mov.w	r0, #4294967295
     4b0:	bd08      	pop	{r3, pc}
     4b2:	bf00      	nop

000004b4 <mbed_die>:
     4b4:	b500      	push	{lr}
     4b6:	f24c 0132 	movw	r1, #49202	; 0xc032
     4ba:	b099      	sub	sp, #100	; 0x64
     4bc:	4668      	mov	r0, sp
     4be:	f2c2 0109 	movt	r1, #8201	; 0x2009
     4c2:	2201      	movs	r2, #1
     4c4:	f000 f856 	bl	574 <gpio_init>
     4c8:	f24c 0134 	movw	r1, #49204	; 0xc034
     4cc:	a806      	add	r0, sp, #24
     4ce:	f2c2 0109 	movt	r1, #8201	; 0x2009
     4d2:	2201      	movs	r2, #1
     4d4:	f000 f84e 	bl	574 <gpio_init>
     4d8:	f24c 0135 	movw	r1, #49205	; 0xc035
     4dc:	a80c      	add	r0, sp, #48	; 0x30
     4de:	f2c2 0109 	movt	r1, #8201	; 0x2009
     4e2:	2201      	movs	r2, #1
     4e4:	f000 f846 	bl	574 <gpio_init>
     4e8:	f24c 0137 	movw	r1, #49207	; 0xc037
     4ec:	a812      	add	r0, sp, #72	; 0x48
     4ee:	f2c2 0109 	movt	r1, #8201	; 0x2009
     4f2:	2201      	movs	r2, #1
     4f4:	f000 f83e 	bl	574 <gpio_init>
     4f8:	9a01      	ldr	r2, [sp, #4]
     4fa:	9b03      	ldr	r3, [sp, #12]
     4fc:	990a      	ldr	r1, [sp, #40]	; 0x28
     4fe:	601a      	str	r2, [r3, #0]
     500:	9807      	ldr	r0, [sp, #28]
     502:	9b10      	ldr	r3, [sp, #64]	; 0x40
     504:	6008      	str	r0, [r1, #0]
     506:	9a0d      	ldr	r2, [sp, #52]	; 0x34
     508:	2096      	movs	r0, #150	; 0x96
     50a:	601a      	str	r2, [r3, #0]
     50c:	9913      	ldr	r1, [sp, #76]	; 0x4c
     50e:	9a15      	ldr	r2, [sp, #84]	; 0x54
     510:	6011      	str	r1, [r2, #0]
     512:	f000 fbd9 	bl	cc8 <wait_ms>
     516:	9801      	ldr	r0, [sp, #4]
     518:	9b04      	ldr	r3, [sp, #16]
     51a:	9a09      	ldr	r2, [sp, #36]	; 0x24
     51c:	6018      	str	r0, [r3, #0]
     51e:	9907      	ldr	r1, [sp, #28]
     520:	9b0f      	ldr	r3, [sp, #60]	; 0x3c
     522:	6011      	str	r1, [r2, #0]
     524:	980d      	ldr	r0, [sp, #52]	; 0x34
     526:	9a16      	ldr	r2, [sp, #88]	; 0x58
     528:	6018      	str	r0, [r3, #0]
     52a:	9913      	ldr	r1, [sp, #76]	; 0x4c
     52c:	2096      	movs	r0, #150	; 0x96
     52e:	6011      	str	r1, [r2, #0]
     530:	f000 fbca 	bl	cc8 <wait_ms>
     534:	e7e0      	b.n	4f8 <mbed_die+0x44>
     536:	bf00      	nop

00000538 <gpio_set>:
     538:	b510      	push	{r4, lr}
     53a:	2100      	movs	r1, #0
     53c:	4604      	mov	r4, r0
     53e:	f004 041f 	and.w	r4, r4, #31
     542:	f000 f843 	bl	5cc <pin_function>
     546:	2001      	movs	r0, #1
     548:	fa00 f004 	lsl.w	r0, r0, r4
     54c:	bd10      	pop	{r4, pc}
     54e:	bf00      	nop

00000550 <gpio_dir>:
     550:	b931      	cbnz	r1, 560 <gpio_dir+0x10>
     552:	6883      	ldr	r3, [r0, #8]
     554:	6841      	ldr	r1, [r0, #4]
     556:	681a      	ldr	r2, [r3, #0]
     558:	ea22 0001 	bic.w	r0, r2, r1
     55c:	6018      	str	r0, [r3, #0]
     55e:	4770      	bx	lr
     560:	2901      	cmp	r1, #1
     562:	d000      	beq.n	566 <gpio_dir+0x16>
     564:	4770      	bx	lr
     566:	6883      	ldr	r3, [r0, #8]
     568:	6842      	ldr	r2, [r0, #4]
     56a:	6819      	ldr	r1, [r3, #0]
     56c:	ea41 0002 	orr.w	r0, r1, r2
     570:	6018      	str	r0, [r3, #0]
     572:	4770      	bx	lr

00000574 <gpio_init>:
     574:	b5f8      	push	{r3, r4, r5, r6, r7, lr}
     576:	1c4b      	adds	r3, r1, #1
     578:	460d      	mov	r5, r1
     57a:	4604      	mov	r4, r0
     57c:	4616      	mov	r6, r2
     57e:	d01d      	beq.n	5bc <gpio_init+0x48>
     580:	6021      	str	r1, [r4, #0]
     582:	4608      	mov	r0, r1
     584:	f7ff ffd8 	bl	538 <gpio_set>
     588:	f025 031f 	bic.w	r3, r5, #31
     58c:	f103 011c 	add.w	r1, r3, #28
     590:	f103 0718 	add.w	r7, r3, #24
     594:	f103 0214 	add.w	r2, r3, #20
     598:	6060      	str	r0, [r4, #4]
     59a:	6121      	str	r1, [r4, #16]
     59c:	60e7      	str	r7, [r4, #12]
     59e:	6162      	str	r2, [r4, #20]
     5a0:	60a3      	str	r3, [r4, #8]
     5a2:	4620      	mov	r0, r4
     5a4:	4631      	mov	r1, r6
     5a6:	f7ff ffd3 	bl	550 <gpio_dir>
     5aa:	b92e      	cbnz	r6, 5b8 <gpio_init+0x44>
     5ac:	4628      	mov	r0, r5
     5ae:	2103      	movs	r1, #3
     5b0:	e8bd 40f8 	ldmia.w	sp!, {r3, r4, r5, r6, r7, lr}
     5b4:	f000 b82c 	b.w	610 <pin_mode>
     5b8:	2e01      	cmp	r6, #1
     5ba:	d000      	beq.n	5be <gpio_init+0x4a>
     5bc:	bdf8      	pop	{r3, r4, r5, r6, r7, pc}
     5be:	4628      	mov	r0, r5
     5c0:	2102      	movs	r1, #2
     5c2:	e8bd 40f8 	ldmia.w	sp!, {r3, r4, r5, r6, r7, lr}
     5c6:	f000 b823 	b.w	610 <pin_mode>
     5ca:	bf00      	nop

000005cc <pin_function>:
     5cc:	1c43      	adds	r3, r0, #1
     5ce:	b410      	push	{r4}
     5d0:	d01b      	beq.n	60a <pin_function+0x3e>
     5d2:	f100 4060 	add.w	r0, r0, #3758096384	; 0xe0000000
     5d6:	f5a0 241c 	sub.w	r4, r0, #638976	; 0x9c000
     5da:	f004 030f 	and.w	r3, r4, #15
     5de:	0058      	lsls	r0, r3, #1
     5e0:	2203      	movs	r2, #3
     5e2:	fa02 fc00 	lsl.w	r12, r2, r0
     5e6:	fa01 f100 	lsl.w	r1, r1, r0
     5ea:	f44f 4340 	mov.w	r3, #49152	; 0xc000
     5ee:	0920      	lsrs	r0, r4, #4
     5f0:	f2c4 0302 	movt	r3, #16386	; 0x4002
     5f4:	f853 4020 	ldr.w	r4, [r3, r0, lsl #2]
     5f8:	ea24 020c 	bic.w	r2, r4, r12
     5fc:	f843 2020 	str.w	r2, [r3, r0, lsl #2]
     600:	f853 2020 	ldr.w	r2, [r3, r0, lsl #2]
     604:	4311      	orrs	r1, r2
     606:	f843 1020 	str.w	r1, [r3, r0, lsl #2]
     60a:	bc10      	pop	{r4}
     60c:	4770      	bx	lr
     60e:	bf00      	nop

00000610 <pin_mode>:
     610:	1c42      	adds	r2, r0, #1
     612:	b470      	push	{r4, r5, r6}
     614:	d032      	beq.n	67c <pin_mode+0x6c>
     616:	f100 4060 	add.w	r0, r0, #3758096384	; 0xe0000000
     61a:	f5a0 201c 	sub.w	r0, r0, #638976	; 0x9c000
     61e:	f000 051f 	and.w	r5, r0, #31
     622:	f3c1 0480 	ubfx	r4, r1, #2, #1
     626:	fa04 fc05 	lsl.w	r12, r4, r5
     62a:	0942      	lsrs	r2, r0, #5
     62c:	f44f 4340 	mov.w	r3, #49152	; 0xc000
     630:	f2c4 0302 	movt	r3, #16386	; 0x4002
     634:	321a      	adds	r2, #26
     636:	f853 6022 	ldr.w	r6, [r3, r2, lsl #2]
     63a:	ea26 050c 	bic.w	r5, r6, r12
     63e:	f843 5022 	str.w	r5, [r3, r2, lsl #2]
     642:	f853 6022 	ldr.w	r6, [r3, r2, lsl #2]
     646:	ea46 050c 	orr.w	r5, r6, r12
     64a:	f843 5022 	str.w	r5, [r3, r2, lsl #2]
     64e:	b9ac      	cbnz	r4, 67c <pin_mode+0x6c>
     650:	f000 040f 	and.w	r4, r0, #15
     654:	0062      	lsls	r2, r4, #1
     656:	2503      	movs	r5, #3
     658:	fa05 f502 	lsl.w	r5, r5, r2
     65c:	fa01 fc02 	lsl.w	r12, r1, r2
     660:	0900      	lsrs	r0, r0, #4
     662:	3010      	adds	r0, #16
     664:	f853 1020 	ldr.w	r1, [r3, r0, lsl #2]
     668:	ea21 0405 	bic.w	r4, r1, r5
     66c:	f843 4020 	str.w	r4, [r3, r0, lsl #2]
     670:	f853 4020 	ldr.w	r4, [r3, r0, lsl #2]
     674:	ea4c 0204 	orr.w	r2, r12, r4
     678:	f843 2020 	str.w	r2, [r3, r0, lsl #2]
     67c:	bc70      	pop	{r4, r5, r6}
     67e:	4770      	bx	lr

00000680 <semihost_connected>:
     680:	f64e 53f0 	movw	r3, #60912	; 0xedf0
     684:	f2ce 0300 	movt	r3, #57344	; 0xe000
     688:	6818      	ldr	r0, [r3, #0]
     68a:	f000 0001 	and.w	r0, r0, #1
     68e:	4770      	bx	lr

00000690 <serial_baud>:
     690:	e92d 4ff0 	stmdb	sp!, {r4, r5, r6, r7, r8, r9, r10, r11, lr}
     694:	2300      	movs	r3, #0
     696:	6804      	ldr	r4, [r0, #0]
     698:	f2c4 0301 	movt	r3, #16385	; 0x4001
     69c:	b08b      	sub	sp, #44	; 0x2c
     69e:	429c      	cmp	r4, r3
     6a0:	9009      	str	r0, [sp, #36]	; 0x24
     6a2:	f000 80fb 	beq.w	89c <Heap_Size+0x9c>
     6a6:	f340 80d9 	ble.w	85c <Heap_Size+0x5c>
     6aa:	f44f 4c00 	mov.w	r12, #32768	; 0x8000
     6ae:	f2c4 0c09 	movt	r12, #16393	; 0x4009
     6b2:	4564      	cmp	r4, r12
     6b4:	f44f 4340 	mov.w	r3, #49152	; 0xc000
     6b8:	f000 80e1 	beq.w	87e <Heap_Size+0x7e>
     6bc:	f2c4 0309 	movt	r3, #16393	; 0x4009
     6c0:	429c      	cmp	r4, r3
     6c2:	f040 80d1 	bne.w	868 <Heap_Size+0x68>
     6c6:	f44f 4040 	mov.w	r0, #49152	; 0xc000
     6ca:	f2c4 000f 	movt	r0, #16399	; 0x400f
     6ce:	f8d0 21ac 	ldr.w	r2, [r0, #428]	; 0x1ac
     6d2:	f422 2340 	bic.w	r3, r2, #786432	; 0xc0000
     6d6:	f8c0 31ac 	str.w	r3, [r0, #428]	; 0x1ac
     6da:	f8d0 21ac 	ldr.w	r2, [r0, #428]	; 0x1ac
     6de:	f442 2380 	orr.w	r3, r2, #262144	; 0x40000
     6e2:	f8c0 31ac 	str.w	r3, [r0, #428]	; 0x1ac
     6e6:	4880      	ldr	r0, [pc, #512]	; (8e8 <Heap_Size+0xe8>)
     6e8:	010a      	lsls	r2, r1, #4
     6ea:	6803      	ldr	r3, [r0, #0]
     6ec:	9308      	str	r3, [sp, #32]
     6ee:	9808      	ldr	r0, [sp, #32]
     6f0:	fbb3 fcf2 	udiv	r12, r3, r2
     6f4:	fb02 021c 	mls	r2, r2, r12, r0
     6f8:	fa1f f38c 	uxth.w	r3, r12
     6fc:	9307      	str	r3, [sp, #28]
     6fe:	2a00      	cmp	r2, #0
     700:	f000 80bb 	beq.w	87a <Heap_Size+0x7a>
     704:	4608      	mov	r0, r1
     706:	0859      	lsrs	r1, r3, #1
     708:	9102      	str	r1, [sp, #8]
     70a:	f001 f897 	bl	183c <__aeabi_i2f>
     70e:	9a02      	ldr	r2, [sp, #8]
     710:	4683      	mov	r11, r0
     712:	9807      	ldr	r0, [sp, #28]
     714:	4290      	cmp	r0, r2
     716:	f0c0 80b0 	bcc.w	87a <Heap_Size+0x7a>
     71a:	9f07      	ldr	r7, [sp, #28]
     71c:	2401      	movs	r4, #1
     71e:	2100      	movs	r1, #0
     720:	46da      	mov	r10, r11
     722:	9703      	str	r7, [sp, #12]
     724:	9405      	str	r4, [sp, #20]
     726:	9104      	str	r1, [sp, #16]
     728:	f04f 0901 	mov.w	r9, #1
     72c:	f109 0201 	add.w	r2, r9, #1
     730:	fa5f f982 	uxtb.w	r9, r2
     734:	2000      	movs	r0, #0
     736:	f1b9 0f10 	cmp.w	r9, #16
     73a:	9006      	str	r0, [sp, #24]
     73c:	9f08      	ldr	r7, [sp, #32]
     73e:	d061      	beq.n	804 <Heap_Size+0x4>
     740:	9802      	ldr	r0, [sp, #8]
     742:	f001 f877 	bl	1834 <__aeabi_ui2f>
     746:	f000 fc59 	bl	ffc <__aeabi_f2d>
     74a:	2300      	movs	r3, #0
     74c:	2200      	movs	r2, #0
     74e:	f2c4 0330 	movt	r3, #16432	; 0x4030
     752:	f000 fca7 	bl	10a4 <__aeabi_dmul>
     756:	e9cd 0100 	strd	r0, r1, [sp]
     75a:	2601      	movs	r6, #1
     75c:	4638      	mov	r0, r7
     75e:	f001 f869 	bl	1834 <__aeabi_ui2f>
     762:	f000 fc4b 	bl	ffc <__aeabi_f2d>
     766:	4604      	mov	r4, r0
     768:	4630      	mov	r0, r6
     76a:	460d      	mov	r5, r1
     76c:	f001 f862 	bl	1834 <__aeabi_ui2f>
     770:	4680      	mov	r8, r0
     772:	4648      	mov	r0, r9
     774:	f001 f85e 	bl	1834 <__aeabi_ui2f>
     778:	4601      	mov	r1, r0
     77a:	4640      	mov	r0, r8
     77c:	f001 f966 	bl	1a4c <__aeabi_fdiv>
     780:	f04f 517e 	mov.w	r1, #1065353216	; 0x3f800000
     784:	f000 ffa6 	bl	16d4 <__addsf3>
     788:	f000 fc38 	bl	ffc <__aeabi_f2d>
     78c:	4602      	mov	r2, r0
     78e:	460b      	mov	r3, r1
     790:	e9dd 0100 	ldrd	r0, r1, [sp]
     794:	f000 fc86 	bl	10a4 <__aeabi_dmul>
     798:	4602      	mov	r2, r0
     79a:	460b      	mov	r3, r1
     79c:	4620      	mov	r0, r4
     79e:	4629      	mov	r1, r5
     7a0:	f000 fdaa 	bl	12f8 <__aeabi_ddiv>
     7a4:	f000 ff40 	bl	1628 <__aeabi_d2f>
     7a8:	4601      	mov	r1, r0
     7aa:	4658      	mov	r0, r11
     7ac:	f000 ff90 	bl	16d0 <__aeabi_fsub>
     7b0:	4659      	mov	r1, r11
     7b2:	f001 f94b 	bl	1a4c <__aeabi_fdiv>
     7b6:	f000 fc21 	bl	ffc <__aeabi_f2d>
     7ba:	f005 fc47 	bl	604c <fabs>
     7be:	f000 ff33 	bl	1628 <__aeabi_d2f>
     7c2:	4651      	mov	r1, r10
     7c4:	4604      	mov	r4, r0
     7c6:	f001 fa2b 	bl	1c20 <__aeabi_fcmplt>
     7ca:	b180      	cbz	r0, 7ee <serial_baud+0x15e>
     7cc:	4620      	mov	r0, r4
     7ce:	f000 fc15 	bl	ffc <__aeabi_f2d>
     7d2:	a343      	add	r3, pc, #268	; (adr r3, 8e0 <Heap_Size+0xe0>)
     7d4:	e9d3 2300 	ldrd	r2, r3, [r3]
     7d8:	f000 fed6 	bl	1588 <__aeabi_dcmplt>
     7dc:	9a02      	ldr	r2, [sp, #8]
     7de:	46a2      	mov	r10, r4
     7e0:	f8cd 9014 	str.w	r9, [sp, #20]
     7e4:	9604      	str	r6, [sp, #16]
     7e6:	9203      	str	r2, [sp, #12]
     7e8:	b108      	cbz	r0, 7ee <serial_baud+0x15e>
     7ea:	2301      	movs	r3, #1
     7ec:	9306      	str	r3, [sp, #24]
     7ee:	3601      	adds	r6, #1
     7f0:	b2f6      	uxtb	r6, r6
     7f2:	454e      	cmp	r6, r9
     7f4:	d1b2      	bne.n	75c <serial_baud+0xcc>
     7f6:	f109 0201 	add.w	r2, r9, #1
     7fa:	fa5f f982 	uxtb.w	r9, r2
     7fe:	f1b9 0f10 	cmp.w	r9, #16
     802:	d19d      	bne.n	740 <serial_baud+0xb0>
     804:	9b02      	ldr	r3, [sp, #8]
     806:	9807      	ldr	r0, [sp, #28]
     808:	1c5c      	adds	r4, r3, #1
     80a:	b2a1      	uxth	r1, r4
     80c:	4288      	cmp	r0, r1
     80e:	9102      	str	r1, [sp, #8]
     810:	d302      	bcc.n	818 <Heap_Size+0x18>
     812:	9a06      	ldr	r2, [sp, #24]
     814:	2a00      	cmp	r2, #0
     816:	d087      	beq.n	728 <serial_baud+0x98>
     818:	9b04      	ldr	r3, [sp, #16]
     81a:	9c05      	ldr	r4, [sp, #20]
     81c:	9a09      	ldr	r2, [sp, #36]	; 0x24
     81e:	9803      	ldr	r0, [sp, #12]
     820:	ea43 1104 	orr.w	r1, r3, r4, lsl #4
     824:	6814      	ldr	r4, [r2, #0]
     826:	b2cb      	uxtb	r3, r1
     828:	9007      	str	r0, [sp, #28]
     82a:	f894 c00c 	ldrb.w	r12, [r4, #12]
     82e:	9907      	ldr	r1, [sp, #28]
     830:	f04c 0280 	orr.w	r2, r12, #128	; 0x80
     834:	7322      	strb	r2, [r4, #12]
     836:	9c09      	ldr	r4, [sp, #36]	; 0x24
     838:	0a08      	lsrs	r0, r1, #8
     83a:	6822      	ldr	r2, [r4, #0]
     83c:	9c09      	ldr	r4, [sp, #36]	; 0x24
     83e:	7110      	strb	r0, [r2, #4]
     840:	6820      	ldr	r0, [r4, #0]
     842:	b2c9      	uxtb	r1, r1
     844:	7001      	strb	r1, [r0, #0]
     846:	6822      	ldr	r2, [r4, #0]
     848:	f882 3028 	strb.w	r3, [r2, #40]	; 0x28
     84c:	6823      	ldr	r3, [r4, #0]
     84e:	7b19      	ldrb	r1, [r3, #12]
     850:	f001 007f 	and.w	r0, r1, #127	; 0x7f
     854:	7318      	strb	r0, [r3, #12]
     856:	b00b      	add	sp, #44	; 0x2c
     858:	e8bd 8ff0 	ldmia.w	sp!, {r4, r5, r6, r7, r8, r9, r10, r11, pc}
     85c:	f44f 4040 	mov.w	r0, #49152	; 0xc000
     860:	f2c4 0000 	movt	r0, #16384	; 0x4000
     864:	4284      	cmp	r4, r0
     866:	d02a      	beq.n	8be <Heap_Size+0xbe>
     868:	4d20      	ldr	r5, [pc, #128]	; (8ec <Heap_Size+0xec>)
     86a:	4921      	ldr	r1, [pc, #132]	; (8f0 <Heap_Size+0xf0>)
     86c:	682e      	ldr	r6, [r5, #0]
     86e:	68f0      	ldr	r0, [r6, #12]
     870:	f001 fa04 	bl	1c7c <fiprintf>
     874:	2001      	movs	r0, #1
     876:	f7ff fd41 	bl	2fc <exit>
     87a:	2310      	movs	r3, #16
     87c:	e7d5      	b.n	82a <Heap_Size+0x2a>
     87e:	f2c4 030f 	movt	r3, #16399	; 0x400f
     882:	f8d3 01ac 	ldr.w	r0, [r3, #428]	; 0x1ac
     886:	f420 3240 	bic.w	r2, r0, #196608	; 0x30000
     88a:	f8c3 21ac 	str.w	r2, [r3, #428]	; 0x1ac
     88e:	f8d3 01ac 	ldr.w	r0, [r3, #428]	; 0x1ac
     892:	f440 3280 	orr.w	r2, r0, #65536	; 0x10000
     896:	f8c3 21ac 	str.w	r2, [r3, #428]	; 0x1ac
     89a:	e724      	b.n	6e6 <serial_baud+0x56>
     89c:	f44f 4c40 	mov.w	r12, #49152	; 0xc000
     8a0:	f2c4 0c0f 	movt	r12, #16399	; 0x400f
     8a4:	f8dc 31a8 	ldr.w	r3, [r12, #424]	; 0x1a8
     8a8:	f423 7040 	bic.w	r0, r3, #768	; 0x300
     8ac:	f8cc 01a8 	str.w	r0, [r12, #424]	; 0x1a8
     8b0:	f8dc 21a8 	ldr.w	r2, [r12, #424]	; 0x1a8
     8b4:	f442 7380 	orr.w	r3, r2, #256	; 0x100
     8b8:	f8cc 31a8 	str.w	r3, [r12, #424]	; 0x1a8
     8bc:	e713      	b.n	6e6 <serial_baud+0x56>
     8be:	f44f 4c40 	mov.w	r12, #49152	; 0xc000
     8c2:	f2c4 0c0f 	movt	r12, #16399	; 0x400f
     8c6:	f8dc 21a8 	ldr.w	r2, [r12, #424]	; 0x1a8
     8ca:	f022 03c0 	bic.w	r3, r2, #192	; 0xc0
     8ce:	f8cc 31a8 	str.w	r3, [r12, #424]	; 0x1a8
     8d2:	f8dc 01a8 	ldr.w	r0, [r12, #424]	; 0x1a8
     8d6:	f040 0240 	orr.w	r2, r0, #64	; 0x40
     8da:	f8cc 21a8 	str.w	r2, [r12, #424]	; 0x1a8
     8de:	e702      	b.n	6e6 <serial_baud+0x56>
     8e0:	d2f1a9fc 	.word	0xd2f1a9fc
     8e4:	3f50624d 	.word	0x3f50624d
     8e8:	100000c8 	.word	0x100000c8
     8ec:	10000130 	.word	0x10000130
     8f0:	00006114 	.word	0x00006114
     8f4:	f3af 8000 	nop.w

000008f8 <serial_format>:
     8f8:	b538      	push	{r3, r4, r5, lr}
     8fa:	1f4c      	subs	r4, r1, #5
     8fc:	2c03      	cmp	r4, #3
     8fe:	460d      	mov	r5, r1
     900:	d82a      	bhi.n	958 <serial_format+0x60>
     902:	2a04      	cmp	r2, #4
     904:	d813      	bhi.n	92e <serial_format+0x36>
     906:	e8df f002 	tbb	[pc, r2]
     90a:	1e1b      	.short	0x1e1b
     90c:	2421      	.short	0x2421
     90e:	03          	.byte	0x03
     90f:	00          	.byte	0x00
     910:	2203      	movs	r2, #3
     912:	2101      	movs	r1, #1
     914:	3b01      	subs	r3, #1
     916:	2b01      	cmp	r3, #1
     918:	d828      	bhi.n	96c <serial_format+0x74>
     91a:	ea44 0483 	orr.w	r4, r4, r3, lsl #2
     91e:	ea44 0cc1 	orr.w	r12, r4, r1, lsl #3
     922:	6800      	ldr	r0, [r0, #0]
     924:	ea4c 1202 	orr.w	r2, r12, r2, lsl #4
     928:	b2d1      	uxtb	r1, r2
     92a:	7301      	strb	r1, [r0, #12]
     92c:	bd38      	pop	{r3, r4, r5, pc}
     92e:	4910      	ldr	r1, [pc, #64]	; (970 <serial_format+0x78>)
     930:	4d10      	ldr	r5, [pc, #64]	; (974 <serial_format+0x7c>)
     932:	682c      	ldr	r4, [r5, #0]
     934:	68e0      	ldr	r0, [r4, #12]
     936:	f001 f9a1 	bl	1c7c <fiprintf>
     93a:	2001      	movs	r0, #1
     93c:	f7ff fcde 	bl	2fc <exit>
     940:	2200      	movs	r2, #0
     942:	4611      	mov	r1, r2
     944:	e7e6      	b.n	914 <serial_format+0x1c>
     946:	2200      	movs	r2, #0
     948:	2101      	movs	r1, #1
     94a:	e7e3      	b.n	914 <serial_format+0x1c>
     94c:	2201      	movs	r2, #1
     94e:	4611      	mov	r1, r2
     950:	e7e0      	b.n	914 <serial_format+0x1c>
     952:	2202      	movs	r2, #2
     954:	2101      	movs	r1, #1
     956:	e7dd      	b.n	914 <serial_format+0x1c>
     958:	4b06      	ldr	r3, [pc, #24]	; (974 <serial_format+0x7c>)
     95a:	4907      	ldr	r1, [pc, #28]	; (978 <serial_format+0x80>)
     95c:	6818      	ldr	r0, [r3, #0]
     95e:	462a      	mov	r2, r5
     960:	68c0      	ldr	r0, [r0, #12]
     962:	f001 f98b 	bl	1c7c <fiprintf>
     966:	2001      	movs	r0, #1
     968:	f7ff fcc8 	bl	2fc <exit>
     96c:	4903      	ldr	r1, [pc, #12]	; (97c <serial_format+0x84>)
     96e:	e7df      	b.n	930 <serial_format+0x38>
     970:	00006160 	.word	0x00006160
     974:	10000130 	.word	0x10000130
     978:	00006120 	.word	0x00006120
     97c:	00006180 	.word	0x00006180

00000980 <serial_init>:
     980:	e92d 43f8 	stmdb	sp!, {r3, r4, r5, r6, r7, r8, r9, lr}
     984:	460f      	mov	r7, r1
     986:	4605      	mov	r5, r0
     988:	498d      	ldr	r1, [pc, #564]	; (bc0 <serial_init+0x240>)
     98a:	4638      	mov	r0, r7
     98c:	4616      	mov	r6, r2
     98e:	f000 f971 	bl	c74 <pinmap_peripheral>
     992:	498c      	ldr	r1, [pc, #560]	; (bc4 <serial_init+0x244>)
     994:	4604      	mov	r4, r0
     996:	4630      	mov	r0, r6
     998:	f000 f96c 	bl	c74 <pinmap_peripheral>
     99c:	4601      	mov	r1, r0
     99e:	4620      	mov	r0, r4
     9a0:	f000 f950 	bl	c44 <pinmap_merge>
     9a4:	1c43      	adds	r3, r0, #1
     9a6:	4604      	mov	r4, r0
     9a8:	f000 8101 	beq.w	bae <serial_init+0x22e>
     9ac:	2300      	movs	r3, #0
     9ae:	f2c4 0301 	movt	r3, #16385	; 0x4001
     9b2:	4298      	cmp	r0, r3
     9b4:	6028      	str	r0, [r5, #0]
     9b6:	d06c      	beq.n	a92 <serial_init+0x112>
     9b8:	d934      	bls.n	a24 <serial_init+0xa4>
     9ba:	f44f 4200 	mov.w	r2, #32768	; 0x8000
     9be:	f2c4 0209 	movt	r2, #16393	; 0x4009
     9c2:	4290      	cmp	r0, r2
     9c4:	f000 80bd 	beq.w	b42 <serial_init+0x1c2>
     9c8:	f44f 4140 	mov.w	r1, #49152	; 0xc000
     9cc:	f2c4 0109 	movt	r1, #16393	; 0x4009
     9d0:	4288      	cmp	r0, r1
     9d2:	d12d      	bne.n	a30 <serial_init+0xb0>
     9d4:	f44f 4c40 	mov.w	r12, #49152	; 0xc000
     9d8:	f2c4 0c0f 	movt	r12, #16399	; 0x400f
     9dc:	f8dc 00c4 	ldr.w	r0, [r12, #196]	; 0xc4
     9e0:	f04f 0801 	mov.w	r8, #1
     9e4:	f040 7200 	orr.w	r2, r0, #33554432	; 0x2000000
     9e8:	f8cc 20c4 	str.w	r2, [r12, #196]	; 0xc4
     9ec:	f884 8008 	strb.w	r8, [r4, #8]
     9f0:	6829      	ldr	r1, [r5, #0]
     9f2:	2400      	movs	r4, #0
     9f4:	604c      	str	r4, [r1, #4]
     9f6:	4628      	mov	r0, r5
     9f8:	f44f 5116 	mov.w	r1, #9600	; 0x2580
     9fc:	f7ff fe48 	bl	690 <serial_baud>
     a00:	4628      	mov	r0, r5
     a02:	4622      	mov	r2, r4
     a04:	4643      	mov	r3, r8
     a06:	2108      	movs	r1, #8
     a08:	f7ff ff76 	bl	8f8 <serial_format>
     a0c:	4638      	mov	r0, r7
     a0e:	496c      	ldr	r1, [pc, #432]	; (bc0 <serial_init+0x240>)
     a10:	f000 f8f2 	bl	bf8 <pinmap_pinout>
     a14:	4630      	mov	r0, r6
     a16:	496b      	ldr	r1, [pc, #428]	; (bc4 <serial_init+0x244>)
     a18:	f000 f8ee 	bl	bf8 <pinmap_pinout>
     a1c:	2303      	movs	r3, #3
     a1e:	606b      	str	r3, [r5, #4]
     a20:	e8bd 83f8 	ldmia.w	sp!, {r3, r4, r5, r6, r7, r8, r9, pc}
     a24:	f44f 4040 	mov.w	r0, #49152	; 0xc000
     a28:	f2c4 0000 	movt	r0, #16384	; 0x4000
     a2c:	4284      	cmp	r4, r0
     a2e:	d058      	beq.n	ae2 <serial_init+0x162>
     a30:	f04f 0801 	mov.w	r8, #1
     a34:	f884 8008 	strb.w	r8, [r4, #8]
     a38:	682b      	ldr	r3, [r5, #0]
     a3a:	f04f 0900 	mov.w	r9, #0
     a3e:	f44f 5116 	mov.w	r1, #9600	; 0x2580
     a42:	f8c3 9004 	str.w	r9, [r3, #4]
     a46:	4628      	mov	r0, r5
     a48:	f7ff fe22 	bl	690 <serial_baud>
     a4c:	464a      	mov	r2, r9
     a4e:	4643      	mov	r3, r8
     a50:	2108      	movs	r1, #8
     a52:	4628      	mov	r0, r5
     a54:	f7ff ff50 	bl	8f8 <serial_format>
     a58:	4638      	mov	r0, r7
     a5a:	4959      	ldr	r1, [pc, #356]	; (bc0 <serial_init+0x240>)
     a5c:	f000 f8cc 	bl	bf8 <pinmap_pinout>
     a60:	4630      	mov	r0, r6
     a62:	4958      	ldr	r1, [pc, #352]	; (bc4 <serial_init+0x244>)
     a64:	f000 f8c8 	bl	bf8 <pinmap_pinout>
     a68:	46cc      	mov	r12, r9
     a6a:	f2c4 0c01 	movt	r12, #16385	; 0x4001
     a6e:	4564      	cmp	r4, r12
     a70:	d033      	beq.n	ada <serial_init+0x15a>
     a72:	f200 808e 	bhi.w	b92 <serial_init+0x212>
     a76:	f44f 4040 	mov.w	r0, #49152	; 0xc000
     a7a:	f2c4 0000 	movt	r0, #16384	; 0x4000
     a7e:	4284      	cmp	r4, r0
     a80:	d053      	beq.n	b2a <serial_init+0x1aa>
     a82:	f44f 4e40 	mov.w	lr, #49152	; 0xc000
     a86:	f2c4 0e00 	movt	lr, #16384	; 0x4000
     a8a:	4574      	cmp	r4, lr
     a8c:	d04f      	beq.n	b2e <serial_init+0x1ae>
     a8e:	e8bd 83f8 	ldmia.w	sp!, {r3, r4, r5, r6, r7, r8, r9, pc}
     a92:	f44f 4c40 	mov.w	r12, #49152	; 0xc000
     a96:	f2c4 0c0f 	movt	r12, #16399	; 0x400f
     a9a:	f8dc 00c4 	ldr.w	r0, [r12, #196]	; 0xc4
     a9e:	f04f 0801 	mov.w	r8, #1
     aa2:	f040 0210 	orr.w	r2, r0, #16
     aa6:	f8cc 20c4 	str.w	r2, [r12, #196]	; 0xc4
     aaa:	f884 8008 	strb.w	r8, [r4, #8]
     aae:	6829      	ldr	r1, [r5, #0]
     ab0:	2400      	movs	r4, #0
     ab2:	604c      	str	r4, [r1, #4]
     ab4:	4628      	mov	r0, r5
     ab6:	f44f 5116 	mov.w	r1, #9600	; 0x2580
     aba:	f7ff fde9 	bl	690 <serial_baud>
     abe:	4628      	mov	r0, r5
     ac0:	4622      	mov	r2, r4
     ac2:	4643      	mov	r3, r8
     ac4:	2108      	movs	r1, #8
     ac6:	f7ff ff17 	bl	8f8 <serial_format>
     aca:	4638      	mov	r0, r7
     acc:	493c      	ldr	r1, [pc, #240]	; (bc0 <serial_init+0x240>)
     ace:	f000 f893 	bl	bf8 <pinmap_pinout>
     ad2:	4630      	mov	r0, r6
     ad4:	493b      	ldr	r1, [pc, #236]	; (bc4 <serial_init+0x244>)
     ad6:	f000 f88f 	bl	bf8 <pinmap_pinout>
     ada:	2301      	movs	r3, #1
     adc:	606b      	str	r3, [r5, #4]
     ade:	e8bd 83f8 	ldmia.w	sp!, {r3, r4, r5, r6, r7, r8, r9, pc}
     ae2:	f44f 4240 	mov.w	r2, #49152	; 0xc000
     ae6:	f2c4 020f 	movt	r2, #16399	; 0x400f
     aea:	f8d2 10c4 	ldr.w	r1, [r2, #196]	; 0xc4
     aee:	f04f 0801 	mov.w	r8, #1
     af2:	f041 0308 	orr.w	r3, r1, #8
     af6:	f8c2 30c4 	str.w	r3, [r2, #196]	; 0xc4
     afa:	f884 8008 	strb.w	r8, [r4, #8]
     afe:	6828      	ldr	r0, [r5, #0]
     b00:	2400      	movs	r4, #0
     b02:	6044      	str	r4, [r0, #4]
     b04:	f44f 5116 	mov.w	r1, #9600	; 0x2580
     b08:	4628      	mov	r0, r5
     b0a:	f7ff fdc1 	bl	690 <serial_baud>
     b0e:	4628      	mov	r0, r5
     b10:	4622      	mov	r2, r4
     b12:	4643      	mov	r3, r8
     b14:	2108      	movs	r1, #8
     b16:	f7ff feef 	bl	8f8 <serial_format>
     b1a:	4638      	mov	r0, r7
     b1c:	4928      	ldr	r1, [pc, #160]	; (bc0 <serial_init+0x240>)
     b1e:	f000 f86b 	bl	bf8 <pinmap_pinout>
     b22:	4630      	mov	r0, r6
     b24:	4927      	ldr	r1, [pc, #156]	; (bc4 <serial_init+0x244>)
     b26:	f000 f867 	bl	bf8 <pinmap_pinout>
     b2a:	2400      	movs	r4, #0
     b2c:	606c      	str	r4, [r5, #4]
     b2e:	4b26      	ldr	r3, [pc, #152]	; (bc8 <serial_init+0x248>)
     b30:	4826      	ldr	r0, [pc, #152]	; (bcc <serial_init+0x24c>)
     b32:	2401      	movs	r4, #1
     b34:	4629      	mov	r1, r5
     b36:	2208      	movs	r2, #8
     b38:	601c      	str	r4, [r3, #0]
     b3a:	e8bd 43f8 	ldmia.w	sp!, {r3, r4, r5, r6, r7, r8, r9, lr}
     b3e:	f001 b927 	b.w	1d90 <memcpy>
     b42:	f44f 4e40 	mov.w	lr, #49152	; 0xc000
     b46:	f2c4 0e0f 	movt	lr, #16399	; 0x400f
     b4a:	f8de 00c4 	ldr.w	r0, [lr, #196]	; 0xc4
     b4e:	f04f 0801 	mov.w	r8, #1
     b52:	f040 7280 	orr.w	r2, r0, #16777216	; 0x1000000
     b56:	f8ce 20c4 	str.w	r2, [lr, #196]	; 0xc4
     b5a:	f884 8008 	strb.w	r8, [r4, #8]
     b5e:	6829      	ldr	r1, [r5, #0]
     b60:	2400      	movs	r4, #0
     b62:	604c      	str	r4, [r1, #4]
     b64:	4628      	mov	r0, r5
     b66:	f44f 5116 	mov.w	r1, #9600	; 0x2580
     b6a:	f7ff fd91 	bl	690 <serial_baud>
     b6e:	4628      	mov	r0, r5
     b70:	4622      	mov	r2, r4
     b72:	4643      	mov	r3, r8
     b74:	2108      	movs	r1, #8
     b76:	f7ff febf 	bl	8f8 <serial_format>
     b7a:	4638      	mov	r0, r7
     b7c:	4910      	ldr	r1, [pc, #64]	; (bc0 <serial_init+0x240>)
     b7e:	f000 f83b 	bl	bf8 <pinmap_pinout>
     b82:	4630      	mov	r0, r6
     b84:	490f      	ldr	r1, [pc, #60]	; (bc4 <serial_init+0x244>)
     b86:	f000 f837 	bl	bf8 <pinmap_pinout>
     b8a:	2302      	movs	r3, #2
     b8c:	606b      	str	r3, [r5, #4]
     b8e:	e8bd 83f8 	ldmia.w	sp!, {r3, r4, r5, r6, r7, r8, r9, pc}
     b92:	f44f 4200 	mov.w	r2, #32768	; 0x8000
     b96:	f2c4 0209 	movt	r2, #16393	; 0x4009
     b9a:	4294      	cmp	r4, r2
     b9c:	d0f5      	beq.n	b8a <serial_init+0x20a>
     b9e:	f44f 4140 	mov.w	r1, #49152	; 0xc000
     ba2:	f2c4 0109 	movt	r1, #16393	; 0x4009
     ba6:	428c      	cmp	r4, r1
     ba8:	f47f af6b 	bne.w	a82 <serial_init+0x102>
     bac:	e736      	b.n	a1c <serial_init+0x9c>
     bae:	4d08      	ldr	r5, [pc, #32]	; (bd0 <serial_init+0x250>)
     bb0:	4908      	ldr	r1, [pc, #32]	; (bd4 <serial_init+0x254>)
     bb2:	682e      	ldr	r6, [r5, #0]
     bb4:	68f0      	ldr	r0, [r6, #12]
     bb6:	f001 f861 	bl	1c7c <fiprintf>
     bba:	2001      	movs	r0, #1
     bbc:	f7ff fb9e 	bl	2fc <exit>
     bc0:	000061bc 	.word	0x000061bc
     bc4:	000060a8 	.word	0x000060a8
     bc8:	100002c0 	.word	0x100002c0
     bcc:	100002d0 	.word	0x100002d0
     bd0:	10000130 	.word	0x10000130
     bd4:	0000619c 	.word	0x0000619c

00000bd8 <serial_getc>:
     bd8:	6802      	ldr	r2, [r0, #0]
     bda:	7d13      	ldrb	r3, [r2, #20]
     bdc:	07d9      	lsls	r1, r3, #31
     bde:	d5fc      	bpl.n	bda <serial_getc+0x2>
     be0:	7810      	ldrb	r0, [r2, #0]
     be2:	4770      	bx	lr

00000be4 <serial_putc>:
     be4:	6802      	ldr	r2, [r0, #0]
     be6:	7d13      	ldrb	r3, [r2, #20]
     be8:	f003 0020 	and.w	r0, r3, #32
     bec:	b2c3      	uxtb	r3, r0
     bee:	2b00      	cmp	r3, #0
     bf0:	d0f9      	beq.n	be6 <serial_putc+0x2>
     bf2:	b2c9      	uxtb	r1, r1
     bf4:	7011      	strb	r1, [r2, #0]
     bf6:	4770      	bx	lr

00000bf8 <pinmap_pinout>:
     bf8:	1c43      	adds	r3, r0, #1
     bfa:	b510      	push	{r4, lr}
     bfc:	4604      	mov	r4, r0
     bfe:	d013      	beq.n	c28 <Stack_Size+0x28>
     c00:	680b      	ldr	r3, [r1, #0]
     c02:	1c58      	adds	r0, r3, #1
     c04:	d104      	bne.n	c10 <Stack_Size+0x10>
     c06:	e010      	b.n	c2a <Stack_Size+0x2a>
     c08:	f851 3f0c 	ldr.w	r3, [r1, #12]!
     c0c:	1c5a      	adds	r2, r3, #1
     c0e:	d00c      	beq.n	c2a <Stack_Size+0x2a>
     c10:	429c      	cmp	r4, r3
     c12:	d1f9      	bne.n	c08 <Stack_Size+0x8>
     c14:	4620      	mov	r0, r4
     c16:	6889      	ldr	r1, [r1, #8]
     c18:	f7ff fcd8 	bl	5cc <pin_function>
     c1c:	4620      	mov	r0, r4
     c1e:	2102      	movs	r1, #2
     c20:	e8bd 4010 	ldmia.w	sp!, {r4, lr}
     c24:	f7ff bcf4 	b.w	610 <pin_mode>
     c28:	bd10      	pop	{r4, pc}
     c2a:	4804      	ldr	r0, [pc, #16]	; (c3c <Stack_Size+0x3c>)
     c2c:	4904      	ldr	r1, [pc, #16]	; (c40 <Stack_Size+0x40>)
     c2e:	6802      	ldr	r2, [r0, #0]
     c30:	68d0      	ldr	r0, [r2, #12]
     c32:	f001 f823 	bl	1c7c <fiprintf>
     c36:	2001      	movs	r0, #1
     c38:	f7ff fb60 	bl	2fc <exit>
     c3c:	10000130 	.word	0x10000130
     c40:	00006228 	.word	0x00006228

00000c44 <pinmap_merge>:
     c44:	4288      	cmp	r0, r1
     c46:	b508      	push	{r3, lr}
     c48:	d003      	beq.n	c52 <pinmap_merge+0xe>
     c4a:	1c42      	adds	r2, r0, #1
     c4c:	d002      	beq.n	c54 <pinmap_merge+0x10>
     c4e:	3101      	adds	r1, #1
     c50:	d102      	bne.n	c58 <pinmap_merge+0x14>
     c52:	bd08      	pop	{r3, pc}
     c54:	4608      	mov	r0, r1
     c56:	bd08      	pop	{r3, pc}
     c58:	4b04      	ldr	r3, [pc, #16]	; (c6c <pinmap_merge+0x28>)
     c5a:	4905      	ldr	r1, [pc, #20]	; (c70 <pinmap_merge+0x2c>)
     c5c:	6818      	ldr	r0, [r3, #0]
     c5e:	68c0      	ldr	r0, [r0, #12]
     c60:	f001 f80c 	bl	1c7c <fiprintf>
     c64:	2001      	movs	r0, #1
     c66:	f7ff fb49 	bl	2fc <exit>
     c6a:	bf00      	nop
     c6c:	10000130 	.word	0x10000130
     c70:	0000623c 	.word	0x0000623c

00000c74 <pinmap_peripheral>:
     c74:	b508      	push	{r3, lr}
     c76:	1c43      	adds	r3, r0, #1
     c78:	d00b      	beq.n	c92 <pinmap_peripheral+0x1e>
     c7a:	680b      	ldr	r3, [r1, #0]
     c7c:	1c5a      	adds	r2, r3, #1
     c7e:	d104      	bne.n	c8a <pinmap_peripheral+0x16>
     c80:	e008      	b.n	c94 <pinmap_peripheral+0x20>
     c82:	f851 3f0c 	ldr.w	r3, [r1, #12]!
     c86:	1c5a      	adds	r2, r3, #1
     c88:	d004      	beq.n	c94 <pinmap_peripheral+0x20>
     c8a:	4298      	cmp	r0, r3
     c8c:	d1f9      	bne.n	c82 <pinmap_peripheral+0xe>
     c8e:	6848      	ldr	r0, [r1, #4]
     c90:	bd08      	pop	{r3, pc}
     c92:	bd08      	pop	{r3, pc}
     c94:	4804      	ldr	r0, [pc, #16]	; (ca8 <pinmap_peripheral+0x34>)
     c96:	4905      	ldr	r1, [pc, #20]	; (cac <pinmap_peripheral+0x38>)
     c98:	6802      	ldr	r2, [r0, #0]
     c9a:	68d0      	ldr	r0, [r2, #12]
     c9c:	f000 ffee 	bl	1c7c <fiprintf>
     ca0:	2001      	movs	r0, #1
     ca2:	f7ff fb2b 	bl	2fc <exit>
     ca6:	bf00      	nop
     ca8:	10000130 	.word	0x10000130
     cac:	00006250 	.word	0x00006250

00000cb0 <wait_us>:
     cb0:	b538      	push	{r3, r4, r5, lr}
     cb2:	4605      	mov	r5, r0
     cb4:	f000 f80e 	bl	cd4 <us_ticker_read>
     cb8:	4604      	mov	r4, r0
     cba:	f000 f80b 	bl	cd4 <us_ticker_read>
     cbe:	1b00      	subs	r0, r0, r4
     cc0:	42a8      	cmp	r0, r5
     cc2:	d3fa      	bcc.n	cba <wait_us+0xa>
     cc4:	bd38      	pop	{r3, r4, r5, pc}
     cc6:	bf00      	nop

00000cc8 <wait_ms>:
     cc8:	f44f 737a 	mov.w	r3, #1000	; 0x3e8
     ccc:	fb03 f000 	mul.w	r0, r3, r0
     cd0:	f7ff bfee 	b.w	cb0 <wait_us>

00000cd4 <us_ticker_read>:
     cd4:	4915      	ldr	r1, [pc, #84]	; (d2c <us_ticker_read+0x58>)
     cd6:	b430      	push	{r4, r5}
     cd8:	680a      	ldr	r2, [r1, #0]
     cda:	b9fa      	cbnz	r2, d1c <us_ticker_read+0x48>
     cdc:	f44f 4040 	mov.w	r0, #49152	; 0xc000
     ce0:	f2c4 000f 	movt	r0, #16399	; 0x400f
     ce4:	f8d0 50c4 	ldr.w	r5, [r0, #196]	; 0xc4
     ce8:	2401      	movs	r4, #1
     cea:	f44f 4380 	mov.w	r3, #16384	; 0x4000
     cee:	600c      	str	r4, [r1, #0]
     cf0:	f2c4 0309 	movt	r3, #16393	; 0x4009
     cf4:	490e      	ldr	r1, [pc, #56]	; (d30 <us_ticker_read+0x5c>)
     cf6:	f445 0500 	orr.w	r5, r5, #8388608	; 0x800000
     cfa:	f8c0 50c4 	str.w	r5, [r0, #196]	; 0xc4
     cfe:	671a      	str	r2, [r3, #112]	; 0x70
     d00:	6808      	ldr	r0, [r1, #0]
     d02:	f64d 6c83 	movw	r12, #56963	; 0xde83
     d06:	0882      	lsrs	r2, r0, #2
     d08:	f2c4 3c1b 	movt	r12, #17179	; 0x431b
     d0c:	fbac 0102 	umull	r0, r1, r12, r2
     d10:	0c88      	lsrs	r0, r1, #18
     d12:	1e42      	subs	r2, r0, #1
     d14:	2102      	movs	r1, #2
     d16:	6059      	str	r1, [r3, #4]
     d18:	60da      	str	r2, [r3, #12]
     d1a:	605c      	str	r4, [r3, #4]
     d1c:	f44f 4380 	mov.w	r3, #16384	; 0x4000
     d20:	f2c4 0309 	movt	r3, #16393	; 0x4009
     d24:	6898      	ldr	r0, [r3, #8]
     d26:	bc30      	pop	{r4, r5}
     d28:	4770      	bx	lr
     d2a:	bf00      	nop
     d2c:	100002c4 	.word	0x100002c4
     d30:	100000c8 	.word	0x100000c8

00000d34 <__aeabi_drsub>:
     d34:	f081 4100 	eor.w	r1, r1, #2147483648	; 0x80000000
     d38:	e002      	b.n	d40 <__adddf3>
     d3a:	bf00      	nop

00000d3c <__aeabi_dsub>:
     d3c:	f083 4300 	eor.w	r3, r3, #2147483648	; 0x80000000

00000d40 <__adddf3>:
     d40:	b530      	push	{r4, r5, lr}
     d42:	ea4f 0441 	mov.w	r4, r1, lsl #1
     d46:	ea4f 0543 	mov.w	r5, r3, lsl #1
     d4a:	ea94 0f05 	teq	r4, r5
     d4e:	bf08      	it	eq
     d50:	ea90 0f02 	teqeq	r0, r2
     d54:	bf1f      	itttt	ne
     d56:	ea54 0c00 	orrsne.w	r12, r4, r0
     d5a:	ea55 0c02 	orrsne.w	r12, r5, r2
     d5e:	ea7f 5c64 	mvnsne.w	r12, r4, asr #21
     d62:	ea7f 5c65 	mvnsne.w	r12, r5, asr #21
     d66:	f000 80e2 	beq.w	f2e <__adddf3+0x1ee>
     d6a:	ea4f 5454 	mov.w	r4, r4, lsr #21
     d6e:	ebd4 5555 	rsbs	r5, r4, r5, lsr #21
     d72:	bfb8      	it	lt
     d74:	426d      	neglt	r5, r5
     d76:	dd0c      	ble.n	d92 <__adddf3+0x52>
     d78:	442c      	add	r4, r5
     d7a:	ea80 0202 	eor.w	r2, r0, r2
     d7e:	ea81 0303 	eor.w	r3, r1, r3
     d82:	ea82 0000 	eor.w	r0, r2, r0
     d86:	ea83 0101 	eor.w	r1, r3, r1
     d8a:	ea80 0202 	eor.w	r2, r0, r2
     d8e:	ea81 0303 	eor.w	r3, r1, r3
     d92:	2d36      	cmp	r5, #54	; 0x36
     d94:	bf88      	it	hi
     d96:	bd30      	pophi	{r4, r5, pc}
     d98:	f011 4f00 	tst.w	r1, #2147483648	; 0x80000000
     d9c:	ea4f 3101 	mov.w	r1, r1, lsl #12
     da0:	f44f 1c80 	mov.w	r12, #1048576	; 0x100000
     da4:	ea4c 3111 	orr.w	r1, r12, r1, lsr #12
     da8:	d002      	beq.n	db0 <__adddf3+0x70>
     daa:	4240      	negs	r0, r0
     dac:	eb61 0141 	sbc.w	r1, r1, r1, lsl #1
     db0:	f013 4f00 	tst.w	r3, #2147483648	; 0x80000000
     db4:	ea4f 3303 	mov.w	r3, r3, lsl #12
     db8:	ea4c 3313 	orr.w	r3, r12, r3, lsr #12
     dbc:	d002      	beq.n	dc4 <__adddf3+0x84>
     dbe:	4252      	negs	r2, r2
     dc0:	eb63 0343 	sbc.w	r3, r3, r3, lsl #1
     dc4:	ea94 0f05 	teq	r4, r5
     dc8:	f000 80a7 	beq.w	f1a <__adddf3+0x1da>
     dcc:	f1a4 0401 	sub.w	r4, r4, #1
     dd0:	f1d5 0e20 	rsbs	lr, r5, #32
     dd4:	db0d      	blt.n	df2 <__adddf3+0xb2>
     dd6:	fa02 fc0e 	lsl.w	r12, r2, lr
     dda:	fa22 f205 	lsr.w	r2, r2, r5
     dde:	1880      	adds	r0, r0, r2
     de0:	f141 0100 	adc.w	r1, r1, #0
     de4:	fa03 f20e 	lsl.w	r2, r3, lr
     de8:	1880      	adds	r0, r0, r2
     dea:	fa43 f305 	asr.w	r3, r3, r5
     dee:	4159      	adcs	r1, r3
     df0:	e00e      	b.n	e10 <__adddf3+0xd0>
     df2:	f1a5 0520 	sub.w	r5, r5, #32
     df6:	f10e 0e20 	add.w	lr, lr, #32
     dfa:	2a01      	cmp	r2, #1
     dfc:	fa03 fc0e 	lsl.w	r12, r3, lr
     e00:	bf28      	it	cs
     e02:	f04c 0c02 	orrcs.w	r12, r12, #2
     e06:	fa43 f305 	asr.w	r3, r3, r5
     e0a:	18c0      	adds	r0, r0, r3
     e0c:	eb51 71e3 	adcs.w	r1, r1, r3, asr #31
     e10:	f001 4500 	and.w	r5, r1, #2147483648	; 0x80000000
     e14:	d507      	bpl.n	e26 <__adddf3+0xe6>
     e16:	f04f 0e00 	mov.w	lr, #0
     e1a:	f1dc 0c00 	rsbs	r12, r12, #0
     e1e:	eb7e 0000 	sbcs.w	r0, lr, r0
     e22:	eb6e 0101 	sbc.w	r1, lr, r1
     e26:	f5b1 1f80 	cmp.w	r1, #1048576	; 0x100000
     e2a:	d31b      	bcc.n	e64 <__adddf3+0x124>
     e2c:	f5b1 1f00 	cmp.w	r1, #2097152	; 0x200000
     e30:	d30c      	bcc.n	e4c <__adddf3+0x10c>
     e32:	0849      	lsrs	r1, r1, #1
     e34:	ea5f 0030 	movs.w	r0, r0, rrx
     e38:	ea4f 0c3c 	mov.w	r12, r12, rrx
     e3c:	f104 0401 	add.w	r4, r4, #1
     e40:	ea4f 5244 	mov.w	r2, r4, lsl #21
     e44:	f512 0f80 	cmn.w	r2, #4194304	; 0x400000
     e48:	f080 809a 	bcs.w	f80 <__adddf3+0x240>
     e4c:	f1bc 4f00 	cmp.w	r12, #2147483648	; 0x80000000
     e50:	bf08      	it	eq
     e52:	ea5f 0c50 	movseq.w	r12, r0, lsr #1
     e56:	f150 0000 	adcs.w	r0, r0, #0
     e5a:	eb41 5104 	adc.w	r1, r1, r4, lsl #20
     e5e:	ea41 0105 	orr.w	r1, r1, r5
     e62:	bd30      	pop	{r4, r5, pc}
     e64:	ea5f 0c4c 	movs.w	r12, r12, lsl #1
     e68:	4140      	adcs	r0, r0
     e6a:	eb41 0101 	adc.w	r1, r1, r1
     e6e:	f411 1f80 	tst.w	r1, #1048576	; 0x100000
     e72:	f1a4 0401 	sub.w	r4, r4, #1
     e76:	d1e9      	bne.n	e4c <__adddf3+0x10c>
     e78:	f091 0f00 	teq	r1, #0
     e7c:	bf04      	itt	eq
     e7e:	4601      	moveq	r1, r0
     e80:	2000      	moveq	r0, #0
     e82:	fab1 f381 	clz	r3, r1
     e86:	bf08      	it	eq
     e88:	3320      	addeq	r3, #32
     e8a:	f1a3 030b 	sub.w	r3, r3, #11
     e8e:	f1b3 0220 	subs.w	r2, r3, #32
     e92:	da0c      	bge.n	eae <__adddf3+0x16e>
     e94:	320c      	adds	r2, #12
     e96:	dd08      	ble.n	eaa <__adddf3+0x16a>
     e98:	f102 0c14 	add.w	r12, r2, #20
     e9c:	f1c2 020c 	rsb	r2, r2, #12
     ea0:	fa01 f00c 	lsl.w	r0, r1, r12
     ea4:	fa21 f102 	lsr.w	r1, r1, r2
     ea8:	e00c      	b.n	ec4 <__adddf3+0x184>
     eaa:	f102 0214 	add.w	r2, r2, #20
     eae:	bfd8      	it	le
     eb0:	f1c2 0c20 	rsble	r12, r2, #32
     eb4:	fa01 f102 	lsl.w	r1, r1, r2
     eb8:	fa20 fc0c 	lsr.w	r12, r0, r12
     ebc:	bfdc      	itt	le
     ebe:	ea41 010c 	orrle.w	r1, r1, r12
     ec2:	4090      	lslle	r0, r2
     ec4:	1ae4      	subs	r4, r4, r3
     ec6:	bfa2      	ittt	ge
     ec8:	eb01 5104 	addge.w	r1, r1, r4, lsl #20
     ecc:	4329      	orrge	r1, r5
     ece:	bd30      	popge	{r4, r5, pc}
     ed0:	ea6f 0404 	mvn.w	r4, r4
     ed4:	3c1f      	subs	r4, #31
     ed6:	da1c      	bge.n	f12 <__adddf3+0x1d2>
     ed8:	340c      	adds	r4, #12
     eda:	dc0e      	bgt.n	efa <__adddf3+0x1ba>
     edc:	f104 0414 	add.w	r4, r4, #20
     ee0:	f1c4 0220 	rsb	r2, r4, #32
     ee4:	fa20 f004 	lsr.w	r0, r0, r4
     ee8:	fa01 f302 	lsl.w	r3, r1, r2
     eec:	ea40 0003 	orr.w	r0, r0, r3
     ef0:	fa21 f304 	lsr.w	r3, r1, r4
     ef4:	ea45 0103 	orr.w	r1, r5, r3
     ef8:	bd30      	pop	{r4, r5, pc}
     efa:	f1c4 040c 	rsb	r4, r4, #12
     efe:	f1c4 0220 	rsb	r2, r4, #32
     f02:	fa20 f002 	lsr.w	r0, r0, r2
     f06:	fa01 f304 	lsl.w	r3, r1, r4
     f0a:	ea40 0003 	orr.w	r0, r0, r3
     f0e:	4629      	mov	r1, r5
     f10:	bd30      	pop	{r4, r5, pc}
     f12:	fa21 f004 	lsr.w	r0, r1, r4
     f16:	4629      	mov	r1, r5
     f18:	bd30      	pop	{r4, r5, pc}
     f1a:	f094 0f00 	teq	r4, #0
     f1e:	f483 1380 	eor.w	r3, r3, #1048576	; 0x100000
     f22:	bf06      	itte	eq
     f24:	f481 1180 	eoreq.w	r1, r1, #1048576	; 0x100000
     f28:	3401      	addeq	r4, #1
     f2a:	3d01      	subne	r5, #1
     f2c:	e74e      	b.n	dcc <__adddf3+0x8c>
     f2e:	ea7f 5c64 	mvns.w	r12, r4, asr #21
     f32:	bf18      	it	ne
     f34:	ea7f 5c65 	mvnsne.w	r12, r5, asr #21
     f38:	d029      	beq.n	f8e <__adddf3+0x24e>
     f3a:	ea94 0f05 	teq	r4, r5
     f3e:	bf08      	it	eq
     f40:	ea90 0f02 	teqeq	r0, r2
     f44:	d005      	beq.n	f52 <__adddf3+0x212>
     f46:	ea54 0c00 	orrs.w	r12, r4, r0
     f4a:	bf04      	itt	eq
     f4c:	4619      	moveq	r1, r3
     f4e:	4610      	moveq	r0, r2
     f50:	bd30      	pop	{r4, r5, pc}
     f52:	ea91 0f03 	teq	r1, r3
     f56:	bf1e      	ittt	ne
     f58:	2100      	movne	r1, #0
     f5a:	2000      	movne	r0, #0
     f5c:	bd30      	popne	{r4, r5, pc}
     f5e:	ea5f 5c54 	movs.w	r12, r4, lsr #21
     f62:	d105      	bne.n	f70 <__adddf3+0x230>
     f64:	0040      	lsls	r0, r0, #1
     f66:	4149      	adcs	r1, r1
     f68:	bf28      	it	cs
     f6a:	f041 4100 	orrcs.w	r1, r1, #2147483648	; 0x80000000
     f6e:	bd30      	pop	{r4, r5, pc}
     f70:	f514 0480 	adds.w	r4, r4, #4194304	; 0x400000
     f74:	bf3c      	itt	cc
     f76:	f501 1180 	addcc.w	r1, r1, #1048576	; 0x100000
     f7a:	bd30      	popcc	{r4, r5, pc}
     f7c:	f001 4500 	and.w	r5, r1, #2147483648	; 0x80000000
     f80:	f045 41fe 	orr.w	r1, r5, #2130706432	; 0x7f000000
     f84:	f441 0170 	orr.w	r1, r1, #15728640	; 0xf00000
     f88:	f04f 0000 	mov.w	r0, #0
     f8c:	bd30      	pop	{r4, r5, pc}
     f8e:	ea7f 5c64 	mvns.w	r12, r4, asr #21
     f92:	bf1a      	itte	ne
     f94:	4619      	movne	r1, r3
     f96:	4610      	movne	r0, r2
     f98:	ea7f 5c65 	mvnseq.w	r12, r5, asr #21
     f9c:	bf1c      	itt	ne
     f9e:	460b      	movne	r3, r1
     fa0:	4602      	movne	r2, r0
     fa2:	ea50 3401 	orrs.w	r4, r0, r1, lsl #12
     fa6:	bf06      	itte	eq
     fa8:	ea52 3503 	orrseq.w	r5, r2, r3, lsl #12
     fac:	ea91 0f03 	teqeq	r1, r3
     fb0:	f441 2100 	orrne.w	r1, r1, #524288	; 0x80000
     fb4:	bd30      	pop	{r4, r5, pc}
     fb6:	bf00      	nop

00000fb8 <__aeabi_ui2d>:
     fb8:	f090 0f00 	teq	r0, #0
     fbc:	bf04      	itt	eq
     fbe:	2100      	moveq	r1, #0
     fc0:	4770      	bxeq	lr
     fc2:	b530      	push	{r4, r5, lr}
     fc4:	f44f 6480 	mov.w	r4, #1024	; 0x400
     fc8:	f104 0432 	add.w	r4, r4, #50	; 0x32
     fcc:	f04f 0500 	mov.w	r5, #0
     fd0:	f04f 0100 	mov.w	r1, #0
     fd4:	e750      	b.n	e78 <__adddf3+0x138>
     fd6:	bf00      	nop

00000fd8 <__aeabi_i2d>:
     fd8:	f090 0f00 	teq	r0, #0
     fdc:	bf04      	itt	eq
     fde:	2100      	moveq	r1, #0
     fe0:	4770      	bxeq	lr
     fe2:	b530      	push	{r4, r5, lr}
     fe4:	f44f 6480 	mov.w	r4, #1024	; 0x400
     fe8:	f104 0432 	add.w	r4, r4, #50	; 0x32
     fec:	f010 4500 	ands.w	r5, r0, #2147483648	; 0x80000000
     ff0:	bf48      	it	mi
     ff2:	4240      	negmi	r0, r0
     ff4:	f04f 0100 	mov.w	r1, #0
     ff8:	e73e      	b.n	e78 <__adddf3+0x138>
     ffa:	bf00      	nop

00000ffc <__aeabi_f2d>:
     ffc:	0042      	lsls	r2, r0, #1
     ffe:	ea4f 01e2 	mov.w	r1, r2, asr #3
    1002:	ea4f 0131 	mov.w	r1, r1, rrx
    1006:	ea4f 7002 	mov.w	r0, r2, lsl #28
    100a:	bf1f      	itttt	ne
    100c:	f012 437f 	andsne.w	r3, r2, #4278190080	; 0xff000000
    1010:	f093 4f7f 	teqne	r3, #4278190080	; 0xff000000
    1014:	f081 5160 	eorne.w	r1, r1, #939524096	; 0x38000000
    1018:	4770      	bxne	lr
    101a:	f092 0f00 	teq	r2, #0
    101e:	bf14      	ite	ne
    1020:	f093 4f7f 	teqne	r3, #4278190080	; 0xff000000
    1024:	4770      	bxeq	lr
    1026:	b530      	push	{r4, r5, lr}
    1028:	f44f 7460 	mov.w	r4, #896	; 0x380
    102c:	f001 4500 	and.w	r5, r1, #2147483648	; 0x80000000
    1030:	f021 4100 	bic.w	r1, r1, #2147483648	; 0x80000000
    1034:	e720      	b.n	e78 <__adddf3+0x138>
    1036:	bf00      	nop

00001038 <__aeabi_ul2d>:
    1038:	ea50 0201 	orrs.w	r2, r0, r1
    103c:	bf08      	it	eq
    103e:	4770      	bxeq	lr
    1040:	b530      	push	{r4, r5, lr}
    1042:	f04f 0500 	mov.w	r5, #0
    1046:	e00a      	b.n	105e <__aeabi_l2d+0x16>

00001048 <__aeabi_l2d>:
    1048:	ea50 0201 	orrs.w	r2, r0, r1
    104c:	bf08      	it	eq
    104e:	4770      	bxeq	lr
    1050:	b530      	push	{r4, r5, lr}
    1052:	f011 4500 	ands.w	r5, r1, #2147483648	; 0x80000000
    1056:	d502      	bpl.n	105e <__aeabi_l2d+0x16>
    1058:	4240      	negs	r0, r0
    105a:	eb61 0141 	sbc.w	r1, r1, r1, lsl #1
    105e:	f44f 6480 	mov.w	r4, #1024	; 0x400
    1062:	f104 0432 	add.w	r4, r4, #50	; 0x32
    1066:	ea5f 5c91 	movs.w	r12, r1, lsr #22
    106a:	f43f aedc 	beq.w	e26 <__adddf3+0xe6>
    106e:	f04f 0203 	mov.w	r2, #3
    1072:	ea5f 0cdc 	movs.w	r12, r12, lsr #3
    1076:	bf18      	it	ne
    1078:	3203      	addne	r2, #3
    107a:	ea5f 0cdc 	movs.w	r12, r12, lsr #3
    107e:	bf18      	it	ne
    1080:	3203      	addne	r2, #3
    1082:	eb02 02dc 	add.w	r2, r2, r12, lsr #3
    1086:	f1c2 0320 	rsb	r3, r2, #32
    108a:	fa00 fc03 	lsl.w	r12, r0, r3
    108e:	fa20 f002 	lsr.w	r0, r0, r2
    1092:	fa01 fe03 	lsl.w	lr, r1, r3
    1096:	ea40 000e 	orr.w	r0, r0, lr
    109a:	fa21 f102 	lsr.w	r1, r1, r2
    109e:	4414      	add	r4, r2
    10a0:	e6c1      	b.n	e26 <__adddf3+0xe6>
    10a2:	bf00      	nop

000010a4 <__aeabi_dmul>:
    10a4:	b570      	push	{r4, r5, r6, lr}
    10a6:	f04f 0cff 	mov.w	r12, #255	; 0xff
    10aa:	f44c 6ce0 	orr.w	r12, r12, #1792	; 0x700
    10ae:	ea1c 5411 	ands.w	r4, r12, r1, lsr #20
    10b2:	bf1d      	ittte	ne
    10b4:	ea1c 5513 	andsne.w	r5, r12, r3, lsr #20
    10b8:	ea94 0f0c 	teqne	r4, r12
    10bc:	ea95 0f0c 	teqne	r5, r12
    10c0:	f000 f8de 	bleq	1280 <__aeabi_dmul+0x1dc>
    10c4:	442c      	add	r4, r5
    10c6:	ea81 0603 	eor.w	r6, r1, r3
    10ca:	ea21 514c 	bic.w	r1, r1, r12, lsl #21
    10ce:	ea23 534c 	bic.w	r3, r3, r12, lsl #21
    10d2:	ea50 3501 	orrs.w	r5, r0, r1, lsl #12
    10d6:	bf18      	it	ne
    10d8:	ea52 3503 	orrsne.w	r5, r2, r3, lsl #12
    10dc:	f441 1180 	orr.w	r1, r1, #1048576	; 0x100000
    10e0:	f443 1380 	orr.w	r3, r3, #1048576	; 0x100000
    10e4:	d038      	beq.n	1158 <__aeabi_dmul+0xb4>
    10e6:	fba0 ce02 	umull	r12, lr, r0, r2
    10ea:	f04f 0500 	mov.w	r5, #0
    10ee:	fbe1 e502 	umlal	lr, r5, r1, r2
    10f2:	f006 4200 	and.w	r2, r6, #2147483648	; 0x80000000
    10f6:	fbe0 e503 	umlal	lr, r5, r0, r3
    10fa:	f04f 0600 	mov.w	r6, #0
    10fe:	fbe1 5603 	umlal	r5, r6, r1, r3
    1102:	f09c 0f00 	teq	r12, #0
    1106:	bf18      	it	ne
    1108:	f04e 0e01 	orrne.w	lr, lr, #1
    110c:	f1a4 04ff 	sub.w	r4, r4, #255	; 0xff
    1110:	f5b6 7f00 	cmp.w	r6, #512	; 0x200
    1114:	f564 7440 	sbc.w	r4, r4, #768	; 0x300
    1118:	d204      	bcs.n	1124 <__aeabi_dmul+0x80>
    111a:	ea5f 0e4e 	movs.w	lr, lr, lsl #1
    111e:	416d      	adcs	r5, r5
    1120:	eb46 0606 	adc.w	r6, r6, r6
    1124:	ea42 21c6 	orr.w	r1, r2, r6, lsl #11
    1128:	ea41 5155 	orr.w	r1, r1, r5, lsr #21
    112c:	ea4f 20c5 	mov.w	r0, r5, lsl #11
    1130:	ea40 505e 	orr.w	r0, r0, lr, lsr #21
    1134:	ea4f 2ece 	mov.w	lr, lr, lsl #11
    1138:	f1b4 0cfd 	subs.w	r12, r4, #253	; 0xfd
    113c:	bf88      	it	hi
    113e:	f5bc 6fe0 	cmphi.w	r12, #1792	; 0x700
    1142:	d81e      	bhi.n	1182 <__aeabi_dmul+0xde>
    1144:	f1be 4f00 	cmp.w	lr, #2147483648	; 0x80000000
    1148:	bf08      	it	eq
    114a:	ea5f 0e50 	movseq.w	lr, r0, lsr #1
    114e:	f150 0000 	adcs.w	r0, r0, #0
    1152:	eb41 5104 	adc.w	r1, r1, r4, lsl #20
    1156:	bd70      	pop	{r4, r5, r6, pc}
    1158:	f006 4600 	and.w	r6, r6, #2147483648	; 0x80000000
    115c:	ea46 0101 	orr.w	r1, r6, r1
    1160:	ea40 0002 	orr.w	r0, r0, r2
    1164:	ea81 0103 	eor.w	r1, r1, r3
    1168:	ebb4 045c 	subs.w	r4, r4, r12, lsr #1
    116c:	bfc2      	ittt	gt
    116e:	ebd4 050c 	rsbsgt	r5, r4, r12
    1172:	ea41 5104 	orrgt.w	r1, r1, r4, lsl #20
    1176:	bd70      	popgt	{r4, r5, r6, pc}
    1178:	f441 1180 	orr.w	r1, r1, #1048576	; 0x100000
    117c:	f04f 0e00 	mov.w	lr, #0
    1180:	3c01      	subs	r4, #1
    1182:	f300 80ab 	bgt.w	12dc <__aeabi_dmul+0x238>
    1186:	f114 0f36 	cmn.w	r4, #54	; 0x36
    118a:	bfde      	ittt	le
    118c:	2000      	movle	r0, #0
    118e:	f001 4100 	andle.w	r1, r1, #2147483648	; 0x80000000
    1192:	bd70      	pople	{r4, r5, r6, pc}
    1194:	f1c4 0400 	rsb	r4, r4, #0
    1198:	3c20      	subs	r4, #32
    119a:	da35      	bge.n	1208 <__aeabi_dmul+0x164>
    119c:	340c      	adds	r4, #12
    119e:	dc1b      	bgt.n	11d8 <__aeabi_dmul+0x134>
    11a0:	f104 0414 	add.w	r4, r4, #20
    11a4:	f1c4 0520 	rsb	r5, r4, #32
    11a8:	fa00 f305 	lsl.w	r3, r0, r5
    11ac:	fa20 f004 	lsr.w	r0, r0, r4
    11b0:	fa01 f205 	lsl.w	r2, r1, r5
    11b4:	ea40 0002 	orr.w	r0, r0, r2
    11b8:	f001 4200 	and.w	r2, r1, #2147483648	; 0x80000000
    11bc:	f021 4100 	bic.w	r1, r1, #2147483648	; 0x80000000
    11c0:	eb10 70d3 	adds.w	r0, r0, r3, lsr #31
    11c4:	fa21 f604 	lsr.w	r6, r1, r4
    11c8:	eb42 0106 	adc.w	r1, r2, r6
    11cc:	ea5e 0e43 	orrs.w	lr, lr, r3, lsl #1
    11d0:	bf08      	it	eq
    11d2:	ea20 70d3 	biceq.w	r0, r0, r3, lsr #31
    11d6:	bd70      	pop	{r4, r5, r6, pc}
    11d8:	f1c4 040c 	rsb	r4, r4, #12
    11dc:	f1c4 0520 	rsb	r5, r4, #32
    11e0:	fa00 f304 	lsl.w	r3, r0, r4
    11e4:	fa20 f005 	lsr.w	r0, r0, r5
    11e8:	fa01 f204 	lsl.w	r2, r1, r4
    11ec:	ea40 0002 	orr.w	r0, r0, r2
    11f0:	f001 4100 	and.w	r1, r1, #2147483648	; 0x80000000
    11f4:	eb10 70d3 	adds.w	r0, r0, r3, lsr #31
    11f8:	f141 0100 	adc.w	r1, r1, #0
    11fc:	ea5e 0e43 	orrs.w	lr, lr, r3, lsl #1
    1200:	bf08      	it	eq
    1202:	ea20 70d3 	biceq.w	r0, r0, r3, lsr #31
    1206:	bd70      	pop	{r4, r5, r6, pc}
    1208:	f1c4 0520 	rsb	r5, r4, #32
    120c:	fa00 f205 	lsl.w	r2, r0, r5
    1210:	ea4e 0e02 	orr.w	lr, lr, r2
    1214:	fa20 f304 	lsr.w	r3, r0, r4
    1218:	fa01 f205 	lsl.w	r2, r1, r5
    121c:	ea43 0302 	orr.w	r3, r3, r2
    1220:	fa21 f004 	lsr.w	r0, r1, r4
    1224:	f001 4100 	and.w	r1, r1, #2147483648	; 0x80000000
    1228:	fa21 f204 	lsr.w	r2, r1, r4
    122c:	ea20 0002 	bic.w	r0, r0, r2
    1230:	eb00 70d3 	add.w	r0, r0, r3, lsr #31
    1234:	ea5e 0e43 	orrs.w	lr, lr, r3, lsl #1
    1238:	bf08      	it	eq
    123a:	ea20 70d3 	biceq.w	r0, r0, r3, lsr #31
    123e:	bd70      	pop	{r4, r5, r6, pc}
    1240:	f094 0f00 	teq	r4, #0
    1244:	d10f      	bne.n	1266 <__aeabi_dmul+0x1c2>
    1246:	f001 4600 	and.w	r6, r1, #2147483648	; 0x80000000
    124a:	0040      	lsls	r0, r0, #1
    124c:	eb41 0101 	adc.w	r1, r1, r1
    1250:	f411 1f80 	tst.w	r1, #1048576	; 0x100000
    1254:	bf08      	it	eq
    1256:	3c01      	subeq	r4, #1
    1258:	d0f7      	beq.n	124a <__aeabi_dmul+0x1a6>
    125a:	ea41 0106 	orr.w	r1, r1, r6
    125e:	f095 0f00 	teq	r5, #0
    1262:	bf18      	it	ne
    1264:	4770      	bxne	lr
    1266:	f003 4600 	and.w	r6, r3, #2147483648	; 0x80000000
    126a:	0052      	lsls	r2, r2, #1
    126c:	eb43 0303 	adc.w	r3, r3, r3
    1270:	f413 1f80 	tst.w	r3, #1048576	; 0x100000
    1274:	bf08      	it	eq
    1276:	3d01      	subeq	r5, #1
    1278:	d0f7      	beq.n	126a <__aeabi_dmul+0x1c6>
    127a:	ea43 0306 	orr.w	r3, r3, r6
    127e:	4770      	bx	lr
    1280:	ea94 0f0c 	teq	r4, r12
    1284:	ea0c 5513 	and.w	r5, r12, r3, lsr #20
    1288:	bf18      	it	ne
    128a:	ea95 0f0c 	teqne	r5, r12
    128e:	d00c      	beq.n	12aa <__aeabi_dmul+0x206>
    1290:	ea50 0641 	orrs.w	r6, r0, r1, lsl #1
    1294:	bf18      	it	ne
    1296:	ea52 0643 	orrsne.w	r6, r2, r3, lsl #1
    129a:	d1d1      	bne.n	1240 <__aeabi_dmul+0x19c>
    129c:	ea81 0103 	eor.w	r1, r1, r3
    12a0:	f001 4100 	and.w	r1, r1, #2147483648	; 0x80000000
    12a4:	f04f 0000 	mov.w	r0, #0
    12a8:	bd70      	pop	{r4, r5, r6, pc}
    12aa:	ea50 0641 	orrs.w	r6, r0, r1, lsl #1
    12ae:	bf06      	itte	eq
    12b0:	4610      	moveq	r0, r2
    12b2:	4619      	moveq	r1, r3
    12b4:	ea52 0643 	orrsne.w	r6, r2, r3, lsl #1
    12b8:	d019      	beq.n	12ee <__aeabi_dmul+0x24a>
    12ba:	ea94 0f0c 	teq	r4, r12
    12be:	d102      	bne.n	12c6 <__aeabi_dmul+0x222>
    12c0:	ea50 3601 	orrs.w	r6, r0, r1, lsl #12
    12c4:	d113      	bne.n	12ee <__aeabi_dmul+0x24a>
    12c6:	ea95 0f0c 	teq	r5, r12
    12ca:	d105      	bne.n	12d8 <__aeabi_dmul+0x234>
    12cc:	ea52 3603 	orrs.w	r6, r2, r3, lsl #12
    12d0:	bf1c      	itt	ne
    12d2:	4610      	movne	r0, r2
    12d4:	4619      	movne	r1, r3
    12d6:	d10a      	bne.n	12ee <__aeabi_dmul+0x24a>
    12d8:	ea81 0103 	eor.w	r1, r1, r3
    12dc:	f001 4100 	and.w	r1, r1, #2147483648	; 0x80000000
    12e0:	f041 41fe 	orr.w	r1, r1, #2130706432	; 0x7f000000
    12e4:	f441 0170 	orr.w	r1, r1, #15728640	; 0xf00000
    12e8:	f04f 0000 	mov.w	r0, #0
    12ec:	bd70      	pop	{r4, r5, r6, pc}
    12ee:	f041 41fe 	orr.w	r1, r1, #2130706432	; 0x7f000000
    12f2:	f441 0178 	orr.w	r1, r1, #16252928	; 0xf80000
    12f6:	bd70      	pop	{r4, r5, r6, pc}

000012f8 <__aeabi_ddiv>:
    12f8:	b570      	push	{r4, r5, r6, lr}
    12fa:	f04f 0cff 	mov.w	r12, #255	; 0xff
    12fe:	f44c 6ce0 	orr.w	r12, r12, #1792	; 0x700
    1302:	ea1c 5411 	ands.w	r4, r12, r1, lsr #20
    1306:	bf1d      	ittte	ne
    1308:	ea1c 5513 	andsne.w	r5, r12, r3, lsr #20
    130c:	ea94 0f0c 	teqne	r4, r12
    1310:	ea95 0f0c 	teqne	r5, r12
    1314:	f000 f8a7 	bleq	1466 <__aeabi_ddiv+0x16e>
    1318:	eba4 0405 	sub.w	r4, r4, r5
    131c:	ea81 0e03 	eor.w	lr, r1, r3
    1320:	ea52 3503 	orrs.w	r5, r2, r3, lsl #12
    1324:	ea4f 3101 	mov.w	r1, r1, lsl #12
    1328:	f000 8088 	beq.w	143c <__aeabi_ddiv+0x144>
    132c:	ea4f 3303 	mov.w	r3, r3, lsl #12
    1330:	f04f 5580 	mov.w	r5, #268435456	; 0x10000000
    1334:	ea45 1313 	orr.w	r3, r5, r3, lsr #4
    1338:	ea43 6312 	orr.w	r3, r3, r2, lsr #24
    133c:	ea4f 2202 	mov.w	r2, r2, lsl #8
    1340:	ea45 1511 	orr.w	r5, r5, r1, lsr #4
    1344:	ea45 6510 	orr.w	r5, r5, r0, lsr #24
    1348:	ea4f 2600 	mov.w	r6, r0, lsl #8
    134c:	f00e 4100 	and.w	r1, lr, #2147483648	; 0x80000000
    1350:	429d      	cmp	r5, r3
    1352:	bf08      	it	eq
    1354:	4296      	cmpeq	r6, r2
    1356:	f144 04fd 	adc.w	r4, r4, #253	; 0xfd
    135a:	f504 7440 	add.w	r4, r4, #768	; 0x300
    135e:	d202      	bcs.n	1366 <__aeabi_ddiv+0x6e>
    1360:	085b      	lsrs	r3, r3, #1
    1362:	ea4f 0232 	mov.w	r2, r2, rrx
    1366:	1ab6      	subs	r6, r6, r2
    1368:	eb65 0503 	sbc.w	r5, r5, r3
    136c:	085b      	lsrs	r3, r3, #1
    136e:	ea4f 0232 	mov.w	r2, r2, rrx
    1372:	f44f 1080 	mov.w	r0, #1048576	; 0x100000
    1376:	f44f 2c00 	mov.w	r12, #524288	; 0x80000
    137a:	ebb6 0e02 	subs.w	lr, r6, r2
    137e:	eb75 0e03 	sbcs.w	lr, r5, r3
    1382:	bf22      	ittt	cs
    1384:	1ab6      	subcs	r6, r6, r2
    1386:	4675      	movcs	r5, lr
    1388:	ea40 000c 	orrcs.w	r0, r0, r12
    138c:	085b      	lsrs	r3, r3, #1
    138e:	ea4f 0232 	mov.w	r2, r2, rrx
    1392:	ebb6 0e02 	subs.w	lr, r6, r2
    1396:	eb75 0e03 	sbcs.w	lr, r5, r3
    139a:	bf22      	ittt	cs
    139c:	1ab6      	subcs	r6, r6, r2
    139e:	4675      	movcs	r5, lr
    13a0:	ea40 005c 	orrcs.w	r0, r0, r12, lsr #1
    13a4:	085b      	lsrs	r3, r3, #1
    13a6:	ea4f 0232 	mov.w	r2, r2, rrx
    13aa:	ebb6 0e02 	subs.w	lr, r6, r2
    13ae:	eb75 0e03 	sbcs.w	lr, r5, r3
    13b2:	bf22      	ittt	cs
    13b4:	1ab6      	subcs	r6, r6, r2
    13b6:	4675      	movcs	r5, lr
    13b8:	ea40 009c 	orrcs.w	r0, r0, r12, lsr #2
    13bc:	085b      	lsrs	r3, r3, #1
    13be:	ea4f 0232 	mov.w	r2, r2, rrx
    13c2:	ebb6 0e02 	subs.w	lr, r6, r2
    13c6:	eb75 0e03 	sbcs.w	lr, r5, r3
    13ca:	bf22      	ittt	cs
    13cc:	1ab6      	subcs	r6, r6, r2
    13ce:	4675      	movcs	r5, lr
    13d0:	ea40 00dc 	orrcs.w	r0, r0, r12, lsr #3
    13d4:	ea55 0e06 	orrs.w	lr, r5, r6
    13d8:	d018      	beq.n	140c <__aeabi_ddiv+0x114>
    13da:	ea4f 1505 	mov.w	r5, r5, lsl #4
    13de:	ea45 7516 	orr.w	r5, r5, r6, lsr #28
    13e2:	ea4f 1606 	mov.w	r6, r6, lsl #4
    13e6:	ea4f 03c3 	mov.w	r3, r3, lsl #3
    13ea:	ea43 7352 	orr.w	r3, r3, r2, lsr #29
    13ee:	ea4f 02c2 	mov.w	r2, r2, lsl #3
    13f2:	ea5f 1c1c 	movs.w	r12, r12, lsr #4
    13f6:	d1c0      	bne.n	137a <__aeabi_ddiv+0x82>
    13f8:	f411 1f80 	tst.w	r1, #1048576	; 0x100000
    13fc:	d10b      	bne.n	1416 <__aeabi_ddiv+0x11e>
    13fe:	ea41 0100 	orr.w	r1, r1, r0
    1402:	f04f 0000 	mov.w	r0, #0
    1406:	f04f 4c00 	mov.w	r12, #2147483648	; 0x80000000
    140a:	e7b6      	b.n	137a <__aeabi_ddiv+0x82>
    140c:	f411 1f80 	tst.w	r1, #1048576	; 0x100000
    1410:	bf04      	itt	eq
    1412:	4301      	orreq	r1, r0
    1414:	2000      	moveq	r0, #0
    1416:	f1b4 0cfd 	subs.w	r12, r4, #253	; 0xfd
    141a:	bf88      	it	hi
    141c:	f5bc 6fe0 	cmphi.w	r12, #1792	; 0x700
    1420:	f63f aeaf 	bhi.w	1182 <__aeabi_dmul+0xde>
    1424:	ebb5 0c03 	subs.w	r12, r5, r3
    1428:	bf04      	itt	eq
    142a:	ebb6 0c02 	subseq.w	r12, r6, r2
    142e:	ea5f 0c50 	movseq.w	r12, r0, lsr #1
    1432:	f150 0000 	adcs.w	r0, r0, #0
    1436:	eb41 5104 	adc.w	r1, r1, r4, lsl #20
    143a:	bd70      	pop	{r4, r5, r6, pc}
    143c:	f00e 4e00 	and.w	lr, lr, #2147483648	; 0x80000000
    1440:	ea4e 3111 	orr.w	r1, lr, r1, lsr #12
    1444:	eb14 045c 	adds.w	r4, r4, r12, lsr #1
    1448:	bfc2      	ittt	gt
    144a:	ebd4 050c 	rsbsgt	r5, r4, r12
    144e:	ea41 5104 	orrgt.w	r1, r1, r4, lsl #20
    1452:	bd70      	popgt	{r4, r5, r6, pc}
    1454:	f441 1180 	orr.w	r1, r1, #1048576	; 0x100000
    1458:	f04f 0e00 	mov.w	lr, #0
    145c:	3c01      	subs	r4, #1
    145e:	e690      	b.n	1182 <__aeabi_dmul+0xde>
    1460:	ea45 0e06 	orr.w	lr, r5, r6
    1464:	e68d      	b.n	1182 <__aeabi_dmul+0xde>
    1466:	ea0c 5513 	and.w	r5, r12, r3, lsr #20
    146a:	ea94 0f0c 	teq	r4, r12
    146e:	bf08      	it	eq
    1470:	ea95 0f0c 	teqeq	r5, r12
    1474:	f43f af3b 	beq.w	12ee <__aeabi_dmul+0x24a>
    1478:	ea94 0f0c 	teq	r4, r12
    147c:	d10a      	bne.n	1494 <__aeabi_ddiv+0x19c>
    147e:	ea50 3401 	orrs.w	r4, r0, r1, lsl #12
    1482:	f47f af34 	bne.w	12ee <__aeabi_dmul+0x24a>
    1486:	ea95 0f0c 	teq	r5, r12
    148a:	f47f af25 	bne.w	12d8 <__aeabi_dmul+0x234>
    148e:	4610      	mov	r0, r2
    1490:	4619      	mov	r1, r3
    1492:	e72c      	b.n	12ee <__aeabi_dmul+0x24a>
    1494:	ea95 0f0c 	teq	r5, r12
    1498:	d106      	bne.n	14a8 <__aeabi_ddiv+0x1b0>
    149a:	ea52 3503 	orrs.w	r5, r2, r3, lsl #12
    149e:	f43f aefd 	beq.w	129c <__aeabi_dmul+0x1f8>
    14a2:	4610      	mov	r0, r2
    14a4:	4619      	mov	r1, r3
    14a6:	e722      	b.n	12ee <__aeabi_dmul+0x24a>
    14a8:	ea50 0641 	orrs.w	r6, r0, r1, lsl #1
    14ac:	bf18      	it	ne
    14ae:	ea52 0643 	orrsne.w	r6, r2, r3, lsl #1
    14b2:	f47f aec5 	bne.w	1240 <__aeabi_dmul+0x19c>
    14b6:	ea50 0441 	orrs.w	r4, r0, r1, lsl #1
    14ba:	f47f af0d 	bne.w	12d8 <__aeabi_dmul+0x234>
    14be:	ea52 0543 	orrs.w	r5, r2, r3, lsl #1
    14c2:	f47f aeeb 	bne.w	129c <__aeabi_dmul+0x1f8>
    14c6:	e712      	b.n	12ee <__aeabi_dmul+0x24a>

000014c8 <__gedf2>:
    14c8:	f04f 3cff 	mov.w	r12, #4294967295
    14cc:	e006      	b.n	14dc <__cmpdf2+0x4>
    14ce:	bf00      	nop

000014d0 <__ledf2>:
    14d0:	f04f 0c01 	mov.w	r12, #1
    14d4:	e002      	b.n	14dc <__cmpdf2+0x4>
    14d6:	bf00      	nop

000014d8 <__cmpdf2>:
    14d8:	f04f 0c01 	mov.w	r12, #1
    14dc:	f84d cd04 	str.w	r12, [sp, #-4]!
    14e0:	ea4f 0c41 	mov.w	r12, r1, lsl #1
    14e4:	ea7f 5c6c 	mvns.w	r12, r12, asr #21
    14e8:	ea4f 0c43 	mov.w	r12, r3, lsl #1
    14ec:	bf18      	it	ne
    14ee:	ea7f 5c6c 	mvnsne.w	r12, r12, asr #21
    14f2:	d01b      	beq.n	152c <__cmpdf2+0x54>
    14f4:	b001      	add	sp, #4
    14f6:	ea50 0c41 	orrs.w	r12, r0, r1, lsl #1
    14fa:	bf0c      	ite	eq
    14fc:	ea52 0c43 	orrseq.w	r12, r2, r3, lsl #1
    1500:	ea91 0f03 	teqne	r1, r3
    1504:	bf02      	ittt	eq
    1506:	ea90 0f02 	teqeq	r0, r2
    150a:	2000      	moveq	r0, #0
    150c:	4770      	bxeq	lr
    150e:	f110 0f00 	cmn.w	r0, #0
    1512:	ea91 0f03 	teq	r1, r3
    1516:	bf58      	it	pl
    1518:	4299      	cmppl	r1, r3
    151a:	bf08      	it	eq
    151c:	4290      	cmpeq	r0, r2
    151e:	bf2c      	ite	cs
    1520:	17d8      	asrcs	r0, r3, #31
    1522:	ea6f 70e3 	mvncc.w	r0, r3, asr #31
    1526:	f040 0001 	orr.w	r0, r0, #1
    152a:	4770      	bx	lr
    152c:	ea4f 0c41 	mov.w	r12, r1, lsl #1
    1530:	ea7f 5c6c 	mvns.w	r12, r12, asr #21
    1534:	d102      	bne.n	153c <__cmpdf2+0x64>
    1536:	ea50 3c01 	orrs.w	r12, r0, r1, lsl #12
    153a:	d107      	bne.n	154c <__cmpdf2+0x74>
    153c:	ea4f 0c43 	mov.w	r12, r3, lsl #1
    1540:	ea7f 5c6c 	mvns.w	r12, r12, asr #21
    1544:	d1d6      	bne.n	14f4 <__cmpdf2+0x1c>
    1546:	ea52 3c03 	orrs.w	r12, r2, r3, lsl #12
    154a:	d0d3      	beq.n	14f4 <__cmpdf2+0x1c>
    154c:	f85d 0b04 	ldr.w	r0, [sp], #4
    1550:	4770      	bx	lr
    1552:	bf00      	nop

00001554 <__aeabi_cdrcmple>:
    1554:	4684      	mov	r12, r0
    1556:	4610      	mov	r0, r2
    1558:	4662      	mov	r2, r12
    155a:	468c      	mov	r12, r1
    155c:	4619      	mov	r1, r3
    155e:	4663      	mov	r3, r12
    1560:	e000      	b.n	1564 <__aeabi_cdcmpeq>
    1562:	bf00      	nop

00001564 <__aeabi_cdcmpeq>:
    1564:	b501      	push	{r0, lr}
    1566:	f7ff ffb7 	bl	14d8 <__cmpdf2>
    156a:	2800      	cmp	r0, #0
    156c:	bf48      	it	mi
    156e:	f110 0f00 	cmnmi.w	r0, #0
    1572:	bd01      	pop	{r0, pc}

00001574 <__aeabi_dcmpeq>:
    1574:	f84d ed08 	str.w	lr, [sp, #-8]!
    1578:	f7ff fff4 	bl	1564 <__aeabi_cdcmpeq>
    157c:	bf0c      	ite	eq
    157e:	2001      	moveq	r0, #1
    1580:	2000      	movne	r0, #0
    1582:	f85d fb08 	ldr.w	pc, [sp], #8
    1586:	bf00      	nop

00001588 <__aeabi_dcmplt>:
    1588:	f84d ed08 	str.w	lr, [sp, #-8]!
    158c:	f7ff ffea 	bl	1564 <__aeabi_cdcmpeq>
    1590:	bf34      	ite	cc
    1592:	2001      	movcc	r0, #1
    1594:	2000      	movcs	r0, #0
    1596:	f85d fb08 	ldr.w	pc, [sp], #8
    159a:	bf00      	nop

0000159c <__aeabi_dcmple>:
    159c:	f84d ed08 	str.w	lr, [sp, #-8]!
    15a0:	f7ff ffe0 	bl	1564 <__aeabi_cdcmpeq>
    15a4:	bf94      	ite	ls
    15a6:	2001      	movls	r0, #1
    15a8:	2000      	movhi	r0, #0
    15aa:	f85d fb08 	ldr.w	pc, [sp], #8
    15ae:	bf00      	nop

000015b0 <__aeabi_dcmpge>:
    15b0:	f84d ed08 	str.w	lr, [sp, #-8]!
    15b4:	f7ff ffce 	bl	1554 <__aeabi_cdrcmple>
    15b8:	bf94      	ite	ls
    15ba:	2001      	movls	r0, #1
    15bc:	2000      	movhi	r0, #0
    15be:	f85d fb08 	ldr.w	pc, [sp], #8
    15c2:	bf00      	nop

000015c4 <__aeabi_dcmpgt>:
    15c4:	f84d ed08 	str.w	lr, [sp, #-8]!
    15c8:	f7ff ffc4 	bl	1554 <__aeabi_cdrcmple>
    15cc:	bf34      	ite	cc
    15ce:	2001      	movcc	r0, #1
    15d0:	2000      	movcs	r0, #0
    15d2:	f85d fb08 	ldr.w	pc, [sp], #8
    15d6:	bf00      	nop

000015d8 <__aeabi_d2iz>:
    15d8:	ea4f 0241 	mov.w	r2, r1, lsl #1
    15dc:	f512 1200 	adds.w	r2, r2, #2097152	; 0x200000
    15e0:	d215      	bcs.n	160e <__aeabi_d2iz+0x36>
    15e2:	d511      	bpl.n	1608 <__aeabi_d2iz+0x30>
    15e4:	f46f 7378 	mvn.w	r3, #992	; 0x3e0
    15e8:	ebb3 5262 	subs.w	r2, r3, r2, asr #21
    15ec:	d912      	bls.n	1614 <__aeabi_d2iz+0x3c>
    15ee:	ea4f 23c1 	mov.w	r3, r1, lsl #11
    15f2:	f043 4300 	orr.w	r3, r3, #2147483648	; 0x80000000
    15f6:	ea43 5350 	orr.w	r3, r3, r0, lsr #21
    15fa:	f011 4f00 	tst.w	r1, #2147483648	; 0x80000000
    15fe:	fa23 f002 	lsr.w	r0, r3, r2
    1602:	bf18      	it	ne
    1604:	4240      	negne	r0, r0
    1606:	4770      	bx	lr
    1608:	f04f 0000 	mov.w	r0, #0
    160c:	4770      	bx	lr
    160e:	ea50 3001 	orrs.w	r0, r0, r1, lsl #12
    1612:	d105      	bne.n	1620 <__aeabi_d2iz+0x48>
    1614:	f011 4000 	ands.w	r0, r1, #2147483648	; 0x80000000
    1618:	bf08      	it	eq
    161a:	f06f 4000 	mvneq.w	r0, #2147483648	; 0x80000000
    161e:	4770      	bx	lr
    1620:	f04f 0000 	mov.w	r0, #0
    1624:	4770      	bx	lr
    1626:	bf00      	nop

00001628 <__aeabi_d2f>:
    1628:	ea4f 0241 	mov.w	r2, r1, lsl #1
    162c:	f1b2 43e0 	subs.w	r3, r2, #1879048192	; 0x70000000
    1630:	bf24      	itt	cs
    1632:	f5b3 1c00 	subscs.w	r12, r3, #2097152	; 0x200000
    1636:	f1dc 5cfe 	rsbscs	r12, r12, #532676608	; 0x1fc00000
    163a:	d90d      	bls.n	1658 <__aeabi_d2f+0x30>
    163c:	f001 4c00 	and.w	r12, r1, #2147483648	; 0x80000000
    1640:	ea4f 02c0 	mov.w	r2, r0, lsl #3
    1644:	ea4c 7050 	orr.w	r0, r12, r0, lsr #29
    1648:	f1b2 4f00 	cmp.w	r2, #2147483648	; 0x80000000
    164c:	eb40 0083 	adc.w	r0, r0, r3, lsl #2
    1650:	bf08      	it	eq
    1652:	f020 0001 	biceq.w	r0, r0, #1
    1656:	4770      	bx	lr
    1658:	f011 4f80 	tst.w	r1, #1073741824	; 0x40000000
    165c:	d121      	bne.n	16a2 <__aeabi_d2f+0x7a>
    165e:	f113 7238 	adds.w	r2, r3, #48234496	; 0x2e00000
    1662:	bfbc      	itt	lt
    1664:	f001 4000 	andlt.w	r0, r1, #2147483648	; 0x80000000
    1668:	4770      	bxlt	lr
    166a:	f441 1180 	orr.w	r1, r1, #1048576	; 0x100000
    166e:	ea4f 5252 	mov.w	r2, r2, lsr #21
    1672:	f1c2 0218 	rsb	r2, r2, #24
    1676:	f1c2 0c20 	rsb	r12, r2, #32
    167a:	fa10 f30c 	lsls.w	r3, r0, r12
    167e:	fa20 f002 	lsr.w	r0, r0, r2
    1682:	bf18      	it	ne
    1684:	f040 0001 	orrne.w	r0, r0, #1
    1688:	ea4f 23c1 	mov.w	r3, r1, lsl #11
    168c:	ea4f 23d3 	mov.w	r3, r3, lsr #11
    1690:	fa03 fc0c 	lsl.w	r12, r3, r12
    1694:	ea40 000c 	orr.w	r0, r0, r12
    1698:	fa23 f302 	lsr.w	r3, r3, r2
    169c:	ea4f 0343 	mov.w	r3, r3, lsl #1
    16a0:	e7cc      	b.n	163c <__aeabi_d2f+0x14>
    16a2:	ea7f 5362 	mvns.w	r3, r2, asr #21
    16a6:	d107      	bne.n	16b8 <__aeabi_d2f+0x90>
    16a8:	ea50 3301 	orrs.w	r3, r0, r1, lsl #12
    16ac:	bf1e      	ittt	ne
    16ae:	f04f 40fe 	movne.w	r0, #2130706432	; 0x7f000000
    16b2:	f440 0040 	orrne.w	r0, r0, #12582912	; 0xc00000
    16b6:	4770      	bxne	lr
    16b8:	f001 4000 	and.w	r0, r1, #2147483648	; 0x80000000
    16bc:	f040 40fe 	orr.w	r0, r0, #2130706432	; 0x7f000000
    16c0:	f440 0000 	orr.w	r0, r0, #8388608	; 0x800000
    16c4:	4770      	bx	lr
    16c6:	bf00      	nop

000016c8 <__aeabi_frsub>:
    16c8:	f080 4000 	eor.w	r0, r0, #2147483648	; 0x80000000
    16cc:	e002      	b.n	16d4 <__addsf3>
    16ce:	bf00      	nop

000016d0 <__aeabi_fsub>:
    16d0:	f081 4100 	eor.w	r1, r1, #2147483648	; 0x80000000

000016d4 <__addsf3>:
    16d4:	0042      	lsls	r2, r0, #1
    16d6:	bf1f      	itttt	ne
    16d8:	ea5f 0341 	movsne.w	r3, r1, lsl #1
    16dc:	ea92 0f03 	teqne	r2, r3
    16e0:	ea7f 6c22 	mvnsne.w	r12, r2, asr #24
    16e4:	ea7f 6c23 	mvnsne.w	r12, r3, asr #24
    16e8:	d06a      	beq.n	17c0 <__addsf3+0xec>
    16ea:	ea4f 6212 	mov.w	r2, r2, lsr #24
    16ee:	ebd2 6313 	rsbs	r3, r2, r3, lsr #24
    16f2:	bfc1      	itttt	gt
    16f4:	18d2      	addgt	r2, r2, r3
    16f6:	4041      	eorgt	r1, r0
    16f8:	4048      	eorgt	r0, r1
    16fa:	4041      	eorgt	r1, r0
    16fc:	bfb8      	it	lt
    16fe:	425b      	neglt	r3, r3
    1700:	2b19      	cmp	r3, #25
    1702:	bf88      	it	hi
    1704:	4770      	bxhi	lr
    1706:	f010 4f00 	tst.w	r0, #2147483648	; 0x80000000
    170a:	f440 0000 	orr.w	r0, r0, #8388608	; 0x800000
    170e:	f020 407f 	bic.w	r0, r0, #4278190080	; 0xff000000
    1712:	bf18      	it	ne
    1714:	4240      	negne	r0, r0
    1716:	f011 4f00 	tst.w	r1, #2147483648	; 0x80000000
    171a:	f441 0100 	orr.w	r1, r1, #8388608	; 0x800000
    171e:	f021 417f 	bic.w	r1, r1, #4278190080	; 0xff000000
    1722:	bf18      	it	ne
    1724:	4249      	negne	r1, r1
    1726:	ea92 0f03 	teq	r2, r3
    172a:	d03f      	beq.n	17ac <__addsf3+0xd8>
    172c:	f1a2 0201 	sub.w	r2, r2, #1
    1730:	fa41 fc03 	asr.w	r12, r1, r3
    1734:	eb10 000c 	adds.w	r0, r0, r12
    1738:	f1c3 0320 	rsb	r3, r3, #32
    173c:	fa01 f103 	lsl.w	r1, r1, r3
    1740:	f000 4300 	and.w	r3, r0, #2147483648	; 0x80000000
    1744:	d502      	bpl.n	174c <__addsf3+0x78>
    1746:	4249      	negs	r1, r1
    1748:	eb60 0040 	sbc.w	r0, r0, r0, lsl #1
    174c:	f5b0 0f00 	cmp.w	r0, #8388608	; 0x800000
    1750:	d313      	bcc.n	177a <__addsf3+0xa6>
    1752:	f1b0 7f80 	cmp.w	r0, #16777216	; 0x1000000
    1756:	d306      	bcc.n	1766 <__addsf3+0x92>
    1758:	0840      	lsrs	r0, r0, #1
    175a:	ea4f 0131 	mov.w	r1, r1, rrx
    175e:	f102 0201 	add.w	r2, r2, #1
    1762:	2afe      	cmp	r2, #254	; 0xfe
    1764:	d251      	bcs.n	180a <__addsf3+0x136>
    1766:	f1b1 4f00 	cmp.w	r1, #2147483648	; 0x80000000
    176a:	eb40 50c2 	adc.w	r0, r0, r2, lsl #23
    176e:	bf08      	it	eq
    1770:	f020 0001 	biceq.w	r0, r0, #1
    1774:	ea40 0003 	orr.w	r0, r0, r3
    1778:	4770      	bx	lr
    177a:	0049      	lsls	r1, r1, #1
    177c:	eb40 0000 	adc.w	r0, r0, r0
    1780:	f410 0f00 	tst.w	r0, #8388608	; 0x800000
    1784:	f1a2 0201 	sub.w	r2, r2, #1
    1788:	d1ed      	bne.n	1766 <__addsf3+0x92>
    178a:	fab0 fc80 	clz	r12, r0
    178e:	f1ac 0c08 	sub.w	r12, r12, #8
    1792:	ebb2 020c 	subs.w	r2, r2, r12
    1796:	fa00 f00c 	lsl.w	r0, r0, r12
    179a:	bfaa      	itet	ge
    179c:	eb00 50c2 	addge.w	r0, r0, r2, lsl #23
    17a0:	4252      	neglt	r2, r2
    17a2:	4318      	orrge	r0, r3
    17a4:	bfbc      	itt	lt
    17a6:	40d0      	lsrlt	r0, r2
    17a8:	4318      	orrlt	r0, r3
    17aa:	4770      	bx	lr
    17ac:	f092 0f00 	teq	r2, #0
    17b0:	f481 0100 	eor.w	r1, r1, #8388608	; 0x800000
    17b4:	bf06      	itte	eq
    17b6:	f480 0000 	eoreq.w	r0, r0, #8388608	; 0x800000
    17ba:	3201      	addeq	r2, #1
    17bc:	3b01      	subne	r3, #1
    17be:	e7b5      	b.n	172c <__addsf3+0x58>
    17c0:	ea4f 0341 	mov.w	r3, r1, lsl #1
    17c4:	ea7f 6c22 	mvns.w	r12, r2, asr #24
    17c8:	bf18      	it	ne
    17ca:	ea7f 6c23 	mvnsne.w	r12, r3, asr #24
    17ce:	d021      	beq.n	1814 <__addsf3+0x140>
    17d0:	ea92 0f03 	teq	r2, r3
    17d4:	d004      	beq.n	17e0 <__addsf3+0x10c>
    17d6:	f092 0f00 	teq	r2, #0
    17da:	bf08      	it	eq
    17dc:	4608      	moveq	r0, r1
    17de:	4770      	bx	lr
    17e0:	ea90 0f01 	teq	r0, r1
    17e4:	bf1c      	itt	ne
    17e6:	2000      	movne	r0, #0
    17e8:	4770      	bxne	lr
    17ea:	f012 4f7f 	tst.w	r2, #4278190080	; 0xff000000
    17ee:	d104      	bne.n	17fa <__addsf3+0x126>
    17f0:	0040      	lsls	r0, r0, #1
    17f2:	bf28      	it	cs
    17f4:	f040 4000 	orrcs.w	r0, r0, #2147483648	; 0x80000000
    17f8:	4770      	bx	lr
    17fa:	f112 7200 	adds.w	r2, r2, #33554432	; 0x2000000
    17fe:	bf3c      	itt	cc
    1800:	f500 0000 	addcc.w	r0, r0, #8388608	; 0x800000
    1804:	4770      	bxcc	lr
    1806:	f000 4300 	and.w	r3, r0, #2147483648	; 0x80000000
    180a:	f043 40fe 	orr.w	r0, r3, #2130706432	; 0x7f000000
    180e:	f440 0000 	orr.w	r0, r0, #8388608	; 0x800000
    1812:	4770      	bx	lr
    1814:	ea7f 6222 	mvns.w	r2, r2, asr #24
    1818:	bf16      	itet	ne
    181a:	4608      	movne	r0, r1
    181c:	ea7f 6323 	mvnseq.w	r3, r3, asr #24
    1820:	4601      	movne	r1, r0
    1822:	0242      	lsls	r2, r0, #9
    1824:	bf06      	itte	eq
    1826:	ea5f 2341 	movseq.w	r3, r1, lsl #9
    182a:	ea90 0f01 	teqeq	r0, r1
    182e:	f440 0080 	orrne.w	r0, r0, #4194304	; 0x400000
    1832:	4770      	bx	lr

00001834 <__aeabi_ui2f>:
    1834:	f04f 0300 	mov.w	r3, #0
    1838:	e004      	b.n	1844 <__aeabi_i2f+0x8>
    183a:	bf00      	nop

0000183c <__aeabi_i2f>:
    183c:	f010 4300 	ands.w	r3, r0, #2147483648	; 0x80000000
    1840:	bf48      	it	mi
    1842:	4240      	negmi	r0, r0
    1844:	ea5f 0c00 	movs.w	r12, r0
    1848:	bf08      	it	eq
    184a:	4770      	bxeq	lr
    184c:	f043 4396 	orr.w	r3, r3, #1258291200	; 0x4b000000
    1850:	4601      	mov	r1, r0
    1852:	f04f 0000 	mov.w	r0, #0
    1856:	e01c      	b.n	1892 <__aeabi_l2f+0x2a>

00001858 <__aeabi_ul2f>:
    1858:	ea50 0201 	orrs.w	r2, r0, r1
    185c:	bf08      	it	eq
    185e:	4770      	bxeq	lr
    1860:	f04f 0300 	mov.w	r3, #0
    1864:	e00a      	b.n	187c <__aeabi_l2f+0x14>
    1866:	bf00      	nop

00001868 <__aeabi_l2f>:
    1868:	ea50 0201 	orrs.w	r2, r0, r1
    186c:	bf08      	it	eq
    186e:	4770      	bxeq	lr
    1870:	f011 4300 	ands.w	r3, r1, #2147483648	; 0x80000000
    1874:	d502      	bpl.n	187c <__aeabi_l2f+0x14>
    1876:	4240      	negs	r0, r0
    1878:	eb61 0141 	sbc.w	r1, r1, r1, lsl #1
    187c:	ea5f 0c01 	movs.w	r12, r1
    1880:	bf02      	ittt	eq
    1882:	4684      	moveq	r12, r0
    1884:	4601      	moveq	r1, r0
    1886:	2000      	moveq	r0, #0
    1888:	f043 43b6 	orr.w	r3, r3, #1526726656	; 0x5b000000
    188c:	bf08      	it	eq
    188e:	f1a3 5380 	subeq.w	r3, r3, #268435456	; 0x10000000
    1892:	f5a3 0300 	sub.w	r3, r3, #8388608	; 0x800000
    1896:	fabc f28c 	clz	r2, r12
    189a:	3a08      	subs	r2, #8
    189c:	eba3 53c2 	sub.w	r3, r3, r2, lsl #23
    18a0:	db10      	blt.n	18c4 <__aeabi_l2f+0x5c>
    18a2:	fa01 fc02 	lsl.w	r12, r1, r2
    18a6:	4463      	add	r3, r12
    18a8:	fa00 fc02 	lsl.w	r12, r0, r2
    18ac:	f1c2 0220 	rsb	r2, r2, #32
    18b0:	f1bc 4f00 	cmp.w	r12, #2147483648	; 0x80000000
    18b4:	fa20 f202 	lsr.w	r2, r0, r2
    18b8:	eb43 0002 	adc.w	r0, r3, r2
    18bc:	bf08      	it	eq
    18be:	f020 0001 	biceq.w	r0, r0, #1
    18c2:	4770      	bx	lr
    18c4:	f102 0220 	add.w	r2, r2, #32
    18c8:	fa01 fc02 	lsl.w	r12, r1, r2
    18cc:	f1c2 0220 	rsb	r2, r2, #32
    18d0:	ea50 004c 	orrs.w	r0, r0, r12, lsl #1
    18d4:	fa21 f202 	lsr.w	r2, r1, r2
    18d8:	eb43 0002 	adc.w	r0, r3, r2
    18dc:	bf08      	it	eq
    18de:	ea20 70dc 	biceq.w	r0, r0, r12, lsr #31
    18e2:	4770      	bx	lr

000018e4 <__aeabi_fmul>:
    18e4:	f04f 0cff 	mov.w	r12, #255	; 0xff
    18e8:	ea1c 52d0 	ands.w	r2, r12, r0, lsr #23
    18ec:	bf1e      	ittt	ne
    18ee:	ea1c 53d1 	andsne.w	r3, r12, r1, lsr #23
    18f2:	ea92 0f0c 	teqne	r2, r12
    18f6:	ea93 0f0c 	teqne	r3, r12
    18fa:	d06f      	beq.n	19dc <__aeabi_fmul+0xf8>
    18fc:	441a      	add	r2, r3
    18fe:	ea80 0c01 	eor.w	r12, r0, r1
    1902:	0240      	lsls	r0, r0, #9
    1904:	bf18      	it	ne
    1906:	ea5f 2141 	movsne.w	r1, r1, lsl #9
    190a:	d01e      	beq.n	194a <__aeabi_fmul+0x66>
    190c:	f04f 6300 	mov.w	r3, #134217728	; 0x8000000
    1910:	ea43 1050 	orr.w	r0, r3, r0, lsr #5
    1914:	ea43 1151 	orr.w	r1, r3, r1, lsr #5
    1918:	fba0 3101 	umull	r3, r1, r0, r1
    191c:	f00c 4000 	and.w	r0, r12, #2147483648	; 0x80000000
    1920:	f5b1 0f00 	cmp.w	r1, #8388608	; 0x800000
    1924:	bf3e      	ittt	cc
    1926:	0049      	lslcc	r1, r1, #1
    1928:	ea41 71d3 	orrcc.w	r1, r1, r3, lsr #31
    192c:	005b      	lslcc	r3, r3, #1
    192e:	ea40 0001 	orr.w	r0, r0, r1
    1932:	f162 027f 	sbc.w	r2, r2, #127	; 0x7f
    1936:	2afd      	cmp	r2, #253	; 0xfd
    1938:	d81d      	bhi.n	1976 <__aeabi_fmul+0x92>
    193a:	f1b3 4f00 	cmp.w	r3, #2147483648	; 0x80000000
    193e:	eb40 50c2 	adc.w	r0, r0, r2, lsl #23
    1942:	bf08      	it	eq
    1944:	f020 0001 	biceq.w	r0, r0, #1
    1948:	4770      	bx	lr
    194a:	f090 0f00 	teq	r0, #0
    194e:	f00c 4c00 	and.w	r12, r12, #2147483648	; 0x80000000
    1952:	bf08      	it	eq
    1954:	0249      	lsleq	r1, r1, #9
    1956:	ea4c 2050 	orr.w	r0, r12, r0, lsr #9
    195a:	ea40 2051 	orr.w	r0, r0, r1, lsr #9
    195e:	3a7f      	subs	r2, #127	; 0x7f
    1960:	bfc2      	ittt	gt
    1962:	f1d2 03ff 	rsbsgt	r3, r2, #255	; 0xff
    1966:	ea40 50c2 	orrgt.w	r0, r0, r2, lsl #23
    196a:	4770      	bxgt	lr
    196c:	f440 0000 	orr.w	r0, r0, #8388608	; 0x800000
    1970:	f04f 0300 	mov.w	r3, #0
    1974:	3a01      	subs	r2, #1
    1976:	dc5d      	bgt.n	1a34 <__aeabi_fmul+0x150>
    1978:	f112 0f19 	cmn.w	r2, #25
    197c:	bfdc      	itt	le
    197e:	f000 4000 	andle.w	r0, r0, #2147483648	; 0x80000000
    1982:	4770      	bxle	lr
    1984:	f1c2 0200 	rsb	r2, r2, #0
    1988:	0041      	lsls	r1, r0, #1
    198a:	fa21 f102 	lsr.w	r1, r1, r2
    198e:	f1c2 0220 	rsb	r2, r2, #32
    1992:	fa00 fc02 	lsl.w	r12, r0, r2
    1996:	ea5f 0031 	movs.w	r0, r1, rrx
    199a:	f140 0000 	adc.w	r0, r0, #0
    199e:	ea53 034c 	orrs.w	r3, r3, r12, lsl #1
    19a2:	bf08      	it	eq
    19a4:	ea20 70dc 	biceq.w	r0, r0, r12, lsr #31
    19a8:	4770      	bx	lr
    19aa:	f092 0f00 	teq	r2, #0
    19ae:	f000 4c00 	and.w	r12, r0, #2147483648	; 0x80000000
    19b2:	bf02      	ittt	eq
    19b4:	0040      	lsleq	r0, r0, #1
    19b6:	f410 0f00 	tsteq.w	r0, #8388608	; 0x800000
    19ba:	3a01      	subeq	r2, #1
    19bc:	d0f9      	beq.n	19b2 <__aeabi_fmul+0xce>
    19be:	ea40 000c 	orr.w	r0, r0, r12
    19c2:	f093 0f00 	teq	r3, #0
    19c6:	f001 4c00 	and.w	r12, r1, #2147483648	; 0x80000000
    19ca:	bf02      	ittt	eq
    19cc:	0049      	lsleq	r1, r1, #1
    19ce:	f411 0f00 	tsteq.w	r1, #8388608	; 0x800000
    19d2:	3b01      	subeq	r3, #1
    19d4:	d0f9      	beq.n	19ca <__aeabi_fmul+0xe6>
    19d6:	ea41 010c 	orr.w	r1, r1, r12
    19da:	e78f      	b.n	18fc <__aeabi_fmul+0x18>
    19dc:	ea0c 53d1 	and.w	r3, r12, r1, lsr #23
    19e0:	ea92 0f0c 	teq	r2, r12
    19e4:	bf18      	it	ne
    19e6:	ea93 0f0c 	teqne	r3, r12
    19ea:	d00a      	beq.n	1a02 <__aeabi_fmul+0x11e>
    19ec:	f030 4c00 	bics.w	r12, r0, #2147483648	; 0x80000000
    19f0:	bf18      	it	ne
    19f2:	f031 4c00 	bicsne.w	r12, r1, #2147483648	; 0x80000000
    19f6:	d1d8      	bne.n	19aa <__aeabi_fmul+0xc6>
    19f8:	ea80 0001 	eor.w	r0, r0, r1
    19fc:	f000 4000 	and.w	r0, r0, #2147483648	; 0x80000000
    1a00:	4770      	bx	lr
    1a02:	f090 0f00 	teq	r0, #0
    1a06:	bf17      	itett	ne
    1a08:	f090 4f00 	teqne	r0, #2147483648	; 0x80000000
    1a0c:	4608      	moveq	r0, r1
    1a0e:	f091 0f00 	teqne	r1, #0
    1a12:	f091 4f00 	teqne	r1, #2147483648	; 0x80000000
    1a16:	d014      	beq.n	1a42 <__aeabi_fmul+0x15e>
    1a18:	ea92 0f0c 	teq	r2, r12
    1a1c:	d101      	bne.n	1a22 <__aeabi_fmul+0x13e>
    1a1e:	0242      	lsls	r2, r0, #9
    1a20:	d10f      	bne.n	1a42 <__aeabi_fmul+0x15e>
    1a22:	ea93 0f0c 	teq	r3, r12
    1a26:	d103      	bne.n	1a30 <__aeabi_fmul+0x14c>
    1a28:	024b      	lsls	r3, r1, #9
    1a2a:	bf18      	it	ne
    1a2c:	4608      	movne	r0, r1
    1a2e:	d108      	bne.n	1a42 <__aeabi_fmul+0x15e>
    1a30:	ea80 0001 	eor.w	r0, r0, r1
    1a34:	f000 4000 	and.w	r0, r0, #2147483648	; 0x80000000
    1a38:	f040 40fe 	orr.w	r0, r0, #2130706432	; 0x7f000000
    1a3c:	f440 0000 	orr.w	r0, r0, #8388608	; 0x800000
    1a40:	4770      	bx	lr
    1a42:	f040 40fe 	orr.w	r0, r0, #2130706432	; 0x7f000000
    1a46:	f440 0040 	orr.w	r0, r0, #12582912	; 0xc00000
    1a4a:	4770      	bx	lr

00001a4c <__aeabi_fdiv>:
    1a4c:	f04f 0cff 	mov.w	r12, #255	; 0xff
    1a50:	ea1c 52d0 	ands.w	r2, r12, r0, lsr #23
    1a54:	bf1e      	ittt	ne
    1a56:	ea1c 53d1 	andsne.w	r3, r12, r1, lsr #23
    1a5a:	ea92 0f0c 	teqne	r2, r12
    1a5e:	ea93 0f0c 	teqne	r3, r12
    1a62:	d069      	beq.n	1b38 <__aeabi_fdiv+0xec>
    1a64:	eba2 0203 	sub.w	r2, r2, r3
    1a68:	ea80 0c01 	eor.w	r12, r0, r1
    1a6c:	0249      	lsls	r1, r1, #9
    1a6e:	ea4f 2040 	mov.w	r0, r0, lsl #9
    1a72:	d037      	beq.n	1ae4 <__aeabi_fdiv+0x98>
    1a74:	f04f 5380 	mov.w	r3, #268435456	; 0x10000000
    1a78:	ea43 1111 	orr.w	r1, r3, r1, lsr #4
    1a7c:	ea43 1310 	orr.w	r3, r3, r0, lsr #4
    1a80:	f00c 4000 	and.w	r0, r12, #2147483648	; 0x80000000
    1a84:	428b      	cmp	r3, r1
    1a86:	bf38      	it	cc
    1a88:	005b      	lslcc	r3, r3, #1
    1a8a:	f142 027d 	adc.w	r2, r2, #125	; 0x7d
    1a8e:	f44f 0c00 	mov.w	r12, #8388608	; 0x800000
    1a92:	428b      	cmp	r3, r1
    1a94:	bf24      	itt	cs
    1a96:	1a5b      	subcs	r3, r3, r1
    1a98:	ea40 000c 	orrcs.w	r0, r0, r12
    1a9c:	ebb3 0f51 	cmp.w	r3, r1, lsr #1
    1aa0:	bf24      	itt	cs
    1aa2:	eba3 0351 	subcs.w	r3, r3, r1, lsr #1
    1aa6:	ea40 005c 	orrcs.w	r0, r0, r12, lsr #1
    1aaa:	ebb3 0f91 	cmp.w	r3, r1, lsr #2
    1aae:	bf24      	itt	cs
    1ab0:	eba3 0391 	subcs.w	r3, r3, r1, lsr #2
    1ab4:	ea40 009c 	orrcs.w	r0, r0, r12, lsr #2
    1ab8:	ebb3 0fd1 	cmp.w	r3, r1, lsr #3
    1abc:	bf24      	itt	cs
    1abe:	eba3 03d1 	subcs.w	r3, r3, r1, lsr #3
    1ac2:	ea40 00dc 	orrcs.w	r0, r0, r12, lsr #3
    1ac6:	011b      	lsls	r3, r3, #4
    1ac8:	bf18      	it	ne
    1aca:	ea5f 1c1c 	movsne.w	r12, r12, lsr #4
    1ace:	d1e0      	bne.n	1a92 <__aeabi_fdiv+0x46>
    1ad0:	2afd      	cmp	r2, #253	; 0xfd
    1ad2:	f63f af50 	bhi.w	1976 <__aeabi_fmul+0x92>
    1ad6:	428b      	cmp	r3, r1
    1ad8:	eb40 50c2 	adc.w	r0, r0, r2, lsl #23
    1adc:	bf08      	it	eq
    1ade:	f020 0001 	biceq.w	r0, r0, #1
    1ae2:	4770      	bx	lr
    1ae4:	f00c 4c00 	and.w	r12, r12, #2147483648	; 0x80000000
    1ae8:	ea4c 2050 	orr.w	r0, r12, r0, lsr #9
    1aec:	327f      	adds	r2, #127	; 0x7f
    1aee:	bfc2      	ittt	gt
    1af0:	f1d2 03ff 	rsbsgt	r3, r2, #255	; 0xff
    1af4:	ea40 50c2 	orrgt.w	r0, r0, r2, lsl #23
    1af8:	4770      	bxgt	lr
    1afa:	f440 0000 	orr.w	r0, r0, #8388608	; 0x800000
    1afe:	f04f 0300 	mov.w	r3, #0
    1b02:	3a01      	subs	r2, #1
    1b04:	e737      	b.n	1976 <__aeabi_fmul+0x92>
    1b06:	f092 0f00 	teq	r2, #0
    1b0a:	f000 4c00 	and.w	r12, r0, #2147483648	; 0x80000000
    1b0e:	bf02      	ittt	eq
    1b10:	0040      	lsleq	r0, r0, #1
    1b12:	f410 0f00 	tsteq.w	r0, #8388608	; 0x800000
    1b16:	3a01      	subeq	r2, #1
    1b18:	d0f9      	beq.n	1b0e <__aeabi_fdiv+0xc2>
    1b1a:	ea40 000c 	orr.w	r0, r0, r12
    1b1e:	f093 0f00 	teq	r3, #0
    1b22:	f001 4c00 	and.w	r12, r1, #2147483648	; 0x80000000
    1b26:	bf02      	ittt	eq
    1b28:	0049      	lsleq	r1, r1, #1
    1b2a:	f411 0f00 	tsteq.w	r1, #8388608	; 0x800000
    1b2e:	3b01      	subeq	r3, #1
    1b30:	d0f9      	beq.n	1b26 <__aeabi_fdiv+0xda>
    1b32:	ea41 010c 	orr.w	r1, r1, r12
    1b36:	e795      	b.n	1a64 <__aeabi_fdiv+0x18>
    1b38:	ea0c 53d1 	and.w	r3, r12, r1, lsr #23
    1b3c:	ea92 0f0c 	teq	r2, r12
    1b40:	d108      	bne.n	1b54 <__aeabi_fdiv+0x108>
    1b42:	0242      	lsls	r2, r0, #9
    1b44:	f47f af7d 	bne.w	1a42 <__aeabi_fmul+0x15e>
    1b48:	ea93 0f0c 	teq	r3, r12
    1b4c:	f47f af70 	bne.w	1a30 <__aeabi_fmul+0x14c>
    1b50:	4608      	mov	r0, r1
    1b52:	e776      	b.n	1a42 <__aeabi_fmul+0x15e>
    1b54:	ea93 0f0c 	teq	r3, r12
    1b58:	d104      	bne.n	1b64 <__aeabi_fdiv+0x118>
    1b5a:	024b      	lsls	r3, r1, #9
    1b5c:	f43f af4c 	beq.w	19f8 <__aeabi_fmul+0x114>
    1b60:	4608      	mov	r0, r1
    1b62:	e76e      	b.n	1a42 <__aeabi_fmul+0x15e>
    1b64:	f030 4c00 	bics.w	r12, r0, #2147483648	; 0x80000000
    1b68:	bf18      	it	ne
    1b6a:	f031 4c00 	bicsne.w	r12, r1, #2147483648	; 0x80000000
    1b6e:	d1ca      	bne.n	1b06 <__aeabi_fdiv+0xba>
    1b70:	f030 4200 	bics.w	r2, r0, #2147483648	; 0x80000000
    1b74:	f47f af5c 	bne.w	1a30 <__aeabi_fmul+0x14c>
    1b78:	f031 4300 	bics.w	r3, r1, #2147483648	; 0x80000000
    1b7c:	f47f af3c 	bne.w	19f8 <__aeabi_fmul+0x114>
    1b80:	e75f      	b.n	1a42 <__aeabi_fmul+0x15e>
    1b82:	bf00      	nop

00001b84 <__gesf2>:
    1b84:	f04f 3cff 	mov.w	r12, #4294967295
    1b88:	e006      	b.n	1b98 <__cmpsf2+0x4>
    1b8a:	bf00      	nop

00001b8c <__lesf2>:
    1b8c:	f04f 0c01 	mov.w	r12, #1
    1b90:	e002      	b.n	1b98 <__cmpsf2+0x4>
    1b92:	bf00      	nop

00001b94 <__cmpsf2>:
    1b94:	f04f 0c01 	mov.w	r12, #1
    1b98:	f84d cd04 	str.w	r12, [sp, #-4]!
    1b9c:	ea4f 0240 	mov.w	r2, r0, lsl #1
    1ba0:	ea4f 0341 	mov.w	r3, r1, lsl #1
    1ba4:	ea7f 6c22 	mvns.w	r12, r2, asr #24
    1ba8:	bf18      	it	ne
    1baa:	ea7f 6c23 	mvnsne.w	r12, r3, asr #24
    1bae:	d011      	beq.n	1bd4 <__cmpsf2+0x40>
    1bb0:	b001      	add	sp, #4
    1bb2:	ea52 0c53 	orrs.w	r12, r2, r3, lsr #1
    1bb6:	bf18      	it	ne
    1bb8:	ea90 0f01 	teqne	r0, r1
    1bbc:	bf58      	it	pl
    1bbe:	ebb2 0003 	subspl.w	r0, r2, r3
    1bc2:	bf88      	it	hi
    1bc4:	17c8      	asrhi	r0, r1, #31
    1bc6:	bf38      	it	cc
    1bc8:	ea6f 70e1 	mvncc.w	r0, r1, asr #31
    1bcc:	bf18      	it	ne
    1bce:	f040 0001 	orrne.w	r0, r0, #1
    1bd2:	4770      	bx	lr
    1bd4:	ea7f 6c22 	mvns.w	r12, r2, asr #24
    1bd8:	d102      	bne.n	1be0 <__cmpsf2+0x4c>
    1bda:	ea5f 2c40 	movs.w	r12, r0, lsl #9
    1bde:	d105      	bne.n	1bec <__cmpsf2+0x58>
    1be0:	ea7f 6c23 	mvns.w	r12, r3, asr #24
    1be4:	d1e4      	bne.n	1bb0 <__cmpsf2+0x1c>
    1be6:	ea5f 2c41 	movs.w	r12, r1, lsl #9
    1bea:	d0e1      	beq.n	1bb0 <__cmpsf2+0x1c>
    1bec:	f85d 0b04 	ldr.w	r0, [sp], #4
    1bf0:	4770      	bx	lr
    1bf2:	bf00      	nop

00001bf4 <__aeabi_cfrcmple>:
    1bf4:	4684      	mov	r12, r0
    1bf6:	4608      	mov	r0, r1
    1bf8:	4661      	mov	r1, r12
    1bfa:	e7ff      	b.n	1bfc <__aeabi_cfcmpeq>

00001bfc <__aeabi_cfcmpeq>:
    1bfc:	b50f      	push	{r0, r1, r2, r3, lr}
    1bfe:	f7ff ffc9 	bl	1b94 <__cmpsf2>
    1c02:	2800      	cmp	r0, #0
    1c04:	bf48      	it	mi
    1c06:	f110 0f00 	cmnmi.w	r0, #0
    1c0a:	bd0f      	pop	{r0, r1, r2, r3, pc}

00001c0c <__aeabi_fcmpeq>:
    1c0c:	f84d ed08 	str.w	lr, [sp, #-8]!
    1c10:	f7ff fff4 	bl	1bfc <__aeabi_cfcmpeq>
    1c14:	bf0c      	ite	eq
    1c16:	2001      	moveq	r0, #1
    1c18:	2000      	movne	r0, #0
    1c1a:	f85d fb08 	ldr.w	pc, [sp], #8
    1c1e:	bf00      	nop

00001c20 <__aeabi_fcmplt>:
    1c20:	f84d ed08 	str.w	lr, [sp, #-8]!
    1c24:	f7ff ffea 	bl	1bfc <__aeabi_cfcmpeq>
    1c28:	bf34      	ite	cc
    1c2a:	2001      	movcc	r0, #1
    1c2c:	2000      	movcs	r0, #0
    1c2e:	f85d fb08 	ldr.w	pc, [sp], #8
    1c32:	bf00      	nop

00001c34 <__aeabi_fcmple>:
    1c34:	f84d ed08 	str.w	lr, [sp, #-8]!
    1c38:	f7ff ffe0 	bl	1bfc <__aeabi_cfcmpeq>
    1c3c:	bf94      	ite	ls
    1c3e:	2001      	movls	r0, #1
    1c40:	2000      	movhi	r0, #0
    1c42:	f85d fb08 	ldr.w	pc, [sp], #8
    1c46:	bf00      	nop

00001c48 <__aeabi_fcmpge>:
    1c48:	f84d ed08 	str.w	lr, [sp, #-8]!
    1c4c:	f7ff ffd2 	bl	1bf4 <__aeabi_cfrcmple>
    1c50:	bf94      	ite	ls
    1c52:	2001      	movls	r0, #1
    1c54:	2000      	movhi	r0, #0
    1c56:	f85d fb08 	ldr.w	pc, [sp], #8
    1c5a:	bf00      	nop

00001c5c <__aeabi_fcmpgt>:
    1c5c:	f84d ed08 	str.w	lr, [sp, #-8]!
    1c60:	f7ff ffc8 	bl	1bf4 <__aeabi_cfrcmple>
    1c64:	bf34      	ite	cc
    1c66:	2001      	movcc	r0, #1
    1c68:	2000      	movcs	r0, #0
    1c6a:	f85d fb08 	ldr.w	pc, [sp], #8
    1c6e:	bf00      	nop

00001c70 <__errno>:
    1c70:	4b01      	ldr	r3, [pc, #4]	; (1c78 <__errno+0x8>)
    1c72:	6818      	ldr	r0, [r3, #0]
    1c74:	4770      	bx	lr
    1c76:	bf00      	nop
    1c78:	10000130 	.word	0x10000130

00001c7c <fiprintf>:
    1c7c:	b40e      	push	{r1, r2, r3}
    1c7e:	b503      	push	{r0, r1, lr}
    1c80:	4601      	mov	r1, r0
    1c82:	ab03      	add	r3, sp, #12
    1c84:	4805      	ldr	r0, [pc, #20]	; (1c9c <fiprintf+0x20>)
    1c86:	f853 2b04 	ldr.w	r2, [r3], #4
    1c8a:	6800      	ldr	r0, [r0, #0]
    1c8c:	9301      	str	r3, [sp, #4]
    1c8e:	f000 f939 	bl	1f04 <_vfiprintf_r>
    1c92:	e8bd 400c 	ldmia.w	sp!, {r2, r3, lr}
    1c96:	b003      	add	sp, #12
    1c98:	4770      	bx	lr
    1c9a:	bf00      	nop
    1c9c:	10000130 	.word	0x10000130

00001ca0 <__libc_init_array>:
    1ca0:	b538      	push	{r3, r4, r5, lr}
    1ca2:	4d0e      	ldr	r5, [pc, #56]	; (1cdc <__libc_init_array+0x3c>)
    1ca4:	4b0e      	ldr	r3, [pc, #56]	; (1ce0 <__libc_init_array+0x40>)
    1ca6:	2400      	movs	r4, #0
    1ca8:	1ae8      	subs	r0, r5, r3
    1caa:	1085      	asrs	r5, r0, #2
    1cac:	42ac      	cmp	r4, r5
    1cae:	d005      	beq.n	1cbc <__libc_init_array+0x1c>
    1cb0:	490b      	ldr	r1, [pc, #44]	; (1ce0 <__libc_init_array+0x40>)
    1cb2:	f851 2024 	ldr.w	r2, [r1, r4, lsl #2]
    1cb6:	4790      	blx	r2
    1cb8:	3401      	adds	r4, #1
    1cba:	e7f7      	b.n	1cac <__libc_init_array+0xc>
    1cbc:	f004 f9ca 	bl	6054 <_init>
    1cc0:	4908      	ldr	r1, [pc, #32]	; (1ce4 <__libc_init_array+0x44>)
    1cc2:	4a09      	ldr	r2, [pc, #36]	; (1ce8 <__libc_init_array+0x48>)
    1cc4:	1a54      	subs	r4, r2, r1
    1cc6:	10a5      	asrs	r5, r4, #2
    1cc8:	2400      	movs	r4, #0
    1cca:	42ac      	cmp	r4, r5
    1ccc:	d005      	beq.n	1cda <__libc_init_array+0x3a>
    1cce:	4b05      	ldr	r3, [pc, #20]	; (1ce4 <__libc_init_array+0x44>)
    1cd0:	f853 0024 	ldr.w	r0, [r3, r4, lsl #2]
    1cd4:	4780      	blx	r0
    1cd6:	3401      	adds	r4, #1
    1cd8:	e7f7      	b.n	1cca <__libc_init_array+0x2a>
    1cda:	bd38      	pop	{r3, r4, r5, pc}
    1cdc:	10000198 	.word	0x10000198
    1ce0:	10000198 	.word	0x10000198
    1ce4:	10000198 	.word	0x10000198
    1ce8:	1000019c 	.word	0x1000019c

00001cec <malloc>:
    1cec:	4b02      	ldr	r3, [pc, #8]	; (1cf8 <malloc+0xc>)
    1cee:	4601      	mov	r1, r0
    1cf0:	6818      	ldr	r0, [r3, #0]
    1cf2:	f000 b803 	b.w	1cfc <_malloc_r>
    1cf6:	bf00      	nop
    1cf8:	10000130 	.word	0x10000130

00001cfc <_malloc_r>:
    1cfc:	b570      	push	{r4, r5, r6, lr}
    1cfe:	1ccd      	adds	r5, r1, #3
    1d00:	f025 0503 	bic.w	r5, r5, #3
    1d04:	3508      	adds	r5, #8
    1d06:	2d0c      	cmp	r5, #12
    1d08:	bf38      	it	cc
    1d0a:	250c      	movcc	r5, #12
    1d0c:	2d00      	cmp	r5, #0
    1d0e:	4606      	mov	r6, r0
    1d10:	db2d      	blt.n	1d6e <_malloc_r+0x72>
    1d12:	428d      	cmp	r5, r1
    1d14:	d32b      	bcc.n	1d6e <_malloc_r+0x72>
    1d16:	4b1d      	ldr	r3, [pc, #116]	; (1d8c <_malloc_r+0x90>)
    1d18:	681b      	ldr	r3, [r3, #0]
    1d1a:	461c      	mov	r4, r3
    1d1c:	b19c      	cbz	r4, 1d46 <_malloc_r+0x4a>
    1d1e:	6822      	ldr	r2, [r4, #0]
    1d20:	1b50      	subs	r0, r2, r5
    1d22:	d40d      	bmi.n	1d40 <_malloc_r+0x44>
    1d24:	280b      	cmp	r0, #11
    1d26:	d902      	bls.n	1d2e <_malloc_r+0x32>
    1d28:	6020      	str	r0, [r4, #0]
    1d2a:	1824      	adds	r4, r4, r0
    1d2c:	e017      	b.n	1d5e <_malloc_r+0x62>
    1d2e:	42a3      	cmp	r3, r4
    1d30:	d103      	bne.n	1d3a <_malloc_r+0x3e>
    1d32:	6860      	ldr	r0, [r4, #4]
    1d34:	4a15      	ldr	r2, [pc, #84]	; (1d8c <_malloc_r+0x90>)
    1d36:	6010      	str	r0, [r2, #0]
    1d38:	e01d      	b.n	1d76 <_malloc_r+0x7a>
    1d3a:	6861      	ldr	r1, [r4, #4]
    1d3c:	6059      	str	r1, [r3, #4]
    1d3e:	e01a      	b.n	1d76 <_malloc_r+0x7a>
    1d40:	4623      	mov	r3, r4
    1d42:	6864      	ldr	r4, [r4, #4]
    1d44:	e7ea      	b.n	1d1c <_malloc_r+0x20>
    1d46:	4629      	mov	r1, r5
    1d48:	4630      	mov	r0, r6
    1d4a:	f000 f851 	bl	1df0 <_sbrk_r>
    1d4e:	1c43      	adds	r3, r0, #1
    1d50:	4601      	mov	r1, r0
    1d52:	d00c      	beq.n	1d6e <_malloc_r+0x72>
    1d54:	1ccc      	adds	r4, r1, #3
    1d56:	f024 0403 	bic.w	r4, r4, #3
    1d5a:	428c      	cmp	r4, r1
    1d5c:	d101      	bne.n	1d62 <_malloc_r+0x66>
    1d5e:	6025      	str	r5, [r4, #0]
    1d60:	e009      	b.n	1d76 <_malloc_r+0x7a>
    1d62:	4630      	mov	r0, r6
    1d64:	1a61      	subs	r1, r4, r1
    1d66:	f000 f843 	bl	1df0 <_sbrk_r>
    1d6a:	3001      	adds	r0, #1
    1d6c:	d1f7      	bne.n	1d5e <_malloc_r+0x62>
    1d6e:	200c      	movs	r0, #12
    1d70:	6030      	str	r0, [r6, #0]
    1d72:	2000      	movs	r0, #0
    1d74:	bd70      	pop	{r4, r5, r6, pc}
    1d76:	f104 010b 	add.w	r1, r4, #11
    1d7a:	1d23      	adds	r3, r4, #4
    1d7c:	f021 0007 	bic.w	r0, r1, #7
    1d80:	1ac3      	subs	r3, r0, r3
    1d82:	d002      	beq.n	1d8a <_malloc_r+0x8e>
    1d84:	425a      	negs	r2, r3
    1d86:	50e2      	str	r2, [r4, r3]
    1d88:	bd70      	pop	{r4, r5, r6, pc}
    1d8a:	bd70      	pop	{r4, r5, r6, pc}
    1d8c:	100002c8 	.word	0x100002c8

00001d90 <memcpy>:
    1d90:	b510      	push	{r4, lr}
    1d92:	2300      	movs	r3, #0
    1d94:	4293      	cmp	r3, r2
    1d96:	d003      	beq.n	1da0 <memcpy+0x10>
    1d98:	5ccc      	ldrb	r4, [r1, r3]
    1d9a:	54c4      	strb	r4, [r0, r3]
    1d9c:	3301      	adds	r3, #1
    1d9e:	e7f9      	b.n	1d94 <memcpy+0x4>
    1da0:	bd10      	pop	{r4, pc}

00001da2 <memset>:
    1da2:	1882      	adds	r2, r0, r2
    1da4:	4603      	mov	r3, r0
    1da6:	4293      	cmp	r3, r2
    1da8:	d002      	beq.n	1db0 <memset+0xe>
    1daa:	f803 1b01 	strb.w	r1, [r3], #1
    1dae:	e7fa      	b.n	1da6 <memset+0x4>
    1db0:	4770      	bx	lr
	...

00001db4 <puts>:
    1db4:	4b0d      	ldr	r3, [pc, #52]	; (1dec <puts+0x38>)
    1db6:	b510      	push	{r4, lr}
    1db8:	4604      	mov	r4, r0
    1dba:	6818      	ldr	r0, [r3, #0]
    1dbc:	b118      	cbz	r0, 1dc6 <puts+0x12>
    1dbe:	6982      	ldr	r2, [r0, #24]
    1dc0:	b90a      	cbnz	r2, 1dc6 <puts+0x12>
    1dc2:	f002 f829 	bl	3e18 <__sinit>
    1dc6:	3c01      	subs	r4, #1
    1dc8:	4808      	ldr	r0, [pc, #32]	; (1dec <puts+0x38>)
    1dca:	f814 1f01 	ldrb.w	r1, [r4, #1]!
    1dce:	6800      	ldr	r0, [r0, #0]
    1dd0:	b129      	cbz	r1, 1dde <puts+0x2a>
    1dd2:	6882      	ldr	r2, [r0, #8]
    1dd4:	f002 fd46 	bl	4864 <_putc_r>
    1dd8:	1c42      	adds	r2, r0, #1
    1dda:	d1f5      	bne.n	1dc8 <puts+0x14>
    1ddc:	bd10      	pop	{r4, pc}
    1dde:	6882      	ldr	r2, [r0, #8]
    1de0:	210a      	movs	r1, #10
    1de2:	e8bd 4010 	ldmia.w	sp!, {r4, lr}
    1de6:	f002 bd3d 	b.w	4864 <_putc_r>
    1dea:	bf00      	nop
    1dec:	10000130 	.word	0x10000130

00001df0 <_sbrk_r>:
    1df0:	b538      	push	{r3, r4, r5, lr}
    1df2:	4c06      	ldr	r4, [pc, #24]	; (1e0c <_sbrk_r+0x1c>)
    1df4:	2300      	movs	r3, #0
    1df6:	4605      	mov	r5, r0
    1df8:	4608      	mov	r0, r1
    1dfa:	6023      	str	r3, [r4, #0]
    1dfc:	f004 f916 	bl	602c <_sbrk>
    1e00:	1c43      	adds	r3, r0, #1
    1e02:	d102      	bne.n	1e0a <_sbrk_r+0x1a>
    1e04:	6821      	ldr	r1, [r4, #0]
    1e06:	b101      	cbz	r1, 1e0a <_sbrk_r+0x1a>
    1e08:	6029      	str	r1, [r5, #0]
    1e0a:	bd38      	pop	{r3, r4, r5, pc}
    1e0c:	100002d8 	.word	0x100002d8

00001e10 <__sread>:
    1e10:	b510      	push	{r4, lr}
    1e12:	460c      	mov	r4, r1
    1e14:	f9b1 100e 	ldrsh.w	r1, [r1, #14]
    1e18:	f002 fd62 	bl	48e0 <_read_r>
    1e1c:	2800      	cmp	r0, #0
    1e1e:	db03      	blt.n	1e28 <__sread+0x18>
    1e20:	6d62      	ldr	r2, [r4, #84]	; 0x54
    1e22:	1813      	adds	r3, r2, r0
    1e24:	6563      	str	r3, [r4, #84]	; 0x54
    1e26:	bd10      	pop	{r4, pc}
    1e28:	89a3      	ldrh	r3, [r4, #12]
    1e2a:	f423 5180 	bic.w	r1, r3, #4096	; 0x1000
    1e2e:	81a1      	strh	r1, [r4, #12]
    1e30:	bd10      	pop	{r4, pc}

00001e32 <__swrite>:
    1e32:	e92d 41f0 	stmdb	sp!, {r4, r5, r6, r7, r8, lr}
    1e36:	461d      	mov	r5, r3
    1e38:	898b      	ldrh	r3, [r1, #12]
    1e3a:	460c      	mov	r4, r1
    1e3c:	f403 7180 	and.w	r1, r3, #256	; 0x100
    1e40:	4616      	mov	r6, r2
    1e42:	b20a      	sxth	r2, r1
    1e44:	4607      	mov	r7, r0
    1e46:	b12a      	cbz	r2, 1e54 <__swrite+0x22>
    1e48:	f9b4 100e 	ldrsh.w	r1, [r4, #14]
    1e4c:	2200      	movs	r2, #0
    1e4e:	2302      	movs	r3, #2
    1e50:	f002 f892 	bl	3f78 <_lseek_r>
    1e54:	89a0      	ldrh	r0, [r4, #12]
    1e56:	f9b4 100e 	ldrsh.w	r1, [r4, #14]
    1e5a:	f420 5380 	bic.w	r3, r0, #4096	; 0x1000
    1e5e:	81a3      	strh	r3, [r4, #12]
    1e60:	4638      	mov	r0, r7
    1e62:	4632      	mov	r2, r6
    1e64:	462b      	mov	r3, r5
    1e66:	e8bd 41f0 	ldmia.w	sp!, {r4, r5, r6, r7, r8, lr}
    1e6a:	f001 b815 	b.w	2e98 <_write_r>

00001e6e <__sseek>:
    1e6e:	b510      	push	{r4, lr}
    1e70:	460c      	mov	r4, r1
    1e72:	f9b1 100e 	ldrsh.w	r1, [r1, #14]
    1e76:	f002 f87f 	bl	3f78 <_lseek_r>
    1e7a:	1c43      	adds	r3, r0, #1
    1e7c:	89a3      	ldrh	r3, [r4, #12]
    1e7e:	d103      	bne.n	1e88 <__sseek+0x1a>
    1e80:	f423 5280 	bic.w	r2, r3, #4096	; 0x1000
    1e84:	81a2      	strh	r2, [r4, #12]
    1e86:	bd10      	pop	{r4, pc}
    1e88:	f443 5180 	orr.w	r1, r3, #4096	; 0x1000
    1e8c:	81a1      	strh	r1, [r4, #12]
    1e8e:	6560      	str	r0, [r4, #84]	; 0x54
    1e90:	bd10      	pop	{r4, pc}

00001e92 <__sclose>:
    1e92:	f9b1 100e 	ldrsh.w	r1, [r1, #14]
    1e96:	f001 b887 	b.w	2fa8 <_close_r>

00001e9a <strlen>:
    1e9a:	4603      	mov	r3, r0
    1e9c:	f813 2b01 	ldrb.w	r2, [r3], #1
    1ea0:	2a00      	cmp	r2, #0
    1ea2:	d1fb      	bne.n	1e9c <strlen+0x2>
    1ea4:	1a18      	subs	r0, r3, r0
    1ea6:	3801      	subs	r0, #1
    1ea8:	4770      	bx	lr

00001eaa <strncmp>:
    1eaa:	b570      	push	{r4, r5, r6, lr}
    1eac:	b192      	cbz	r2, 1ed4 <strncmp+0x2a>
    1eae:	460b      	mov	r3, r1
    1eb0:	4605      	mov	r5, r0
    1eb2:	b91a      	cbnz	r2, 1ebc <strncmp+0x12>
    1eb4:	7828      	ldrb	r0, [r5, #0]
    1eb6:	7819      	ldrb	r1, [r3, #0]
    1eb8:	1a40      	subs	r0, r0, r1
    1eba:	bd70      	pop	{r4, r5, r6, pc}
    1ebc:	f810 6b01 	ldrb.w	r6, [r0], #1
    1ec0:	781c      	ldrb	r4, [r3, #0]
    1ec2:	3101      	adds	r1, #1
    1ec4:	42b4      	cmp	r4, r6
    1ec6:	d1f5      	bne.n	1eb4 <strncmp+0xa>
    1ec8:	2a01      	cmp	r2, #1
    1eca:	d0f3      	beq.n	1eb4 <strncmp+0xa>
    1ecc:	3a01      	subs	r2, #1
    1ece:	2c00      	cmp	r4, #0
    1ed0:	d1ed      	bne.n	1eae <strncmp+0x4>
    1ed2:	e7ef      	b.n	1eb4 <strncmp+0xa>
    1ed4:	4610      	mov	r0, r2
    1ed6:	bd70      	pop	{r4, r5, r6, pc}

00001ed8 <__sfputc_r>:
    1ed8:	6893      	ldr	r3, [r2, #8]
    1eda:	b510      	push	{r4, lr}
    1edc:	3b01      	subs	r3, #1
    1ede:	2b00      	cmp	r3, #0
    1ee0:	6093      	str	r3, [r2, #8]
    1ee2:	da05      	bge.n	1ef0 <__sfputc_r+0x18>
    1ee4:	6994      	ldr	r4, [r2, #24]
    1ee6:	42a3      	cmp	r3, r4
    1ee8:	db08      	blt.n	1efc <__sfputc_r+0x24>
    1eea:	b2cb      	uxtb	r3, r1
    1eec:	2b0a      	cmp	r3, #10
    1eee:	d005      	beq.n	1efc <__sfputc_r+0x24>
    1ef0:	6813      	ldr	r3, [r2, #0]
    1ef2:	b2c8      	uxtb	r0, r1
    1ef4:	f803 1b01 	strb.w	r1, [r3], #1
    1ef8:	6013      	str	r3, [r2, #0]
    1efa:	bd10      	pop	{r4, pc}
    1efc:	e8bd 4010 	ldmia.w	sp!, {r4, lr}
    1f00:	f000 bf70 	b.w	2de4 <__swbuf_r>

00001f04 <_vfiprintf_r>:
    1f04:	e92d 47f0 	stmdb	sp!, {r4, r5, r6, r7, r8, r9, r10, lr}
    1f08:	b09c      	sub	sp, #112	; 0x70
    1f0a:	460d      	mov	r5, r1
    1f0c:	4614      	mov	r4, r2
    1f0e:	9303      	str	r3, [sp, #12]
    1f10:	4606      	mov	r6, r0
    1f12:	b118      	cbz	r0, 1f1c <_vfiprintf_r+0x18>
    1f14:	6983      	ldr	r3, [r0, #24]
    1f16:	b90b      	cbnz	r3, 1f1c <_vfiprintf_r+0x18>
    1f18:	f001 ff7e 	bl	3e18 <__sinit>
    1f1c:	487c      	ldr	r0, [pc, #496]	; (2110 <_vfiprintf_r+0x20c>)
    1f1e:	4285      	cmp	r5, r0
    1f20:	d101      	bne.n	1f26 <_vfiprintf_r+0x22>
    1f22:	6875      	ldr	r5, [r6, #4]
    1f24:	e008      	b.n	1f38 <_vfiprintf_r+0x34>
    1f26:	497b      	ldr	r1, [pc, #492]	; (2114 <_vfiprintf_r+0x210>)
    1f28:	428d      	cmp	r5, r1
    1f2a:	d101      	bne.n	1f30 <_vfiprintf_r+0x2c>
    1f2c:	68b5      	ldr	r5, [r6, #8]
    1f2e:	e003      	b.n	1f38 <_vfiprintf_r+0x34>
    1f30:	4a79      	ldr	r2, [pc, #484]	; (2118 <_vfiprintf_r+0x214>)
    1f32:	4295      	cmp	r5, r2
    1f34:	bf08      	it	eq
    1f36:	68f5      	ldreq	r5, [r6, #12]
    1f38:	89ab      	ldrh	r3, [r5, #12]
    1f3a:	f003 0008 	and.w	r0, r3, #8
    1f3e:	b201      	sxth	r1, r0
    1f40:	b151      	cbz	r1, 1f58 <_vfiprintf_r+0x54>
    1f42:	692a      	ldr	r2, [r5, #16]
    1f44:	b142      	cbz	r2, 1f58 <_vfiprintf_r+0x54>
    1f46:	2700      	movs	r7, #0
    1f48:	2320      	movs	r3, #32
    1f4a:	2030      	movs	r0, #48	; 0x30
    1f4c:	9709      	str	r7, [sp, #36]	; 0x24
    1f4e:	f88d 3029 	strb.w	r3, [sp, #41]	; 0x29
    1f52:	f88d 002a 	strb.w	r0, [sp, #42]	; 0x2a
    1f56:	e03c      	b.n	1fd2 <_vfiprintf_r+0xce>
    1f58:	4630      	mov	r0, r6
    1f5a:	4629      	mov	r1, r5
    1f5c:	f000 ffae 	bl	2ebc <__swsetup_r>
    1f60:	2800      	cmp	r0, #0
    1f62:	d0f0      	beq.n	1f46 <_vfiprintf_r+0x42>
    1f64:	f04f 30ff 	mov.w	r0, #4294967295
    1f68:	e0ce      	b.n	2108 <_vfiprintf_r+0x204>
    1f6a:	9803      	ldr	r0, [sp, #12]
    1f6c:	6807      	ldr	r7, [r0, #0]
    1f6e:	1d02      	adds	r2, r0, #4
    1f70:	2f00      	cmp	r7, #0
    1f72:	9203      	str	r2, [sp, #12]
    1f74:	db7d      	blt.n	2072 <_vfiprintf_r+0x16e>
    1f76:	9707      	str	r7, [sp, #28]
    1f78:	3401      	adds	r4, #1
    1f7a:	7820      	ldrb	r0, [r4, #0]
    1f7c:	282e      	cmp	r0, #46	; 0x2e
    1f7e:	f000 808a 	beq.w	2096 <_vfiprintf_r+0x192>
    1f82:	4f66      	ldr	r7, [pc, #408]	; (211c <_vfiprintf_r+0x218>)
    1f84:	7821      	ldrb	r1, [r4, #0]
    1f86:	4638      	mov	r0, r7
    1f88:	2203      	movs	r2, #3
    1f8a:	f002 f85b 	bl	4044 <memchr>
    1f8e:	b138      	cbz	r0, 1fa0 <_vfiprintf_r+0x9c>
    1f90:	1bc7      	subs	r7, r0, r7
    1f92:	2140      	movs	r1, #64	; 0x40
    1f94:	fa01 f107 	lsl.w	r1, r1, r7
    1f98:	9b04      	ldr	r3, [sp, #16]
    1f9a:	3401      	adds	r4, #1
    1f9c:	430b      	orrs	r3, r1
    1f9e:	9304      	str	r3, [sp, #16]
    1fa0:	f814 1b01 	ldrb.w	r1, [r4], #1
    1fa4:	485e      	ldr	r0, [pc, #376]	; (2120 <_vfiprintf_r+0x21c>)
    1fa6:	2206      	movs	r2, #6
    1fa8:	f88d 1028 	strb.w	r1, [sp, #40]	; 0x28
    1fac:	f002 f84a 	bl	4044 <memchr>
    1fb0:	2800      	cmp	r0, #0
    1fb2:	f000 8094 	beq.w	20de <_vfiprintf_r+0x1da>
    1fb6:	4a5b      	ldr	r2, [pc, #364]	; (2124 <_vfiprintf_r+0x220>)
    1fb8:	2a00      	cmp	r2, #0
    1fba:	f040 8087 	bne.w	20cc <_vfiprintf_r+0x1c8>
    1fbe:	9f03      	ldr	r7, [sp, #12]
    1fc0:	1dfb      	adds	r3, r7, #7
    1fc2:	f023 0007 	bic.w	r0, r3, #7
    1fc6:	3008      	adds	r0, #8
    1fc8:	9003      	str	r0, [sp, #12]
    1fca:	9a09      	ldr	r2, [sp, #36]	; 0x24
    1fcc:	eb02 0108 	add.w	r1, r2, r8
    1fd0:	9109      	str	r1, [sp, #36]	; 0x24
    1fd2:	4621      	mov	r1, r4
    1fd4:	460f      	mov	r7, r1
    1fd6:	f811 2b01 	ldrb.w	r2, [r1], #1
    1fda:	b92a      	cbnz	r2, 1fe8 <_vfiprintf_r+0xe4>
    1fdc:	ebb7 0a04 	subs.w	r10, r7, r4
    1fe0:	d015      	beq.n	200e <_vfiprintf_r+0x10a>
    1fe2:	f04f 0900 	mov.w	r9, #0
    1fe6:	e00c      	b.n	2002 <_vfiprintf_r+0xfe>
    1fe8:	2a25      	cmp	r2, #37	; 0x25
    1fea:	d1f3      	bne.n	1fd4 <_vfiprintf_r+0xd0>
    1fec:	e7f6      	b.n	1fdc <_vfiprintf_r+0xd8>
    1fee:	4630      	mov	r0, r6
    1ff0:	f814 1009 	ldrb.w	r1, [r4, r9]
    1ff4:	462a      	mov	r2, r5
    1ff6:	f7ff ff6f 	bl	1ed8 <__sfputc_r>
    1ffa:	3001      	adds	r0, #1
    1ffc:	d07c      	beq.n	20f8 <_vfiprintf_r+0x1f4>
    1ffe:	f109 0901 	add.w	r9, r9, #1
    2002:	45d1      	cmp	r9, r10
    2004:	dbf3      	blt.n	1fee <_vfiprintf_r+0xea>
    2006:	9b09      	ldr	r3, [sp, #36]	; 0x24
    2008:	eb03 000a 	add.w	r0, r3, r10
    200c:	9009      	str	r0, [sp, #36]	; 0x24
    200e:	7839      	ldrb	r1, [r7, #0]
    2010:	2900      	cmp	r1, #0
    2012:	d071      	beq.n	20f8 <_vfiprintf_r+0x1f4>
    2014:	2400      	movs	r4, #0
    2016:	f04f 32ff 	mov.w	r2, #4294967295
    201a:	9404      	str	r4, [sp, #16]
    201c:	9407      	str	r4, [sp, #28]
    201e:	9205      	str	r2, [sp, #20]
    2020:	9406      	str	r4, [sp, #24]
    2022:	f88d 4053 	strb.w	r4, [sp, #83]	; 0x53
    2026:	941a      	str	r4, [sp, #104]	; 0x68
    2028:	f107 0901 	add.w	r9, r7, #1
    202c:	4f3e      	ldr	r7, [pc, #248]	; (2128 <_vfiprintf_r+0x224>)
    202e:	464c      	mov	r4, r9
    2030:	4638      	mov	r0, r7
    2032:	7821      	ldrb	r1, [r4, #0]
    2034:	2205      	movs	r2, #5
    2036:	f002 f805 	bl	4044 <memchr>
    203a:	f109 0901 	add.w	r9, r9, #1
    203e:	9b04      	ldr	r3, [sp, #16]
    2040:	b130      	cbz	r0, 2050 <_vfiprintf_r+0x14c>
    2042:	1bc4      	subs	r4, r0, r7
    2044:	2701      	movs	r7, #1
    2046:	fa07 f704 	lsl.w	r7, r7, r4
    204a:	433b      	orrs	r3, r7
    204c:	9304      	str	r3, [sp, #16]
    204e:	e7ed      	b.n	202c <_vfiprintf_r+0x128>
    2050:	06d9      	lsls	r1, r3, #27
    2052:	d502      	bpl.n	205a <_vfiprintf_r+0x156>
    2054:	2020      	movs	r0, #32
    2056:	f88d 0053 	strb.w	r0, [sp, #83]	; 0x53
    205a:	071a      	lsls	r2, r3, #28
    205c:	d502      	bpl.n	2064 <_vfiprintf_r+0x160>
    205e:	212b      	movs	r1, #43	; 0x2b
    2060:	f88d 1053 	strb.w	r1, [sp, #83]	; 0x53
    2064:	7822      	ldrb	r2, [r4, #0]
    2066:	2a2a      	cmp	r2, #42	; 0x2a
    2068:	f43f af7f 	beq.w	1f6a <_vfiprintf_r+0x66>
    206c:	9b07      	ldr	r3, [sp, #28]
    206e:	4627      	mov	r7, r4
    2070:	e005      	b.n	207e <_vfiprintf_r+0x17a>
    2072:	4279      	negs	r1, r7
    2074:	f043 0302 	orr.w	r3, r3, #2
    2078:	9107      	str	r1, [sp, #28]
    207a:	9304      	str	r3, [sp, #16]
    207c:	e77c      	b.n	1f78 <_vfiprintf_r+0x74>
    207e:	463c      	mov	r4, r7
    2080:	7821      	ldrb	r1, [r4, #0]
    2082:	3701      	adds	r7, #1
    2084:	3930      	subs	r1, #48	; 0x30
    2086:	2909      	cmp	r1, #9
    2088:	d803      	bhi.n	2092 <_vfiprintf_r+0x18e>
    208a:	240a      	movs	r4, #10
    208c:	fb04 1303 	mla	r3, r4, r3, r1
    2090:	e7f5      	b.n	207e <_vfiprintf_r+0x17a>
    2092:	9307      	str	r3, [sp, #28]
    2094:	e771      	b.n	1f7a <_vfiprintf_r+0x76>
    2096:	7862      	ldrb	r2, [r4, #1]
    2098:	2a2a      	cmp	r2, #42	; 0x2a
    209a:	d109      	bne.n	20b0 <_vfiprintf_r+0x1ac>
    209c:	9803      	ldr	r0, [sp, #12]
    209e:	3402      	adds	r4, #2
    20a0:	6803      	ldr	r3, [r0, #0]
    20a2:	1d02      	adds	r2, r0, #4
    20a4:	2b00      	cmp	r3, #0
    20a6:	9203      	str	r2, [sp, #12]
    20a8:	bfb8      	it	lt
    20aa:	f04f 33ff 	movlt.w	r3, #4294967295
    20ae:	e00b      	b.n	20c8 <_vfiprintf_r+0x1c4>
    20b0:	1c67      	adds	r7, r4, #1
    20b2:	2300      	movs	r3, #0
    20b4:	463c      	mov	r4, r7
    20b6:	7821      	ldrb	r1, [r4, #0]
    20b8:	3701      	adds	r7, #1
    20ba:	3930      	subs	r1, #48	; 0x30
    20bc:	2909      	cmp	r1, #9
    20be:	d803      	bhi.n	20c8 <_vfiprintf_r+0x1c4>
    20c0:	240a      	movs	r4, #10
    20c2:	fb04 1303 	mla	r3, r4, r3, r1
    20c6:	e7f5      	b.n	20b4 <_vfiprintf_r+0x1b0>
    20c8:	9305      	str	r3, [sp, #20]
    20ca:	e75a      	b.n	1f82 <_vfiprintf_r+0x7e>
    20cc:	a903      	add	r1, sp, #12
    20ce:	9100      	str	r1, [sp, #0]
    20d0:	4630      	mov	r0, r6
    20d2:	a904      	add	r1, sp, #16
    20d4:	462a      	mov	r2, r5
    20d6:	4b15      	ldr	r3, [pc, #84]	; (212c <_vfiprintf_r+0x228>)
    20d8:	f000 f8c2 	bl	2260 <_printf_float>
    20dc:	e007      	b.n	20ee <_vfiprintf_r+0x1ea>
    20de:	a803      	add	r0, sp, #12
    20e0:	9000      	str	r0, [sp, #0]
    20e2:	a904      	add	r1, sp, #16
    20e4:	4630      	mov	r0, r6
    20e6:	462a      	mov	r2, r5
    20e8:	4b10      	ldr	r3, [pc, #64]	; (212c <_vfiprintf_r+0x228>)
    20ea:	f000 fb7b 	bl	27e4 <_printf_i>
    20ee:	f1b0 3fff 	cmp.w	r0, #4294967295
    20f2:	4680      	mov	r8, r0
    20f4:	f47f af69 	bne.w	1fca <_vfiprintf_r+0xc6>
    20f8:	89ab      	ldrh	r3, [r5, #12]
    20fa:	f003 0040 	and.w	r0, r3, #64	; 0x40
    20fe:	b202      	sxth	r2, r0
    2100:	2a00      	cmp	r2, #0
    2102:	f47f af2f 	bne.w	1f64 <_vfiprintf_r+0x60>
    2106:	9809      	ldr	r0, [sp, #36]	; 0x24
    2108:	b01c      	add	sp, #112	; 0x70
    210a:	e8bd 87f0 	ldmia.w	sp!, {r4, r5, r6, r7, r8, r9, r10, pc}
    210e:	bf00      	nop
    2110:	000063d0 	.word	0x000063d0
    2114:	000063f0 	.word	0x000063f0
    2118:	00006410 	.word	0x00006410
    211c:	0000627e 	.word	0x0000627e
    2120:	00006282 	.word	0x00006282
    2124:	00002261 	.word	0x00002261
    2128:	00006278 	.word	0x00006278
    212c:	00001ed9 	.word	0x00001ed9

00002130 <__cvt>:
    2130:	e92d 4fd0 	stmdb	sp!, {r4, r6, r7, r8, r9, r10, r11, lr}
    2134:	461e      	mov	r6, r3
    2136:	b088      	sub	sp, #32
    2138:	ab12      	add	r3, sp, #72	; 0x48
    213a:	2e00      	cmp	r6, #0
    213c:	4692      	mov	r10, r2
    213e:	9f10      	ldr	r7, [sp, #64]	; 0x40
    2140:	e893 0818 	ldmia.w	r3, {r3, r4, r11}
    2144:	da03      	bge.n	214e <__cvt+0x1e>
    2146:	f106 4600 	add.w	r6, r6, #2147483648	; 0x80000000
    214a:	212d      	movs	r1, #45	; 0x2d
    214c:	e000      	b.n	2150 <__cvt+0x20>
    214e:	2100      	movs	r1, #0
    2150:	f1bb 0f66 	cmp.w	r11, #102	; 0x66
    2154:	7019      	strb	r1, [r3, #0]
    2156:	d00a      	beq.n	216e <__cvt+0x3e>
    2158:	f1bb 0f46 	cmp.w	r11, #70	; 0x46
    215c:	d007      	beq.n	216e <__cvt+0x3e>
    215e:	f1bb 0f65 	cmp.w	r11, #101	; 0x65
    2162:	d002      	beq.n	216a <__cvt+0x3a>
    2164:	f1bb 0f45 	cmp.w	r11, #69	; 0x45
    2168:	d103      	bne.n	2172 <__cvt+0x42>
    216a:	3701      	adds	r7, #1
    216c:	e001      	b.n	2172 <__cvt+0x42>
    216e:	2303      	movs	r3, #3
    2170:	e000      	b.n	2174 <__cvt+0x44>
    2172:	2302      	movs	r3, #2
    2174:	e88d 0088 	stmia.w	sp, {r3, r7}
    2178:	aa07      	add	r2, sp, #28
    217a:	ab06      	add	r3, sp, #24
    217c:	9303      	str	r3, [sp, #12]
    217e:	9204      	str	r2, [sp, #16]
    2180:	9402      	str	r4, [sp, #8]
    2182:	4652      	mov	r2, r10
    2184:	4633      	mov	r3, r6
    2186:	f000 ffaf 	bl	30e8 <_dtoa_r>
    218a:	f1bb 0f67 	cmp.w	r11, #103	; 0x67
    218e:	4680      	mov	r8, r0
    2190:	d002      	beq.n	2198 <__cvt+0x68>
    2192:	f1bb 0f47 	cmp.w	r11, #71	; 0x47
    2196:	d102      	bne.n	219e <__cvt+0x6e>
    2198:	9811      	ldr	r0, [sp, #68]	; 0x44
    219a:	07c3      	lsls	r3, r0, #31
    219c:	d528      	bpl.n	21f0 <__cvt+0xc0>
    219e:	f1bb 0f66 	cmp.w	r11, #102	; 0x66
    21a2:	eb08 0907 	add.w	r9, r8, r7
    21a6:	d002      	beq.n	21ae <__cvt+0x7e>
    21a8:	f1bb 0f46 	cmp.w	r11, #70	; 0x46
    21ac:	d10f      	bne.n	21ce <__cvt+0x9e>
    21ae:	f898 1000 	ldrb.w	r1, [r8]
    21b2:	2930      	cmp	r1, #48	; 0x30
    21b4:	d109      	bne.n	21ca <__cvt+0x9a>
    21b6:	4650      	mov	r0, r10
    21b8:	4631      	mov	r1, r6
    21ba:	2200      	movs	r2, #0
    21bc:	2300      	movs	r3, #0
    21be:	f7ff f9d9 	bl	1574 <__aeabi_dcmpeq>
    21c2:	b910      	cbnz	r0, 21ca <__cvt+0x9a>
    21c4:	f1c7 0701 	rsb	r7, r7, #1
    21c8:	6027      	str	r7, [r4, #0]
    21ca:	6823      	ldr	r3, [r4, #0]
    21cc:	4499      	add	r9, r3
    21ce:	4650      	mov	r0, r10
    21d0:	4631      	mov	r1, r6
    21d2:	2200      	movs	r2, #0
    21d4:	2300      	movs	r3, #0
    21d6:	f7ff f9cd 	bl	1574 <__aeabi_dcmpeq>
    21da:	b108      	cbz	r0, 21e0 <__cvt+0xb0>
    21dc:	f8cd 901c 	str.w	r9, [sp, #28]
    21e0:	9807      	ldr	r0, [sp, #28]
    21e2:	4548      	cmp	r0, r9
    21e4:	d204      	bcs.n	21f0 <__cvt+0xc0>
    21e6:	2230      	movs	r2, #48	; 0x30
    21e8:	f800 2b01 	strb.w	r2, [r0], #1
    21ec:	9007      	str	r0, [sp, #28]
    21ee:	e7f7      	b.n	21e0 <__cvt+0xb0>
    21f0:	9a07      	ldr	r2, [sp, #28]
    21f2:	9b15      	ldr	r3, [sp, #84]	; 0x54
    21f4:	ebc8 0102 	rsb	r1, r8, r2
    21f8:	6019      	str	r1, [r3, #0]
    21fa:	4640      	mov	r0, r8
    21fc:	b008      	add	sp, #32
    21fe:	e8bd 8fd0 	ldmia.w	sp!, {r4, r6, r7, r8, r9, r10, r11, pc}

00002202 <__exponent>:
    2202:	b573      	push	{r0, r1, r4, r5, r6, lr}
    2204:	4603      	mov	r3, r0
    2206:	2900      	cmp	r1, #0
    2208:	f803 2b02 	strb.w	r2, [r3], #2
    220c:	da02      	bge.n	2214 <__exponent+0x12>
    220e:	4249      	negs	r1, r1
    2210:	222d      	movs	r2, #45	; 0x2d
    2212:	e000      	b.n	2216 <__exponent+0x14>
    2214:	222b      	movs	r2, #43	; 0x2b
    2216:	2909      	cmp	r1, #9
    2218:	7042      	strb	r2, [r0, #1]
    221a:	461a      	mov	r2, r3
    221c:	dd19      	ble.n	2252 <__exponent+0x50>
    221e:	f10d 0406 	add.w	r4, sp, #6
    2222:	260a      	movs	r6, #10
    2224:	fb91 f5f6 	sdiv	r5, r1, r6
    2228:	fb06 1115 	mls	r1, r6, r5, r1
    222c:	3130      	adds	r1, #48	; 0x30
    222e:	2d09      	cmp	r5, #9
    2230:	4623      	mov	r3, r4
    2232:	f804 1901 	strb.w	r1, [r4], #-1
    2236:	4629      	mov	r1, r5
    2238:	dcf3      	bgt.n	2222 <__exponent+0x20>
    223a:	3130      	adds	r1, #48	; 0x30
    223c:	f803 1d01 	strb.w	r1, [r3, #-1]!
    2240:	f10d 0107 	add.w	r1, sp, #7
    2244:	428b      	cmp	r3, r1
    2246:	d209      	bcs.n	225c <__exponent+0x5a>
    2248:	f813 1b01 	ldrb.w	r1, [r3], #1
    224c:	f802 1b01 	strb.w	r1, [r2], #1
    2250:	e7f6      	b.n	2240 <__exponent+0x3e>
    2252:	2230      	movs	r2, #48	; 0x30
    2254:	1889      	adds	r1, r1, r2
    2256:	701a      	strb	r2, [r3, #0]
    2258:	7059      	strb	r1, [r3, #1]
    225a:	1c9a      	adds	r2, r3, #2
    225c:	1a10      	subs	r0, r2, r0
    225e:	bd7c      	pop	{r2, r3, r4, r5, r6, pc}

00002260 <_printf_float>:
    2260:	e92d 4ff0 	stmdb	sp!, {r4, r5, r6, r7, r8, r9, r10, r11, lr}
    2264:	b091      	sub	sp, #68	; 0x44
    2266:	460c      	mov	r4, r1
    2268:	4616      	mov	r6, r2
    226a:	461f      	mov	r7, r3
    226c:	f8dd 8068 	ldr.w	r8, [sp, #104]	; 0x68
    2270:	4605      	mov	r5, r0
    2272:	f001 fe7d 	bl	3f70 <_localeconv_r>
    2276:	f8d0 a000 	ldr.w	r10, [r0]
    227a:	4650      	mov	r0, r10
    227c:	f7ff fe0d 	bl	1e9a <strlen>
    2280:	900b      	str	r0, [sp, #44]	; 0x2c
    2282:	f8d8 0000 	ldr.w	r0, [r8]
    2286:	2300      	movs	r3, #0
    2288:	1dc1      	adds	r1, r0, #7
    228a:	930e      	str	r3, [sp, #56]	; 0x38
    228c:	f021 0307 	bic.w	r3, r1, #7
    2290:	f103 0208 	add.w	r2, r3, #8
    2294:	f894 b018 	ldrb.w	r11, [r4, #24]
    2298:	f8c8 2000 	str.w	r2, [r8]
    229c:	e9d3 0100 	ldrd	r0, r1, [r3]
    22a0:	e9c4 0112 	strd	r0, r1, [r4, #72]	; 0x48
    22a4:	e9d4 0112 	ldrd	r0, r1, [r4, #72]	; 0x48
    22a8:	f002 fb50 	bl	494c <__fpclassifyd>
    22ac:	2801      	cmp	r0, #1
    22ae:	e9d4 0112 	ldrd	r0, r1, [r4, #72]	; 0x48
    22b2:	d117      	bne.n	22e4 <_printf_float+0x84>
    22b4:	2200      	movs	r2, #0
    22b6:	2300      	movs	r3, #0
    22b8:	f7ff f966 	bl	1588 <__aeabi_dcmplt>
    22bc:	b110      	cbz	r0, 22c4 <_printf_float+0x64>
    22be:	222d      	movs	r2, #45	; 0x2d
    22c0:	f884 2043 	strb.w	r2, [r4, #67]	; 0x43
    22c4:	489a      	ldr	r0, [pc, #616]	; (2530 <_printf_float+0x2d0>)
    22c6:	499b      	ldr	r1, [pc, #620]	; (2534 <_printf_float+0x2d4>)
    22c8:	f1bb 0f47 	cmp.w	r11, #71	; 0x47
    22cc:	bf8c      	ite	hi
    22ce:	4688      	movhi	r8, r1
    22d0:	4680      	movls	r8, r0
    22d2:	6820      	ldr	r0, [r4, #0]
    22d4:	2303      	movs	r3, #3
    22d6:	f020 0104 	bic.w	r1, r0, #4
    22da:	6123      	str	r3, [r4, #16]
    22dc:	6021      	str	r1, [r4, #0]
    22de:	f04f 0900 	mov.w	r9, #0
    22e2:	e086      	b.n	23f2 <_printf_float+0x192>
    22e4:	f002 fb32 	bl	494c <__fpclassifyd>
    22e8:	b910      	cbnz	r0, 22f0 <_printf_float+0x90>
    22ea:	4893      	ldr	r0, [pc, #588]	; (2538 <_printf_float+0x2d8>)
    22ec:	4993      	ldr	r1, [pc, #588]	; (253c <_printf_float+0x2dc>)
    22ee:	e7eb      	b.n	22c8 <_printf_float+0x68>
    22f0:	6861      	ldr	r1, [r4, #4]
    22f2:	1c4a      	adds	r2, r1, #1
    22f4:	d101      	bne.n	22fa <_printf_float+0x9a>
    22f6:	2306      	movs	r3, #6
    22f8:	e007      	b.n	230a <_printf_float+0xaa>
    22fa:	f1bb 0f67 	cmp.w	r11, #103	; 0x67
    22fe:	d002      	beq.n	2306 <_printf_float+0xa6>
    2300:	f1bb 0f47 	cmp.w	r11, #71	; 0x47
    2304:	d102      	bne.n	230c <_printf_float+0xac>
    2306:	b909      	cbnz	r1, 230c <_printf_float+0xac>
    2308:	2301      	movs	r3, #1
    230a:	6063      	str	r3, [r4, #4]
    230c:	6822      	ldr	r2, [r4, #0]
    230e:	6860      	ldr	r0, [r4, #4]
    2310:	f442 6180 	orr.w	r1, r2, #1024	; 0x400
    2314:	e88d 0003 	stmia.w	sp, {r0, r1}
    2318:	e9d4 2312 	ldrd	r2, r3, [r4, #72]	; 0x48
    231c:	6021      	str	r1, [r4, #0]
    231e:	f10d 0033 	add.w	r0, sp, #51	; 0x33
    2322:	a90d      	add	r1, sp, #52	; 0x34
    2324:	9002      	str	r0, [sp, #8]
    2326:	9103      	str	r1, [sp, #12]
    2328:	a80e      	add	r0, sp, #56	; 0x38
    232a:	2100      	movs	r1, #0
    232c:	9005      	str	r0, [sp, #20]
    232e:	f8cd b010 	str.w	r11, [sp, #16]
    2332:	9106      	str	r1, [sp, #24]
    2334:	4628      	mov	r0, r5
    2336:	f7ff fefb 	bl	2130 <__cvt>
    233a:	f1bb 0f67 	cmp.w	r11, #103	; 0x67
    233e:	4680      	mov	r8, r0
    2340:	d002      	beq.n	2348 <_printf_float+0xe8>
    2342:	f1bb 0f47 	cmp.w	r11, #71	; 0x47
    2346:	d109      	bne.n	235c <_printf_float+0xfc>
    2348:	9b0d      	ldr	r3, [sp, #52]	; 0x34
    234a:	1cd8      	adds	r0, r3, #3
    234c:	db02      	blt.n	2354 <_printf_float+0xf4>
    234e:	6862      	ldr	r2, [r4, #4]
    2350:	4293      	cmp	r3, r2
    2352:	dd31      	ble.n	23b8 <_printf_float+0x158>
    2354:	f1ab 0c02 	sub.w	r12, r11, #2
    2358:	fa5f fb8c 	uxtb.w	r11, r12
    235c:	f1bb 0f65 	cmp.w	r11, #101	; 0x65
    2360:	980d      	ldr	r0, [sp, #52]	; 0x34
    2362:	d812      	bhi.n	238a <_printf_float+0x12a>
    2364:	1e41      	subs	r1, r0, #1
    2366:	465a      	mov	r2, r11
    2368:	f104 0050 	add.w	r0, r4, #80	; 0x50
    236c:	910d      	str	r1, [sp, #52]	; 0x34
    236e:	f7ff ff48 	bl	2202 <__exponent>
    2372:	9a0e      	ldr	r2, [sp, #56]	; 0x38
    2374:	4681      	mov	r9, r0
    2376:	1883      	adds	r3, r0, r2
    2378:	2a01      	cmp	r2, #1
    237a:	6123      	str	r3, [r4, #16]
    237c:	dc02      	bgt.n	2384 <_printf_float+0x124>
    237e:	6820      	ldr	r0, [r4, #0]
    2380:	07c1      	lsls	r1, r0, #31
    2382:	d530      	bpl.n	23e6 <_printf_float+0x186>
    2384:	1c59      	adds	r1, r3, #1
    2386:	6121      	str	r1, [r4, #16]
    2388:	e02d      	b.n	23e6 <_printf_float+0x186>
    238a:	f1bb 0f66 	cmp.w	r11, #102	; 0x66
    238e:	d115      	bne.n	23bc <_printf_float+0x15c>
    2390:	2800      	cmp	r0, #0
    2392:	6863      	ldr	r3, [r4, #4]
    2394:	dd08      	ble.n	23a8 <_printf_float+0x148>
    2396:	6120      	str	r0, [r4, #16]
    2398:	b913      	cbnz	r3, 23a0 <_printf_float+0x140>
    239a:	6822      	ldr	r2, [r4, #0]
    239c:	07d2      	lsls	r2, r2, #31
    239e:	d51e      	bpl.n	23de <_printf_float+0x17e>
    23a0:	3301      	adds	r3, #1
    23a2:	18c0      	adds	r0, r0, r3
    23a4:	6120      	str	r0, [r4, #16]
    23a6:	e01a      	b.n	23de <_printf_float+0x17e>
    23a8:	b913      	cbnz	r3, 23b0 <_printf_float+0x150>
    23aa:	6821      	ldr	r1, [r4, #0]
    23ac:	07c8      	lsls	r0, r1, #31
    23ae:	d501      	bpl.n	23b4 <_printf_float+0x154>
    23b0:	1c9a      	adds	r2, r3, #2
    23b2:	e013      	b.n	23dc <_printf_float+0x17c>
    23b4:	2201      	movs	r2, #1
    23b6:	e011      	b.n	23dc <_printf_float+0x17c>
    23b8:	f04f 0b67 	mov.w	r11, #103	; 0x67
    23bc:	9b0d      	ldr	r3, [sp, #52]	; 0x34
    23be:	990e      	ldr	r1, [sp, #56]	; 0x38
    23c0:	428b      	cmp	r3, r1
    23c2:	db05      	blt.n	23d0 <_printf_float+0x170>
    23c4:	6820      	ldr	r0, [r4, #0]
    23c6:	6123      	str	r3, [r4, #16]
    23c8:	07c1      	lsls	r1, r0, #31
    23ca:	d508      	bpl.n	23de <_printf_float+0x17e>
    23cc:	1c5a      	adds	r2, r3, #1
    23ce:	e005      	b.n	23dc <_printf_float+0x17c>
    23d0:	2b00      	cmp	r3, #0
    23d2:	bfd4      	ite	le
    23d4:	f1c3 0302 	rsble	r3, r3, #2
    23d8:	2301      	movgt	r3, #1
    23da:	18ca      	adds	r2, r1, r3
    23dc:	6122      	str	r2, [r4, #16]
    23de:	990d      	ldr	r1, [sp, #52]	; 0x34
    23e0:	f04f 0900 	mov.w	r9, #0
    23e4:	65a1      	str	r1, [r4, #88]	; 0x58
    23e6:	f89d 2033 	ldrb.w	r2, [sp, #51]	; 0x33
    23ea:	b112      	cbz	r2, 23f2 <_printf_float+0x192>
    23ec:	232d      	movs	r3, #45	; 0x2d
    23ee:	f884 3043 	strb.w	r3, [r4, #67]	; 0x43
    23f2:	9700      	str	r7, [sp, #0]
    23f4:	4628      	mov	r0, r5
    23f6:	4621      	mov	r1, r4
    23f8:	aa0f      	add	r2, sp, #60	; 0x3c
    23fa:	4633      	mov	r3, r6
    23fc:	f000 f982 	bl	2704 <_printf_common>
    2400:	3001      	adds	r0, #1
    2402:	d102      	bne.n	240a <_printf_float+0x1aa>
    2404:	f04f 30ff 	mov.w	r0, #4294967295
    2408:	e179      	b.n	26fe <_printf_float+0x49e>
    240a:	6823      	ldr	r3, [r4, #0]
    240c:	f413 6280 	ands.w	r2, r3, #1024	; 0x400
    2410:	d10d      	bne.n	242e <_printf_float+0x1ce>
    2412:	4691      	mov	r9, r2
    2414:	6920      	ldr	r0, [r4, #16]
    2416:	4581      	cmp	r9, r0
    2418:	da22      	bge.n	2460 <_printf_float+0x200>
    241a:	4628      	mov	r0, r5
    241c:	f818 1009 	ldrb.w	r1, [r8, r9]
    2420:	4632      	mov	r2, r6
    2422:	47b8      	blx	r7
    2424:	3001      	adds	r0, #1
    2426:	d0ed      	beq.n	2404 <_printf_float+0x1a4>
    2428:	f109 0901 	add.w	r9, r9, #1
    242c:	e7f2      	b.n	2414 <_printf_float+0x1b4>
    242e:	f1bb 0f65 	cmp.w	r11, #101	; 0x65
    2432:	f240 80f1 	bls.w	2618 <_printf_float+0x3b8>
    2436:	e9d4 0112 	ldrd	r0, r1, [r4, #72]	; 0x48
    243a:	2200      	movs	r2, #0
    243c:	2300      	movs	r3, #0
    243e:	f7ff f899 	bl	1574 <__aeabi_dcmpeq>
    2442:	2800      	cmp	r0, #0
    2444:	d02d      	beq.n	24a2 <_printf_float+0x242>
    2446:	2130      	movs	r1, #48	; 0x30
    2448:	4628      	mov	r0, r5
    244a:	4632      	mov	r2, r6
    244c:	47b8      	blx	r7
    244e:	3001      	adds	r0, #1
    2450:	d0d8      	beq.n	2404 <_printf_float+0x1a4>
    2452:	9b0e      	ldr	r3, [sp, #56]	; 0x38
    2454:	9a0d      	ldr	r2, [sp, #52]	; 0x34
    2456:	429a      	cmp	r2, r3
    2458:	db07      	blt.n	246a <_printf_float+0x20a>
    245a:	6820      	ldr	r0, [r4, #0]
    245c:	07c3      	lsls	r3, r0, #31
    245e:	d404      	bmi.n	246a <_printf_float+0x20a>
    2460:	6821      	ldr	r1, [r4, #0]
    2462:	078a      	lsls	r2, r1, #30
    2464:	f100 8148 	bmi.w	26f8 <_printf_float+0x498>
    2468:	e140      	b.n	26ec <_printf_float+0x48c>
    246a:	990b      	ldr	r1, [sp, #44]	; 0x2c
    246c:	eb0a 0b01 	add.w	r11, r10, r1
    2470:	45da      	cmp	r10, r11
    2472:	d007      	beq.n	2484 <_printf_float+0x224>
    2474:	4628      	mov	r0, r5
    2476:	f81a 1b01 	ldrb.w	r1, [r10], #1
    247a:	4632      	mov	r2, r6
    247c:	47b8      	blx	r7
    247e:	3001      	adds	r0, #1
    2480:	d1f6      	bne.n	2470 <_printf_float+0x210>
    2482:	e7bf      	b.n	2404 <_printf_float+0x1a4>
    2484:	f04f 0800 	mov.w	r8, #0
    2488:	9b0e      	ldr	r3, [sp, #56]	; 0x38
    248a:	1e5a      	subs	r2, r3, #1
    248c:	4590      	cmp	r8, r2
    248e:	dae7      	bge.n	2460 <_printf_float+0x200>
    2490:	4628      	mov	r0, r5
    2492:	7ea1      	ldrb	r1, [r4, #26]
    2494:	4632      	mov	r2, r6
    2496:	47b8      	blx	r7
    2498:	3001      	adds	r0, #1
    249a:	d0b3      	beq.n	2404 <_printf_float+0x1a4>
    249c:	f108 0801 	add.w	r8, r8, #1
    24a0:	e7f2      	b.n	2488 <_printf_float+0x228>
    24a2:	980d      	ldr	r0, [sp, #52]	; 0x34
    24a4:	2800      	cmp	r0, #0
    24a6:	dc38      	bgt.n	251a <_printf_float+0x2ba>
    24a8:	2130      	movs	r1, #48	; 0x30
    24aa:	4628      	mov	r0, r5
    24ac:	4632      	mov	r2, r6
    24ae:	47b8      	blx	r7
    24b0:	3001      	adds	r0, #1
    24b2:	d0a7      	beq.n	2404 <_printf_float+0x1a4>
    24b4:	9a0d      	ldr	r2, [sp, #52]	; 0x34
    24b6:	b922      	cbnz	r2, 24c2 <_printf_float+0x262>
    24b8:	980e      	ldr	r0, [sp, #56]	; 0x38
    24ba:	b910      	cbnz	r0, 24c2 <_printf_float+0x262>
    24bc:	6821      	ldr	r1, [r4, #0]
    24be:	07c8      	lsls	r0, r1, #31
    24c0:	d5ce      	bpl.n	2460 <_printf_float+0x200>
    24c2:	9b0b      	ldr	r3, [sp, #44]	; 0x2c
    24c4:	eb0a 0b03 	add.w	r11, r10, r3
    24c8:	45da      	cmp	r10, r11
    24ca:	d007      	beq.n	24dc <_printf_float+0x27c>
    24cc:	4628      	mov	r0, r5
    24ce:	f81a 1b01 	ldrb.w	r1, [r10], #1
    24d2:	4632      	mov	r2, r6
    24d4:	47b8      	blx	r7
    24d6:	3001      	adds	r0, #1
    24d8:	d1f6      	bne.n	24c8 <_printf_float+0x268>
    24da:	e793      	b.n	2404 <_printf_float+0x1a4>
    24dc:	f04f 0900 	mov.w	r9, #0
    24e0:	9a0d      	ldr	r2, [sp, #52]	; 0x34
    24e2:	4250      	negs	r0, r2
    24e4:	4581      	cmp	r9, r0
    24e6:	da08      	bge.n	24fa <_printf_float+0x29a>
    24e8:	4628      	mov	r0, r5
    24ea:	7ea1      	ldrb	r1, [r4, #26]
    24ec:	4632      	mov	r2, r6
    24ee:	47b8      	blx	r7
    24f0:	3001      	adds	r0, #1
    24f2:	d087      	beq.n	2404 <_printf_float+0x1a4>
    24f4:	f109 0901 	add.w	r9, r9, #1
    24f8:	e7f2      	b.n	24e0 <_printf_float+0x280>
    24fa:	f04f 0900 	mov.w	r9, #0
    24fe:	990e      	ldr	r1, [sp, #56]	; 0x38
    2500:	4589      	cmp	r9, r1
    2502:	daad      	bge.n	2460 <_printf_float+0x200>
    2504:	4628      	mov	r0, r5
    2506:	f818 1009 	ldrb.w	r1, [r8, r9]
    250a:	4632      	mov	r2, r6
    250c:	47b8      	blx	r7
    250e:	3001      	adds	r0, #1
    2510:	f43f af78 	beq.w	2404 <_printf_float+0x1a4>
    2514:	f109 0901 	add.w	r9, r9, #1
    2518:	e7f1      	b.n	24fe <_printf_float+0x29e>
    251a:	6da1      	ldr	r1, [r4, #88]	; 0x58
    251c:	9b0e      	ldr	r3, [sp, #56]	; 0x38
    251e:	428b      	cmp	r3, r1
    2520:	bfb4      	ite	lt
    2522:	469c      	movlt	r12, r3
    2524:	468c      	movge	r12, r1
    2526:	f1bc 0f00 	cmp.w	r12, #0
    252a:	dc09      	bgt.n	2540 <_printf_float+0x2e0>
    252c:	2300      	movs	r3, #0
    252e:	e029      	b.n	2584 <_printf_float+0x324>
    2530:	00006289 	.word	0x00006289
    2534:	0000628d 	.word	0x0000628d
    2538:	00006291 	.word	0x00006291
    253c:	00006295 	.word	0x00006295
    2540:	46c1      	mov	r9, r8
    2542:	eb0c 0308 	add.w	r3, r12, r8
    2546:	f819 1b01 	ldrb.w	r1, [r9], #1
    254a:	4628      	mov	r0, r5
    254c:	9309      	str	r3, [sp, #36]	; 0x24
    254e:	f8cd c028 	str.w	r12, [sp, #40]	; 0x28
    2552:	4632      	mov	r2, r6
    2554:	47b8      	blx	r7
    2556:	3001      	adds	r0, #1
    2558:	9b09      	ldr	r3, [sp, #36]	; 0x24
    255a:	f8dd c028 	ldr.w	r12, [sp, #40]	; 0x28
    255e:	f43f af51 	beq.w	2404 <_printf_float+0x1a4>
    2562:	4599      	cmp	r9, r3
    2564:	d1ef      	bne.n	2546 <_printf_float+0x2e6>
    2566:	e7e1      	b.n	252c <_printf_float+0x2cc>
    2568:	7ea1      	ldrb	r1, [r4, #26]
    256a:	f8cd c028 	str.w	r12, [sp, #40]	; 0x28
    256e:	4628      	mov	r0, r5
    2570:	4632      	mov	r2, r6
    2572:	9309      	str	r3, [sp, #36]	; 0x24
    2574:	47b8      	blx	r7
    2576:	3001      	adds	r0, #1
    2578:	9909      	ldr	r1, [sp, #36]	; 0x24
    257a:	f8dd c028 	ldr.w	r12, [sp, #40]	; 0x28
    257e:	f43f af41 	beq.w	2404 <_printf_float+0x1a4>
    2582:	1c4b      	adds	r3, r1, #1
    2584:	f8d4 9058 	ldr.w	r9, [r4, #88]	; 0x58
    2588:	ea2c 72ec 	bic.w	r2, r12, r12, asr #31
    258c:	ebc2 0009 	rsb	r0, r2, r9
    2590:	4283      	cmp	r3, r0
    2592:	dbe9      	blt.n	2568 <_printf_float+0x308>
    2594:	990e      	ldr	r1, [sp, #56]	; 0x38
    2596:	9b0d      	ldr	r3, [sp, #52]	; 0x34
    2598:	428b      	cmp	r3, r1
    259a:	db0f      	blt.n	25bc <_printf_float+0x35c>
    259c:	6822      	ldr	r2, [r4, #0]
    259e:	07d1      	lsls	r1, r2, #31
    25a0:	d40c      	bmi.n	25bc <_printf_float+0x35c>
    25a2:	990e      	ldr	r1, [sp, #56]	; 0x38
    25a4:	9b0d      	ldr	r3, [sp, #52]	; 0x34
    25a6:	44c8      	add	r8, r9
    25a8:	1aca      	subs	r2, r1, r3
    25aa:	ebc9 0901 	rsb	r9, r9, r1
    25ae:	4591      	cmp	r9, r2
    25b0:	bfa8      	it	ge
    25b2:	4691      	movge	r9, r2
    25b4:	f1b9 0f00 	cmp.w	r9, #0
    25b8:	dc0d      	bgt.n	25d6 <_printf_float+0x376>
    25ba:	e018      	b.n	25ee <_printf_float+0x38e>
    25bc:	980b      	ldr	r0, [sp, #44]	; 0x2c
    25be:	eb0a 0b00 	add.w	r11, r10, r0
    25c2:	45da      	cmp	r10, r11
    25c4:	d0ed      	beq.n	25a2 <_printf_float+0x342>
    25c6:	4628      	mov	r0, r5
    25c8:	f81a 1b01 	ldrb.w	r1, [r10], #1
    25cc:	4632      	mov	r2, r6
    25ce:	47b8      	blx	r7
    25d0:	3001      	adds	r0, #1
    25d2:	d1f6      	bne.n	25c2 <_printf_float+0x362>
    25d4:	e716      	b.n	2404 <_printf_float+0x1a4>
    25d6:	eb08 0a09 	add.w	r10, r8, r9
    25da:	4628      	mov	r0, r5
    25dc:	f818 1b01 	ldrb.w	r1, [r8], #1
    25e0:	4632      	mov	r2, r6
    25e2:	47b8      	blx	r7
    25e4:	3001      	adds	r0, #1
    25e6:	f43f af0d 	beq.w	2404 <_printf_float+0x1a4>
    25ea:	45d0      	cmp	r8, r10
    25ec:	d1f5      	bne.n	25da <_printf_float+0x37a>
    25ee:	f04f 0800 	mov.w	r8, #0
    25f2:	e008      	b.n	2606 <_printf_float+0x3a6>
    25f4:	4628      	mov	r0, r5
    25f6:	7ea1      	ldrb	r1, [r4, #26]
    25f8:	4632      	mov	r2, r6
    25fa:	47b8      	blx	r7
    25fc:	3001      	adds	r0, #1
    25fe:	f43f af01 	beq.w	2404 <_printf_float+0x1a4>
    2602:	f108 0801 	add.w	r8, r8, #1
    2606:	980d      	ldr	r0, [sp, #52]	; 0x34
    2608:	990e      	ldr	r1, [sp, #56]	; 0x38
    260a:	ea29 72e9 	bic.w	r2, r9, r9, asr #31
    260e:	1a0b      	subs	r3, r1, r0
    2610:	1a98      	subs	r0, r3, r2
    2612:	4580      	cmp	r8, r0
    2614:	dbee      	blt.n	25f4 <_printf_float+0x394>
    2616:	e723      	b.n	2460 <_printf_float+0x200>
    2618:	980e      	ldr	r0, [sp, #56]	; 0x38
    261a:	f898 1000 	ldrb.w	r1, [r8]
    261e:	2801      	cmp	r0, #1
    2620:	dc0a      	bgt.n	2638 <_printf_float+0x3d8>
    2622:	07da      	lsls	r2, r3, #31
    2624:	d408      	bmi.n	2638 <_printf_float+0x3d8>
    2626:	4628      	mov	r0, r5
    2628:	4632      	mov	r2, r6
    262a:	47b8      	blx	r7
    262c:	3001      	adds	r0, #1
    262e:	f43f aee9 	beq.w	2404 <_printf_float+0x1a4>
    2632:	f04f 0800 	mov.w	r8, #0
    2636:	e048      	b.n	26ca <_printf_float+0x46a>
    2638:	4628      	mov	r0, r5
    263a:	4632      	mov	r2, r6
    263c:	47b8      	blx	r7
    263e:	3001      	adds	r0, #1
    2640:	f43f aee0 	beq.w	2404 <_printf_float+0x1a4>
    2644:	990b      	ldr	r1, [sp, #44]	; 0x2c
    2646:	eb0a 0b01 	add.w	r11, r10, r1
    264a:	45da      	cmp	r10, r11
    264c:	d007      	beq.n	265e <_printf_float+0x3fe>
    264e:	4628      	mov	r0, r5
    2650:	f81a 1b01 	ldrb.w	r1, [r10], #1
    2654:	4632      	mov	r2, r6
    2656:	47b8      	blx	r7
    2658:	3001      	adds	r0, #1
    265a:	d1f6      	bne.n	264a <_printf_float+0x3ea>
    265c:	e6d2      	b.n	2404 <_printf_float+0x1a4>
    265e:	e9d4 0112 	ldrd	r0, r1, [r4, #72]	; 0x48
    2662:	2200      	movs	r2, #0
    2664:	2300      	movs	r3, #0
    2666:	f7fe ff85 	bl	1574 <__aeabi_dcmpeq>
    266a:	b110      	cbz	r0, 2672 <_printf_float+0x412>
    266c:	f04f 0800 	mov.w	r8, #0
    2670:	e01a      	b.n	26a8 <_printf_float+0x448>
    2672:	f04f 0a00 	mov.w	r10, #0
    2676:	980e      	ldr	r0, [sp, #56]	; 0x38
    2678:	1e41      	subs	r1, r0, #1
    267a:	458a      	cmp	r10, r1
    267c:	dad9      	bge.n	2632 <_printf_float+0x3d2>
    267e:	eb08 020a 	add.w	r2, r8, r10
    2682:	7851      	ldrb	r1, [r2, #1]
    2684:	4628      	mov	r0, r5
    2686:	4632      	mov	r2, r6
    2688:	47b8      	blx	r7
    268a:	3001      	adds	r0, #1
    268c:	f43f aeba 	beq.w	2404 <_printf_float+0x1a4>
    2690:	f10a 0a01 	add.w	r10, r10, #1
    2694:	e7ef      	b.n	2676 <_printf_float+0x416>
    2696:	4628      	mov	r0, r5
    2698:	7ea1      	ldrb	r1, [r4, #26]
    269a:	4632      	mov	r2, r6
    269c:	47b8      	blx	r7
    269e:	3001      	adds	r0, #1
    26a0:	f43f aeb0 	beq.w	2404 <_printf_float+0x1a4>
    26a4:	f108 0801 	add.w	r8, r8, #1
    26a8:	9b0e      	ldr	r3, [sp, #56]	; 0x38
    26aa:	1e5a      	subs	r2, r3, #1
    26ac:	4590      	cmp	r8, r2
    26ae:	dbf2      	blt.n	2696 <_printf_float+0x436>
    26b0:	e7bf      	b.n	2632 <_printf_float+0x3d2>
    26b2:	eb04 0308 	add.w	r3, r4, r8
    26b6:	4628      	mov	r0, r5
    26b8:	f893 1050 	ldrb.w	r1, [r3, #80]	; 0x50
    26bc:	4632      	mov	r2, r6
    26be:	47b8      	blx	r7
    26c0:	3001      	adds	r0, #1
    26c2:	f43f ae9f 	beq.w	2404 <_printf_float+0x1a4>
    26c6:	f108 0801 	add.w	r8, r8, #1
    26ca:	45c8      	cmp	r8, r9
    26cc:	dbf1      	blt.n	26b2 <_printf_float+0x452>
    26ce:	e6c7      	b.n	2460 <_printf_float+0x200>
    26d0:	4628      	mov	r0, r5
    26d2:	7e61      	ldrb	r1, [r4, #25]
    26d4:	4632      	mov	r2, r6
    26d6:	47b8      	blx	r7
    26d8:	3001      	adds	r0, #1
    26da:	f43f ae93 	beq.w	2404 <_printf_float+0x1a4>
    26de:	f108 0801 	add.w	r8, r8, #1
    26e2:	68e2      	ldr	r2, [r4, #12]
    26e4:	9b0f      	ldr	r3, [sp, #60]	; 0x3c
    26e6:	1ad0      	subs	r0, r2, r3
    26e8:	4580      	cmp	r8, r0
    26ea:	dbf1      	blt.n	26d0 <_printf_float+0x470>
    26ec:	68e0      	ldr	r0, [r4, #12]
    26ee:	990f      	ldr	r1, [sp, #60]	; 0x3c
    26f0:	4288      	cmp	r0, r1
    26f2:	bfb8      	it	lt
    26f4:	4608      	movlt	r0, r1
    26f6:	e002      	b.n	26fe <_printf_float+0x49e>
    26f8:	f04f 0800 	mov.w	r8, #0
    26fc:	e7f1      	b.n	26e2 <_printf_float+0x482>
    26fe:	b011      	add	sp, #68	; 0x44
    2700:	e8bd 8ff0 	ldmia.w	sp!, {r4, r5, r6, r7, r8, r9, r10, r11, pc}

00002704 <_printf_common>:
    2704:	e92d 47f0 	stmdb	sp!, {r4, r5, r6, r7, r8, r9, r10, lr}
    2708:	4615      	mov	r5, r2
    270a:	4699      	mov	r9, r3
    270c:	688a      	ldr	r2, [r1, #8]
    270e:	690b      	ldr	r3, [r1, #16]
    2710:	4680      	mov	r8, r0
    2712:	429a      	cmp	r2, r3
    2714:	bfa8      	it	ge
    2716:	4613      	movge	r3, r2
    2718:	602b      	str	r3, [r5, #0]
    271a:	f891 0043 	ldrb.w	r0, [r1, #67]	; 0x43
    271e:	460c      	mov	r4, r1
    2720:	f8dd a020 	ldr.w	r10, [sp, #32]
    2724:	b108      	cbz	r0, 272a <_printf_common+0x26>
    2726:	1c59      	adds	r1, r3, #1
    2728:	6029      	str	r1, [r5, #0]
    272a:	6826      	ldr	r6, [r4, #0]
    272c:	06b2      	lsls	r2, r6, #26
    272e:	d502      	bpl.n	2736 <_printf_common+0x32>
    2730:	682a      	ldr	r2, [r5, #0]
    2732:	1c93      	adds	r3, r2, #2
    2734:	602b      	str	r3, [r5, #0]
    2736:	6820      	ldr	r0, [r4, #0]
    2738:	f010 0606 	ands.w	r6, r0, #6
    273c:	d018      	beq.n	2770 <_printf_common+0x6c>
    273e:	f894 7043 	ldrb.w	r7, [r4, #67]	; 0x43
    2742:	6820      	ldr	r0, [r4, #0]
    2744:	1c3e      	adds	r6, r7, #0
    2746:	bf18      	it	ne
    2748:	2601      	movne	r6, #1
    274a:	0683      	lsls	r3, r0, #26
    274c:	d51a      	bpl.n	2784 <_printf_common+0x80>
    274e:	19a1      	adds	r1, r4, r6
    2750:	2230      	movs	r2, #48	; 0x30
    2752:	f881 2043 	strb.w	r2, [r1, #67]	; 0x43
    2756:	f894 3045 	ldrb.w	r3, [r4, #69]	; 0x45
    275a:	3602      	adds	r6, #2
    275c:	f881 3044 	strb.w	r3, [r1, #68]	; 0x44
    2760:	e010      	b.n	2784 <_printf_common+0x80>
    2762:	4640      	mov	r0, r8
    2764:	7e61      	ldrb	r1, [r4, #25]
    2766:	464a      	mov	r2, r9
    2768:	47d0      	blx	r10
    276a:	3001      	adds	r0, #1
    276c:	d006      	beq.n	277c <_printf_common+0x78>
    276e:	3601      	adds	r6, #1
    2770:	68e1      	ldr	r1, [r4, #12]
    2772:	682a      	ldr	r2, [r5, #0]
    2774:	1a8b      	subs	r3, r1, r2
    2776:	429e      	cmp	r6, r3
    2778:	dbf3      	blt.n	2762 <_printf_common+0x5e>
    277a:	e7e0      	b.n	273e <_printf_common+0x3a>
    277c:	f04f 30ff 	mov.w	r0, #4294967295
    2780:	e8bd 87f0 	ldmia.w	sp!, {r4, r5, r6, r7, r8, r9, r10, pc}
    2784:	2700      	movs	r7, #0
    2786:	42b7      	cmp	r7, r6
    2788:	da09      	bge.n	279e <_printf_common+0x9a>
    278a:	19e1      	adds	r1, r4, r7
    278c:	4640      	mov	r0, r8
    278e:	f891 1043 	ldrb.w	r1, [r1, #67]	; 0x43
    2792:	464a      	mov	r2, r9
    2794:	47d0      	blx	r10
    2796:	3001      	adds	r0, #1
    2798:	d0f0      	beq.n	277c <_printf_common+0x78>
    279a:	3701      	adds	r7, #1
    279c:	e7f3      	b.n	2786 <_printf_common+0x82>
    279e:	6821      	ldr	r1, [r4, #0]
    27a0:	6828      	ldr	r0, [r5, #0]
    27a2:	68e6      	ldr	r6, [r4, #12]
    27a4:	f001 0206 	and.w	r2, r1, #6
    27a8:	2a04      	cmp	r2, #4
    27aa:	bf08      	it	eq
    27ac:	ebc0 0506 	rsbeq	r5, r0, r6
    27b0:	6923      	ldr	r3, [r4, #16]
    27b2:	68a6      	ldr	r6, [r4, #8]
    27b4:	bf0c      	ite	eq
    27b6:	ea25 75e5 	biceq.w	r5, r5, r5, asr #31
    27ba:	2500      	movne	r5, #0
    27bc:	429e      	cmp	r6, r3
    27be:	bfc4      	itt	gt
    27c0:	ebc3 0306 	rsbgt	r3, r3, r6
    27c4:	18ed      	addgt	r5, r5, r3
    27c6:	2600      	movs	r6, #0
    27c8:	42ae      	cmp	r6, r5
    27ca:	da07      	bge.n	27dc <_printf_common+0xd8>
    27cc:	4640      	mov	r0, r8
    27ce:	7ea1      	ldrb	r1, [r4, #26]
    27d0:	464a      	mov	r2, r9
    27d2:	47d0      	blx	r10
    27d4:	3001      	adds	r0, #1
    27d6:	d0d1      	beq.n	277c <_printf_common+0x78>
    27d8:	3601      	adds	r6, #1
    27da:	e7f5      	b.n	27c8 <_printf_common+0xc4>
    27dc:	2000      	movs	r0, #0
    27de:	e8bd 87f0 	ldmia.w	sp!, {r4, r5, r6, r7, r8, r9, r10, pc}
	...

000027e4 <_printf_i>:
    27e4:	e92d 43f0 	stmdb	sp!, {r4, r5, r6, r7, r8, r9, lr}
    27e8:	460c      	mov	r4, r1
    27ea:	7e25      	ldrb	r5, [r4, #24]
    27ec:	b085      	sub	sp, #20
    27ee:	2d6e      	cmp	r5, #110	; 0x6e
    27f0:	4690      	mov	r8, r2
    27f2:	4607      	mov	r7, r0
    27f4:	4699      	mov	r9, r3
    27f6:	990c      	ldr	r1, [sp, #48]	; 0x30
    27f8:	f104 0243 	add.w	r2, r4, #67	; 0x43
    27fc:	f000 80aa 	beq.w	2954 <_printf_i+0x170>
    2800:	d812      	bhi.n	2828 <_printf_i+0x44>
    2802:	2d63      	cmp	r5, #99	; 0x63
    2804:	d024      	beq.n	2850 <_printf_i+0x6c>
    2806:	d809      	bhi.n	281c <_printf_i+0x38>
    2808:	2d00      	cmp	r5, #0
    280a:	f000 80bb 	beq.w	2984 <_printf_i+0x1a0>
    280e:	2d58      	cmp	r5, #88	; 0x58
    2810:	f040 80cb 	bne.w	29aa <_printf_i+0x1c6>
    2814:	f884 5045 	strb.w	r5, [r4, #69]	; 0x45
    2818:	4d82      	ldr	r5, [pc, #520]	; (2a24 <_printf_i+0x240>)
    281a:	e057      	b.n	28cc <_printf_i+0xe8>
    281c:	2d64      	cmp	r5, #100	; 0x64
    281e:	d020      	beq.n	2862 <_printf_i+0x7e>
    2820:	2d69      	cmp	r5, #105	; 0x69
    2822:	f040 80c2 	bne.w	29aa <_printf_i+0x1c6>
    2826:	e01c      	b.n	2862 <_printf_i+0x7e>
    2828:	2d73      	cmp	r5, #115	; 0x73
    282a:	f000 80af 	beq.w	298c <_printf_i+0x1a8>
    282e:	d809      	bhi.n	2844 <_printf_i+0x60>
    2830:	2d6f      	cmp	r5, #111	; 0x6f
    2832:	d02f      	beq.n	2894 <_printf_i+0xb0>
    2834:	2d70      	cmp	r5, #112	; 0x70
    2836:	f040 80b8 	bne.w	29aa <_printf_i+0x1c6>
    283a:	6825      	ldr	r5, [r4, #0]
    283c:	f045 0620 	orr.w	r6, r5, #32
    2840:	6026      	str	r6, [r4, #0]
    2842:	e03f      	b.n	28c4 <_printf_i+0xe0>
    2844:	2d75      	cmp	r5, #117	; 0x75
    2846:	d025      	beq.n	2894 <_printf_i+0xb0>
    2848:	2d78      	cmp	r5, #120	; 0x78
    284a:	f040 80ae 	bne.w	29aa <_printf_i+0x1c6>
    284e:	e039      	b.n	28c4 <_printf_i+0xe0>
    2850:	6808      	ldr	r0, [r1, #0]
    2852:	f104 0642 	add.w	r6, r4, #66	; 0x42
    2856:	1d02      	adds	r2, r0, #4
    2858:	600a      	str	r2, [r1, #0]
    285a:	6801      	ldr	r1, [r0, #0]
    285c:	f884 1042 	strb.w	r1, [r4, #66]	; 0x42
    2860:	e0a7      	b.n	29b2 <_printf_i+0x1ce>
    2862:	6820      	ldr	r0, [r4, #0]
    2864:	680b      	ldr	r3, [r1, #0]
    2866:	f010 0f80 	tst.w	r0, #128	; 0x80
    286a:	d002      	beq.n	2872 <_printf_i+0x8e>
    286c:	1d1e      	adds	r6, r3, #4
    286e:	600e      	str	r6, [r1, #0]
    2870:	e008      	b.n	2884 <_printf_i+0xa0>
    2872:	f103 0504 	add.w	r5, r3, #4
    2876:	f010 0f40 	tst.w	r0, #64	; 0x40
    287a:	600d      	str	r5, [r1, #0]
    287c:	d002      	beq.n	2884 <_printf_i+0xa0>
    287e:	f9b3 1000 	ldrsh.w	r1, [r3]
    2882:	e000      	b.n	2886 <_printf_i+0xa2>
    2884:	6819      	ldr	r1, [r3, #0]
    2886:	2900      	cmp	r1, #0
    2888:	da3c      	bge.n	2904 <_printf_i+0x120>
    288a:	202d      	movs	r0, #45	; 0x2d
    288c:	4249      	negs	r1, r1
    288e:	f884 0043 	strb.w	r0, [r4, #67]	; 0x43
    2892:	e037      	b.n	2904 <_printf_i+0x120>
    2894:	6825      	ldr	r5, [r4, #0]
    2896:	680e      	ldr	r6, [r1, #0]
    2898:	f015 0f80 	tst.w	r5, #128	; 0x80
    289c:	d002      	beq.n	28a4 <_printf_i+0xc0>
    289e:	1d33      	adds	r3, r6, #4
    28a0:	600b      	str	r3, [r1, #0]
    28a2:	e007      	b.n	28b4 <_printf_i+0xd0>
    28a4:	f106 0004 	add.w	r0, r6, #4
    28a8:	f015 0f40 	tst.w	r5, #64	; 0x40
    28ac:	6008      	str	r0, [r1, #0]
    28ae:	d001      	beq.n	28b4 <_printf_i+0xd0>
    28b0:	8831      	ldrh	r1, [r6, #0]
    28b2:	e000      	b.n	28b6 <_printf_i+0xd2>
    28b4:	6831      	ldr	r1, [r6, #0]
    28b6:	7e26      	ldrb	r6, [r4, #24]
    28b8:	4d5a      	ldr	r5, [pc, #360]	; (2a24 <_printf_i+0x240>)
    28ba:	2e6f      	cmp	r6, #111	; 0x6f
    28bc:	bf14      	ite	ne
    28be:	230a      	movne	r3, #10
    28c0:	2308      	moveq	r3, #8
    28c2:	e01b      	b.n	28fc <_printf_i+0x118>
    28c4:	2078      	movs	r0, #120	; 0x78
    28c6:	4d58      	ldr	r5, [pc, #352]	; (2a28 <_printf_i+0x244>)
    28c8:	f884 0045 	strb.w	r0, [r4, #69]	; 0x45
    28cc:	6820      	ldr	r0, [r4, #0]
    28ce:	680b      	ldr	r3, [r1, #0]
    28d0:	f010 0f80 	tst.w	r0, #128	; 0x80
    28d4:	f103 0604 	add.w	r6, r3, #4
    28d8:	600e      	str	r6, [r1, #0]
    28da:	d103      	bne.n	28e4 <_printf_i+0x100>
    28dc:	0641      	lsls	r1, r0, #25
    28de:	d501      	bpl.n	28e4 <_printf_i+0x100>
    28e0:	8819      	ldrh	r1, [r3, #0]
    28e2:	e000      	b.n	28e6 <_printf_i+0x102>
    28e4:	6819      	ldr	r1, [r3, #0]
    28e6:	07c6      	lsls	r6, r0, #31
    28e8:	bf44      	itt	mi
    28ea:	f040 0020 	orrmi.w	r0, r0, #32
    28ee:	6020      	strmi	r0, [r4, #0]
    28f0:	b919      	cbnz	r1, 28fa <_printf_i+0x116>
    28f2:	6820      	ldr	r0, [r4, #0]
    28f4:	f020 0320 	bic.w	r3, r0, #32
    28f8:	6023      	str	r3, [r4, #0]
    28fa:	2310      	movs	r3, #16
    28fc:	2000      	movs	r0, #0
    28fe:	f884 0043 	strb.w	r0, [r4, #67]	; 0x43
    2902:	e001      	b.n	2908 <_printf_i+0x124>
    2904:	4d47      	ldr	r5, [pc, #284]	; (2a24 <_printf_i+0x240>)
    2906:	230a      	movs	r3, #10
    2908:	6866      	ldr	r6, [r4, #4]
    290a:	2e00      	cmp	r6, #0
    290c:	60a6      	str	r6, [r4, #8]
    290e:	db03      	blt.n	2918 <_printf_i+0x134>
    2910:	6820      	ldr	r0, [r4, #0]
    2912:	f020 0004 	bic.w	r0, r0, #4
    2916:	6020      	str	r0, [r4, #0]
    2918:	b901      	cbnz	r1, 291c <_printf_i+0x138>
    291a:	b16e      	cbz	r6, 2938 <_printf_i+0x154>
    291c:	f104 0042 	add.w	r0, r4, #66	; 0x42
    2920:	fbb1 fef3 	udiv	lr, r1, r3
    2924:	fb03 111e 	mls	r1, r3, lr, r1
    2928:	5c69      	ldrb	r1, [r5, r1]
    292a:	4606      	mov	r6, r0
    292c:	f800 1901 	strb.w	r1, [r0], #-1
    2930:	4671      	mov	r1, lr
    2932:	2900      	cmp	r1, #0
    2934:	d1f4      	bne.n	2920 <_printf_i+0x13c>
    2936:	e000      	b.n	293a <_printf_i+0x156>
    2938:	4616      	mov	r6, r2
    293a:	1b92      	subs	r2, r2, r6
    293c:	2b08      	cmp	r3, #8
    293e:	6122      	str	r2, [r4, #16]
    2940:	d13c      	bne.n	29bc <_printf_i+0x1d8>
    2942:	6823      	ldr	r3, [r4, #0]
    2944:	07d8      	lsls	r0, r3, #31
    2946:	d539      	bpl.n	29bc <_printf_i+0x1d8>
    2948:	6860      	ldr	r0, [r4, #4]
    294a:	4290      	cmp	r0, r2
    294c:	dc36      	bgt.n	29bc <_printf_i+0x1d8>
    294e:	1c51      	adds	r1, r2, #1
    2950:	6061      	str	r1, [r4, #4]
    2952:	e033      	b.n	29bc <_printf_i+0x1d8>
    2954:	6826      	ldr	r6, [r4, #0]
    2956:	680b      	ldr	r3, [r1, #0]
    2958:	f016 0f80 	tst.w	r6, #128	; 0x80
    295c:	d005      	beq.n	296a <_printf_i+0x186>
    295e:	1d1e      	adds	r6, r3, #4
    2960:	600e      	str	r6, [r1, #0]
    2962:	6819      	ldr	r1, [r3, #0]
    2964:	6960      	ldr	r0, [r4, #20]
    2966:	6008      	str	r0, [r1, #0]
    2968:	e00c      	b.n	2984 <_printf_i+0x1a0>
    296a:	f103 0004 	add.w	r0, r3, #4
    296e:	f016 0f40 	tst.w	r6, #64	; 0x40
    2972:	6008      	str	r0, [r1, #0]
    2974:	d003      	beq.n	297e <_printf_i+0x19a>
    2976:	6818      	ldr	r0, [r3, #0]
    2978:	6963      	ldr	r3, [r4, #20]
    297a:	8003      	strh	r3, [r0, #0]
    297c:	e002      	b.n	2984 <_printf_i+0x1a0>
    297e:	6961      	ldr	r1, [r4, #20]
    2980:	681e      	ldr	r6, [r3, #0]
    2982:	6031      	str	r1, [r6, #0]
    2984:	2300      	movs	r3, #0
    2986:	6123      	str	r3, [r4, #16]
    2988:	4616      	mov	r6, r2
    298a:	e017      	b.n	29bc <_printf_i+0x1d8>
    298c:	680e      	ldr	r6, [r1, #0]
    298e:	1d32      	adds	r2, r6, #4
    2990:	600a      	str	r2, [r1, #0]
    2992:	6836      	ldr	r6, [r6, #0]
    2994:	4630      	mov	r0, r6
    2996:	f7ff fa80 	bl	1e9a <strlen>
    299a:	6863      	ldr	r3, [r4, #4]
    299c:	6120      	str	r0, [r4, #16]
    299e:	4298      	cmp	r0, r3
    29a0:	bf88      	it	hi
    29a2:	6123      	strhi	r3, [r4, #16]
    29a4:	6920      	ldr	r0, [r4, #16]
    29a6:	6060      	str	r0, [r4, #4]
    29a8:	e005      	b.n	29b6 <_printf_i+0x1d2>
    29aa:	f104 0642 	add.w	r6, r4, #66	; 0x42
    29ae:	f884 5042 	strb.w	r5, [r4, #66]	; 0x42
    29b2:	2301      	movs	r3, #1
    29b4:	6123      	str	r3, [r4, #16]
    29b6:	2100      	movs	r1, #0
    29b8:	f884 1043 	strb.w	r1, [r4, #67]	; 0x43
    29bc:	f8cd 9000 	str.w	r9, [sp]
    29c0:	4638      	mov	r0, r7
    29c2:	4621      	mov	r1, r4
    29c4:	aa03      	add	r2, sp, #12
    29c6:	4643      	mov	r3, r8
    29c8:	f7ff fe9c 	bl	2704 <_printf_common>
    29cc:	3001      	adds	r0, #1
    29ce:	d102      	bne.n	29d6 <_printf_i+0x1f2>
    29d0:	f04f 30ff 	mov.w	r0, #4294967295
    29d4:	e022      	b.n	2a1c <_printf_i+0x238>
    29d6:	2500      	movs	r5, #0
    29d8:	6922      	ldr	r2, [r4, #16]
    29da:	4295      	cmp	r5, r2
    29dc:	da07      	bge.n	29ee <_printf_i+0x20a>
    29de:	4638      	mov	r0, r7
    29e0:	5d71      	ldrb	r1, [r6, r5]
    29e2:	4642      	mov	r2, r8
    29e4:	47c8      	blx	r9
    29e6:	3001      	adds	r0, #1
    29e8:	d0f2      	beq.n	29d0 <_printf_i+0x1ec>
    29ea:	3501      	adds	r5, #1
    29ec:	e7f4      	b.n	29d8 <_printf_i+0x1f4>
    29ee:	6821      	ldr	r1, [r4, #0]
    29f0:	0789      	lsls	r1, r1, #30
    29f2:	d405      	bmi.n	2a00 <_printf_i+0x21c>
    29f4:	68e0      	ldr	r0, [r4, #12]
    29f6:	9903      	ldr	r1, [sp, #12]
    29f8:	4288      	cmp	r0, r1
    29fa:	bfb8      	it	lt
    29fc:	4608      	movlt	r0, r1
    29fe:	e00d      	b.n	2a1c <_printf_i+0x238>
    2a00:	2500      	movs	r5, #0
    2a02:	68e0      	ldr	r0, [r4, #12]
    2a04:	9b03      	ldr	r3, [sp, #12]
    2a06:	1ac2      	subs	r2, r0, r3
    2a08:	4295      	cmp	r5, r2
    2a0a:	daf3      	bge.n	29f4 <_printf_i+0x210>
    2a0c:	4638      	mov	r0, r7
    2a0e:	7e61      	ldrb	r1, [r4, #25]
    2a10:	4642      	mov	r2, r8
    2a12:	47c8      	blx	r9
    2a14:	3001      	adds	r0, #1
    2a16:	d0db      	beq.n	29d0 <_printf_i+0x1ec>
    2a18:	3501      	adds	r5, #1
    2a1a:	e7f2      	b.n	2a02 <_printf_i+0x21e>
    2a1c:	b005      	add	sp, #20
    2a1e:	e8bd 83f0 	ldmia.w	sp!, {r4, r5, r6, r7, r8, r9, pc}
    2a22:	bf00      	nop
    2a24:	00006299 	.word	0x00006299
    2a28:	000062aa 	.word	0x000062aa

00002a2c <_scanf_float>:
    2a2c:	e92d 4ff0 	stmdb	sp!, {r4, r5, r6, r7, r8, r9, r10, r11, lr}
    2a30:	b087      	sub	sp, #28
    2a32:	9303      	str	r3, [sp, #12]
    2a34:	688b      	ldr	r3, [r1, #8]
    2a36:	4616      	mov	r6, r2
    2a38:	1e5a      	subs	r2, r3, #1
    2a3a:	f5b2 7fae 	cmp.w	r2, #348	; 0x15c
    2a3e:	4607      	mov	r7, r0
    2a40:	460c      	mov	r4, r1
    2a42:	d907      	bls.n	2a54 <_scanf_float+0x28>
    2a44:	f46f 70ae 	mvn.w	r0, #348	; 0x15c
    2a48:	f240 115d 	movw	r1, #349	; 0x15d
    2a4c:	eb03 0c00 	add.w	r12, r3, r0
    2a50:	60a1      	str	r1, [r4, #8]
    2a52:	e001      	b.n	2a58 <_scanf_float+0x2c>
    2a54:	f04f 0c00 	mov.w	r12, #0
    2a58:	6825      	ldr	r5, [r4, #0]
    2a5a:	46a0      	mov	r8, r4
    2a5c:	f445 63f0 	orr.w	r3, r5, #1920	; 0x780
    2a60:	f848 3b1c 	str.w	r3, [r8], #28
    2a64:	2500      	movs	r5, #0
    2a66:	46c3      	mov	r11, r8
    2a68:	462a      	mov	r2, r5
    2a6a:	46a9      	mov	r9, r5
    2a6c:	9505      	str	r5, [sp, #20]
    2a6e:	46aa      	mov	r10, r5
    2a70:	9504      	str	r5, [sp, #16]
    2a72:	68a1      	ldr	r1, [r4, #8]
    2a74:	2900      	cmp	r1, #0
    2a76:	f000 80df 	beq.w	2c38 <_scanf_float+0x20c>
    2a7a:	6830      	ldr	r0, [r6, #0]
    2a7c:	7803      	ldrb	r3, [r0, #0]
    2a7e:	2b4e      	cmp	r3, #78	; 0x4e
    2a80:	d05c      	beq.n	2b3c <_scanf_float+0x110>
    2a82:	d81d      	bhi.n	2ac0 <_scanf_float+0x94>
    2a84:	2b39      	cmp	r3, #57	; 0x39
    2a86:	d80f      	bhi.n	2aa8 <_scanf_float+0x7c>
    2a88:	2b31      	cmp	r3, #49	; 0x31
    2a8a:	d247      	bcs.n	2b1c <_scanf_float+0xf0>
    2a8c:	2b2e      	cmp	r3, #46	; 0x2e
    2a8e:	f000 8090 	beq.w	2bb2 <_scanf_float+0x186>
    2a92:	d805      	bhi.n	2aa0 <_scanf_float+0x74>
    2a94:	2b2b      	cmp	r3, #43	; 0x2b
    2a96:	d049      	beq.n	2b2c <_scanf_float+0x100>
    2a98:	2b2d      	cmp	r3, #45	; 0x2d
    2a9a:	f040 80cd 	bne.w	2c38 <_scanf_float+0x20c>
    2a9e:	e045      	b.n	2b2c <_scanf_float+0x100>
    2aa0:	2b30      	cmp	r3, #48	; 0x30
    2aa2:	f040 80c9 	bne.w	2c38 <_scanf_float+0x20c>
    2aa6:	e028      	b.n	2afa <_scanf_float+0xce>
    2aa8:	2b45      	cmp	r3, #69	; 0x45
    2aaa:	f000 808b 	beq.w	2bc4 <_scanf_float+0x198>
    2aae:	d803      	bhi.n	2ab8 <_scanf_float+0x8c>
    2ab0:	2b41      	cmp	r3, #65	; 0x41
    2ab2:	f040 80c1 	bne.w	2c38 <_scanf_float+0x20c>
    2ab6:	e056      	b.n	2b66 <_scanf_float+0x13a>
    2ab8:	2b46      	cmp	r3, #70	; 0x46
    2aba:	d06e      	beq.n	2b9a <_scanf_float+0x16e>
    2abc:	2b49      	cmp	r3, #73	; 0x49
    2abe:	e013      	b.n	2ae8 <_scanf_float+0xbc>
    2ac0:	2b66      	cmp	r3, #102	; 0x66
    2ac2:	d06a      	beq.n	2b9a <_scanf_float+0x16e>
    2ac4:	d80c      	bhi.n	2ae0 <_scanf_float+0xb4>
    2ac6:	2b59      	cmp	r3, #89	; 0x59
    2ac8:	d06f      	beq.n	2baa <_scanf_float+0x17e>
    2aca:	d803      	bhi.n	2ad4 <_scanf_float+0xa8>
    2acc:	2b54      	cmp	r3, #84	; 0x54
    2ace:	f040 80b3 	bne.w	2c38 <_scanf_float+0x20c>
    2ad2:	e066      	b.n	2ba2 <_scanf_float+0x176>
    2ad4:	2b61      	cmp	r3, #97	; 0x61
    2ad6:	d046      	beq.n	2b66 <_scanf_float+0x13a>
    2ad8:	2b65      	cmp	r3, #101	; 0x65
    2ada:	f040 80ad 	bne.w	2c38 <_scanf_float+0x20c>
    2ade:	e071      	b.n	2bc4 <_scanf_float+0x198>
    2ae0:	2b6e      	cmp	r3, #110	; 0x6e
    2ae2:	d02b      	beq.n	2b3c <_scanf_float+0x110>
    2ae4:	d803      	bhi.n	2aee <_scanf_float+0xc2>
    2ae6:	2b69      	cmp	r3, #105	; 0x69
    2ae8:	f040 80a6 	bne.w	2c38 <_scanf_float+0x20c>
    2aec:	e03f      	b.n	2b6e <_scanf_float+0x142>
    2aee:	2b74      	cmp	r3, #116	; 0x74
    2af0:	d057      	beq.n	2ba2 <_scanf_float+0x176>
    2af2:	2b79      	cmp	r3, #121	; 0x79
    2af4:	f040 80a0 	bne.w	2c38 <_scanf_float+0x20c>
    2af8:	e057      	b.n	2baa <_scanf_float+0x17e>
    2afa:	6820      	ldr	r0, [r4, #0]
    2afc:	f410 7f80 	tst.w	r0, #256	; 0x100
    2b00:	d00c      	beq.n	2b1c <_scanf_float+0xf0>
    2b02:	f020 0380 	bic.w	r3, r0, #128	; 0x80
    2b06:	6023      	str	r3, [r4, #0]
    2b08:	f10a 0a01 	add.w	r10, r10, #1
    2b0c:	f1bc 0f00 	cmp.w	r12, #0
    2b10:	d075      	beq.n	2bfe <_scanf_float+0x1d2>
    2b12:	3101      	adds	r1, #1
    2b14:	f10c 3cff 	add.w	r12, r12, #4294967295
    2b18:	60a1      	str	r1, [r4, #8]
    2b1a:	e070      	b.n	2bfe <_scanf_float+0x1d2>
    2b1c:	1951      	adds	r1, r2, r5
    2b1e:	2900      	cmp	r1, #0
    2b20:	f040 808a 	bne.w	2c38 <_scanf_float+0x20c>
    2b24:	6820      	ldr	r0, [r4, #0]
    2b26:	f420 70c0 	bic.w	r0, r0, #384	; 0x180
    2b2a:	e005      	b.n	2b38 <_scanf_float+0x10c>
    2b2c:	6821      	ldr	r1, [r4, #0]
    2b2e:	0608      	lsls	r0, r1, #24
    2b30:	f140 8082 	bpl.w	2c38 <_scanf_float+0x20c>
    2b34:	f021 0080 	bic.w	r0, r1, #128	; 0x80
    2b38:	6020      	str	r0, [r4, #0]
    2b3a:	e05e      	b.n	2bfa <_scanf_float+0x1ce>
    2b3c:	b96a      	cbnz	r2, 2b5a <_scanf_float+0x12e>
    2b3e:	f1ba 0f00 	cmp.w	r10, #0
    2b42:	d10c      	bne.n	2b5e <_scanf_float+0x132>
    2b44:	6821      	ldr	r1, [r4, #0]
    2b46:	f401 60e0 	and.w	r0, r1, #1792	; 0x700
    2b4a:	f5b0 6fe0 	cmp.w	r0, #1792	; 0x700
    2b4e:	d106      	bne.n	2b5e <_scanf_float+0x132>
    2b50:	f421 62f0 	bic.w	r2, r1, #1920	; 0x780
    2b54:	6022      	str	r2, [r4, #0]
    2b56:	2201      	movs	r2, #1
    2b58:	e04f      	b.n	2bfa <_scanf_float+0x1ce>
    2b5a:	2a02      	cmp	r2, #2
    2b5c:	d04c      	beq.n	2bf8 <_scanf_float+0x1cc>
    2b5e:	2d01      	cmp	r5, #1
    2b60:	d018      	beq.n	2b94 <_scanf_float+0x168>
    2b62:	2d04      	cmp	r5, #4
    2b64:	e015      	b.n	2b92 <_scanf_float+0x166>
    2b66:	2a01      	cmp	r2, #1
    2b68:	d166      	bne.n	2c38 <_scanf_float+0x20c>
    2b6a:	2202      	movs	r2, #2
    2b6c:	e045      	b.n	2bfa <_scanf_float+0x1ce>
    2b6e:	b96d      	cbnz	r5, 2b8c <_scanf_float+0x160>
    2b70:	f1ba 0f00 	cmp.w	r10, #0
    2b74:	d163      	bne.n	2c3e <_scanf_float+0x212>
    2b76:	6821      	ldr	r1, [r4, #0]
    2b78:	f401 60e0 	and.w	r0, r1, #1792	; 0x700
    2b7c:	f5b0 6fe0 	cmp.w	r0, #1792	; 0x700
    2b80:	d161      	bne.n	2c46 <_scanf_float+0x21a>
    2b82:	f421 65f0 	bic.w	r5, r1, #1920	; 0x780
    2b86:	6025      	str	r5, [r4, #0]
    2b88:	2501      	movs	r5, #1
    2b8a:	e036      	b.n	2bfa <_scanf_float+0x1ce>
    2b8c:	2d03      	cmp	r5, #3
    2b8e:	d001      	beq.n	2b94 <_scanf_float+0x168>
    2b90:	2d05      	cmp	r5, #5
    2b92:	d151      	bne.n	2c38 <_scanf_float+0x20c>
    2b94:	3501      	adds	r5, #1
    2b96:	b2ed      	uxtb	r5, r5
    2b98:	e02f      	b.n	2bfa <_scanf_float+0x1ce>
    2b9a:	2d02      	cmp	r5, #2
    2b9c:	d14c      	bne.n	2c38 <_scanf_float+0x20c>
    2b9e:	2503      	movs	r5, #3
    2ba0:	e02b      	b.n	2bfa <_scanf_float+0x1ce>
    2ba2:	2d06      	cmp	r5, #6
    2ba4:	d148      	bne.n	2c38 <_scanf_float+0x20c>
    2ba6:	2507      	movs	r5, #7
    2ba8:	e027      	b.n	2bfa <_scanf_float+0x1ce>
    2baa:	2d07      	cmp	r5, #7
    2bac:	d144      	bne.n	2c38 <_scanf_float+0x20c>
    2bae:	2508      	movs	r5, #8
    2bb0:	e023      	b.n	2bfa <_scanf_float+0x1ce>
    2bb2:	6821      	ldr	r1, [r4, #0]
    2bb4:	0588      	lsls	r0, r1, #22
    2bb6:	d53f      	bpl.n	2c38 <_scanf_float+0x20c>
    2bb8:	f421 7020 	bic.w	r0, r1, #640	; 0x280
    2bbc:	6020      	str	r0, [r4, #0]
    2bbe:	f8cd a010 	str.w	r10, [sp, #16]
    2bc2:	e01a      	b.n	2bfa <_scanf_float+0x1ce>
    2bc4:	6821      	ldr	r1, [r4, #0]
    2bc6:	f401 60a0 	and.w	r0, r1, #1280	; 0x500
    2bca:	f5b0 6f80 	cmp.w	r0, #1024	; 0x400
    2bce:	d004      	beq.n	2bda <_scanf_float+0x1ae>
    2bd0:	0548      	lsls	r0, r1, #21
    2bd2:	d531      	bpl.n	2c38 <_scanf_float+0x20c>
    2bd4:	f1ba 0f00 	cmp.w	r10, #0
    2bd8:	d035      	beq.n	2c46 <_scanf_float+0x21a>
    2bda:	0588      	lsls	r0, r1, #22
    2bdc:	d404      	bmi.n	2be8 <_scanf_float+0x1bc>
    2bde:	9804      	ldr	r0, [sp, #16]
    2be0:	46d9      	mov	r9, r11
    2be2:	ebc0 000a 	rsb	r0, r0, r10
    2be6:	9005      	str	r0, [sp, #20]
    2be8:	f421 61f0 	bic.w	r1, r1, #1920	; 0x780
    2bec:	f441 70c0 	orr.w	r0, r1, #384	; 0x180
    2bf0:	6020      	str	r0, [r4, #0]
    2bf2:	f04f 0a00 	mov.w	r10, #0
    2bf6:	e000      	b.n	2bfa <_scanf_float+0x1ce>
    2bf8:	2203      	movs	r2, #3
    2bfa:	f80b 3b01 	strb.w	r3, [r11], #1
    2bfe:	68a3      	ldr	r3, [r4, #8]
    2c00:	6920      	ldr	r0, [r4, #16]
    2c02:	1e59      	subs	r1, r3, #1
    2c04:	60a1      	str	r1, [r4, #8]
    2c06:	6871      	ldr	r1, [r6, #4]
    2c08:	1c43      	adds	r3, r0, #1
    2c0a:	1e48      	subs	r0, r1, #1
    2c0c:	2800      	cmp	r0, #0
    2c0e:	6123      	str	r3, [r4, #16]
    2c10:	6070      	str	r0, [r6, #4]
    2c12:	dd03      	ble.n	2c1c <_scanf_float+0x1f0>
    2c14:	6833      	ldr	r3, [r6, #0]
    2c16:	1c59      	adds	r1, r3, #1
    2c18:	6031      	str	r1, [r6, #0]
    2c1a:	e72a      	b.n	2a72 <_scanf_float+0x46>
    2c1c:	9202      	str	r2, [sp, #8]
    2c1e:	f8cd c004 	str.w	r12, [sp, #4]
    2c22:	f8d4 3180 	ldr.w	r3, [r4, #384]	; 0x180
    2c26:	4638      	mov	r0, r7
    2c28:	4631      	mov	r1, r6
    2c2a:	4798      	blx	r3
    2c2c:	9a02      	ldr	r2, [sp, #8]
    2c2e:	f8dd c004 	ldr.w	r12, [sp, #4]
    2c32:	2800      	cmp	r0, #0
    2c34:	f43f af1d 	beq.w	2a72 <_scanf_float+0x46>
    2c38:	f1ba 0f00 	cmp.w	r10, #0
    2c3c:	d003      	beq.n	2c46 <_scanf_float+0x21a>
    2c3e:	6821      	ldr	r1, [r4, #0]
    2c40:	f421 7080 	bic.w	r0, r1, #256	; 0x100
    2c44:	6020      	str	r0, [r4, #0]
    2c46:	1e53      	subs	r3, r2, #1
    2c48:	2b01      	cmp	r3, #1
    2c4a:	d811      	bhi.n	2c70 <_scanf_float+0x244>
    2c4c:	45c3      	cmp	r11, r8
    2c4e:	465a      	mov	r2, r11
    2c50:	d90c      	bls.n	2c6c <_scanf_float+0x240>
    2c52:	f812 1c01 	ldrb.w	r1, [r2, #-1]
    2c56:	f8d4 317c 	ldr.w	r3, [r4, #380]	; 0x17c
    2c5a:	4638      	mov	r0, r7
    2c5c:	4632      	mov	r2, r6
    2c5e:	4798      	blx	r3
    2c60:	6921      	ldr	r1, [r4, #16]
    2c62:	f10b 3bff 	add.w	r11, r11, #4294967295
    2c66:	1e48      	subs	r0, r1, #1
    2c68:	6120      	str	r0, [r4, #16]
    2c6a:	e7ef      	b.n	2c4c <_scanf_float+0x220>
    2c6c:	2001      	movs	r0, #1
    2c6e:	e0b4      	b.n	2dda <_scanf_float+0x3ae>
    2c70:	1e6a      	subs	r2, r5, #1
    2c72:	2a06      	cmp	r2, #6
    2c74:	d82e      	bhi.n	2cd4 <_scanf_float+0x2a8>
    2c76:	2d02      	cmp	r5, #2
    2c78:	d91c      	bls.n	2cb4 <_scanf_float+0x288>
    2c7a:	46dc      	mov	r12, r11
    2c7c:	ebcb 0105 	rsb	r1, r11, r5
    2c80:	eb01 030c 	add.w	r3, r1, r12
    2c84:	f003 00ff 	and.w	r0, r3, #255	; 0xff
    2c88:	2803      	cmp	r0, #3
    2c8a:	d90e      	bls.n	2caa <_scanf_float+0x27e>
    2c8c:	f81c 1d01 	ldrb.w	r1, [r12, #-1]!
    2c90:	f8d4 317c 	ldr.w	r3, [r4, #380]	; 0x17c
    2c94:	f8cd c004 	str.w	r12, [sp, #4]
    2c98:	4638      	mov	r0, r7
    2c9a:	4632      	mov	r2, r6
    2c9c:	4798      	blx	r3
    2c9e:	6921      	ldr	r1, [r4, #16]
    2ca0:	f8dd c004 	ldr.w	r12, [sp, #4]
    2ca4:	1e48      	subs	r0, r1, #1
    2ca6:	6120      	str	r0, [r4, #16]
    2ca8:	e7e8      	b.n	2c7c <_scanf_float+0x250>
    2caa:	3d03      	subs	r5, #3
    2cac:	b2ed      	uxtb	r5, r5
    2cae:	ebc5 0b0b 	rsb	r11, r5, r11
    2cb2:	e00f      	b.n	2cd4 <_scanf_float+0x2a8>
    2cb4:	45c3      	cmp	r11, r8
    2cb6:	4659      	mov	r1, r11
    2cb8:	d9d8      	bls.n	2c6c <_scanf_float+0x240>
    2cba:	4632      	mov	r2, r6
    2cbc:	f8d4 317c 	ldr.w	r3, [r4, #380]	; 0x17c
    2cc0:	4638      	mov	r0, r7
    2cc2:	f811 1c01 	ldrb.w	r1, [r1, #-1]
    2cc6:	4798      	blx	r3
    2cc8:	6920      	ldr	r0, [r4, #16]
    2cca:	f10b 3bff 	add.w	r11, r11, #4294967295
    2cce:	1e42      	subs	r2, r0, #1
    2cd0:	6122      	str	r2, [r4, #16]
    2cd2:	e7ef      	b.n	2cb4 <_scanf_float+0x288>
    2cd4:	6821      	ldr	r1, [r4, #0]
    2cd6:	05ca      	lsls	r2, r1, #23
    2cd8:	d52e      	bpl.n	2d38 <_scanf_float+0x30c>
    2cda:	054b      	lsls	r3, r1, #21
    2cdc:	d50f      	bpl.n	2cfe <_scanf_float+0x2d2>
    2cde:	45c3      	cmp	r11, r8
    2ce0:	4659      	mov	r1, r11
    2ce2:	d9c3      	bls.n	2c6c <_scanf_float+0x240>
    2ce4:	4632      	mov	r2, r6
    2ce6:	f8d4 317c 	ldr.w	r3, [r4, #380]	; 0x17c
    2cea:	4638      	mov	r0, r7
    2cec:	f811 1c01 	ldrb.w	r1, [r1, #-1]
    2cf0:	4798      	blx	r3
    2cf2:	6920      	ldr	r0, [r4, #16]
    2cf4:	f10b 3bff 	add.w	r11, r11, #4294967295
    2cf8:	1e42      	subs	r2, r0, #1
    2cfa:	6122      	str	r2, [r4, #16]
    2cfc:	e7ef      	b.n	2cde <_scanf_float+0x2b2>
    2cfe:	f81b 1c01 	ldrb.w	r1, [r11, #-1]
    2d02:	6922      	ldr	r2, [r4, #16]
    2d04:	f10b 35ff 	add.w	r5, r11, #4294967295
    2d08:	1e53      	subs	r3, r2, #1
    2d0a:	2965      	cmp	r1, #101	; 0x65
    2d0c:	6123      	str	r3, [r4, #16]
    2d0e:	d00d      	beq.n	2d2c <_scanf_float+0x300>
    2d10:	2945      	cmp	r1, #69	; 0x45
    2d12:	d00b      	beq.n	2d2c <_scanf_float+0x300>
    2d14:	f8d4 517c 	ldr.w	r5, [r4, #380]	; 0x17c
    2d18:	4632      	mov	r2, r6
    2d1a:	4638      	mov	r0, r7
    2d1c:	47a8      	blx	r5
    2d1e:	6920      	ldr	r0, [r4, #16]
    2d20:	f81b 1c02 	ldrb.w	r1, [r11, #-2]
    2d24:	1e42      	subs	r2, r0, #1
    2d26:	f1ab 0502 	sub.w	r5, r11, #2
    2d2a:	6122      	str	r2, [r4, #16]
    2d2c:	f8d4 317c 	ldr.w	r3, [r4, #380]	; 0x17c
    2d30:	4638      	mov	r0, r7
    2d32:	4632      	mov	r2, r6
    2d34:	4798      	blx	r3
    2d36:	46ab      	mov	r11, r5
    2d38:	6821      	ldr	r1, [r4, #0]
    2d3a:	f011 0210 	ands.w	r2, r1, #16
    2d3e:	d14b      	bne.n	2dd8 <_scanf_float+0x3ac>
    2d40:	f88b 2000 	strb.w	r2, [r11]
    2d44:	6826      	ldr	r6, [r4, #0]
    2d46:	f406 65c0 	and.w	r5, r6, #1536	; 0x600
    2d4a:	f5b5 6f80 	cmp.w	r5, #1024	; 0x400
    2d4e:	d106      	bne.n	2d5e <_scanf_float+0x332>
    2d50:	9804      	ldr	r0, [sp, #16]
    2d52:	ebc0 030a 	rsb	r3, r0, r10
    2d56:	425a      	negs	r2, r3
    2d58:	b1a3      	cbz	r3, 2d84 <_scanf_float+0x358>
    2d5a:	46d9      	mov	r9, r11
    2d5c:	e008      	b.n	2d70 <_scanf_float+0x344>
    2d5e:	9e05      	ldr	r6, [sp, #20]
    2d60:	b186      	cbz	r6, 2d84 <_scanf_float+0x358>
    2d62:	4638      	mov	r0, r7
    2d64:	f109 0101 	add.w	r1, r9, #1
    2d68:	230a      	movs	r3, #10
    2d6a:	f002 fbe9 	bl	5540 <_strtol_r>
    2d6e:	1b82      	subs	r2, r0, r6
    2d70:	f204 116f 	addw	r1, r4, #367	; 0x16f
    2d74:	4589      	cmp	r9, r1
    2d76:	bf28      	it	cs
    2d78:	f504 79b7 	addcs.w	r9, r4, #366	; 0x16e
    2d7c:	4648      	mov	r0, r9
    2d7e:	4918      	ldr	r1, [pc, #96]	; (2de0 <_scanf_float+0x3b4>)
    2d80:	f001 fe1a 	bl	49b8 <siprintf>
    2d84:	2200      	movs	r2, #0
    2d86:	4638      	mov	r0, r7
    2d88:	4641      	mov	r1, r8
    2d8a:	f001 fe51 	bl	4a30 <_strtod_r>
    2d8e:	6822      	ldr	r2, [r4, #0]
    2d90:	9d03      	ldr	r5, [sp, #12]
    2d92:	f012 0f02 	tst.w	r2, #2
    2d96:	4606      	mov	r6, r0
    2d98:	460f      	mov	r7, r1
    2d9a:	682b      	ldr	r3, [r5, #0]
    2d9c:	d002      	beq.n	2da4 <_scanf_float+0x378>
    2d9e:	1d18      	adds	r0, r3, #4
    2da0:	6028      	str	r0, [r5, #0]
    2da2:	e006      	b.n	2db2 <_scanf_float+0x386>
    2da4:	9d03      	ldr	r5, [sp, #12]
    2da6:	f012 0f04 	tst.w	r2, #4
    2daa:	f103 0204 	add.w	r2, r3, #4
    2dae:	602a      	str	r2, [r5, #0]
    2db0:	d003      	beq.n	2dba <_scanf_float+0x38e>
    2db2:	6819      	ldr	r1, [r3, #0]
    2db4:	e9c1 6700 	strd	r6, r7, [r1]
    2db8:	e00b      	b.n	2dd2 <_scanf_float+0x3a6>
    2dba:	681d      	ldr	r5, [r3, #0]
    2dbc:	f001 fdc6 	bl	494c <__fpclassifyd>
    2dc0:	b910      	cbnz	r0, 2dc8 <_scanf_float+0x39c>
    2dc2:	f001 fdf5 	bl	49b0 <nanf>
    2dc6:	e003      	b.n	2dd0 <_scanf_float+0x3a4>
    2dc8:	4630      	mov	r0, r6
    2dca:	4639      	mov	r1, r7
    2dcc:	f7fe fc2c 	bl	1628 <__aeabi_d2f>
    2dd0:	6028      	str	r0, [r5, #0]
    2dd2:	68e3      	ldr	r3, [r4, #12]
    2dd4:	1c5a      	adds	r2, r3, #1
    2dd6:	60e2      	str	r2, [r4, #12]
    2dd8:	2000      	movs	r0, #0
    2dda:	b007      	add	sp, #28
    2ddc:	e8bd 8ff0 	ldmia.w	sp!, {r4, r5, r6, r7, r8, r9, r10, r11, pc}
    2de0:	000062bb 	.word	0x000062bb

00002de4 <__swbuf_r>:
    2de4:	b570      	push	{r4, r5, r6, lr}
    2de6:	460e      	mov	r6, r1
    2de8:	4614      	mov	r4, r2
    2dea:	4605      	mov	r5, r0
    2dec:	b118      	cbz	r0, 2df6 <__swbuf_r+0x12>
    2dee:	6983      	ldr	r3, [r0, #24]
    2df0:	b90b      	cbnz	r3, 2df6 <__swbuf_r+0x12>
    2df2:	f001 f811 	bl	3e18 <__sinit>
    2df6:	4825      	ldr	r0, [pc, #148]	; (2e8c <__swbuf_r+0xa8>)
    2df8:	4284      	cmp	r4, r0
    2dfa:	d101      	bne.n	2e00 <__swbuf_r+0x1c>
    2dfc:	686c      	ldr	r4, [r5, #4]
    2dfe:	e008      	b.n	2e12 <__swbuf_r+0x2e>
    2e00:	4923      	ldr	r1, [pc, #140]	; (2e90 <__swbuf_r+0xac>)
    2e02:	428c      	cmp	r4, r1
    2e04:	d101      	bne.n	2e0a <__swbuf_r+0x26>
    2e06:	68ac      	ldr	r4, [r5, #8]
    2e08:	e003      	b.n	2e12 <__swbuf_r+0x2e>
    2e0a:	4a22      	ldr	r2, [pc, #136]	; (2e94 <__swbuf_r+0xb0>)
    2e0c:	4294      	cmp	r4, r2
    2e0e:	bf08      	it	eq
    2e10:	68ec      	ldreq	r4, [r5, #12]
    2e12:	89a0      	ldrh	r0, [r4, #12]
    2e14:	69a3      	ldr	r3, [r4, #24]
    2e16:	f000 0108 	and.w	r1, r0, #8
    2e1a:	b20a      	sxth	r2, r1
    2e1c:	60a3      	str	r3, [r4, #8]
    2e1e:	b10a      	cbz	r2, 2e24 <__swbuf_r+0x40>
    2e20:	6923      	ldr	r3, [r4, #16]
    2e22:	b95b      	cbnz	r3, 2e3c <__swbuf_r+0x58>
    2e24:	4628      	mov	r0, r5
    2e26:	4621      	mov	r1, r4
    2e28:	f000 f848 	bl	2ebc <__swsetup_r>
    2e2c:	b130      	cbz	r0, 2e3c <__swbuf_r+0x58>
    2e2e:	89a6      	ldrh	r6, [r4, #12]
    2e30:	2009      	movs	r0, #9
    2e32:	f046 0240 	orr.w	r2, r6, #64	; 0x40
    2e36:	81a2      	strh	r2, [r4, #12]
    2e38:	6028      	str	r0, [r5, #0]
    2e3a:	e00b      	b.n	2e54 <__swbuf_r+0x70>
    2e3c:	6820      	ldr	r0, [r4, #0]
    2e3e:	6921      	ldr	r1, [r4, #16]
    2e40:	6962      	ldr	r2, [r4, #20]
    2e42:	1a40      	subs	r0, r0, r1
    2e44:	4290      	cmp	r0, r2
    2e46:	b2f6      	uxtb	r6, r6
    2e48:	db07      	blt.n	2e5a <__swbuf_r+0x76>
    2e4a:	4628      	mov	r0, r5
    2e4c:	4621      	mov	r1, r4
    2e4e:	f000 feeb 	bl	3c28 <_fflush_r>
    2e52:	b110      	cbz	r0, 2e5a <__swbuf_r+0x76>
    2e54:	f04f 36ff 	mov.w	r6, #4294967295
    2e58:	e015      	b.n	2e86 <__swbuf_r+0xa2>
    2e5a:	68a3      	ldr	r3, [r4, #8]
    2e5c:	6822      	ldr	r2, [r4, #0]
    2e5e:	1e59      	subs	r1, r3, #1
    2e60:	60a1      	str	r1, [r4, #8]
    2e62:	f802 6b01 	strb.w	r6, [r2], #1
    2e66:	6963      	ldr	r3, [r4, #20]
    2e68:	3001      	adds	r0, #1
    2e6a:	4298      	cmp	r0, r3
    2e6c:	6022      	str	r2, [r4, #0]
    2e6e:	d004      	beq.n	2e7a <__swbuf_r+0x96>
    2e70:	89a1      	ldrh	r1, [r4, #12]
    2e72:	07cb      	lsls	r3, r1, #31
    2e74:	d507      	bpl.n	2e86 <__swbuf_r+0xa2>
    2e76:	2e0a      	cmp	r6, #10
    2e78:	d105      	bne.n	2e86 <__swbuf_r+0xa2>
    2e7a:	4628      	mov	r0, r5
    2e7c:	4621      	mov	r1, r4
    2e7e:	f000 fed3 	bl	3c28 <_fflush_r>
    2e82:	2800      	cmp	r0, #0
    2e84:	d1e6      	bne.n	2e54 <__swbuf_r+0x70>
    2e86:	4630      	mov	r0, r6
    2e88:	bd70      	pop	{r4, r5, r6, pc}
    2e8a:	bf00      	nop
    2e8c:	000063d0 	.word	0x000063d0
    2e90:	000063f0 	.word	0x000063f0
    2e94:	00006410 	.word	0x00006410

00002e98 <_write_r>:
    2e98:	b538      	push	{r3, r4, r5, lr}
    2e9a:	4c07      	ldr	r4, [pc, #28]	; (2eb8 <_write_r+0x20>)
    2e9c:	4605      	mov	r5, r0
    2e9e:	2000      	movs	r0, #0
    2ea0:	6020      	str	r0, [r4, #0]
    2ea2:	4608      	mov	r0, r1
    2ea4:	4611      	mov	r1, r2
    2ea6:	461a      	mov	r2, r3
    2ea8:	f7fd fa7c 	bl	3a4 <_write>
    2eac:	1c43      	adds	r3, r0, #1
    2eae:	d102      	bne.n	2eb6 <_write_r+0x1e>
    2eb0:	6823      	ldr	r3, [r4, #0]
    2eb2:	b103      	cbz	r3, 2eb6 <_write_r+0x1e>
    2eb4:	602b      	str	r3, [r5, #0]
    2eb6:	bd38      	pop	{r3, r4, r5, pc}
    2eb8:	100002d8 	.word	0x100002d8

00002ebc <__swsetup_r>:
    2ebc:	4a36      	ldr	r2, [pc, #216]	; (2f98 <__swsetup_r+0xdc>)
    2ebe:	b570      	push	{r4, r5, r6, lr}
    2ec0:	4605      	mov	r5, r0
    2ec2:	6810      	ldr	r0, [r2, #0]
    2ec4:	460c      	mov	r4, r1
    2ec6:	4616      	mov	r6, r2
    2ec8:	b118      	cbz	r0, 2ed2 <__swsetup_r+0x16>
    2eca:	6981      	ldr	r1, [r0, #24]
    2ecc:	b909      	cbnz	r1, 2ed2 <__swsetup_r+0x16>
    2ece:	f000 ffa3 	bl	3e18 <__sinit>
    2ed2:	4b32      	ldr	r3, [pc, #200]	; (2f9c <__swsetup_r+0xe0>)
    2ed4:	429c      	cmp	r4, r3
    2ed6:	d102      	bne.n	2ede <__swsetup_r+0x22>
    2ed8:	6832      	ldr	r2, [r6, #0]
    2eda:	6854      	ldr	r4, [r2, #4]
    2edc:	e00c      	b.n	2ef8 <__swsetup_r+0x3c>
    2ede:	4830      	ldr	r0, [pc, #192]	; (2fa0 <__swsetup_r+0xe4>)
    2ee0:	4284      	cmp	r4, r0
    2ee2:	d103      	bne.n	2eec <__swsetup_r+0x30>
    2ee4:	4b2c      	ldr	r3, [pc, #176]	; (2f98 <__swsetup_r+0xdc>)
    2ee6:	6818      	ldr	r0, [r3, #0]
    2ee8:	6884      	ldr	r4, [r0, #8]
    2eea:	e005      	b.n	2ef8 <__swsetup_r+0x3c>
    2eec:	4a2d      	ldr	r2, [pc, #180]	; (2fa4 <__swsetup_r+0xe8>)
    2eee:	4294      	cmp	r4, r2
    2ef0:	d102      	bne.n	2ef8 <__swsetup_r+0x3c>
    2ef2:	4c29      	ldr	r4, [pc, #164]	; (2f98 <__swsetup_r+0xdc>)
    2ef4:	6821      	ldr	r1, [r4, #0]
    2ef6:	68cc      	ldr	r4, [r1, #12]
    2ef8:	89a1      	ldrh	r1, [r4, #12]
    2efa:	f001 0308 	and.w	r3, r1, #8
    2efe:	b218      	sxth	r0, r3
    2f00:	bb08      	cbnz	r0, 2f46 <__swsetup_r+0x8a>
    2f02:	f001 0210 	and.w	r2, r1, #16
    2f06:	b213      	sxth	r3, r2
    2f08:	b913      	cbnz	r3, 2f10 <__swsetup_r+0x54>
    2f0a:	f04f 30ff 	mov.w	r0, #4294967295
    2f0e:	bd70      	pop	{r4, r5, r6, pc}
    2f10:	f001 0104 	and.w	r1, r1, #4
    2f14:	b208      	sxth	r0, r1
    2f16:	b190      	cbz	r0, 2f3e <__swsetup_r+0x82>
    2f18:	6b61      	ldr	r1, [r4, #52]	; 0x34
    2f1a:	b141      	cbz	r1, 2f2e <__swsetup_r+0x72>
    2f1c:	f104 0244 	add.w	r2, r4, #68	; 0x44
    2f20:	4291      	cmp	r1, r2
    2f22:	d002      	beq.n	2f2a <__swsetup_r+0x6e>
    2f24:	4628      	mov	r0, r5
    2f26:	f000 ffdf 	bl	3ee8 <_free_r>
    2f2a:	2300      	movs	r3, #0
    2f2c:	6363      	str	r3, [r4, #52]	; 0x34
    2f2e:	89a1      	ldrh	r1, [r4, #12]
    2f30:	6923      	ldr	r3, [r4, #16]
    2f32:	f021 0024 	bic.w	r0, r1, #36	; 0x24
    2f36:	2200      	movs	r2, #0
    2f38:	81a0      	strh	r0, [r4, #12]
    2f3a:	6062      	str	r2, [r4, #4]
    2f3c:	6023      	str	r3, [r4, #0]
    2f3e:	89a1      	ldrh	r1, [r4, #12]
    2f40:	f041 0008 	orr.w	r0, r1, #8
    2f44:	81a0      	strh	r0, [r4, #12]
    2f46:	6922      	ldr	r2, [r4, #16]
    2f48:	b94a      	cbnz	r2, 2f5e <__swsetup_r+0xa2>
    2f4a:	89a3      	ldrh	r3, [r4, #12]
    2f4c:	f403 7120 	and.w	r1, r3, #640	; 0x280
    2f50:	f5b1 7f00 	cmp.w	r1, #512	; 0x200
    2f54:	d003      	beq.n	2f5e <__swsetup_r+0xa2>
    2f56:	4628      	mov	r0, r5
    2f58:	4621      	mov	r1, r4
    2f5a:	f001 f81f 	bl	3f9c <__smakebuf_r>
    2f5e:	89a0      	ldrh	r0, [r4, #12]
    2f60:	f010 0201 	ands.w	r2, r0, #1
    2f64:	d005      	beq.n	2f72 <__swsetup_r+0xb6>
    2f66:	6963      	ldr	r3, [r4, #20]
    2f68:	2200      	movs	r2, #0
    2f6a:	4259      	negs	r1, r3
    2f6c:	60a2      	str	r2, [r4, #8]
    2f6e:	61a1      	str	r1, [r4, #24]
    2f70:	e007      	b.n	2f82 <__swsetup_r+0xc6>
    2f72:	f000 0302 	and.w	r3, r0, #2
    2f76:	b219      	sxth	r1, r3
    2f78:	b909      	cbnz	r1, 2f7e <__swsetup_r+0xc2>
    2f7a:	6960      	ldr	r0, [r4, #20]
    2f7c:	e000      	b.n	2f80 <__swsetup_r+0xc4>
    2f7e:	4610      	mov	r0, r2
    2f80:	60a0      	str	r0, [r4, #8]
    2f82:	6920      	ldr	r0, [r4, #16]
    2f84:	b930      	cbnz	r0, 2f94 <__swsetup_r+0xd8>
    2f86:	89a2      	ldrh	r2, [r4, #12]
    2f88:	f002 0380 	and.w	r3, r2, #128	; 0x80
    2f8c:	b218      	sxth	r0, r3
    2f8e:	2800      	cmp	r0, #0
    2f90:	d1bb      	bne.n	2f0a <__swsetup_r+0x4e>
    2f92:	bd70      	pop	{r4, r5, r6, pc}
    2f94:	2000      	movs	r0, #0
    2f96:	bd70      	pop	{r4, r5, r6, pc}
    2f98:	10000130 	.word	0x10000130
    2f9c:	000063d0 	.word	0x000063d0
    2fa0:	000063f0 	.word	0x000063f0
    2fa4:	00006410 	.word	0x00006410

00002fa8 <_close_r>:
    2fa8:	b538      	push	{r3, r4, r5, lr}
    2faa:	4c06      	ldr	r4, [pc, #24]	; (2fc4 <_close_r+0x1c>)
    2fac:	2300      	movs	r3, #0
    2fae:	4605      	mov	r5, r0
    2fb0:	4608      	mov	r0, r1
    2fb2:	6023      	str	r3, [r4, #0]
    2fb4:	f7fd f9e0 	bl	378 <_close>
    2fb8:	1c43      	adds	r3, r0, #1
    2fba:	d102      	bne.n	2fc2 <_close_r+0x1a>
    2fbc:	6821      	ldr	r1, [r4, #0]
    2fbe:	b101      	cbz	r1, 2fc2 <_close_r+0x1a>
    2fc0:	6029      	str	r1, [r5, #0]
    2fc2:	bd38      	pop	{r3, r4, r5, pc}
    2fc4:	100002d8 	.word	0x100002d8

00002fc8 <quorem>:
    2fc8:	e92d 4ff7 	stmdb	sp!, {r0, r1, r2, r4, r5, r6, r7, r8, r9, r10, r11, lr}
    2fcc:	690b      	ldr	r3, [r1, #16]
    2fce:	6902      	ldr	r2, [r0, #16]
    2fd0:	4605      	mov	r5, r0
    2fd2:	429a      	cmp	r2, r3
    2fd4:	f2c0 8082 	blt.w	30dc <quorem+0x114>
    2fd8:	1cd8      	adds	r0, r3, #3
    2fda:	0086      	lsls	r6, r0, #2
    2fdc:	198a      	adds	r2, r1, r6
    2fde:	6850      	ldr	r0, [r2, #4]
    2fe0:	1e5c      	subs	r4, r3, #1
    2fe2:	19ab      	adds	r3, r5, r6
    2fe4:	f102 0904 	add.w	r9, r2, #4
    2fe8:	685a      	ldr	r2, [r3, #4]
    2fea:	1c46      	adds	r6, r0, #1
    2fec:	fbb2 f6f6 	udiv	r6, r2, r6
    2ff0:	f101 0814 	add.w	r8, r1, #20
    2ff4:	f105 0714 	add.w	r7, r5, #20
    2ff8:	2e00      	cmp	r6, #0
    2ffa:	d03d      	beq.n	3078 <quorem+0xb0>
    2ffc:	2000      	movs	r0, #0
    2ffe:	463a      	mov	r2, r7
    3000:	f8cd 8004 	str.w	r8, [sp, #4]
    3004:	4686      	mov	lr, r0
    3006:	9b01      	ldr	r3, [sp, #4]
    3008:	f853 cb04 	ldr.w	r12, [r3], #4
    300c:	fa1f fa8c 	uxth.w	r10, r12
    3010:	fb06 0a0a 	mla	r10, r6, r10, r0
    3014:	ea4f 401c 	mov.w	r0, r12, lsr #16
    3018:	9301      	str	r3, [sp, #4]
    301a:	fb06 f300 	mul.w	r3, r6, r0
    301e:	eb03 4c1a 	add.w	r12, r3, r10, lsr #16
    3022:	6813      	ldr	r3, [r2, #0]
    3024:	ea4f 401c 	mov.w	r0, r12, lsr #16
    3028:	fa1f fb83 	uxth.w	r11, r3
    302c:	44de      	add	lr, r11
    302e:	fa1f fc8c 	uxth.w	r12, r12
    3032:	fa1f fa8a 	uxth.w	r10, r10
    3036:	ebca 0a0e 	rsb	r10, r10, lr
    303a:	ebcc 4313 	rsb	r3, r12, r3, lsr #16
    303e:	eb03 4c2a 	add.w	r12, r3, r10, asr #16
    3042:	9b01      	ldr	r3, [sp, #4]
    3044:	fa1f fa8a 	uxth.w	r10, r10
    3048:	ea4f 4e2c 	mov.w	lr, r12, asr #16
    304c:	454b      	cmp	r3, r9
    304e:	ea4a 4c0c 	orr.w	r12, r10, r12, lsl #16
    3052:	f842 cb04 	str.w	r12, [r2], #4
    3056:	d9d6      	bls.n	3006 <quorem+0x3e>
    3058:	1d22      	adds	r2, r4, #4
    305a:	eb05 0382 	add.w	r3, r5, r2, lsl #2
    305e:	6858      	ldr	r0, [r3, #4]
    3060:	b950      	cbnz	r0, 3078 <quorem+0xb0>
    3062:	42bb      	cmp	r3, r7
    3064:	461a      	mov	r2, r3
    3066:	d801      	bhi.n	306c <quorem+0xa4>
    3068:	612c      	str	r4, [r5, #16]
    306a:	e005      	b.n	3078 <quorem+0xb0>
    306c:	6810      	ldr	r0, [r2, #0]
    306e:	3b04      	subs	r3, #4
    3070:	2800      	cmp	r0, #0
    3072:	d1f9      	bne.n	3068 <quorem+0xa0>
    3074:	3c01      	subs	r4, #1
    3076:	e7f4      	b.n	3062 <quorem+0x9a>
    3078:	4628      	mov	r0, r5
    307a:	f001 fa47 	bl	450c <__mcmp>
    307e:	2800      	cmp	r0, #0
    3080:	db2a      	blt.n	30d8 <quorem+0x110>
    3082:	3601      	adds	r6, #1
    3084:	463b      	mov	r3, r7
    3086:	2000      	movs	r0, #0
    3088:	f858 eb04 	ldr.w	lr, [r8], #4
    308c:	681a      	ldr	r2, [r3, #0]
    308e:	fa1f f18e 	uxth.w	r1, lr
    3092:	fa1f fa82 	uxth.w	r10, r2
    3096:	ebc1 010a 	rsb	r1, r1, r10
    309a:	ea4f 4c1e 	mov.w	r12, lr, lsr #16
    309e:	1809      	adds	r1, r1, r0
    30a0:	ebcc 4012 	rsb	r0, r12, r2, lsr #16
    30a4:	eb00 4221 	add.w	r2, r0, r1, asr #16
    30a8:	b289      	uxth	r1, r1
    30aa:	1410      	asrs	r0, r2, #16
    30ac:	ea41 4202 	orr.w	r2, r1, r2, lsl #16
    30b0:	45c8      	cmp	r8, r9
    30b2:	f843 2b04 	str.w	r2, [r3], #4
    30b6:	d9e7      	bls.n	3088 <quorem+0xc0>
    30b8:	1d23      	adds	r3, r4, #4
    30ba:	eb05 0383 	add.w	r3, r5, r3, lsl #2
    30be:	6858      	ldr	r0, [r3, #4]
    30c0:	b950      	cbnz	r0, 30d8 <quorem+0x110>
    30c2:	42bb      	cmp	r3, r7
    30c4:	4619      	mov	r1, r3
    30c6:	d801      	bhi.n	30cc <quorem+0x104>
    30c8:	612c      	str	r4, [r5, #16]
    30ca:	e005      	b.n	30d8 <quorem+0x110>
    30cc:	680a      	ldr	r2, [r1, #0]
    30ce:	3b04      	subs	r3, #4
    30d0:	2a00      	cmp	r2, #0
    30d2:	d1f9      	bne.n	30c8 <quorem+0x100>
    30d4:	3c01      	subs	r4, #1
    30d6:	e7f4      	b.n	30c2 <quorem+0xfa>
    30d8:	4630      	mov	r0, r6
    30da:	e000      	b.n	30de <quorem+0x116>
    30dc:	2000      	movs	r0, #0
    30de:	e8bd 8ffe 	ldmia.w	sp!, {r1, r2, r3, r4, r5, r6, r7, r8, r9, r10, r11, pc}
    30e2:	0000      	movs	r0, r0
    30e4:	0000      	movs	r0, r0
	...

000030e8 <_dtoa_r>:
    30e8:	e92d 4ff0 	stmdb	sp!, {r4, r5, r6, r7, r8, r9, r10, r11, lr}
    30ec:	6a45      	ldr	r5, [r0, #36]	; 0x24
    30ee:	b099      	sub	sp, #100	; 0x64
    30f0:	4683      	mov	r11, r0
    30f2:	9c25      	ldr	r4, [sp, #148]	; 0x94
    30f4:	e9cd 2304 	strd	r2, r3, [sp, #16]
    30f8:	b945      	cbnz	r5, 310c <_dtoa_r+0x24>
    30fa:	2010      	movs	r0, #16
    30fc:	f7fe fdf6 	bl	1cec <malloc>
    3100:	f8cb 0024 	str.w	r0, [r11, #36]	; 0x24
    3104:	6045      	str	r5, [r0, #4]
    3106:	6085      	str	r5, [r0, #8]
    3108:	6005      	str	r5, [r0, #0]
    310a:	60c5      	str	r5, [r0, #12]
    310c:	f8db 3024 	ldr.w	r3, [r11, #36]	; 0x24
    3110:	6819      	ldr	r1, [r3, #0]
    3112:	b161      	cbz	r1, 312e <_dtoa_r+0x46>
    3114:	6858      	ldr	r0, [r3, #4]
    3116:	2201      	movs	r2, #1
    3118:	fa02 f600 	lsl.w	r6, r2, r0
    311c:	6048      	str	r0, [r1, #4]
    311e:	608e      	str	r6, [r1, #8]
    3120:	4658      	mov	r0, r11
    3122:	f000 ffd2 	bl	40ca <_Bfree>
    3126:	f8db 1024 	ldr.w	r1, [r11, #36]	; 0x24
    312a:	2700      	movs	r7, #0
    312c:	600f      	str	r7, [r1, #0]
    312e:	9b05      	ldr	r3, [sp, #20]
    3130:	2b00      	cmp	r3, #0
    3132:	da05      	bge.n	3140 <_dtoa_r+0x58>
    3134:	2201      	movs	r2, #1
    3136:	f023 4600 	bic.w	r6, r3, #2147483648	; 0x80000000
    313a:	6022      	str	r2, [r4, #0]
    313c:	9605      	str	r6, [sp, #20]
    313e:	e001      	b.n	3144 <_dtoa_r+0x5c>
    3140:	2000      	movs	r0, #0
    3142:	6020      	str	r0, [r4, #0]
    3144:	9f05      	ldr	r7, [sp, #20]
    3146:	499a      	ldr	r1, [pc, #616]	; (33b0 <_dtoa_r+0x2c8>)
    3148:	4b99      	ldr	r3, [pc, #612]	; (33b0 <_dtoa_r+0x2c8>)
    314a:	4039      	ands	r1, r7
    314c:	4299      	cmp	r1, r3
    314e:	d11c      	bne.n	318a <_dtoa_r+0xa2>
    3150:	9924      	ldr	r1, [sp, #144]	; 0x90
    3152:	9b04      	ldr	r3, [sp, #16]
    3154:	f242 720f 	movw	r2, #9999	; 0x270f
    3158:	600a      	str	r2, [r1, #0]
    315a:	b93b      	cbnz	r3, 316c <_dtoa_r+0x84>
    315c:	4e95      	ldr	r6, [pc, #596]	; (33b4 <_dtoa_r+0x2cc>)
    315e:	4896      	ldr	r0, [pc, #600]	; (33b8 <_dtoa_r+0x2d0>)
    3160:	f3c7 0713 	ubfx	r7, r7, #0, #20
    3164:	2f00      	cmp	r7, #0
    3166:	bf18      	it	ne
    3168:	4630      	movne	r0, r6
    316a:	e000      	b.n	316e <_dtoa_r+0x86>
    316c:	4891      	ldr	r0, [pc, #580]	; (33b4 <_dtoa_r+0x2cc>)
    316e:	9e26      	ldr	r6, [sp, #152]	; 0x98
    3170:	2e00      	cmp	r6, #0
    3172:	f000 8552 	beq.w	3c1a <_dtoa_r+0xb32>
    3176:	78c2      	ldrb	r2, [r0, #3]
    3178:	b112      	cbz	r2, 3180 <_dtoa_r+0x98>
    317a:	f100 0108 	add.w	r1, r0, #8
    317e:	e000      	b.n	3182 <_dtoa_r+0x9a>
    3180:	1cc1      	adds	r1, r0, #3
    3182:	9e26      	ldr	r6, [sp, #152]	; 0x98
    3184:	6031      	str	r1, [r6, #0]
    3186:	f000 bd48 	b.w	3c1a <_dtoa_r+0xb32>
    318a:	e9dd 4504 	ldrd	r4, r5, [sp, #16]
    318e:	2200      	movs	r2, #0
    3190:	4620      	mov	r0, r4
    3192:	4629      	mov	r1, r5
    3194:	2300      	movs	r3, #0
    3196:	f7fe f9ed 	bl	1574 <__aeabi_dcmpeq>
    319a:	b158      	cbz	r0, 31b4 <_dtoa_r+0xcc>
    319c:	9e24      	ldr	r6, [sp, #144]	; 0x90
    319e:	2301      	movs	r3, #1
    31a0:	6033      	str	r3, [r6, #0]
    31a2:	9e26      	ldr	r6, [sp, #152]	; 0x98
    31a4:	2e00      	cmp	r6, #0
    31a6:	f000 8535 	beq.w	3c14 <_dtoa_r+0xb2c>
    31aa:	4884      	ldr	r0, [pc, #528]	; (33bc <_dtoa_r+0x2d4>)
    31ac:	6030      	str	r0, [r6, #0]
    31ae:	3801      	subs	r0, #1
    31b0:	f000 bd33 	b.w	3c1a <_dtoa_r+0xb32>
    31b4:	a817      	add	r0, sp, #92	; 0x5c
    31b6:	aa16      	add	r2, sp, #88	; 0x58
    31b8:	9000      	str	r0, [sp, #0]
    31ba:	9201      	str	r2, [sp, #4]
    31bc:	4658      	mov	r0, r11
    31be:	4622      	mov	r2, r4
    31c0:	462b      	mov	r3, r5
    31c2:	f001 fa97 	bl	46f4 <__d2b>
    31c6:	f3c7 560a 	ubfx	r6, r7, #20, #11
    31ca:	4682      	mov	r10, r0
    31cc:	b166      	cbz	r6, 31e8 <_dtoa_r+0x100>
    31ce:	4620      	mov	r0, r4
    31d0:	f025 447f 	bic.w	r4, r5, #4278190080	; 0xff000000
    31d4:	f424 0570 	bic.w	r5, r4, #15728640	; 0xf00000
    31d8:	f045 517f 	orr.w	r1, r5, #1069547520	; 0x3fc00000
    31dc:	f441 1140 	orr.w	r1, r1, #3145728	; 0x300000
    31e0:	f2a6 36ff 	subw	r6, r6, #1023	; 0x3ff
    31e4:	2200      	movs	r2, #0
    31e6:	e01c      	b.n	3222 <_dtoa_r+0x13a>
    31e8:	9c17      	ldr	r4, [sp, #92]	; 0x5c
    31ea:	9d16      	ldr	r5, [sp, #88]	; 0x58
    31ec:	f46f 6182 	mvn.w	r1, #1040	; 0x410
    31f0:	192e      	adds	r6, r5, r4
    31f2:	428e      	cmp	r6, r1
    31f4:	db0a      	blt.n	320c <_dtoa_r+0x124>
    31f6:	4972      	ldr	r1, [pc, #456]	; (33c0 <_dtoa_r+0x2d8>)
    31f8:	9d04      	ldr	r5, [sp, #16]
    31fa:	f206 4412 	addw	r4, r6, #1042	; 0x412
    31fe:	1b8b      	subs	r3, r1, r6
    3200:	fa25 f004 	lsr.w	r0, r5, r4
    3204:	fa07 f703 	lsl.w	r7, r7, r3
    3208:	4338      	orrs	r0, r7
    320a:	e004      	b.n	3216 <_dtoa_r+0x12e>
    320c:	4b6d      	ldr	r3, [pc, #436]	; (33c4 <_dtoa_r+0x2dc>)
    320e:	9a04      	ldr	r2, [sp, #16]
    3210:	1b98      	subs	r0, r3, r6
    3212:	fa02 f000 	lsl.w	r0, r2, r0
    3216:	f7fd fecf 	bl	fb8 <__aeabi_ui2d>
    321a:	3e01      	subs	r6, #1
    321c:	f1a1 71f8 	sub.w	r1, r1, #32505856	; 0x1f00000
    3220:	2201      	movs	r2, #1
    3222:	9215      	str	r2, [sp, #84]	; 0x54
    3224:	4b68      	ldr	r3, [pc, #416]	; (33c8 <_dtoa_r+0x2e0>)
    3226:	2200      	movs	r2, #0
    3228:	f7fd fd88 	bl	d3c <__aeabi_dsub>
    322c:	a35a      	add	r3, pc, #360	; (adr r3, 3398 <_dtoa_r+0x2b0>)
    322e:	e9d3 2300 	ldrd	r2, r3, [r3]
    3232:	f7fd ff37 	bl	10a4 <__aeabi_dmul>
    3236:	a35a      	add	r3, pc, #360	; (adr r3, 33a0 <_dtoa_r+0x2b8>)
    3238:	e9d3 2300 	ldrd	r2, r3, [r3]
    323c:	f7fd fd80 	bl	d40 <__adddf3>
    3240:	4604      	mov	r4, r0
    3242:	4630      	mov	r0, r6
    3244:	460d      	mov	r5, r1
    3246:	f7fd fec7 	bl	fd8 <__aeabi_i2d>
    324a:	a357      	add	r3, pc, #348	; (adr r3, 33a8 <_dtoa_r+0x2c0>)
    324c:	e9d3 2300 	ldrd	r2, r3, [r3]
    3250:	f7fd ff28 	bl	10a4 <__aeabi_dmul>
    3254:	4602      	mov	r2, r0
    3256:	460b      	mov	r3, r1
    3258:	4620      	mov	r0, r4
    325a:	4629      	mov	r1, r5
    325c:	f7fd fd70 	bl	d40 <__adddf3>
    3260:	4604      	mov	r4, r0
    3262:	460d      	mov	r5, r1
    3264:	f7fe f9b8 	bl	15d8 <__aeabi_d2iz>
    3268:	4629      	mov	r1, r5
    326a:	4681      	mov	r9, r0
    326c:	2200      	movs	r2, #0
    326e:	4620      	mov	r0, r4
    3270:	2300      	movs	r3, #0
    3272:	f7fe f989 	bl	1588 <__aeabi_dcmplt>
    3276:	b158      	cbz	r0, 3290 <_dtoa_r+0x1a8>
    3278:	4648      	mov	r0, r9
    327a:	f7fd fead 	bl	fd8 <__aeabi_i2d>
    327e:	4602      	mov	r2, r0
    3280:	460b      	mov	r3, r1
    3282:	4620      	mov	r0, r4
    3284:	4629      	mov	r1, r5
    3286:	f7fe f975 	bl	1574 <__aeabi_dcmpeq>
    328a:	b908      	cbnz	r0, 3290 <_dtoa_r+0x1a8>
    328c:	f109 39ff 	add.w	r9, r9, #4294967295
    3290:	f1b9 0f16 	cmp.w	r9, #22
    3294:	d80e      	bhi.n	32b4 <_dtoa_r+0x1cc>
    3296:	484d      	ldr	r0, [pc, #308]	; (33cc <_dtoa_r+0x2e4>)
    3298:	eb00 03c9 	add.w	r3, r0, r9, lsl #3
    329c:	e9d3 0100 	ldrd	r0, r1, [r3]
    32a0:	e9dd 2304 	ldrd	r2, r3, [sp, #16]
    32a4:	f7fe f98e 	bl	15c4 <__aeabi_dcmpgt>
    32a8:	b128      	cbz	r0, 32b6 <_dtoa_r+0x1ce>
    32aa:	2200      	movs	r2, #0
    32ac:	f109 39ff 	add.w	r9, r9, #4294967295
    32b0:	9214      	str	r2, [sp, #80]	; 0x50
    32b2:	e001      	b.n	32b8 <_dtoa_r+0x1d0>
    32b4:	2001      	movs	r0, #1
    32b6:	9014      	str	r0, [sp, #80]	; 0x50
    32b8:	9916      	ldr	r1, [sp, #88]	; 0x58
    32ba:	1b8e      	subs	r6, r1, r6
    32bc:	1e74      	subs	r4, r6, #1
    32be:	d504      	bpl.n	32ca <_dtoa_r+0x1e2>
    32c0:	4265      	negs	r5, r4
    32c2:	2000      	movs	r0, #0
    32c4:	9508      	str	r5, [sp, #32]
    32c6:	9009      	str	r0, [sp, #36]	; 0x24
    32c8:	e002      	b.n	32d0 <_dtoa_r+0x1e8>
    32ca:	2300      	movs	r3, #0
    32cc:	9409      	str	r4, [sp, #36]	; 0x24
    32ce:	9308      	str	r3, [sp, #32]
    32d0:	f1b9 0f00 	cmp.w	r9, #0
    32d4:	db08      	blt.n	32e8 <_dtoa_r+0x200>
    32d6:	9d09      	ldr	r5, [sp, #36]	; 0x24
    32d8:	2300      	movs	r3, #0
    32da:	eb05 0009 	add.w	r0, r5, r9
    32de:	9009      	str	r0, [sp, #36]	; 0x24
    32e0:	f8cd 9044 	str.w	r9, [sp, #68]	; 0x44
    32e4:	930c      	str	r3, [sp, #48]	; 0x30
    32e6:	e008      	b.n	32fa <_dtoa_r+0x212>
    32e8:	9a08      	ldr	r2, [sp, #32]
    32ea:	f1c9 0600 	rsb	r6, r9, #0
    32ee:	ebc9 0102 	rsb	r1, r9, r2
    32f2:	2400      	movs	r4, #0
    32f4:	9108      	str	r1, [sp, #32]
    32f6:	960c      	str	r6, [sp, #48]	; 0x30
    32f8:	9411      	str	r4, [sp, #68]	; 0x44
    32fa:	9a22      	ldr	r2, [sp, #136]	; 0x88
    32fc:	2a09      	cmp	r2, #9
    32fe:	d827      	bhi.n	3350 <_dtoa_r+0x268>
    3300:	2a05      	cmp	r2, #5
    3302:	dd03      	ble.n	330c <_dtoa_r+0x224>
    3304:	1f11      	subs	r1, r2, #4
    3306:	9122      	str	r1, [sp, #136]	; 0x88
    3308:	2500      	movs	r5, #0
    330a:	e000      	b.n	330e <_dtoa_r+0x226>
    330c:	2501      	movs	r5, #1
    330e:	9e22      	ldr	r6, [sp, #136]	; 0x88
    3310:	1eb4      	subs	r4, r6, #2
    3312:	2c03      	cmp	r4, #3
    3314:	d821      	bhi.n	335a <_dtoa_r+0x272>
    3316:	e8df f004 	tbb	[pc, r4]
    331a:	0f06      	.short	0x0f06
    331c:	0402      	.short	0x0402
    331e:	2301      	movs	r3, #1
    3320:	e002      	b.n	3328 <_dtoa_r+0x240>
    3322:	2001      	movs	r0, #1
    3324:	e009      	b.n	333a <_dtoa_r+0x252>
    3326:	2300      	movs	r3, #0
    3328:	9a23      	ldr	r2, [sp, #140]	; 0x8c
    332a:	930d      	str	r3, [sp, #52]	; 0x34
    332c:	2a00      	cmp	r2, #0
    332e:	dd1e      	ble.n	336e <_dtoa_r+0x286>
    3330:	920b      	str	r2, [sp, #44]	; 0x2c
    3332:	9207      	str	r2, [sp, #28]
    3334:	4613      	mov	r3, r2
    3336:	e01f      	b.n	3378 <_dtoa_r+0x290>
    3338:	2000      	movs	r0, #0
    333a:	9c23      	ldr	r4, [sp, #140]	; 0x8c
    333c:	900d      	str	r0, [sp, #52]	; 0x34
    333e:	eb04 0009 	add.w	r0, r4, r9
    3342:	1c43      	adds	r3, r0, #1
    3344:	2b00      	cmp	r3, #0
    3346:	900b      	str	r0, [sp, #44]	; 0x2c
    3348:	9307      	str	r3, [sp, #28]
    334a:	dc15      	bgt.n	3378 <_dtoa_r+0x290>
    334c:	2301      	movs	r3, #1
    334e:	e013      	b.n	3378 <_dtoa_r+0x290>
    3350:	2501      	movs	r5, #1
    3352:	2200      	movs	r2, #0
    3354:	9222      	str	r2, [sp, #136]	; 0x88
    3356:	950d      	str	r5, [sp, #52]	; 0x34
    3358:	e001      	b.n	335e <_dtoa_r+0x276>
    335a:	2601      	movs	r6, #1
    335c:	960d      	str	r6, [sp, #52]	; 0x34
    335e:	f04f 31ff 	mov.w	r1, #4294967295
    3362:	2600      	movs	r6, #0
    3364:	910b      	str	r1, [sp, #44]	; 0x2c
    3366:	9107      	str	r1, [sp, #28]
    3368:	2312      	movs	r3, #18
    336a:	9623      	str	r6, [sp, #140]	; 0x8c
    336c:	e004      	b.n	3378 <_dtoa_r+0x290>
    336e:	2101      	movs	r1, #1
    3370:	910b      	str	r1, [sp, #44]	; 0x2c
    3372:	9107      	str	r1, [sp, #28]
    3374:	460b      	mov	r3, r1
    3376:	9123      	str	r1, [sp, #140]	; 0x8c
    3378:	f8db 4024 	ldr.w	r4, [r11, #36]	; 0x24
    337c:	2000      	movs	r0, #0
    337e:	6060      	str	r0, [r4, #4]
    3380:	2104      	movs	r1, #4
    3382:	f101 0214 	add.w	r2, r1, #20
    3386:	429a      	cmp	r2, r3
    3388:	d822      	bhi.n	33d0 <_dtoa_r+0x2e8>
    338a:	6860      	ldr	r0, [r4, #4]
    338c:	0049      	lsls	r1, r1, #1
    338e:	1c42      	adds	r2, r0, #1
    3390:	6062      	str	r2, [r4, #4]
    3392:	e7f6      	b.n	3382 <_dtoa_r+0x29a>
    3394:	f3af 8000 	nop.w
    3398:	636f4361 	.word	0x636f4361
    339c:	3fd287a7 	.word	0x3fd287a7
    33a0:	8b60c8b3 	.word	0x8b60c8b3
    33a4:	3fc68a28 	.word	0x3fc68a28
    33a8:	509f79fb 	.word	0x509f79fb
    33ac:	3fd34413 	.word	0x3fd34413
    33b0:	7ff00000 	.word	0x7ff00000
    33b4:	000063ca 	.word	0x000063ca
    33b8:	000063c1 	.word	0x000063c1
    33bc:	000063cf 	.word	0x000063cf
    33c0:	fffffc0e 	.word	0xfffffc0e
    33c4:	fffffbee 	.word	0xfffffbee
    33c8:	3ff80000 	.word	0x3ff80000
    33cc:	00006438 	.word	0x00006438
    33d0:	6861      	ldr	r1, [r4, #4]
    33d2:	4658      	mov	r0, r11
    33d4:	f000 fe44 	bl	4060 <_Balloc>
    33d8:	6020      	str	r0, [r4, #0]
    33da:	f8db 4024 	ldr.w	r4, [r11, #36]	; 0x24
    33de:	9907      	ldr	r1, [sp, #28]
    33e0:	6823      	ldr	r3, [r4, #0]
    33e2:	290e      	cmp	r1, #14
    33e4:	930a      	str	r3, [sp, #40]	; 0x28
    33e6:	f200 815e 	bhi.w	36a6 <_dtoa_r+0x5be>
    33ea:	2d00      	cmp	r5, #0
    33ec:	f000 815b 	beq.w	36a6 <_dtoa_r+0x5be>
    33f0:	f1b9 0f00 	cmp.w	r9, #0
    33f4:	e9dd 0104 	ldrd	r0, r1, [sp, #16]
    33f8:	e9cd 0112 	strd	r0, r1, [sp, #72]	; 0x48
    33fc:	dd33      	ble.n	3466 <_dtoa_r+0x37e>
    33fe:	4b9d      	ldr	r3, [pc, #628]	; (3674 <_dtoa_r+0x58c>)
    3400:	f009 070f 	and.w	r7, r9, #15
    3404:	eb03 06c7 	add.w	r6, r3, r7, lsl #3
    3408:	e9d6 4500 	ldrd	r4, r5, [r6]
    340c:	ea4f 1629 	mov.w	r6, r9, asr #4
    3410:	06f2      	lsls	r2, r6, #27
    3412:	d50c      	bpl.n	342e <_dtoa_r+0x346>
    3414:	4a98      	ldr	r2, [pc, #608]	; (3678 <_dtoa_r+0x590>)
    3416:	f006 060f 	and.w	r6, r6, #15
    341a:	f102 0320 	add.w	r3, r2, #32
    341e:	e9d3 2300 	ldrd	r2, r3, [r3]
    3422:	f7fd ff69 	bl	12f8 <__aeabi_ddiv>
    3426:	2703      	movs	r7, #3
    3428:	e9cd 0104 	strd	r0, r1, [sp, #16]
    342c:	e000      	b.n	3430 <_dtoa_r+0x348>
    342e:	2702      	movs	r7, #2
    3430:	f8df 8244 	ldr.w	r8, [pc, #580]	; 3678 <_dtoa_r+0x590>
    3434:	b176      	cbz	r6, 3454 <_dtoa_r+0x36c>
    3436:	07f3      	lsls	r3, r6, #31
    3438:	d508      	bpl.n	344c <_dtoa_r+0x364>
    343a:	4620      	mov	r0, r4
    343c:	4629      	mov	r1, r5
    343e:	e9d8 2300 	ldrd	r2, r3, [r8]
    3442:	f7fd fe2f 	bl	10a4 <__aeabi_dmul>
    3446:	3701      	adds	r7, #1
    3448:	4604      	mov	r4, r0
    344a:	460d      	mov	r5, r1
    344c:	1076      	asrs	r6, r6, #1
    344e:	f108 0808 	add.w	r8, r8, #8
    3452:	e7ef      	b.n	3434 <_dtoa_r+0x34c>
    3454:	e9dd 0104 	ldrd	r0, r1, [sp, #16]
    3458:	4622      	mov	r2, r4
    345a:	462b      	mov	r3, r5
    345c:	f7fd ff4c 	bl	12f8 <__aeabi_ddiv>
    3460:	e9cd 0104 	strd	r0, r1, [sp, #16]
    3464:	e020      	b.n	34a8 <_dtoa_r+0x3c0>
    3466:	f1c9 0700 	rsb	r7, r9, #0
    346a:	b1e7      	cbz	r7, 34a6 <_dtoa_r+0x3be>
    346c:	4e81      	ldr	r6, [pc, #516]	; (3674 <_dtoa_r+0x58c>)
    346e:	f007 050f 	and.w	r5, r7, #15
    3472:	eb06 02c5 	add.w	r2, r6, r5, lsl #3
    3476:	e9dd 0112 	ldrd	r0, r1, [sp, #72]	; 0x48
    347a:	ca0c      	ldmia	r2, {r2, r3}
    347c:	f7fd fe12 	bl	10a4 <__aeabi_dmul>
    3480:	4d7d      	ldr	r5, [pc, #500]	; (3678 <_dtoa_r+0x590>)
    3482:	113c      	asrs	r4, r7, #4
    3484:	2702      	movs	r7, #2
    3486:	b14c      	cbz	r4, 349c <_dtoa_r+0x3b4>
    3488:	07e6      	lsls	r6, r4, #31
    348a:	d504      	bpl.n	3496 <_dtoa_r+0x3ae>
    348c:	e9d5 2300 	ldrd	r2, r3, [r5]
    3490:	3701      	adds	r7, #1
    3492:	f7fd fe07 	bl	10a4 <__aeabi_dmul>
    3496:	1064      	asrs	r4, r4, #1
    3498:	3508      	adds	r5, #8
    349a:	e7f4      	b.n	3486 <_dtoa_r+0x39e>
    349c:	4602      	mov	r2, r0
    349e:	460b      	mov	r3, r1
    34a0:	e9cd 2304 	strd	r2, r3, [sp, #16]
    34a4:	e000      	b.n	34a8 <_dtoa_r+0x3c0>
    34a6:	2702      	movs	r7, #2
    34a8:	9814      	ldr	r0, [sp, #80]	; 0x50
    34aa:	b1e0      	cbz	r0, 34e6 <_dtoa_r+0x3fe>
    34ac:	e9dd 4504 	ldrd	r4, r5, [sp, #16]
    34b0:	2200      	movs	r2, #0
    34b2:	4620      	mov	r0, r4
    34b4:	4629      	mov	r1, r5
    34b6:	4b71      	ldr	r3, [pc, #452]	; (367c <_dtoa_r+0x594>)
    34b8:	f7fe f866 	bl	1588 <__aeabi_dcmplt>
    34bc:	b198      	cbz	r0, 34e6 <_dtoa_r+0x3fe>
    34be:	9907      	ldr	r1, [sp, #28]
    34c0:	b189      	cbz	r1, 34e6 <_dtoa_r+0x3fe>
    34c2:	9b0b      	ldr	r3, [sp, #44]	; 0x2c
    34c4:	2b00      	cmp	r3, #0
    34c6:	f340 80ea 	ble.w	369e <_dtoa_r+0x5b6>
    34ca:	4620      	mov	r0, r4
    34cc:	f109 36ff 	add.w	r6, r9, #4294967295
    34d0:	4629      	mov	r1, r5
    34d2:	2200      	movs	r2, #0
    34d4:	4b6a      	ldr	r3, [pc, #424]	; (3680 <_dtoa_r+0x598>)
    34d6:	9610      	str	r6, [sp, #64]	; 0x40
    34d8:	f7fd fde4 	bl	10a4 <__aeabi_dmul>
    34dc:	3701      	adds	r7, #1
    34de:	e9cd 0104 	strd	r0, r1, [sp, #16]
    34e2:	9c0b      	ldr	r4, [sp, #44]	; 0x2c
    34e4:	e002      	b.n	34ec <_dtoa_r+0x404>
    34e6:	9c07      	ldr	r4, [sp, #28]
    34e8:	f8cd 9040 	str.w	r9, [sp, #64]	; 0x40
    34ec:	4638      	mov	r0, r7
    34ee:	f7fd fd73 	bl	fd8 <__aeabi_i2d>
    34f2:	e9dd 2304 	ldrd	r2, r3, [sp, #16]
    34f6:	f7fd fdd5 	bl	10a4 <__aeabi_dmul>
    34fa:	2200      	movs	r2, #0
    34fc:	4b61      	ldr	r3, [pc, #388]	; (3684 <_dtoa_r+0x59c>)
    34fe:	f7fd fc1f 	bl	d40 <__adddf3>
    3502:	f1a1 7550 	sub.w	r5, r1, #54525952	; 0x3400000
    3506:	4606      	mov	r6, r0
    3508:	462f      	mov	r7, r5
    350a:	b9cc      	cbnz	r4, 3540 <_dtoa_r+0x458>
    350c:	e9dd 0104 	ldrd	r0, r1, [sp, #16]
    3510:	2200      	movs	r2, #0
    3512:	4b5d      	ldr	r3, [pc, #372]	; (3688 <_dtoa_r+0x5a0>)
    3514:	f7fd fc12 	bl	d3c <__aeabi_dsub>
    3518:	4632      	mov	r2, r6
    351a:	462b      	mov	r3, r5
    351c:	e9cd 0104 	strd	r0, r1, [sp, #16]
    3520:	f7fe f850 	bl	15c4 <__aeabi_dcmpgt>
    3524:	2800      	cmp	r0, #0
    3526:	f040 8247 	bne.w	39b8 <_dtoa_r+0x8d0>
    352a:	e9dd 0104 	ldrd	r0, r1, [sp, #16]
    352e:	4632      	mov	r2, r6
    3530:	f105 4300 	add.w	r3, r5, #2147483648	; 0x80000000
    3534:	f7fe f828 	bl	1588 <__aeabi_dcmplt>
    3538:	2800      	cmp	r0, #0
    353a:	f040 8236 	bne.w	39aa <_dtoa_r+0x8c2>
    353e:	e0ae      	b.n	369e <_dtoa_r+0x5b6>
    3540:	484c      	ldr	r0, [pc, #304]	; (3674 <_dtoa_r+0x58c>)
    3542:	990d      	ldr	r1, [sp, #52]	; 0x34
    3544:	1e62      	subs	r2, r4, #1
    3546:	eb00 03c2 	add.w	r3, r0, r2, lsl #3
    354a:	2900      	cmp	r1, #0
    354c:	d04b      	beq.n	35e6 <_dtoa_r+0x4fe>
    354e:	e9d3 2300 	ldrd	r2, r3, [r3]
    3552:	2000      	movs	r0, #0
    3554:	494d      	ldr	r1, [pc, #308]	; (368c <_dtoa_r+0x5a4>)
    3556:	f7fd fecf 	bl	12f8 <__aeabi_ddiv>
    355a:	4632      	mov	r2, r6
    355c:	462b      	mov	r3, r5
    355e:	f7fd fbed 	bl	d3c <__aeabi_dsub>
    3562:	e9dd 6704 	ldrd	r6, r7, [sp, #16]
    3566:	e9cd 010e 	strd	r0, r1, [sp, #56]	; 0x38
    356a:	9d0a      	ldr	r5, [sp, #40]	; 0x28
    356c:	4639      	mov	r1, r7
    356e:	4630      	mov	r0, r6
    3570:	f7fe f832 	bl	15d8 <__aeabi_d2iz>
    3574:	4680      	mov	r8, r0
    3576:	f7fd fd2f 	bl	fd8 <__aeabi_i2d>
    357a:	4602      	mov	r2, r0
    357c:	460b      	mov	r3, r1
    357e:	4630      	mov	r0, r6
    3580:	4639      	mov	r1, r7
    3582:	f7fd fbdb 	bl	d3c <__aeabi_dsub>
    3586:	f108 0330 	add.w	r3, r8, #48	; 0x30
    358a:	f805 3b01 	strb.w	r3, [r5], #1
    358e:	e9dd 230e 	ldrd	r2, r3, [sp, #56]	; 0x38
    3592:	4606      	mov	r6, r0
    3594:	460f      	mov	r7, r1
    3596:	46a8      	mov	r8, r5
    3598:	f7fd fff6 	bl	1588 <__aeabi_dcmplt>
    359c:	2800      	cmp	r0, #0
    359e:	f040 8327 	bne.w	3bf0 <_dtoa_r+0xb08>
    35a2:	4632      	mov	r2, r6
    35a4:	463b      	mov	r3, r7
    35a6:	2000      	movs	r0, #0
    35a8:	4934      	ldr	r1, [pc, #208]	; (367c <_dtoa_r+0x594>)
    35aa:	f7fd fbc7 	bl	d3c <__aeabi_dsub>
    35ae:	e9dd 230e 	ldrd	r2, r3, [sp, #56]	; 0x38
    35b2:	f7fd ffe9 	bl	1588 <__aeabi_dcmplt>
    35b6:	2800      	cmp	r0, #0
    35b8:	f040 80d3 	bne.w	3762 <_dtoa_r+0x67a>
    35bc:	990a      	ldr	r1, [sp, #40]	; 0x28
    35be:	1a68      	subs	r0, r5, r1
    35c0:	42a0      	cmp	r0, r4
    35c2:	da6c      	bge.n	369e <_dtoa_r+0x5b6>
    35c4:	e9dd 010e 	ldrd	r0, r1, [sp, #56]	; 0x38
    35c8:	2200      	movs	r2, #0
    35ca:	4b2d      	ldr	r3, [pc, #180]	; (3680 <_dtoa_r+0x598>)
    35cc:	f7fd fd6a 	bl	10a4 <__aeabi_dmul>
    35d0:	2200      	movs	r2, #0
    35d2:	e9cd 010e 	strd	r0, r1, [sp, #56]	; 0x38
    35d6:	4b2a      	ldr	r3, [pc, #168]	; (3680 <_dtoa_r+0x598>)
    35d8:	4630      	mov	r0, r6
    35da:	4639      	mov	r1, r7
    35dc:	f7fd fd62 	bl	10a4 <__aeabi_dmul>
    35e0:	4606      	mov	r6, r0
    35e2:	460f      	mov	r7, r1
    35e4:	e7c2      	b.n	356c <_dtoa_r+0x484>
    35e6:	e9d3 0100 	ldrd	r0, r1, [r3]
    35ea:	4632      	mov	r2, r6
    35ec:	462b      	mov	r3, r5
    35ee:	f7fd fd59 	bl	10a4 <__aeabi_dmul>
    35f2:	e9dd 6704 	ldrd	r6, r7, [sp, #16]
    35f6:	9d0a      	ldr	r5, [sp, #40]	; 0x28
    35f8:	e9cd 010e 	strd	r0, r1, [sp, #56]	; 0x38
    35fc:	192c      	adds	r4, r5, r4
    35fe:	46a8      	mov	r8, r5
    3600:	4639      	mov	r1, r7
    3602:	4630      	mov	r0, r6
    3604:	f7fd ffe8 	bl	15d8 <__aeabi_d2iz>
    3608:	4605      	mov	r5, r0
    360a:	f7fd fce5 	bl	fd8 <__aeabi_i2d>
    360e:	4602      	mov	r2, r0
    3610:	460b      	mov	r3, r1
    3612:	4630      	mov	r0, r6
    3614:	4639      	mov	r1, r7
    3616:	f7fd fb91 	bl	d3c <__aeabi_dsub>
    361a:	3530      	adds	r5, #48	; 0x30
    361c:	f808 5b01 	strb.w	r5, [r8], #1
    3620:	45a0      	cmp	r8, r4
    3622:	4606      	mov	r6, r0
    3624:	460f      	mov	r7, r1
    3626:	d133      	bne.n	3690 <_dtoa_r+0x5a8>
    3628:	2200      	movs	r2, #0
    362a:	4b18      	ldr	r3, [pc, #96]	; (368c <_dtoa_r+0x5a4>)
    362c:	e9dd 010e 	ldrd	r0, r1, [sp, #56]	; 0x38
    3630:	f7fd fb86 	bl	d40 <__adddf3>
    3634:	4602      	mov	r2, r0
    3636:	460b      	mov	r3, r1
    3638:	4630      	mov	r0, r6
    363a:	4639      	mov	r1, r7
    363c:	f7fd ffc2 	bl	15c4 <__aeabi_dcmpgt>
    3640:	2800      	cmp	r0, #0
    3642:	f040 808e 	bne.w	3762 <_dtoa_r+0x67a>
    3646:	e9dd 230e 	ldrd	r2, r3, [sp, #56]	; 0x38
    364a:	2000      	movs	r0, #0
    364c:	490f      	ldr	r1, [pc, #60]	; (368c <_dtoa_r+0x5a4>)
    364e:	f7fd fb75 	bl	d3c <__aeabi_dsub>
    3652:	4602      	mov	r2, r0
    3654:	460b      	mov	r3, r1
    3656:	4630      	mov	r0, r6
    3658:	4639      	mov	r1, r7
    365a:	f7fd ff95 	bl	1588 <__aeabi_dcmplt>
    365e:	b1f0      	cbz	r0, 369e <_dtoa_r+0x5b6>
    3660:	4640      	mov	r0, r8
    3662:	4680      	mov	r8, r0
    3664:	f818 2c01 	ldrb.w	r2, [r8, #-1]
    3668:	f100 30ff 	add.w	r0, r0, #4294967295
    366c:	2a30      	cmp	r2, #48	; 0x30
    366e:	d0f8      	beq.n	3662 <_dtoa_r+0x57a>
    3670:	e2be      	b.n	3bf0 <_dtoa_r+0xb08>
    3672:	bf00      	nop
    3674:	00006438 	.word	0x00006438
    3678:	00006510 	.word	0x00006510
    367c:	3ff00000 	.word	0x3ff00000
    3680:	40240000 	.word	0x40240000
    3684:	401c0000 	.word	0x401c0000
    3688:	40140000 	.word	0x40140000
    368c:	3fe00000 	.word	0x3fe00000
    3690:	2200      	movs	r2, #0
    3692:	4b9a      	ldr	r3, [pc, #616]	; (38fc <_dtoa_r+0x814>)
    3694:	f7fd fd06 	bl	10a4 <__aeabi_dmul>
    3698:	4606      	mov	r6, r0
    369a:	460f      	mov	r7, r1
    369c:	e7b0      	b.n	3600 <_dtoa_r+0x518>
    369e:	e9dd 4512 	ldrd	r4, r5, [sp, #72]	; 0x48
    36a2:	e9cd 4504 	strd	r4, r5, [sp, #16]
    36a6:	9d17      	ldr	r5, [sp, #92]	; 0x5c
    36a8:	2d00      	cmp	r5, #0
    36aa:	db7c      	blt.n	37a6 <_dtoa_r+0x6be>
    36ac:	f1b9 0f0e 	cmp.w	r9, #14
    36b0:	dc79      	bgt.n	37a6 <_dtoa_r+0x6be>
    36b2:	4c93      	ldr	r4, [pc, #588]	; (3900 <_dtoa_r+0x818>)
    36b4:	9923      	ldr	r1, [sp, #140]	; 0x8c
    36b6:	eb04 05c9 	add.w	r5, r4, r9, lsl #3
    36ba:	2900      	cmp	r1, #0
    36bc:	e9d5 4500 	ldrd	r4, r5, [r5]
    36c0:	da14      	bge.n	36ec <_dtoa_r+0x604>
    36c2:	9a07      	ldr	r2, [sp, #28]
    36c4:	2a00      	cmp	r2, #0
    36c6:	dc11      	bgt.n	36ec <_dtoa_r+0x604>
    36c8:	f040 816e 	bne.w	39a8 <_dtoa_r+0x8c0>
    36cc:	4620      	mov	r0, r4
    36ce:	4629      	mov	r1, r5
    36d0:	2200      	movs	r2, #0
    36d2:	4b8c      	ldr	r3, [pc, #560]	; (3904 <_dtoa_r+0x81c>)
    36d4:	f7fd fce6 	bl	10a4 <__aeabi_dmul>
    36d8:	e9dd 2304 	ldrd	r2, r3, [sp, #16]
    36dc:	f7fd ff68 	bl	15b0 <__aeabi_dcmpge>
    36e0:	9c07      	ldr	r4, [sp, #28]
    36e2:	4625      	mov	r5, r4
    36e4:	2800      	cmp	r0, #0
    36e6:	f040 8161 	bne.w	39ac <_dtoa_r+0x8c4>
    36ea:	e168      	b.n	39be <_dtoa_r+0x8d6>
    36ec:	9e0a      	ldr	r6, [sp, #40]	; 0x28
    36ee:	9807      	ldr	r0, [sp, #28]
    36f0:	9f0a      	ldr	r7, [sp, #40]	; 0x28
    36f2:	1833      	adds	r3, r6, r0
    36f4:	3701      	adds	r7, #1
    36f6:	9308      	str	r3, [sp, #32]
    36f8:	4622      	mov	r2, r4
    36fa:	462b      	mov	r3, r5
    36fc:	e9dd 0104 	ldrd	r0, r1, [sp, #16]
    3700:	f7fd fdfa 	bl	12f8 <__aeabi_ddiv>
    3704:	f7fd ff68 	bl	15d8 <__aeabi_d2iz>
    3708:	9007      	str	r0, [sp, #28]
    370a:	f7fd fc65 	bl	fd8 <__aeabi_i2d>
    370e:	4622      	mov	r2, r4
    3710:	462b      	mov	r3, r5
    3712:	f7fd fcc7 	bl	10a4 <__aeabi_dmul>
    3716:	4602      	mov	r2, r0
    3718:	460b      	mov	r3, r1
    371a:	e9dd 0104 	ldrd	r0, r1, [sp, #16]
    371e:	f7fd fb0d 	bl	d3c <__aeabi_dsub>
    3722:	9e07      	ldr	r6, [sp, #28]
    3724:	4602      	mov	r2, r0
    3726:	3630      	adds	r6, #48	; 0x30
    3728:	f807 6c01 	strb.w	r6, [r7, #-1]
    372c:	9e08      	ldr	r6, [sp, #32]
    372e:	460b      	mov	r3, r1
    3730:	42b7      	cmp	r7, r6
    3732:	46b8      	mov	r8, r7
    3734:	d129      	bne.n	378a <_dtoa_r+0x6a2>
    3736:	f7fd fb03 	bl	d40 <__adddf3>
    373a:	4622      	mov	r2, r4
    373c:	462b      	mov	r3, r5
    373e:	4606      	mov	r6, r0
    3740:	460f      	mov	r7, r1
    3742:	f7fd ff3f 	bl	15c4 <__aeabi_dcmpgt>
    3746:	b970      	cbnz	r0, 3766 <_dtoa_r+0x67e>
    3748:	4630      	mov	r0, r6
    374a:	4639      	mov	r1, r7
    374c:	4622      	mov	r2, r4
    374e:	462b      	mov	r3, r5
    3750:	f7fd ff10 	bl	1574 <__aeabi_dcmpeq>
    3754:	2800      	cmp	r0, #0
    3756:	f000 824d 	beq.w	3bf4 <_dtoa_r+0xb0c>
    375a:	9907      	ldr	r1, [sp, #28]
    375c:	07c9      	lsls	r1, r1, #31
    375e:	d402      	bmi.n	3766 <_dtoa_r+0x67e>
    3760:	e248      	b.n	3bf4 <_dtoa_r+0xb0c>
    3762:	f8dd 9040 	ldr.w	r9, [sp, #64]	; 0x40
    3766:	4640      	mov	r0, r8
    3768:	4680      	mov	r8, r0
    376a:	f818 2c01 	ldrb.w	r2, [r8, #-1]
    376e:	3801      	subs	r0, #1
    3770:	2a39      	cmp	r2, #57	; 0x39
    3772:	d106      	bne.n	3782 <_dtoa_r+0x69a>
    3774:	9b0a      	ldr	r3, [sp, #40]	; 0x28
    3776:	4283      	cmp	r3, r0
    3778:	d1f6      	bne.n	3768 <_dtoa_r+0x680>
    377a:	2630      	movs	r6, #48	; 0x30
    377c:	f109 0901 	add.w	r9, r9, #1
    3780:	701e      	strb	r6, [r3, #0]
    3782:	7801      	ldrb	r1, [r0, #0]
    3784:	1c4a      	adds	r2, r1, #1
    3786:	7002      	strb	r2, [r0, #0]
    3788:	e234      	b.n	3bf4 <_dtoa_r+0xb0c>
    378a:	2200      	movs	r2, #0
    378c:	4b5b      	ldr	r3, [pc, #364]	; (38fc <_dtoa_r+0x814>)
    378e:	f7fd fc89 	bl	10a4 <__aeabi_dmul>
    3792:	2200      	movs	r2, #0
    3794:	2300      	movs	r3, #0
    3796:	e9cd 0104 	strd	r0, r1, [sp, #16]
    379a:	3701      	adds	r7, #1
    379c:	f7fd feea 	bl	1574 <__aeabi_dcmpeq>
    37a0:	2800      	cmp	r0, #0
    37a2:	d0a9      	beq.n	36f8 <_dtoa_r+0x610>
    37a4:	e226      	b.n	3bf4 <_dtoa_r+0xb0c>
    37a6:	9f0d      	ldr	r7, [sp, #52]	; 0x34
    37a8:	2f00      	cmp	r7, #0
    37aa:	d030      	beq.n	380e <_dtoa_r+0x726>
    37ac:	9a22      	ldr	r2, [sp, #136]	; 0x88
    37ae:	2a01      	cmp	r2, #1
    37b0:	dc0a      	bgt.n	37c8 <_dtoa_r+0x6e0>
    37b2:	9915      	ldr	r1, [sp, #84]	; 0x54
    37b4:	b111      	cbz	r1, 37bc <_dtoa_r+0x6d4>
    37b6:	f205 4333 	addw	r3, r5, #1075	; 0x433
    37ba:	e002      	b.n	37c2 <_dtoa_r+0x6da>
    37bc:	9816      	ldr	r0, [sp, #88]	; 0x58
    37be:	f1c0 0336 	rsb	r3, r0, #54	; 0x36
    37c2:	9c0c      	ldr	r4, [sp, #48]	; 0x30
    37c4:	9e08      	ldr	r6, [sp, #32]
    37c6:	e016      	b.n	37f6 <_dtoa_r+0x70e>
    37c8:	9e07      	ldr	r6, [sp, #28]
    37ca:	9b0c      	ldr	r3, [sp, #48]	; 0x30
    37cc:	1e71      	subs	r1, r6, #1
    37ce:	428b      	cmp	r3, r1
    37d0:	db01      	blt.n	37d6 <_dtoa_r+0x6ee>
    37d2:	1a5c      	subs	r4, r3, r1
    37d4:	e006      	b.n	37e4 <_dtoa_r+0x6fc>
    37d6:	980c      	ldr	r0, [sp, #48]	; 0x30
    37d8:	9f11      	ldr	r7, [sp, #68]	; 0x44
    37da:	1a0d      	subs	r5, r1, r0
    37dc:	197c      	adds	r4, r7, r5
    37de:	9411      	str	r4, [sp, #68]	; 0x44
    37e0:	910c      	str	r1, [sp, #48]	; 0x30
    37e2:	2400      	movs	r4, #0
    37e4:	9a07      	ldr	r2, [sp, #28]
    37e6:	2a00      	cmp	r2, #0
    37e8:	da03      	bge.n	37f2 <_dtoa_r+0x70a>
    37ea:	9e08      	ldr	r6, [sp, #32]
    37ec:	2300      	movs	r3, #0
    37ee:	1ab6      	subs	r6, r6, r2
    37f0:	e001      	b.n	37f6 <_dtoa_r+0x70e>
    37f2:	9e08      	ldr	r6, [sp, #32]
    37f4:	9b07      	ldr	r3, [sp, #28]
    37f6:	9d08      	ldr	r5, [sp, #32]
    37f8:	9a09      	ldr	r2, [sp, #36]	; 0x24
    37fa:	18ef      	adds	r7, r5, r3
    37fc:	4658      	mov	r0, r11
    37fe:	18d3      	adds	r3, r2, r3
    3800:	2101      	movs	r1, #1
    3802:	9708      	str	r7, [sp, #32]
    3804:	9309      	str	r3, [sp, #36]	; 0x24
    3806:	f000 fd41 	bl	428c <__i2b>
    380a:	4605      	mov	r5, r0
    380c:	e002      	b.n	3814 <_dtoa_r+0x72c>
    380e:	9c0c      	ldr	r4, [sp, #48]	; 0x30
    3810:	9e08      	ldr	r6, [sp, #32]
    3812:	9d0d      	ldr	r5, [sp, #52]	; 0x34
    3814:	b166      	cbz	r6, 3830 <_dtoa_r+0x748>
    3816:	9f09      	ldr	r7, [sp, #36]	; 0x24
    3818:	2f00      	cmp	r7, #0
    381a:	dd09      	ble.n	3830 <_dtoa_r+0x748>
    381c:	9908      	ldr	r1, [sp, #32]
    381e:	9a09      	ldr	r2, [sp, #36]	; 0x24
    3820:	42b7      	cmp	r7, r6
    3822:	bfa8      	it	ge
    3824:	4637      	movge	r7, r6
    3826:	1bc8      	subs	r0, r1, r7
    3828:	1bd3      	subs	r3, r2, r7
    382a:	9008      	str	r0, [sp, #32]
    382c:	1bf6      	subs	r6, r6, r7
    382e:	9309      	str	r3, [sp, #36]	; 0x24
    3830:	9f0c      	ldr	r7, [sp, #48]	; 0x30
    3832:	2f00      	cmp	r7, #0
    3834:	dd20      	ble.n	3878 <_dtoa_r+0x790>
    3836:	990d      	ldr	r1, [sp, #52]	; 0x34
    3838:	b1c1      	cbz	r1, 386c <_dtoa_r+0x784>
    383a:	2c00      	cmp	r4, #0
    383c:	dd10      	ble.n	3860 <_dtoa_r+0x778>
    383e:	4629      	mov	r1, r5
    3840:	4622      	mov	r2, r4
    3842:	4658      	mov	r0, r11
    3844:	f000 fdbc 	bl	43c0 <__pow5mult>
    3848:	4605      	mov	r5, r0
    384a:	4652      	mov	r2, r10
    384c:	4629      	mov	r1, r5
    384e:	4658      	mov	r0, r11
    3850:	f000 fd25 	bl	429e <__multiply>
    3854:	4651      	mov	r1, r10
    3856:	4607      	mov	r7, r0
    3858:	4658      	mov	r0, r11
    385a:	f000 fc36 	bl	40ca <_Bfree>
    385e:	46ba      	mov	r10, r7
    3860:	980c      	ldr	r0, [sp, #48]	; 0x30
    3862:	1b02      	subs	r2, r0, r4
    3864:	d008      	beq.n	3878 <_dtoa_r+0x790>
    3866:	4658      	mov	r0, r11
    3868:	4651      	mov	r1, r10
    386a:	e002      	b.n	3872 <_dtoa_r+0x78a>
    386c:	9a0c      	ldr	r2, [sp, #48]	; 0x30
    386e:	4658      	mov	r0, r11
    3870:	4651      	mov	r1, r10
    3872:	f000 fda5 	bl	43c0 <__pow5mult>
    3876:	4682      	mov	r10, r0
    3878:	2101      	movs	r1, #1
    387a:	4658      	mov	r0, r11
    387c:	f000 fd06 	bl	428c <__i2b>
    3880:	9a11      	ldr	r2, [sp, #68]	; 0x44
    3882:	4604      	mov	r4, r0
    3884:	2a00      	cmp	r2, #0
    3886:	dd05      	ble.n	3894 <_dtoa_r+0x7ac>
    3888:	4621      	mov	r1, r4
    388a:	4658      	mov	r0, r11
    388c:	9a11      	ldr	r2, [sp, #68]	; 0x44
    388e:	f000 fd97 	bl	43c0 <__pow5mult>
    3892:	4604      	mov	r4, r0
    3894:	9b22      	ldr	r3, [sp, #136]	; 0x88
    3896:	2b01      	cmp	r3, #1
    3898:	dc10      	bgt.n	38bc <_dtoa_r+0x7d4>
    389a:	9904      	ldr	r1, [sp, #16]
    389c:	b971      	cbnz	r1, 38bc <_dtoa_r+0x7d4>
    389e:	9805      	ldr	r0, [sp, #20]
    38a0:	f3c0 0713 	ubfx	r7, r0, #0, #20
    38a4:	b967      	cbnz	r7, 38c0 <_dtoa_r+0x7d8>
    38a6:	4f18      	ldr	r7, [pc, #96]	; (3908 <_dtoa_r+0x820>)
    38a8:	4007      	ands	r7, r0
    38aa:	b157      	cbz	r7, 38c2 <_dtoa_r+0x7da>
    38ac:	9a08      	ldr	r2, [sp, #32]
    38ae:	9909      	ldr	r1, [sp, #36]	; 0x24
    38b0:	1c53      	adds	r3, r2, #1
    38b2:	1c48      	adds	r0, r1, #1
    38b4:	9308      	str	r3, [sp, #32]
    38b6:	9009      	str	r0, [sp, #36]	; 0x24
    38b8:	2701      	movs	r7, #1
    38ba:	e002      	b.n	38c2 <_dtoa_r+0x7da>
    38bc:	2700      	movs	r7, #0
    38be:	e000      	b.n	38c2 <_dtoa_r+0x7da>
    38c0:	9f04      	ldr	r7, [sp, #16]
    38c2:	9a11      	ldr	r2, [sp, #68]	; 0x44
    38c4:	b142      	cbz	r2, 38d8 <_dtoa_r+0x7f0>
    38c6:	6921      	ldr	r1, [r4, #16]
    38c8:	eb04 0081 	add.w	r0, r4, r1, lsl #2
    38cc:	6900      	ldr	r0, [r0, #16]
    38ce:	f000 fc91 	bl	41f4 <__hi0bits>
    38d2:	f1c0 0320 	rsb	r3, r0, #32
    38d6:	e000      	b.n	38da <_dtoa_r+0x7f2>
    38d8:	2301      	movs	r3, #1
    38da:	9909      	ldr	r1, [sp, #36]	; 0x24
    38dc:	185a      	adds	r2, r3, r1
    38de:	f012 031f 	ands.w	r3, r2, #31
    38e2:	d015      	beq.n	3910 <_dtoa_r+0x828>
    38e4:	f1c3 0020 	rsb	r0, r3, #32
    38e8:	2804      	cmp	r0, #4
    38ea:	dd0f      	ble.n	390c <_dtoa_r+0x824>
    38ec:	9808      	ldr	r0, [sp, #32]
    38ee:	f1c3 031c 	rsb	r3, r3, #28
    38f2:	18c2      	adds	r2, r0, r3
    38f4:	9208      	str	r2, [sp, #32]
    38f6:	18f6      	adds	r6, r6, r3
    38f8:	e010      	b.n	391c <_dtoa_r+0x834>
    38fa:	bf00      	nop
    38fc:	40240000 	.word	0x40240000
    3900:	00006438 	.word	0x00006438
    3904:	40140000 	.word	0x40140000
    3908:	7ff00000 	.word	0x7ff00000
    390c:	d008      	beq.n	3920 <_dtoa_r+0x838>
    390e:	4603      	mov	r3, r0
    3910:	9908      	ldr	r1, [sp, #32]
    3912:	331c      	adds	r3, #28
    3914:	18ca      	adds	r2, r1, r3
    3916:	9909      	ldr	r1, [sp, #36]	; 0x24
    3918:	9208      	str	r2, [sp, #32]
    391a:	18f6      	adds	r6, r6, r3
    391c:	18cb      	adds	r3, r1, r3
    391e:	9309      	str	r3, [sp, #36]	; 0x24
    3920:	9a08      	ldr	r2, [sp, #32]
    3922:	2a00      	cmp	r2, #0
    3924:	dd04      	ble.n	3930 <_dtoa_r+0x848>
    3926:	4651      	mov	r1, r10
    3928:	4658      	mov	r0, r11
    392a:	f000 fd9b 	bl	4464 <__lshift>
    392e:	4682      	mov	r10, r0
    3930:	9a09      	ldr	r2, [sp, #36]	; 0x24
    3932:	2a00      	cmp	r2, #0
    3934:	dd04      	ble.n	3940 <_dtoa_r+0x858>
    3936:	4621      	mov	r1, r4
    3938:	4658      	mov	r0, r11
    393a:	f000 fd93 	bl	4464 <__lshift>
    393e:	4604      	mov	r4, r0
    3940:	9914      	ldr	r1, [sp, #80]	; 0x50
    3942:	b1e1      	cbz	r1, 397e <_dtoa_r+0x896>
    3944:	4650      	mov	r0, r10
    3946:	4621      	mov	r1, r4
    3948:	f000 fde0 	bl	450c <__mcmp>
    394c:	2800      	cmp	r0, #0
    394e:	da16      	bge.n	397e <_dtoa_r+0x896>
    3950:	4651      	mov	r1, r10
    3952:	4658      	mov	r0, r11
    3954:	220a      	movs	r2, #10
    3956:	2300      	movs	r3, #0
    3958:	f000 fbce 	bl	40f8 <__multadd>
    395c:	4682      	mov	r10, r0
    395e:	980d      	ldr	r0, [sp, #52]	; 0x34
    3960:	f109 39ff 	add.w	r9, r9, #4294967295
    3964:	b148      	cbz	r0, 397a <_dtoa_r+0x892>
    3966:	4629      	mov	r1, r5
    3968:	220a      	movs	r2, #10
    396a:	4658      	mov	r0, r11
    396c:	2300      	movs	r3, #0
    396e:	f000 fbc3 	bl	40f8 <__multadd>
    3972:	9a0b      	ldr	r2, [sp, #44]	; 0x2c
    3974:	4605      	mov	r5, r0
    3976:	9207      	str	r2, [sp, #28]
    3978:	e001      	b.n	397e <_dtoa_r+0x896>
    397a:	9b0b      	ldr	r3, [sp, #44]	; 0x2c
    397c:	9307      	str	r3, [sp, #28]
    397e:	9807      	ldr	r0, [sp, #28]
    3980:	2800      	cmp	r0, #0
    3982:	dc25      	bgt.n	39d0 <_dtoa_r+0x8e8>
    3984:	9922      	ldr	r1, [sp, #136]	; 0x88
    3986:	2902      	cmp	r1, #2
    3988:	dd22      	ble.n	39d0 <_dtoa_r+0x8e8>
    398a:	b978      	cbnz	r0, 39ac <_dtoa_r+0x8c4>
    398c:	4621      	mov	r1, r4
    398e:	2205      	movs	r2, #5
    3990:	9b07      	ldr	r3, [sp, #28]
    3992:	4658      	mov	r0, r11
    3994:	f000 fbb0 	bl	40f8 <__multadd>
    3998:	4604      	mov	r4, r0
    399a:	4621      	mov	r1, r4
    399c:	4650      	mov	r0, r10
    399e:	f000 fdb5 	bl	450c <__mcmp>
    39a2:	2800      	cmp	r0, #0
    39a4:	dc0b      	bgt.n	39be <_dtoa_r+0x8d6>
    39a6:	e001      	b.n	39ac <_dtoa_r+0x8c4>
    39a8:	2400      	movs	r4, #0
    39aa:	4625      	mov	r5, r4
    39ac:	9b23      	ldr	r3, [sp, #140]	; 0x8c
    39ae:	f8dd 8028 	ldr.w	r8, [sp, #40]	; 0x28
    39b2:	ea6f 0903 	mvn.w	r9, r3
    39b6:	e009      	b.n	39cc <_dtoa_r+0x8e4>
    39b8:	f8dd 9040 	ldr.w	r9, [sp, #64]	; 0x40
    39bc:	4625      	mov	r5, r4
    39be:	f8dd 8028 	ldr.w	r8, [sp, #40]	; 0x28
    39c2:	2031      	movs	r0, #49	; 0x31
    39c4:	f808 0b01 	strb.w	r0, [r8], #1
    39c8:	f109 0901 	add.w	r9, r9, #1
    39cc:	2600      	movs	r6, #0
    39ce:	e0fe      	b.n	3bce <_dtoa_r+0xae6>
    39d0:	9b0d      	ldr	r3, [sp, #52]	; 0x34
    39d2:	2b00      	cmp	r3, #0
    39d4:	f000 80b3 	beq.w	3b3e <_dtoa_r+0xa56>
    39d8:	2e00      	cmp	r6, #0
    39da:	dd05      	ble.n	39e8 <_dtoa_r+0x900>
    39dc:	4629      	mov	r1, r5
    39de:	4658      	mov	r0, r11
    39e0:	4632      	mov	r2, r6
    39e2:	f000 fd3f 	bl	4464 <__lshift>
    39e6:	4605      	mov	r5, r0
    39e8:	b19f      	cbz	r7, 3a12 <_dtoa_r+0x92a>
    39ea:	6869      	ldr	r1, [r5, #4]
    39ec:	4658      	mov	r0, r11
    39ee:	f000 fb37 	bl	4060 <_Balloc>
    39f2:	692b      	ldr	r3, [r5, #16]
    39f4:	4607      	mov	r7, r0
    39f6:	1c9a      	adds	r2, r3, #2
    39f8:	f105 010c 	add.w	r1, r5, #12
    39fc:	0092      	lsls	r2, r2, #2
    39fe:	f100 000c 	add.w	r0, r0, #12
    3a02:	f7fe f9c5 	bl	1d90 <memcpy>
    3a06:	4658      	mov	r0, r11
    3a08:	4639      	mov	r1, r7
    3a0a:	2201      	movs	r2, #1
    3a0c:	f000 fd2a 	bl	4464 <__lshift>
    3a10:	e000      	b.n	3a14 <_dtoa_r+0x92c>
    3a12:	4628      	mov	r0, r5
    3a14:	9b0a      	ldr	r3, [sp, #40]	; 0x28
    3a16:	9907      	ldr	r1, [sp, #28]
    3a18:	9e0a      	ldr	r6, [sp, #40]	; 0x28
    3a1a:	185a      	adds	r2, r3, r1
    3a1c:	1c77      	adds	r7, r6, #1
    3a1e:	9209      	str	r2, [sp, #36]	; 0x24
    3a20:	462e      	mov	r6, r5
    3a22:	4605      	mov	r5, r0
    3a24:	4621      	mov	r1, r4
    3a26:	4650      	mov	r0, r10
    3a28:	f7ff face 	bl	2fc8 <quorem>
    3a2c:	4603      	mov	r3, r0
    3a2e:	3330      	adds	r3, #48	; 0x30
    3a30:	9007      	str	r0, [sp, #28]
    3a32:	4631      	mov	r1, r6
    3a34:	4650      	mov	r0, r10
    3a36:	9302      	str	r3, [sp, #8]
    3a38:	f000 fd68 	bl	450c <__mcmp>
    3a3c:	4621      	mov	r1, r4
    3a3e:	9008      	str	r0, [sp, #32]
    3a40:	462a      	mov	r2, r5
    3a42:	4658      	mov	r0, r11
    3a44:	f000 fd7f 	bl	4546 <__mdiff>
    3a48:	4684      	mov	r12, r0
    3a4a:	68c0      	ldr	r0, [r0, #12]
    3a4c:	f107 38ff 	add.w	r8, r7, #4294967295
    3a50:	9b02      	ldr	r3, [sp, #8]
    3a52:	b950      	cbnz	r0, 3a6a <_dtoa_r+0x982>
    3a54:	4661      	mov	r1, r12
    3a56:	4650      	mov	r0, r10
    3a58:	f8cd c00c 	str.w	r12, [sp, #12]
    3a5c:	f000 fd56 	bl	450c <__mcmp>
    3a60:	9b02      	ldr	r3, [sp, #8]
    3a62:	4602      	mov	r2, r0
    3a64:	f8dd c00c 	ldr.w	r12, [sp, #12]
    3a68:	e000      	b.n	3a6c <_dtoa_r+0x984>
    3a6a:	2201      	movs	r2, #1
    3a6c:	4658      	mov	r0, r11
    3a6e:	4661      	mov	r1, r12
    3a70:	9203      	str	r2, [sp, #12]
    3a72:	9302      	str	r3, [sp, #8]
    3a74:	f000 fb29 	bl	40ca <_Bfree>
    3a78:	9a03      	ldr	r2, [sp, #12]
    3a7a:	9b02      	ldr	r3, [sp, #8]
    3a7c:	b96a      	cbnz	r2, 3a9a <_dtoa_r+0x9b2>
    3a7e:	9922      	ldr	r1, [sp, #136]	; 0x88
    3a80:	b959      	cbnz	r1, 3a9a <_dtoa_r+0x9b2>
    3a82:	9804      	ldr	r0, [sp, #16]
    3a84:	f000 0101 	and.w	r1, r0, #1
    3a88:	b939      	cbnz	r1, 3a9a <_dtoa_r+0x9b2>
    3a8a:	2b39      	cmp	r3, #57	; 0x39
    3a8c:	d02b      	beq.n	3ae6 <_dtoa_r+0x9fe>
    3a8e:	9a08      	ldr	r2, [sp, #32]
    3a90:	2a00      	cmp	r2, #0
    3a92:	dd2d      	ble.n	3af0 <_dtoa_r+0xa08>
    3a94:	9b07      	ldr	r3, [sp, #28]
    3a96:	3331      	adds	r3, #49	; 0x31
    3a98:	e02a      	b.n	3af0 <_dtoa_r+0xa08>
    3a9a:	9808      	ldr	r0, [sp, #32]
    3a9c:	2800      	cmp	r0, #0
    3a9e:	db06      	blt.n	3aae <_dtoa_r+0x9c6>
    3aa0:	d11d      	bne.n	3ade <_dtoa_r+0x9f6>
    3aa2:	9922      	ldr	r1, [sp, #136]	; 0x88
    3aa4:	b9d9      	cbnz	r1, 3ade <_dtoa_r+0x9f6>
    3aa6:	9804      	ldr	r0, [sp, #16]
    3aa8:	f000 0101 	and.w	r1, r0, #1
    3aac:	b9b9      	cbnz	r1, 3ade <_dtoa_r+0x9f6>
    3aae:	2a00      	cmp	r2, #0
    3ab0:	461f      	mov	r7, r3
    3ab2:	dd1d      	ble.n	3af0 <_dtoa_r+0xa08>
    3ab4:	4651      	mov	r1, r10
    3ab6:	2201      	movs	r2, #1
    3ab8:	4658      	mov	r0, r11
    3aba:	9302      	str	r3, [sp, #8]
    3abc:	f000 fcd2 	bl	4464 <__lshift>
    3ac0:	4621      	mov	r1, r4
    3ac2:	4682      	mov	r10, r0
    3ac4:	f000 fd22 	bl	450c <__mcmp>
    3ac8:	2800      	cmp	r0, #0
    3aca:	9b02      	ldr	r3, [sp, #8]
    3acc:	dc02      	bgt.n	3ad4 <_dtoa_r+0x9ec>
    3ace:	d10f      	bne.n	3af0 <_dtoa_r+0xa08>
    3ad0:	07da      	lsls	r2, r3, #31
    3ad2:	d50d      	bpl.n	3af0 <_dtoa_r+0xa08>
    3ad4:	9b07      	ldr	r3, [sp, #28]
    3ad6:	3331      	adds	r3, #49	; 0x31
    3ad8:	2f39      	cmp	r7, #57	; 0x39
    3ada:	d109      	bne.n	3af0 <_dtoa_r+0xa08>
    3adc:	e003      	b.n	3ae6 <_dtoa_r+0x9fe>
    3ade:	2a00      	cmp	r2, #0
    3ae0:	dd09      	ble.n	3af6 <_dtoa_r+0xa0e>
    3ae2:	2b39      	cmp	r3, #57	; 0x39
    3ae4:	d103      	bne.n	3aee <_dtoa_r+0xa06>
    3ae6:	2339      	movs	r3, #57	; 0x39
    3ae8:	f808 3b01 	strb.w	r3, [r8], #1
    3aec:	e055      	b.n	3b9a <_dtoa_r+0xab2>
    3aee:	3301      	adds	r3, #1
    3af0:	f808 3b01 	strb.w	r3, [r8], #1
    3af4:	e06b      	b.n	3bce <_dtoa_r+0xae6>
    3af6:	9a09      	ldr	r2, [sp, #36]	; 0x24
    3af8:	46b8      	mov	r8, r7
    3afa:	4297      	cmp	r7, r2
    3afc:	f807 3c01 	strb.w	r3, [r7, #-1]
    3b00:	d03b      	beq.n	3b7a <_dtoa_r+0xa92>
    3b02:	4651      	mov	r1, r10
    3b04:	220a      	movs	r2, #10
    3b06:	2300      	movs	r3, #0
    3b08:	4658      	mov	r0, r11
    3b0a:	f000 faf5 	bl	40f8 <__multadd>
    3b0e:	220a      	movs	r2, #10
    3b10:	2300      	movs	r3, #0
    3b12:	42ae      	cmp	r6, r5
    3b14:	4682      	mov	r10, r0
    3b16:	4631      	mov	r1, r6
    3b18:	4658      	mov	r0, r11
    3b1a:	d104      	bne.n	3b26 <_dtoa_r+0xa3e>
    3b1c:	f000 faec 	bl	40f8 <__multadd>
    3b20:	4606      	mov	r6, r0
    3b22:	4605      	mov	r5, r0
    3b24:	e009      	b.n	3b3a <_dtoa_r+0xa52>
    3b26:	f000 fae7 	bl	40f8 <__multadd>
    3b2a:	4629      	mov	r1, r5
    3b2c:	4606      	mov	r6, r0
    3b2e:	220a      	movs	r2, #10
    3b30:	4658      	mov	r0, r11
    3b32:	2300      	movs	r3, #0
    3b34:	f000 fae0 	bl	40f8 <__multadd>
    3b38:	4605      	mov	r5, r0
    3b3a:	3701      	adds	r7, #1
    3b3c:	e772      	b.n	3a24 <_dtoa_r+0x93c>
    3b3e:	9e0d      	ldr	r6, [sp, #52]	; 0x34
    3b40:	4650      	mov	r0, r10
    3b42:	4621      	mov	r1, r4
    3b44:	f7ff fa40 	bl	2fc8 <quorem>
    3b48:	9a0a      	ldr	r2, [sp, #40]	; 0x28
    3b4a:	f100 0330 	add.w	r3, r0, #48	; 0x30
    3b4e:	9807      	ldr	r0, [sp, #28]
    3b50:	5593      	strb	r3, [r2, r6]
    3b52:	3601      	adds	r6, #1
    3b54:	4286      	cmp	r6, r0
    3b56:	da07      	bge.n	3b68 <_dtoa_r+0xa80>
    3b58:	4651      	mov	r1, r10
    3b5a:	4658      	mov	r0, r11
    3b5c:	220a      	movs	r2, #10
    3b5e:	2300      	movs	r3, #0
    3b60:	f000 faca 	bl	40f8 <__multadd>
    3b64:	4682      	mov	r10, r0
    3b66:	e7eb      	b.n	3b40 <_dtoa_r+0xa58>
    3b68:	f8dd 8028 	ldr.w	r8, [sp, #40]	; 0x28
    3b6c:	9907      	ldr	r1, [sp, #28]
    3b6e:	2600      	movs	r6, #0
    3b70:	2901      	cmp	r1, #1
    3b72:	bfac      	ite	ge
    3b74:	4488      	addge	r8, r1
    3b76:	f108 0801 	addlt.w	r8, r8, #1
    3b7a:	4651      	mov	r1, r10
    3b7c:	2201      	movs	r2, #1
    3b7e:	4658      	mov	r0, r11
    3b80:	9302      	str	r3, [sp, #8]
    3b82:	f000 fc6f 	bl	4464 <__lshift>
    3b86:	4621      	mov	r1, r4
    3b88:	4682      	mov	r10, r0
    3b8a:	f000 fcbf 	bl	450c <__mcmp>
    3b8e:	2800      	cmp	r0, #0
    3b90:	9b02      	ldr	r3, [sp, #8]
    3b92:	dc02      	bgt.n	3b9a <_dtoa_r+0xab2>
    3b94:	d114      	bne.n	3bc0 <_dtoa_r+0xad8>
    3b96:	07db      	lsls	r3, r3, #31
    3b98:	d512      	bpl.n	3bc0 <_dtoa_r+0xad8>
    3b9a:	4641      	mov	r1, r8
    3b9c:	f811 0c01 	ldrb.w	r0, [r1, #-1]
    3ba0:	4688      	mov	r8, r1
    3ba2:	2839      	cmp	r0, #57	; 0x39
    3ba4:	f101 31ff 	add.w	r1, r1, #4294967295
    3ba8:	d107      	bne.n	3bba <_dtoa_r+0xad2>
    3baa:	980a      	ldr	r0, [sp, #40]	; 0x28
    3bac:	4288      	cmp	r0, r1
    3bae:	d1f5      	bne.n	3b9c <_dtoa_r+0xab4>
    3bb0:	2331      	movs	r3, #49	; 0x31
    3bb2:	f109 0901 	add.w	r9, r9, #1
    3bb6:	7003      	strb	r3, [r0, #0]
    3bb8:	e009      	b.n	3bce <_dtoa_r+0xae6>
    3bba:	1c42      	adds	r2, r0, #1
    3bbc:	700a      	strb	r2, [r1, #0]
    3bbe:	e006      	b.n	3bce <_dtoa_r+0xae6>
    3bc0:	4640      	mov	r0, r8
    3bc2:	4680      	mov	r8, r0
    3bc4:	f818 1c01 	ldrb.w	r1, [r8, #-1]
    3bc8:	3801      	subs	r0, #1
    3bca:	2930      	cmp	r1, #48	; 0x30
    3bcc:	d0f9      	beq.n	3bc2 <_dtoa_r+0xada>
    3bce:	4658      	mov	r0, r11
    3bd0:	4621      	mov	r1, r4
    3bd2:	f000 fa7a 	bl	40ca <_Bfree>
    3bd6:	b16d      	cbz	r5, 3bf4 <_dtoa_r+0xb0c>
    3bd8:	b12e      	cbz	r6, 3be6 <_dtoa_r+0xafe>
    3bda:	42ae      	cmp	r6, r5
    3bdc:	d003      	beq.n	3be6 <_dtoa_r+0xafe>
    3bde:	4658      	mov	r0, r11
    3be0:	4631      	mov	r1, r6
    3be2:	f000 fa72 	bl	40ca <_Bfree>
    3be6:	4658      	mov	r0, r11
    3be8:	4629      	mov	r1, r5
    3bea:	f000 fa6e 	bl	40ca <_Bfree>
    3bee:	e001      	b.n	3bf4 <_dtoa_r+0xb0c>
    3bf0:	f8dd 9040 	ldr.w	r9, [sp, #64]	; 0x40
    3bf4:	4651      	mov	r1, r10
    3bf6:	2600      	movs	r6, #0
    3bf8:	4658      	mov	r0, r11
    3bfa:	f000 fa66 	bl	40ca <_Bfree>
    3bfe:	f888 6000 	strb.w	r6, [r8]
    3c02:	9a24      	ldr	r2, [sp, #144]	; 0x90
    3c04:	9e26      	ldr	r6, [sp, #152]	; 0x98
    3c06:	f109 0101 	add.w	r1, r9, #1
    3c0a:	6011      	str	r1, [r2, #0]
    3c0c:	b126      	cbz	r6, 3c18 <_dtoa_r+0xb30>
    3c0e:	f8c6 8000 	str.w	r8, [r6]
    3c12:	e001      	b.n	3c18 <_dtoa_r+0xb30>
    3c14:	4802      	ldr	r0, [pc, #8]	; (3c20 <_dtoa_r+0xb38>)
    3c16:	e000      	b.n	3c1a <_dtoa_r+0xb32>
    3c18:	980a      	ldr	r0, [sp, #40]	; 0x28
    3c1a:	b019      	add	sp, #100	; 0x64
    3c1c:	e8bd 8ff0 	ldmia.w	sp!, {r4, r5, r6, r7, r8, r9, r10, r11, pc}
    3c20:	000063ce 	.word	0x000063ce
    3c24:	f3af 8000 	nop.w

00003c28 <_fflush_r>:
    3c28:	690b      	ldr	r3, [r1, #16]
    3c2a:	e92d 41f0 	stmdb	sp!, {r4, r5, r6, r7, r8, lr}
    3c2e:	4605      	mov	r5, r0
    3c30:	460c      	mov	r4, r1
    3c32:	2b00      	cmp	r3, #0
    3c34:	d03b      	beq.n	3cae <_fflush_r+0x86>
    3c36:	b118      	cbz	r0, 3c40 <_fflush_r+0x18>
    3c38:	6981      	ldr	r1, [r0, #24]
    3c3a:	b909      	cbnz	r1, 3c40 <_fflush_r+0x18>
    3c3c:	f000 f8ec 	bl	3e18 <__sinit>
    3c40:	4848      	ldr	r0, [pc, #288]	; (3d64 <_fflush_r+0x13c>)
    3c42:	4284      	cmp	r4, r0
    3c44:	d101      	bne.n	3c4a <_fflush_r+0x22>
    3c46:	686c      	ldr	r4, [r5, #4]
    3c48:	e008      	b.n	3c5c <_fflush_r+0x34>
    3c4a:	4a47      	ldr	r2, [pc, #284]	; (3d68 <_fflush_r+0x140>)
    3c4c:	4294      	cmp	r4, r2
    3c4e:	d101      	bne.n	3c54 <_fflush_r+0x2c>
    3c50:	68ac      	ldr	r4, [r5, #8]
    3c52:	e003      	b.n	3c5c <_fflush_r+0x34>
    3c54:	4b45      	ldr	r3, [pc, #276]	; (3d6c <_fflush_r+0x144>)
    3c56:	429c      	cmp	r4, r3
    3c58:	bf08      	it	eq
    3c5a:	68ec      	ldreq	r4, [r5, #12]
    3c5c:	89a1      	ldrh	r1, [r4, #12]
    3c5e:	b331      	cbz	r1, 3cae <_fflush_r+0x86>
    3c60:	f001 0008 	and.w	r0, r1, #8
    3c64:	b202      	sxth	r2, r0
    3c66:	2a00      	cmp	r2, #0
    3c68:	d161      	bne.n	3d2e <_fflush_r+0x106>
    3c6a:	6862      	ldr	r2, [r4, #4]
    3c6c:	f441 6000 	orr.w	r0, r1, #2048	; 0x800
    3c70:	2a00      	cmp	r2, #0
    3c72:	81a0      	strh	r0, [r4, #12]
    3c74:	dc02      	bgt.n	3c7c <_fflush_r+0x54>
    3c76:	6c23      	ldr	r3, [r4, #64]	; 0x40
    3c78:	2b00      	cmp	r3, #0
    3c7a:	dd18      	ble.n	3cae <_fflush_r+0x86>
    3c7c:	6ae6      	ldr	r6, [r4, #44]	; 0x2c
    3c7e:	b1b6      	cbz	r6, 3cae <_fflush_r+0x86>
    3c80:	f401 5180 	and.w	r1, r1, #4096	; 0x1000
    3c84:	2000      	movs	r0, #0
    3c86:	b20a      	sxth	r2, r1
    3c88:	682f      	ldr	r7, [r5, #0]
    3c8a:	6028      	str	r0, [r5, #0]
    3c8c:	b10a      	cbz	r2, 3c92 <_fflush_r+0x6a>
    3c8e:	6d62      	ldr	r2, [r4, #84]	; 0x54
    3c90:	e010      	b.n	3cb4 <_fflush_r+0x8c>
    3c92:	2301      	movs	r3, #1
    3c94:	4628      	mov	r0, r5
    3c96:	6a21      	ldr	r1, [r4, #32]
    3c98:	47b0      	blx	r6
    3c9a:	4602      	mov	r2, r0
    3c9c:	3001      	adds	r0, #1
    3c9e:	d109      	bne.n	3cb4 <_fflush_r+0x8c>
    3ca0:	682b      	ldr	r3, [r5, #0]
    3ca2:	b13b      	cbz	r3, 3cb4 <_fflush_r+0x8c>
    3ca4:	2b1d      	cmp	r3, #29
    3ca6:	d001      	beq.n	3cac <_fflush_r+0x84>
    3ca8:	2b16      	cmp	r3, #22
    3caa:	d11b      	bne.n	3ce4 <_fflush_r+0xbc>
    3cac:	602f      	str	r7, [r5, #0]
    3cae:	2000      	movs	r0, #0
    3cb0:	e8bd 81f0 	ldmia.w	sp!, {r4, r5, r6, r7, r8, pc}
    3cb4:	89a6      	ldrh	r6, [r4, #12]
    3cb6:	f006 0004 	and.w	r0, r6, #4
    3cba:	b201      	sxth	r1, r0
    3cbc:	b129      	cbz	r1, 3cca <_fflush_r+0xa2>
    3cbe:	6863      	ldr	r3, [r4, #4]
    3cc0:	6b66      	ldr	r6, [r4, #52]	; 0x34
    3cc2:	1ad2      	subs	r2, r2, r3
    3cc4:	b10e      	cbz	r6, 3cca <_fflush_r+0xa2>
    3cc6:	6c20      	ldr	r0, [r4, #64]	; 0x40
    3cc8:	1a12      	subs	r2, r2, r0
    3cca:	6a21      	ldr	r1, [r4, #32]
    3ccc:	2300      	movs	r3, #0
    3cce:	6ae6      	ldr	r6, [r4, #44]	; 0x2c
    3cd0:	4628      	mov	r0, r5
    3cd2:	47b0      	blx	r6
    3cd4:	1c41      	adds	r1, r0, #1
    3cd6:	d10d      	bne.n	3cf4 <_fflush_r+0xcc>
    3cd8:	682a      	ldr	r2, [r5, #0]
    3cda:	b15a      	cbz	r2, 3cf4 <_fflush_r+0xcc>
    3cdc:	2a1d      	cmp	r2, #29
    3cde:	d009      	beq.n	3cf4 <_fflush_r+0xcc>
    3ce0:	2a16      	cmp	r2, #22
    3ce2:	d007      	beq.n	3cf4 <_fflush_r+0xcc>
    3ce4:	89a1      	ldrh	r1, [r4, #12]
    3ce6:	f04f 30ff 	mov.w	r0, #4294967295
    3cea:	f041 0340 	orr.w	r3, r1, #64	; 0x40
    3cee:	81a3      	strh	r3, [r4, #12]
    3cf0:	e8bd 81f0 	ldmia.w	sp!, {r4, r5, r6, r7, r8, pc}
    3cf4:	89a3      	ldrh	r3, [r4, #12]
    3cf6:	2200      	movs	r2, #0
    3cf8:	6921      	ldr	r1, [r4, #16]
    3cfa:	6062      	str	r2, [r4, #4]
    3cfc:	f403 5280 	and.w	r2, r3, #4096	; 0x1000
    3d00:	6021      	str	r1, [r4, #0]
    3d02:	b211      	sxth	r1, r2
    3d04:	b121      	cbz	r1, 3d10 <_fflush_r+0xe8>
    3d06:	1c42      	adds	r2, r0, #1
    3d08:	d101      	bne.n	3d0e <_fflush_r+0xe6>
    3d0a:	682b      	ldr	r3, [r5, #0]
    3d0c:	b903      	cbnz	r3, 3d10 <_fflush_r+0xe8>
    3d0e:	6560      	str	r0, [r4, #84]	; 0x54
    3d10:	6b61      	ldr	r1, [r4, #52]	; 0x34
    3d12:	602f      	str	r7, [r5, #0]
    3d14:	2900      	cmp	r1, #0
    3d16:	d0ca      	beq.n	3cae <_fflush_r+0x86>
    3d18:	f104 0044 	add.w	r0, r4, #68	; 0x44
    3d1c:	4281      	cmp	r1, r0
    3d1e:	d002      	beq.n	3d26 <_fflush_r+0xfe>
    3d20:	4628      	mov	r0, r5
    3d22:	f000 f8e1 	bl	3ee8 <_free_r>
    3d26:	2000      	movs	r0, #0
    3d28:	6360      	str	r0, [r4, #52]	; 0x34
    3d2a:	e8bd 81f0 	ldmia.w	sp!, {r4, r5, r6, r7, r8, pc}
    3d2e:	6926      	ldr	r6, [r4, #16]
    3d30:	2e00      	cmp	r6, #0
    3d32:	d0bc      	beq.n	3cae <_fflush_r+0x86>
    3d34:	0789      	lsls	r1, r1, #30
    3d36:	6823      	ldr	r3, [r4, #0]
    3d38:	bf0c      	ite	eq
    3d3a:	6961      	ldreq	r1, [r4, #20]
    3d3c:	2100      	movne	r1, #0
    3d3e:	ebc6 0803 	rsb	r8, r6, r3
    3d42:	6026      	str	r6, [r4, #0]
    3d44:	60a1      	str	r1, [r4, #8]
    3d46:	f1b8 0f00 	cmp.w	r8, #0
    3d4a:	ddb0      	ble.n	3cae <_fflush_r+0x86>
    3d4c:	6aa7      	ldr	r7, [r4, #40]	; 0x28
    3d4e:	4628      	mov	r0, r5
    3d50:	6a21      	ldr	r1, [r4, #32]
    3d52:	4632      	mov	r2, r6
    3d54:	4643      	mov	r3, r8
    3d56:	47b8      	blx	r7
    3d58:	2800      	cmp	r0, #0
    3d5a:	ddc3      	ble.n	3ce4 <_fflush_r+0xbc>
    3d5c:	1836      	adds	r6, r6, r0
    3d5e:	ebc0 0808 	rsb	r8, r0, r8
    3d62:	e7f0      	b.n	3d46 <_fflush_r+0x11e>
    3d64:	000063d0 	.word	0x000063d0
    3d68:	000063f0 	.word	0x000063f0
    3d6c:	00006410 	.word	0x00006410

00003d70 <_cleanup_r>:
    3d70:	b5f8      	push	{r3, r4, r5, r6, r7, lr}
    3d72:	4607      	mov	r7, r0
    3d74:	f100 044c 	add.w	r4, r0, #76	; 0x4c
    3d78:	b194      	cbz	r4, 3da0 <_cleanup_r+0x30>
    3d7a:	68a5      	ldr	r5, [r4, #8]
    3d7c:	6866      	ldr	r6, [r4, #4]
    3d7e:	3e01      	subs	r6, #1
    3d80:	d40c      	bmi.n	3d9c <_cleanup_r+0x2c>
    3d82:	f9b5 300c 	ldrsh.w	r3, [r5, #12]
    3d86:	b13b      	cbz	r3, 3d98 <_cleanup_r+0x28>
    3d88:	f9b5 000e 	ldrsh.w	r0, [r5, #14]
    3d8c:	1c43      	adds	r3, r0, #1
    3d8e:	d003      	beq.n	3d98 <_cleanup_r+0x28>
    3d90:	4638      	mov	r0, r7
    3d92:	4629      	mov	r1, r5
    3d94:	f7ff ff48 	bl	3c28 <_fflush_r>
    3d98:	3568      	adds	r5, #104	; 0x68
    3d9a:	e7f0      	b.n	3d7e <_cleanup_r+0xe>
    3d9c:	6824      	ldr	r4, [r4, #0]
    3d9e:	e7eb      	b.n	3d78 <_cleanup_r+0x8>
    3da0:	bdf8      	pop	{r3, r4, r5, r6, r7, pc}
	...

00003da4 <std.isra.0>:
    3da4:	2300      	movs	r3, #0
    3da6:	b510      	push	{r4, lr}
    3da8:	4604      	mov	r4, r0
    3daa:	6003      	str	r3, [r0, #0]
    3dac:	6043      	str	r3, [r0, #4]
    3dae:	6083      	str	r3, [r0, #8]
    3db0:	8181      	strh	r1, [r0, #12]
    3db2:	6643      	str	r3, [r0, #100]	; 0x64
    3db4:	81c2      	strh	r2, [r0, #14]
    3db6:	6103      	str	r3, [r0, #16]
    3db8:	6143      	str	r3, [r0, #20]
    3dba:	6183      	str	r3, [r0, #24]
    3dbc:	4619      	mov	r1, r3
    3dbe:	2208      	movs	r2, #8
    3dc0:	f100 005c 	add.w	r0, r0, #92	; 0x5c
    3dc4:	f7fd ffed 	bl	1da2 <memset>
    3dc8:	4804      	ldr	r0, [pc, #16]	; (3ddc <std.isra.0+0x38>)
    3dca:	4905      	ldr	r1, [pc, #20]	; (3de0 <std.isra.0+0x3c>)
    3dcc:	4a05      	ldr	r2, [pc, #20]	; (3de4 <std.isra.0+0x40>)
    3dce:	4b06      	ldr	r3, [pc, #24]	; (3de8 <std.isra.0+0x44>)
    3dd0:	6224      	str	r4, [r4, #32]
    3dd2:	6260      	str	r0, [r4, #36]	; 0x24
    3dd4:	62a1      	str	r1, [r4, #40]	; 0x28
    3dd6:	62e2      	str	r2, [r4, #44]	; 0x2c
    3dd8:	6323      	str	r3, [r4, #48]	; 0x30
    3dda:	bd10      	pop	{r4, pc}
    3ddc:	00001e11 	.word	0x00001e11
    3de0:	00001e33 	.word	0x00001e33
    3de4:	00001e6f 	.word	0x00001e6f
    3de8:	00001e93 	.word	0x00001e93

00003dec <__sfmoreglue>:
    3dec:	b570      	push	{r4, r5, r6, lr}
    3dee:	2568      	movs	r5, #104	; 0x68
    3df0:	434d      	muls	r5, r1
    3df2:	460e      	mov	r6, r1
    3df4:	f105 010c 	add.w	r1, r5, #12
    3df8:	f7fd ff80 	bl	1cfc <_malloc_r>
    3dfc:	4604      	mov	r4, r0
    3dfe:	b140      	cbz	r0, 3e12 <__sfmoreglue+0x26>
    3e00:	f100 000c 	add.w	r0, r0, #12
    3e04:	2100      	movs	r1, #0
    3e06:	e884 0042 	stmia.w	r4, {r1, r6}
    3e0a:	60a0      	str	r0, [r4, #8]
    3e0c:	462a      	mov	r2, r5
    3e0e:	f7fd ffc8 	bl	1da2 <memset>
    3e12:	4620      	mov	r0, r4
    3e14:	bd70      	pop	{r4, r5, r6, pc}
	...

00003e18 <__sinit>:
    3e18:	b570      	push	{r4, r5, r6, lr}
    3e1a:	6985      	ldr	r5, [r0, #24]
    3e1c:	4604      	mov	r4, r0
    3e1e:	2d00      	cmp	r5, #0
    3e20:	d122      	bne.n	3e68 <__sinit+0x50>
    3e22:	4b12      	ldr	r3, [pc, #72]	; (3e6c <__sinit+0x54>)
    3e24:	2601      	movs	r6, #1
    3e26:	6283      	str	r3, [r0, #40]	; 0x28
    3e28:	6186      	str	r6, [r0, #24]
    3e2a:	64c5      	str	r5, [r0, #76]	; 0x4c
    3e2c:	6505      	str	r5, [r0, #80]	; 0x50
    3e2e:	6545      	str	r5, [r0, #84]	; 0x54
    3e30:	f000 f81e 	bl	3e70 <__sfp>
    3e34:	6060      	str	r0, [r4, #4]
    3e36:	4620      	mov	r0, r4
    3e38:	f000 f81a 	bl	3e70 <__sfp>
    3e3c:	60a0      	str	r0, [r4, #8]
    3e3e:	4620      	mov	r0, r4
    3e40:	f000 f816 	bl	3e70 <__sfp>
    3e44:	2104      	movs	r1, #4
    3e46:	60e0      	str	r0, [r4, #12]
    3e48:	462a      	mov	r2, r5
    3e4a:	6860      	ldr	r0, [r4, #4]
    3e4c:	f7ff ffaa 	bl	3da4 <std.isra.0>
    3e50:	68a0      	ldr	r0, [r4, #8]
    3e52:	2109      	movs	r1, #9
    3e54:	4632      	mov	r2, r6
    3e56:	f7ff ffa5 	bl	3da4 <std.isra.0>
    3e5a:	68e0      	ldr	r0, [r4, #12]
    3e5c:	2112      	movs	r1, #18
    3e5e:	2202      	movs	r2, #2
    3e60:	e8bd 4070 	ldmia.w	sp!, {r4, r5, r6, lr}
    3e64:	f7ff bf9e 	b.w	3da4 <std.isra.0>
    3e68:	bd70      	pop	{r4, r5, r6, pc}
    3e6a:	bf00      	nop
    3e6c:	00003d71 	.word	0x00003d71

00003e70 <__sfp>:
    3e70:	b5f8      	push	{r3, r4, r5, r6, r7, lr}
    3e72:	4b1c      	ldr	r3, [pc, #112]	; (3ee4 <__sfp+0x74>)
    3e74:	4607      	mov	r7, r0
    3e76:	681e      	ldr	r6, [r3, #0]
    3e78:	69b0      	ldr	r0, [r6, #24]
