
test.elf:     file format elf32-littlearm
architecture: arm, flags 0x00000112:
EXEC_P, HAS_SYMS, D_PAGED
start address 0x00000831


Disassembly of section .text:

00000000 <__isr_vector>:
       0:	10008000 	.word	0x10008000
       4:	00000831 	.word	0x00000831
       8:	00000865 	.word	0x00000865
       c:	00000867 	.word	0x00000867
      10:	00000869 	.word	0x00000869
      14:	0000086b 	.word	0x0000086b
      18:	0000086d 	.word	0x0000086d
	...
      2c:	0000086f 	.word	0x0000086f
      30:	00000871 	.word	0x00000871
      34:	00000000 	.word	0x00000000
      38:	00000873 	.word	0x00000873
      3c:	00000875 	.word	0x00000875
      40:	00000879 	.word	0x00000879
      44:	0000087b 	.word	0x0000087b
      48:	0000087d 	.word	0x0000087d
      4c:	0000087f 	.word	0x0000087f
      50:	00000881 	.word	0x00000881
      54:	00000883 	.word	0x00000883
      58:	00000885 	.word	0x00000885
      5c:	00000887 	.word	0x00000887
      60:	00000889 	.word	0x00000889
      64:	0000088b 	.word	0x0000088b
      68:	0000088d 	.word	0x0000088d
      6c:	0000088f 	.word	0x0000088f
      70:	00000891 	.word	0x00000891
      74:	00000893 	.word	0x00000893
      78:	00000895 	.word	0x00000895
      7c:	00000897 	.word	0x00000897
      80:	00000899 	.word	0x00000899
      84:	0000089b 	.word	0x0000089b
      88:	0000089d 	.word	0x0000089d
      8c:	0000089f 	.word	0x0000089f
      90:	000008a1 	.word	0x000008a1
      94:	000008a3 	.word	0x000008a3
      98:	000008a5 	.word	0x000008a5
      9c:	000008a7 	.word	0x000008a7
      a0:	000008a9 	.word	0x000008a9
      a4:	000008ab 	.word	0x000008ab
      a8:	000008ad 	.word	0x000008ad
      ac:	000008af 	.word	0x000008af
      b0:	000008b1 	.word	0x000008b1
      b4:	000008b3 	.word	0x000008b3
      b8:	000008b5 	.word	0x000008b5
      bc:	000008b7 	.word	0x000008b7
      c0:	000008b9 	.word	0x000008b9
      c4:	000008bb 	.word	0x000008bb
      c8:	000008bd 	.word	0x000008bd

000000cc <__do_global_dtors_aux>:
      cc:	b510      	push	{r4, lr}
      ce:	4c05      	ldr	r4, [pc, #20]	; (e4 <__do_global_dtors_aux+0x18>)
      d0:	7823      	ldrb	r3, [r4, #0]
      d2:	b933      	cbnz	r3, e2 <__do_global_dtors_aux+0x16>
      d4:	4804      	ldr	r0, [pc, #16]	; (e8 <__do_global_dtors_aux+0x1c>)
      d6:	b110      	cbz	r0, de <__do_global_dtors_aux+0x12>
      d8:	4804      	ldr	r0, [pc, #16]	; (ec <__do_global_dtors_aux+0x20>)
      da:	f3af 8000 	nop.w
      de:	2101      	movs	r1, #1
      e0:	7021      	strb	r1, [r4, #0]
      e2:	bd10      	pop	{r4, pc}
      e4:	10000548 	.word	0x10000548
      e8:	00000000 	.word	0x00000000
      ec:	000072a4 	.word	0x000072a4

000000f0 <frame_dummy>:
      f0:	b508      	push	{r3, lr}
      f2:	4b06      	ldr	r3, [pc, #24]	; (10c <frame_dummy+0x1c>)
      f4:	b11b      	cbz	r3, fe <frame_dummy+0xe>
      f6:	4806      	ldr	r0, [pc, #24]	; (110 <frame_dummy+0x20>)
      f8:	4906      	ldr	r1, [pc, #24]	; (114 <frame_dummy+0x24>)
      fa:	f3af 8000 	nop.w
      fe:	4806      	ldr	r0, [pc, #24]	; (118 <frame_dummy+0x28>)
     100:	6801      	ldr	r1, [r0, #0]
     102:	b111      	cbz	r1, 10a <frame_dummy+0x1a>
     104:	4a05      	ldr	r2, [pc, #20]	; (11c <frame_dummy+0x2c>)
     106:	b102      	cbz	r2, 10a <frame_dummy+0x1a>
     108:	4790      	blx	r2
     10a:	bd08      	pop	{r3, pc}
     10c:	00000000 	.word	0x00000000
     110:	000072a4 	.word	0x000072a4
     114:	1000054c 	.word	0x1000054c
     118:	10000548 	.word	0x10000548
     11c:	00000000 	.word	0x00000000

00000120 <main>:
     120:	b530      	push	{r4, r5, lr}
     122:	f646 4014 	movw	r0, #27668	; 0x6c14
     126:	b0a7      	sub	sp, #156	; 0x9c
     128:	f646 4530 	movw	r5, #27696	; 0x6c30
     12c:	ac02      	add	r4, sp, #8
     12e:	f2c0 0000 	movt	r0, #0
     132:	f2c0 0500 	movt	r5, #0
     136:	f002 fc4d 	bl	29d4 <iprintf>
     13a:	cd0f      	ldmia	r5!, {r0, r1, r2, r3}
     13c:	c40f      	stmia	r4!, {r0, r1, r2, r3}
     13e:	cd0f      	ldmia	r5!, {r0, r1, r2, r3}
     140:	c40f      	stmia	r4!, {r0, r1, r2, r3}
     142:	cd0f      	ldmia	r5!, {r0, r1, r2, r3}
     144:	c40f      	stmia	r4!, {r0, r1, r2, r3}
     146:	e895 000f 	ldmia.w	r5, {r0, r1, r2, r3}
     14a:	c407      	stmia	r4!, {r0, r1, r2}
     14c:	f24c 0145 	movw	r1, #49221	; 0xc045
     150:	f2c2 0109 	movt	r1, #8201	; 0x2009
     154:	a812      	add	r0, sp, #72	; 0x48
     156:	8023      	strh	r3, [r4, #0]
     158:	f000 f8d4 	bl	304 <_ZN5musicC1E7PinName>
     15c:	243d      	movs	r4, #61	; 0x3d
     15e:	f44f 4300 	mov.w	r3, #32768	; 0x8000
     162:	a902      	add	r1, sp, #8
     164:	2200      	movs	r2, #0
     166:	f2c4 0366 	movt	r3, #16486	; 0x4066
     16a:	a812      	add	r0, sp, #72	; 0x48
     16c:	9400      	str	r4, [sp, #0]
     16e:	f000 fafd 	bl	76c <_ZN5music4playEPcdi>
     172:	f646 4024 	movw	r0, #27684	; 0x6c24
     176:	f2c0 0000 	movt	r0, #0
     17a:	f002 fc2b 	bl	29d4 <iprintf>
     17e:	4b04      	ldr	r3, [pc, #16]	; (190 <main+0x70>)
     180:	a812      	add	r0, sp, #72	; 0x48
     182:	9312      	str	r3, [sp, #72]	; 0x48
     184:	f000 fe4c 	bl	e20 <_ZN4mbed10TimerEventD1Ev>
     188:	2000      	movs	r0, #0
     18a:	b027      	add	sp, #156	; 0x9c
     18c:	bd30      	pop	{r4, r5, pc}
     18e:	bf00      	nop
     190:	00006c98 	.word	0x00006c98

00000194 <_ZN5notes8get_freqEcii>:
     194:	3941      	subs	r1, #65	; 0x41
     196:	2906      	cmp	r1, #6
     198:	d805      	bhi.n	1a6 <_ZN5notes8get_freqEcii+0x12>
     19a:	e8df f001 	tbb	[pc, r1]
     19e:	1b11      	.short	0x1b11
     1a0:	42392f25 	.word	0x42392f25
     1a4:	07          	.byte	0x07
     1a5:	00          	.byte	0x00
     1a6:	2000      	movs	r0, #0
     1a8:	2100      	movs	r1, #0
     1aa:	4770      	bx	lr
     1ac:	2b07      	cmp	r3, #7
     1ae:	d8fa      	bhi.n	1a6 <_ZN5notes8get_freqEcii+0x12>
     1b0:	2a00      	cmp	r2, #0
     1b2:	d063      	beq.n	27c <_ZN5notes8get_freqEcii+0xe8>
     1b4:	4a34      	ldr	r2, [pc, #208]	; (288 <_ZN5notes8get_freqEcii+0xf4>)
     1b6:	eb02 03c3 	add.w	r3, r2, r3, lsl #3
     1ba:	e9d3 0100 	ldrd	r0, r1, [r3]
     1be:	4770      	bx	lr
     1c0:	2b07      	cmp	r3, #7
     1c2:	d8f0      	bhi.n	1a6 <_ZN5notes8get_freqEcii+0x12>
     1c4:	2a00      	cmp	r2, #0
     1c6:	d153      	bne.n	270 <_ZN5notes8get_freqEcii+0xdc>
     1c8:	4830      	ldr	r0, [pc, #192]	; (28c <_ZN5notes8get_freqEcii+0xf8>)
     1ca:	eb00 01c3 	add.w	r1, r0, r3, lsl #3
     1ce:	e9d1 0100 	ldrd	r0, r1, [r1]
     1d2:	4770      	bx	lr
     1d4:	2b07      	cmp	r3, #7
     1d6:	d8e6      	bhi.n	1a6 <_ZN5notes8get_freqEcii+0x12>
     1d8:	2a00      	cmp	r2, #0
     1da:	d143      	bne.n	264 <_ZN5notes8get_freqEcii+0xd0>
     1dc:	482c      	ldr	r0, [pc, #176]	; (290 <_ZN5notes8get_freqEcii+0xfc>)
     1de:	eb00 01c3 	add.w	r1, r0, r3, lsl #3
     1e2:	e9d1 0100 	ldrd	r0, r1, [r1]
     1e6:	4770      	bx	lr
     1e8:	2b08      	cmp	r3, #8
     1ea:	d8dc      	bhi.n	1a6 <_ZN5notes8get_freqEcii+0x12>
     1ec:	2a00      	cmp	r2, #0
     1ee:	d133      	bne.n	258 <_ZN5notes8get_freqEcii+0xc4>
     1f0:	4828      	ldr	r0, [pc, #160]	; (294 <_ZN5notes8get_freqEcii+0x100>)
     1f2:	eb00 01c3 	add.w	r1, r0, r3, lsl #3
     1f6:	e9d1 0100 	ldrd	r0, r1, [r1]
     1fa:	4770      	bx	lr
     1fc:	2b08      	cmp	r3, #8
     1fe:	d8d2      	bhi.n	1a6 <_ZN5notes8get_freqEcii+0x12>
     200:	2a00      	cmp	r2, #0
     202:	d123      	bne.n	24c <_ZN5notes8get_freqEcii+0xb8>
     204:	4824      	ldr	r0, [pc, #144]	; (298 <_ZN5notes8get_freqEcii+0x104>)
     206:	eb00 01c3 	add.w	r1, r0, r3, lsl #3
     20a:	e9d1 0100 	ldrd	r0, r1, [r1]
     20e:	4770      	bx	lr
     210:	2b07      	cmp	r3, #7
     212:	d8c8      	bhi.n	1a6 <_ZN5notes8get_freqEcii+0x12>
     214:	b9a2      	cbnz	r2, 240 <_ZN5notes8get_freqEcii+0xac>
     216:	4821      	ldr	r0, [pc, #132]	; (29c <_ZN5notes8get_freqEcii+0x108>)
     218:	eb00 01c3 	add.w	r1, r0, r3, lsl #3
     21c:	e9d1 0100 	ldrd	r0, r1, [r1]
     220:	4770      	bx	lr
     222:	2b07      	cmp	r3, #7
     224:	d8bf      	bhi.n	1a6 <_ZN5notes8get_freqEcii+0x12>
     226:	b92a      	cbnz	r2, 234 <_ZN5notes8get_freqEcii+0xa0>
     228:	481d      	ldr	r0, [pc, #116]	; (2a0 <_ZN5notes8get_freqEcii+0x10c>)
     22a:	eb00 01c3 	add.w	r1, r0, r3, lsl #3
     22e:	e9d1 0100 	ldrd	r0, r1, [r1]
     232:	4770      	bx	lr
     234:	4a1b      	ldr	r2, [pc, #108]	; (2a4 <_ZN5notes8get_freqEcii+0x110>)
     236:	eb02 03c3 	add.w	r3, r2, r3, lsl #3
     23a:	e9d3 0100 	ldrd	r0, r1, [r3]
     23e:	4770      	bx	lr
     240:	4a19      	ldr	r2, [pc, #100]	; (2a8 <_ZN5notes8get_freqEcii+0x114>)
     242:	eb02 03c3 	add.w	r3, r2, r3, lsl #3
     246:	e9d3 0100 	ldrd	r0, r1, [r3]
     24a:	4770      	bx	lr
     24c:	4a17      	ldr	r2, [pc, #92]	; (2ac <_ZN5notes8get_freqEcii+0x118>)
     24e:	eb02 03c3 	add.w	r3, r2, r3, lsl #3
     252:	e9d3 0100 	ldrd	r0, r1, [r3]
     256:	4770      	bx	lr
     258:	4a15      	ldr	r2, [pc, #84]	; (2b0 <_ZN5notes8get_freqEcii+0x11c>)
     25a:	eb02 03c3 	add.w	r3, r2, r3, lsl #3
     25e:	e9d3 0100 	ldrd	r0, r1, [r3]
     262:	4770      	bx	lr
     264:	4a13      	ldr	r2, [pc, #76]	; (2b4 <_ZN5notes8get_freqEcii+0x120>)
     266:	eb02 03c3 	add.w	r3, r2, r3, lsl #3
     26a:	e9d3 0100 	ldrd	r0, r1, [r3]
     26e:	4770      	bx	lr
     270:	4a11      	ldr	r2, [pc, #68]	; (2b8 <_ZN5notes8get_freqEcii+0x124>)
     272:	eb02 03c3 	add.w	r3, r2, r3, lsl #3
     276:	e9d3 0100 	ldrd	r0, r1, [r3]
     27a:	4770      	bx	lr
     27c:	480f      	ldr	r0, [pc, #60]	; (2bc <_ZN5notes8get_freqEcii+0x128>)
     27e:	eb00 01c3 	add.w	r1, r0, r3, lsl #3
     282:	e9d1 0100 	ldrd	r0, r1, [r1]
     286:	4770      	bx	lr
     288:	100000c8 	.word	0x100000c8
     28c:	100002a0 	.word	0x100002a0
     290:	100002e0 	.word	0x100002e0
     294:	10000320 	.word	0x10000320
     298:	10000368 	.word	0x10000368
     29c:	100003b0 	.word	0x100003b0
     2a0:	100003f0 	.word	0x100003f0
     2a4:	10000220 	.word	0x10000220
     2a8:	10000260 	.word	0x10000260
     2ac:	100001d8 	.word	0x100001d8
     2b0:	10000190 	.word	0x10000190
     2b4:	10000148 	.word	0x10000148
     2b8:	10000108 	.word	0x10000108
     2bc:	10000430 	.word	0x10000430

000002c0 <_ZN5music4flipEv>:
     2c0:	6c42      	ldr	r2, [r0, #68]	; 0x44
     2c2:	6b43      	ldr	r3, [r0, #52]	; 0x34
     2c4:	6811      	ldr	r1, [r2, #0]
     2c6:	4219      	tst	r1, r3
     2c8:	bf0c      	ite	eq
     2ca:	6bc1      	ldreq	r1, [r0, #60]	; 0x3c
     2cc:	6c01      	ldrne	r1, [r0, #64]	; 0x40
     2ce:	600b      	str	r3, [r1, #0]
     2d0:	4770      	bx	lr
     2d2:	bf00      	nop

000002d4 <_ZN4mbed15FunctionPointer12membercallerI5musicEEvPvPc>:
     2d4:	b500      	push	{lr}
     2d6:	460b      	mov	r3, r1
     2d8:	b083      	sub	sp, #12
     2da:	6849      	ldr	r1, [r1, #4]
     2dc:	4602      	mov	r2, r0
     2de:	6818      	ldr	r0, [r3, #0]
     2e0:	466b      	mov	r3, sp
     2e2:	c303      	stmia	r3!, {r0, r1}
     2e4:	460b      	mov	r3, r1
     2e6:	07d9      	lsls	r1, r3, #31
     2e8:	d507      	bpl.n	2fa <_ZN4mbed15FunctionPointer12membercallerI5musicEEvPvPc+0x26>
     2ea:	1058      	asrs	r0, r3, #1
     2ec:	5811      	ldr	r1, [r2, r0]
     2ee:	1810      	adds	r0, r2, r0
     2f0:	9a00      	ldr	r2, [sp, #0]
     2f2:	5889      	ldr	r1, [r1, r2]
     2f4:	4788      	blx	r1
     2f6:	b003      	add	sp, #12
     2f8:	bd00      	pop	{pc}
     2fa:	4601      	mov	r1, r0
     2fc:	eb02 0063 	add.w	r0, r2, r3, asr #1
     300:	e7f8      	b.n	2f4 <_ZN4mbed15FunctionPointer12membercallerI5musicEEvPvPc+0x20>
     302:	bf00      	nop

00000304 <_ZN5musicC1E7PinName>:
     304:	b538      	push	{r3, r4, r5, lr}
     306:	4604      	mov	r4, r0
     308:	460d      	mov	r5, r1
     30a:	f000 fd73 	bl	df4 <_ZN4mbed10TimerEventC1Ev>
     30e:	4b10      	ldr	r3, [pc, #64]	; (350 <_ZN5musicC1E7PinName+0x4c>)
     310:	4620      	mov	r0, r4
     312:	f840 3b14 	str.w	r3, [r0], #20
     316:	2100      	movs	r1, #0
     318:	f000 fc52 	bl	bc0 <_ZN4mbed15FunctionPointerC1EPFvvE>
     31c:	f104 0030 	add.w	r0, r4, #48	; 0x30
     320:	4629      	mov	r1, r5
     322:	2201      	movs	r2, #1
     324:	f000 fb84 	bl	a30 <gpio_init>
     328:	f240 20c1 	movw	r0, #705	; 0x2c1
     32c:	f240 22d5 	movw	r2, #725	; 0x2d5
     330:	2100      	movs	r1, #0
     332:	f2c0 0200 	movt	r2, #0
     336:	f2c0 0000 	movt	r0, #0
     33a:	61e0      	str	r0, [r4, #28]
     33c:	61a4      	str	r4, [r4, #24]
     33e:	4620      	mov	r0, r4
     340:	6221      	str	r1, [r4, #32]
     342:	62e2      	str	r2, [r4, #44]	; 0x2c
     344:	6161      	str	r1, [r4, #20]
     346:	f000 fd41 	bl	dcc <_ZN4mbed6Ticker5setupEj>
     34a:	4620      	mov	r0, r4
     34c:	bd38      	pop	{r3, r4, r5, pc}
     34e:	bf00      	nop
     350:	00006c98 	.word	0x00006c98

00000354 <_ZN5music4freqEd>:
     354:	b510      	push	{r4, lr}
     356:	4604      	mov	r4, r0
     358:	e9c0 2312 	strd	r2, r3, [r0, #72]	; 0x48
     35c:	f000 fd2a 	bl	db4 <_ZN4mbed6Ticker6detachEv>
     360:	e9d4 0112 	ldrd	r0, r1, [r4, #72]	; 0x48
     364:	4602      	mov	r2, r0
     366:	460b      	mov	r3, r1
     368:	f001 fad2 	bl	1910 <__adddf3>
     36c:	460b      	mov	r3, r1
     36e:	2100      	movs	r1, #0
     370:	4602      	mov	r2, r0
     372:	f6c3 71f0 	movt	r1, #16368	; 0x3ff0
     376:	2000      	movs	r0, #0
     378:	f001 fda6 	bl	1ec8 <__aeabi_ddiv>
     37c:	f001 ff3c 	bl	21f8 <__aeabi_d2f>
     380:	f44f 5110 	mov.w	r1, #9216	; 0x2400
     384:	f6c4 1174 	movt	r1, #18804	; 0x4974
     388:	f002 f894 	bl	24b4 <__aeabi_fmul>
     38c:	f002 fa58 	bl	2840 <__aeabi_f2uiz>
     390:	4601      	mov	r1, r0
     392:	f240 20d5 	movw	r0, #725	; 0x2d5
     396:	f2c0 0000 	movt	r0, #0
     39a:	f240 22c1 	movw	r2, #705	; 0x2c1
     39e:	2300      	movs	r3, #0
     3a0:	f2c0 0200 	movt	r2, #0
     3a4:	62e0      	str	r0, [r4, #44]	; 0x2c
     3a6:	4620      	mov	r0, r4
     3a8:	61a4      	str	r4, [r4, #24]
     3aa:	61e2      	str	r2, [r4, #28]
     3ac:	6223      	str	r3, [r4, #32]
     3ae:	6163      	str	r3, [r4, #20]
     3b0:	e8bd 4010 	ldmia.w	sp!, {r4, lr}
     3b4:	f000 bd0a 	b.w	dcc <_ZN4mbed6Ticker5setupEj>

000003b8 <_ZN5music9init_songEP6m_songi>:
     3b8:	f246 6367 	movw	r3, #26215	; 0x6667
     3bc:	f2c6 6366 	movt	r3, #26214	; 0x6666
     3c0:	fb83 0302 	smull	r0, r3, r3, r2
     3c4:	17d2      	asrs	r2, r2, #31
     3c6:	b510      	push	{r4, lr}
     3c8:	ebc2 0063 	rsb	r0, r2, r3, asr #1
     3cc:	460c      	mov	r4, r1
     3ce:	2100      	movs	r1, #0
     3d0:	6061      	str	r1, [r4, #4]
     3d2:	0100      	lsls	r0, r0, #4
     3d4:	f001 f9de 	bl	1794 <_Znaj>
     3d8:	6020      	str	r0, [r4, #0]
     3da:	bd10      	pop	{r4, pc}

000003dc <_ZN5music8dal_songEP6m_song>:
     3dc:	6808      	ldr	r0, [r1, #0]
     3de:	2300      	movs	r3, #0
     3e0:	604b      	str	r3, [r1, #4]
     3e2:	b108      	cbz	r0, 3e8 <_ZN5music8dal_songEP6m_song+0xc>
     3e4:	f001 ba8c 	b.w	1900 <_ZdaPv>
     3e8:	4770      	bx	lr
     3ea:	bf00      	nop

000003ec <_ZN5music5parseEPci>:
     3ec:	e92d 4ff0 	stmdb	sp!, {r4, r5, r6, r7, r8, r9, r10, r11, lr}
     3f0:	4681      	mov	r9, r0
     3f2:	461e      	mov	r6, r3
     3f4:	4608      	mov	r0, r1
     3f6:	b083      	sub	sp, #12
     3f8:	4614      	mov	r4, r2
     3fa:	4649      	mov	r1, r9
     3fc:	461a      	mov	r2, r3
     3fe:	f7ff ffdb 	bl	3b8 <_ZN5music9init_songEP6m_songi>
     402:	2e00      	cmp	r6, #0
     404:	dd49      	ble.n	49a <_ZN5music5parseEPci+0xae>
     406:	f04f 0a00 	mov.w	r10, #0
     40a:	19a6      	adds	r6, r4, r6
     40c:	46d4      	mov	r12, r10
     40e:	2001      	movs	r0, #1
     410:	4652      	mov	r2, r10
     412:	46d3      	mov	r11, r10
     414:	4653      	mov	r3, r10
     416:	2120      	movs	r1, #32
     418:	f814 5b01 	ldrb.w	r5, [r4], #1
     41c:	3d23      	subs	r5, #35	; 0x23
     41e:	2d2f      	cmp	r5, #47	; 0x2f
     420:	d839      	bhi.n	496 <_ZN5music5parseEPci+0xaa>
     422:	e8df f015 	tbh	[pc, r5, lsl #1]
     426:	00f1      	.short	0x00f1
     428:	00380038 	.word	0x00380038
     42c:	00380038 	.word	0x00380038
     430:	00380038 	.word	0x00380038
     434:	00380038 	.word	0x00380038
     438:	00380038 	.word	0x00380038
     43c:	00380038 	.word	0x00380038
     440:	00d700bc 	.word	0x00d700bc
     444:	00e4009e 	.word	0x00e4009e
     448:	00c900ad 	.word	0x00c900ad
     44c:	0080008f 	.word	0x0080008f
     450:	0076003e 	.word	0x0076003e
     454:	006d0048 	.word	0x006d0048
     458:	00380038 	.word	0x00380038
     45c:	00380038 	.word	0x00380038
     460:	00690038 	.word	0x00690038
     464:	00610065 	.word	0x00610065
     468:	0059005d 	.word	0x0059005d
     46c:	00510055 	.word	0x00510055
     470:	00380038 	.word	0x00380038
     474:	00380038 	.word	0x00380038
     478:	00380038 	.word	0x00380038
     47c:	00380038 	.word	0x00380038
     480:	00380038 	.word	0x00380038
     484:	004d      	.short	0x004d
     486:	f04f 0c00 	mov.w	r12, #0
     48a:	4658      	mov	r0, r11
     48c:	46e2      	mov	r10, r12
     48e:	4662      	mov	r2, r12
     490:	46e3      	mov	r11, r12
     492:	4663      	mov	r3, r12
     494:	2120      	movs	r1, #32
     496:	42b4      	cmp	r4, r6
     498:	d1be      	bne.n	418 <_ZN5music5parseEPci+0x2c>
     49a:	4648      	mov	r0, r9
     49c:	b003      	add	sp, #12
     49e:	e8bd 8ff0 	ldmia.w	sp!, {r4, r5, r6, r7, r8, r9, r10, r11, pc}
     4a2:	f1bb 0f00 	cmp.w	r11, #0
     4a6:	f000 80b4 	beq.w	612 <_ZN5music5parseEPci+0x226>
     4aa:	2800      	cmp	r0, #0
     4ac:	f000 8125 	beq.w	6fa <_ZN5music5parseEPci+0x30e>
     4b0:	f04f 0c08 	mov.w	r12, #8
     4b4:	2000      	movs	r0, #0
     4b6:	42b4      	cmp	r4, r6
     4b8:	f04f 0b01 	mov.w	r11, #1
     4bc:	d1ac      	bne.n	418 <_ZN5music5parseEPci+0x2c>
     4be:	e7ec      	b.n	49a <_ZN5music5parseEPci+0xae>
     4c0:	2152      	movs	r1, #82	; 0x52
     4c2:	42b4      	cmp	r4, r6
     4c4:	d1a8      	bne.n	418 <_ZN5music5parseEPci+0x2c>
     4c6:	e7e8      	b.n	49a <_ZN5music5parseEPci+0xae>
     4c8:	2147      	movs	r1, #71	; 0x47
     4ca:	42b4      	cmp	r4, r6
     4cc:	d1a4      	bne.n	418 <_ZN5music5parseEPci+0x2c>
     4ce:	e7e4      	b.n	49a <_ZN5music5parseEPci+0xae>
     4d0:	2146      	movs	r1, #70	; 0x46
     4d2:	42b4      	cmp	r4, r6
     4d4:	d1a0      	bne.n	418 <_ZN5music5parseEPci+0x2c>
     4d6:	e7e0      	b.n	49a <_ZN5music5parseEPci+0xae>
     4d8:	2145      	movs	r1, #69	; 0x45
     4da:	42b4      	cmp	r4, r6
     4dc:	d19c      	bne.n	418 <_ZN5music5parseEPci+0x2c>
     4de:	e7dc      	b.n	49a <_ZN5music5parseEPci+0xae>
     4e0:	2144      	movs	r1, #68	; 0x44
     4e2:	42b4      	cmp	r4, r6
     4e4:	d198      	bne.n	418 <_ZN5music5parseEPci+0x2c>
     4e6:	e7d8      	b.n	49a <_ZN5music5parseEPci+0xae>
     4e8:	2143      	movs	r1, #67	; 0x43
     4ea:	42b4      	cmp	r4, r6
     4ec:	d194      	bne.n	418 <_ZN5music5parseEPci+0x2c>
     4ee:	e7d4      	b.n	49a <_ZN5music5parseEPci+0xae>
     4f0:	2142      	movs	r1, #66	; 0x42
     4f2:	42b4      	cmp	r4, r6
     4f4:	d190      	bne.n	418 <_ZN5music5parseEPci+0x2c>
     4f6:	e7d0      	b.n	49a <_ZN5music5parseEPci+0xae>
     4f8:	2141      	movs	r1, #65	; 0x41
     4fa:	42b4      	cmp	r4, r6
     4fc:	d18c      	bne.n	418 <_ZN5music5parseEPci+0x2c>
     4fe:	e7cc      	b.n	49a <_ZN5music5parseEPci+0xae>
     500:	f1bb 0f00 	cmp.w	r11, #0
     504:	f040 8102 	bne.w	70c <_ZN5music5parseEPci+0x320>
     508:	42b4      	cmp	r4, r6
     50a:	f04f 0b00 	mov.w	r11, #0
     50e:	d183      	bne.n	418 <_ZN5music5parseEPci+0x2c>
     510:	e7c3      	b.n	49a <_ZN5music5parseEPci+0xae>
     512:	f1bb 0f00 	cmp.w	r11, #0
     516:	d0f7      	beq.n	508 <_ZN5music5parseEPci+0x11c>
     518:	2800      	cmp	r0, #0
     51a:	f040 811a 	bne.w	752 <_ZN5music5parseEPci+0x366>
     51e:	46e2      	mov	r10, r12
     520:	f04f 0c09 	mov.w	r12, #9
     524:	e7b7      	b.n	496 <_ZN5music5parseEPci+0xaa>
     526:	f1bb 0f00 	cmp.w	r11, #0
     52a:	d077      	beq.n	61c <_ZN5music5parseEPci+0x230>
     52c:	2800      	cmp	r0, #0
     52e:	f040 80db 	bne.w	6e8 <_ZN5music5parseEPci+0x2fc>
     532:	42b4      	cmp	r4, r6
     534:	46e2      	mov	r10, r12
     536:	f04f 0b01 	mov.w	r11, #1
     53a:	f04f 0c07 	mov.w	r12, #7
     53e:	f47f af6b 	bne.w	418 <_ZN5music5parseEPci+0x2c>
     542:	e7aa      	b.n	49a <_ZN5music5parseEPci+0xae>
     544:	f1bb 0f00 	cmp.w	r11, #0
     548:	d07c      	beq.n	644 <_ZN5music5parseEPci+0x258>
     54a:	2800      	cmp	r0, #0
     54c:	f040 80c3 	bne.w	6d6 <_ZN5music5parseEPci+0x2ea>
     550:	42b4      	cmp	r4, r6
     552:	46e2      	mov	r10, r12
     554:	f04f 0b01 	mov.w	r11, #1
     558:	f04f 0c06 	mov.w	r12, #6
     55c:	f47f af5c 	bne.w	418 <_ZN5music5parseEPci+0x2c>
     560:	e79b      	b.n	49a <_ZN5music5parseEPci+0xae>
     562:	f1bb 0f00 	cmp.w	r11, #0
     566:	d063      	beq.n	630 <_ZN5music5parseEPci+0x244>
     568:	2800      	cmp	r0, #0
     56a:	f040 80ab 	bne.w	6c4 <_ZN5music5parseEPci+0x2d8>
     56e:	42b4      	cmp	r4, r6
     570:	46e2      	mov	r10, r12
     572:	f04f 0b01 	mov.w	r11, #1
     576:	f04f 0c02 	mov.w	r12, #2
     57a:	f47f af4d 	bne.w	418 <_ZN5music5parseEPci+0x2c>
     57e:	e78c      	b.n	49a <_ZN5music5parseEPci+0xae>
     580:	f1bb 0f00 	cmp.w	r11, #0
     584:	d068      	beq.n	658 <_ZN5music5parseEPci+0x26c>
     586:	2800      	cmp	r0, #0
     588:	f040 8093 	bne.w	6b2 <_ZN5music5parseEPci+0x2c6>
     58c:	42b4      	cmp	r4, r6
     58e:	46e2      	mov	r10, r12
     590:	f04f 0b01 	mov.w	r11, #1
     594:	f04f 0c04 	mov.w	r12, #4
     598:	f47f af3e 	bne.w	418 <_ZN5music5parseEPci+0x2c>
     59c:	e77d      	b.n	49a <_ZN5music5parseEPci+0xae>
     59e:	f1bb 0f00 	cmp.w	r11, #0
     5a2:	d040      	beq.n	626 <_ZN5music5parseEPci+0x23a>
     5a4:	2800      	cmp	r0, #0
     5a6:	d17b      	bne.n	6a0 <_ZN5music5parseEPci+0x2b4>
     5a8:	42b4      	cmp	r4, r6
     5aa:	46e2      	mov	r10, r12
     5ac:	f04f 0b01 	mov.w	r11, #1
     5b0:	4684      	mov	r12, r0
     5b2:	f47f af31 	bne.w	418 <_ZN5music5parseEPci+0x2c>
     5b6:	e770      	b.n	49a <_ZN5music5parseEPci+0xae>
     5b8:	f1bb 0f00 	cmp.w	r11, #0
     5bc:	d047      	beq.n	64e <_ZN5music5parseEPci+0x262>
     5be:	2800      	cmp	r0, #0
     5c0:	d165      	bne.n	68e <_ZN5music5parseEPci+0x2a2>
     5c2:	42b4      	cmp	r4, r6
     5c4:	46e2      	mov	r10, r12
     5c6:	f04f 0b01 	mov.w	r11, #1
     5ca:	f04f 0c05 	mov.w	r12, #5
     5ce:	f47f af23 	bne.w	418 <_ZN5music5parseEPci+0x2c>
     5d2:	e762      	b.n	49a <_ZN5music5parseEPci+0xae>
     5d4:	f1bb 0f00 	cmp.w	r11, #0
     5d8:	d02f      	beq.n	63a <_ZN5music5parseEPci+0x24e>
     5da:	2800      	cmp	r0, #0
     5dc:	d14f      	bne.n	67e <_ZN5music5parseEPci+0x292>
     5de:	46e2      	mov	r10, r12
     5e0:	42b4      	cmp	r4, r6
     5e2:	f04f 0c01 	mov.w	r12, #1
     5e6:	46e3      	mov	r11, r12
     5e8:	f47f af16 	bne.w	418 <_ZN5music5parseEPci+0x2c>
     5ec:	e755      	b.n	49a <_ZN5music5parseEPci+0xae>
     5ee:	f1bb 0f00 	cmp.w	r11, #0
     5f2:	d036      	beq.n	662 <_ZN5music5parseEPci+0x276>
     5f4:	bbd0      	cbnz	r0, 66c <_ZN5music5parseEPci+0x280>
     5f6:	42b4      	cmp	r4, r6
     5f8:	46e2      	mov	r10, r12
     5fa:	f04f 0b01 	mov.w	r11, #1
     5fe:	f04f 0c03 	mov.w	r12, #3
     602:	f47f af09 	bne.w	418 <_ZN5music5parseEPci+0x2c>
     606:	e748      	b.n	49a <_ZN5music5parseEPci+0xae>
     608:	2201      	movs	r2, #1
     60a:	42b4      	cmp	r4, r6
     60c:	f47f af04 	bne.w	418 <_ZN5music5parseEPci+0x2c>
     610:	e743      	b.n	49a <_ZN5music5parseEPci+0xae>
     612:	2308      	movs	r3, #8
     614:	42b4      	cmp	r4, r6
     616:	f47f aeff 	bne.w	418 <_ZN5music5parseEPci+0x2c>
     61a:	e73e      	b.n	49a <_ZN5music5parseEPci+0xae>
     61c:	2307      	movs	r3, #7
     61e:	42b4      	cmp	r4, r6
     620:	f47f aefa 	bne.w	418 <_ZN5music5parseEPci+0x2c>
     624:	e739      	b.n	49a <_ZN5music5parseEPci+0xae>
     626:	42b4      	cmp	r4, r6
     628:	465b      	mov	r3, r11
     62a:	f47f aef5 	bne.w	418 <_ZN5music5parseEPci+0x2c>
     62e:	e734      	b.n	49a <_ZN5music5parseEPci+0xae>
     630:	2302      	movs	r3, #2
     632:	42b4      	cmp	r4, r6
     634:	f47f aef0 	bne.w	418 <_ZN5music5parseEPci+0x2c>
     638:	e72f      	b.n	49a <_ZN5music5parseEPci+0xae>
     63a:	2301      	movs	r3, #1
     63c:	42b4      	cmp	r4, r6
     63e:	f47f aeeb 	bne.w	418 <_ZN5music5parseEPci+0x2c>
     642:	e72a      	b.n	49a <_ZN5music5parseEPci+0xae>
     644:	2306      	movs	r3, #6
     646:	42b4      	cmp	r4, r6
     648:	f47f aee6 	bne.w	418 <_ZN5music5parseEPci+0x2c>
     64c:	e725      	b.n	49a <_ZN5music5parseEPci+0xae>
     64e:	2305      	movs	r3, #5
     650:	42b4      	cmp	r4, r6
     652:	f47f aee1 	bne.w	418 <_ZN5music5parseEPci+0x2c>
     656:	e720      	b.n	49a <_ZN5music5parseEPci+0xae>
     658:	2304      	movs	r3, #4
     65a:	42b4      	cmp	r4, r6
     65c:	f47f aedc 	bne.w	418 <_ZN5music5parseEPci+0x2c>
     660:	e71b      	b.n	49a <_ZN5music5parseEPci+0xae>
     662:	2303      	movs	r3, #3
     664:	42b4      	cmp	r4, r6
     666:	f47f aed7 	bne.w	418 <_ZN5music5parseEPci+0x2c>
     66a:	e716      	b.n	49a <_ZN5music5parseEPci+0xae>
     66c:	2000      	movs	r0, #0
     66e:	42b4      	cmp	r4, r6
     670:	f04f 0c03 	mov.w	r12, #3
     674:	f04f 0b01 	mov.w	r11, #1
     678:	f47f aece 	bne.w	418 <_ZN5music5parseEPci+0x2c>
     67c:	e70d      	b.n	49a <_ZN5music5parseEPci+0xae>
     67e:	f04f 0c01 	mov.w	r12, #1
     682:	2000      	movs	r0, #0
     684:	42b4      	cmp	r4, r6
     686:	46e3      	mov	r11, r12
     688:	f47f aec6 	bne.w	418 <_ZN5music5parseEPci+0x2c>
     68c:	e705      	b.n	49a <_ZN5music5parseEPci+0xae>
     68e:	2000      	movs	r0, #0
     690:	42b4      	cmp	r4, r6
     692:	f04f 0c05 	mov.w	r12, #5
     696:	f04f 0b01 	mov.w	r11, #1
     69a:	f47f aebd 	bne.w	418 <_ZN5music5parseEPci+0x2c>
     69e:	e6fc      	b.n	49a <_ZN5music5parseEPci+0xae>
     6a0:	f04f 0c00 	mov.w	r12, #0
     6a4:	42b4      	cmp	r4, r6
     6a6:	4660      	mov	r0, r12
     6a8:	f04f 0b01 	mov.w	r11, #1
     6ac:	f47f aeb4 	bne.w	418 <_ZN5music5parseEPci+0x2c>
     6b0:	e6f3      	b.n	49a <_ZN5music5parseEPci+0xae>
     6b2:	2000      	movs	r0, #0
     6b4:	42b4      	cmp	r4, r6
     6b6:	f04f 0c04 	mov.w	r12, #4
     6ba:	f04f 0b01 	mov.w	r11, #1
     6be:	f47f aeab 	bne.w	418 <_ZN5music5parseEPci+0x2c>
     6c2:	e6ea      	b.n	49a <_ZN5music5parseEPci+0xae>
     6c4:	2000      	movs	r0, #0
     6c6:	42b4      	cmp	r4, r6
     6c8:	f04f 0c02 	mov.w	r12, #2
     6cc:	f04f 0b01 	mov.w	r11, #1
     6d0:	f47f aea2 	bne.w	418 <_ZN5music5parseEPci+0x2c>
     6d4:	e6e1      	b.n	49a <_ZN5music5parseEPci+0xae>
     6d6:	2000      	movs	r0, #0
     6d8:	42b4      	cmp	r4, r6
     6da:	f04f 0c06 	mov.w	r12, #6
     6de:	f04f 0b01 	mov.w	r11, #1
     6e2:	f47f ae99 	bne.w	418 <_ZN5music5parseEPci+0x2c>
     6e6:	e6d8      	b.n	49a <_ZN5music5parseEPci+0xae>
     6e8:	2000      	movs	r0, #0
     6ea:	42b4      	cmp	r4, r6
     6ec:	f04f 0c07 	mov.w	r12, #7
     6f0:	f04f 0b01 	mov.w	r11, #1
     6f4:	f47f ae90 	bne.w	418 <_ZN5music5parseEPci+0x2c>
     6f8:	e6cf      	b.n	49a <_ZN5music5parseEPci+0xae>
     6fa:	42b4      	cmp	r4, r6
     6fc:	46e2      	mov	r10, r12
     6fe:	f04f 0b01 	mov.w	r11, #1
     702:	f04f 0c08 	mov.w	r12, #8
     706:	f47f ae87 	bne.w	418 <_ZN5music5parseEPci+0x2c>
     70a:	e6c6      	b.n	49a <_ZN5music5parseEPci+0xae>
     70c:	eb0a 0a8a 	add.w	r10, r10, r10, lsl #2
     710:	eb0c 0a4a 	add.w	r10, r12, r10, lsl #1
     714:	f10a 30ff 	add.w	r0, r10, #4294967295
     718:	283f      	cmp	r0, #63	; 0x3f
     71a:	f63f aeb4 	bhi.w	486 <_ZN5music5parseEPci+0x9a>
     71e:	2920      	cmp	r1, #32
     720:	d01b      	beq.n	75a <_ZN5music5parseEPci+0x36e>
     722:	a801      	add	r0, sp, #4
     724:	e899 00a0 	ldmia.w	r9, {r5, r7}
     728:	f7ff fd34 	bl	194 <_ZN5notes8get_freqEcii>
     72c:	f8d9 2004 	ldr.w	r2, [r9, #4]
     730:	f8d9 3000 	ldr.w	r3, [r9]
     734:	eb05 1807 	add.w	r8, r5, r7, lsl #4
     738:	eb03 1302 	add.w	r3, r3, r2, lsl #4
     73c:	3201      	adds	r2, #1
     73e:	e9c8 0100 	strd	r0, r1, [r8]
     742:	f04f 0c00 	mov.w	r12, #0
     746:	4658      	mov	r0, r11
     748:	f8c3 a008 	str.w	r10, [r3, #8]
     74c:	f8c9 2004 	str.w	r2, [r9, #4]
     750:	e69c      	b.n	48c <_ZN5music5parseEPci+0xa0>
     752:	f04f 0c09 	mov.w	r12, #9
     756:	2000      	movs	r0, #0
     758:	e69d      	b.n	496 <_ZN5music5parseEPci+0xaa>
     75a:	f04f 0c00 	mov.w	r12, #0
     75e:	4658      	mov	r0, r11
     760:	46e2      	mov	r10, r12
     762:	4662      	mov	r2, r12
     764:	46e3      	mov	r11, r12
     766:	4663      	mov	r3, r12
     768:	e695      	b.n	496 <_ZN5music5parseEPci+0xaa>
     76a:	bf00      	nop

0000076c <_ZN5music4playEPcdi>:
     76c:	e92d 41f0 	stmdb	sp!, {r4, r5, r6, r7, r8, lr}
     770:	4680      	mov	r8, r0
     772:	b082      	sub	sp, #8
     774:	460e      	mov	r6, r1
     776:	4614      	mov	r4, r2
     778:	461d      	mov	r5, r3
     77a:	4668      	mov	r0, sp
     77c:	9b08      	ldr	r3, [sp, #32]
     77e:	4641      	mov	r1, r8
     780:	4632      	mov	r2, r6
     782:	f7ff fe33 	bl	3ec <_ZN5music5parseEPci>
     786:	9b01      	ldr	r3, [sp, #4]
     788:	2b00      	cmp	r3, #0
     78a:	dd21      	ble.n	7d0 <_ZN5music4playEPcdi+0x64>
     78c:	2600      	movs	r6, #0
     78e:	9800      	ldr	r0, [sp, #0]
     790:	0137      	lsls	r7, r6, #4
     792:	19c1      	adds	r1, r0, r7
     794:	e9d1 2300 	ldrd	r2, r3, [r1]
     798:	4640      	mov	r0, r8
     79a:	f7ff fddb 	bl	354 <_ZN5music4freqEd>
     79e:	9a00      	ldr	r2, [sp, #0]
     7a0:	3601      	adds	r6, #1
     7a2:	19d7      	adds	r7, r2, r7
     7a4:	68b8      	ldr	r0, [r7, #8]
     7a6:	f001 f9ff 	bl	1ba8 <__aeabi_i2d>
     7aa:	4622      	mov	r2, r4
     7ac:	462b      	mov	r3, r5
     7ae:	f001 fa61 	bl	1c74 <__aeabi_dmul>
     7b2:	460b      	mov	r3, r1
     7b4:	2100      	movs	r1, #0
     7b6:	4602      	mov	r2, r0
     7b8:	f2c4 016e 	movt	r1, #16494	; 0x406e
     7bc:	2000      	movs	r0, #0
     7be:	f001 fb83 	bl	1ec8 <__aeabi_ddiv>
     7c2:	f001 fd19 	bl	21f8 <__aeabi_d2f>
     7c6:	f000 f9e7 	bl	b98 <wait>
     7ca:	9b01      	ldr	r3, [sp, #4]
     7cc:	42b3      	cmp	r3, r6
     7ce:	dcde      	bgt.n	78e <_ZN5music4playEPcdi+0x22>
     7d0:	4640      	mov	r0, r8
     7d2:	2200      	movs	r2, #0
     7d4:	2300      	movs	r3, #0
     7d6:	f7ff fdbd 	bl	354 <_ZN5music4freqEd>
     7da:	4640      	mov	r0, r8
     7dc:	4669      	mov	r1, sp
     7de:	f7ff fdfd 	bl	3dc <_ZN5music8dal_songEP6m_song>
     7e2:	b002      	add	sp, #8
     7e4:	e8bd 81f0 	ldmia.w	sp!, {r4, r5, r6, r7, r8, pc}

000007e8 <_start>:
     7e8:	f240 5048 	movw	r0, #1352	; 0x548
     7ec:	f240 7290 	movw	r2, #1936	; 0x790
     7f0:	f2c1 0000 	movt	r0, #4096	; 0x1000
     7f4:	f2c1 0200 	movt	r2, #4096	; 0x1000
     7f8:	b508      	push	{r3, lr}
     7fa:	2100      	movs	r1, #0
     7fc:	1a12      	subs	r2, r2, r0
     7fe:	f002 f8e0 	bl	29c2 <memset>
     802:	f3af 8000 	nop.w
     806:	f002 f853 	bl	28b0 <__libc_init_array>
     80a:	f7ff fc89 	bl	120 <main>
     80e:	f000 f995 	bl	b3c <exit>
     812:	bf00      	nop

00000814 <__wrap__isatty>:
     814:	2802      	cmp	r0, #2
     816:	dc01      	bgt.n	81c <__wrap__isatty+0x8>
     818:	2001      	movs	r0, #1
     81a:	4770      	bx	lr
     81c:	f006 b9d2 	b.w	6bc4 <_isatty>

00000820 <abort>:
     820:	b508      	push	{r3, lr}
     822:	2001      	movs	r0, #1
     824:	f000 f98a 	bl	b3c <exit>

00000828 <__cxa_pure_virtual>:
     828:	b508      	push	{r3, lr}
     82a:	f7ff fff9 	bl	820 <abort>
     82e:	bf00      	nop

00000830 <Reset_Handler>:
     830:	4907      	ldr	r1, [pc, #28]	; (850 <.flash_to_ram_loop+0x1a>)
     832:	4a08      	ldr	r2, [pc, #32]	; (854 <.flash_to_ram_loop+0x1e>)
     834:	4b08      	ldr	r3, [pc, #32]	; (858 <.flash_to_ram_loop+0x22>)

00000836 <.flash_to_ram_loop>:
     836:	429a      	cmp	r2, r3
     838:	bfbe      	ittt	lt
     83a:	f851 0b04 	ldrlt.w	r0, [r1], #4
     83e:	f842 0b04 	strlt.w	r0, [r2], #4
     842:	f7ff bff8 	blt.w	836 <.flash_to_ram_loop>
     846:	4805      	ldr	r0, [pc, #20]	; (85c <.flash_to_ram_loop+0x26>)
     848:	4780      	blx	r0
     84a:	4805      	ldr	r0, [pc, #20]	; (860 <.flash_to_ram_loop+0x2a>)
     84c:	4700      	bx	r0
     84e:	0000      	.short	0x0000
     850:	000072a8 	.word	0x000072a8
     854:	100000c8 	.word	0x100000c8
     858:	10000548 	.word	0x10000548
     85c:	00000919 	.word	0x00000919
     860:	000007e9 	.word	0x000007e9

00000864 <NMI_Handler>:
     864:	e7fe      	b.n	864 <NMI_Handler>

00000866 <HardFault_Handler>:
     866:	e7fe      	b.n	866 <HardFault_Handler>

00000868 <MemManage_Handler>:
     868:	e7fe      	b.n	868 <MemManage_Handler>

0000086a <BusFault_Handler>:
     86a:	e7fe      	b.n	86a <BusFault_Handler>

0000086c <UsageFault_Handler>:
     86c:	e7fe      	b.n	86c <UsageFault_Handler>

0000086e <SVC_Handler>:
     86e:	e7fe      	b.n	86e <SVC_Handler>

00000870 <DebugMon_Handler>:
     870:	e7fe      	b.n	870 <DebugMon_Handler>

00000872 <PendSV_Handler>:
     872:	e7fe      	b.n	872 <PendSV_Handler>

00000874 <SysTick_Handler>:
     874:	e7fe      	b.n	874 <SysTick_Handler>

00000876 <DEF_IRQHandler>:
     876:	e7fe      	b.n	876 <DEF_IRQHandler>

00000878 <WDT_IRQHandler>:
     878:	e7fe      	b.n	878 <WDT_IRQHandler>

0000087a <TIMER0_IRQHandler>:
     87a:	e7fe      	b.n	87a <TIMER0_IRQHandler>

0000087c <TIMER1_IRQHandler>:
     87c:	e7fe      	b.n	87c <TIMER1_IRQHandler>

0000087e <TIMER2_IRQHandler>:
     87e:	e7fe      	b.n	87e <TIMER2_IRQHandler>

00000880 <TIMER3_IRQHandler>:
     880:	e7fe      	b.n	880 <TIMER3_IRQHandler>

00000882 <UART0_IRQHandler>:
     882:	e7fe      	b.n	882 <UART0_IRQHandler>

00000884 <UART1_IRQHandler>:
     884:	e7fe      	b.n	884 <UART1_IRQHandler>

00000886 <UART2_IRQHandler>:
     886:	e7fe      	b.n	886 <UART2_IRQHandler>

00000888 <UART3_IRQHandler>:
     888:	e7fe      	b.n	888 <UART3_IRQHandler>

0000088a <PWM1_IRQHandler>:
     88a:	e7fe      	b.n	88a <PWM1_IRQHandler>

0000088c <I2C0_IRQHandler>:
     88c:	e7fe      	b.n	88c <I2C0_IRQHandler>

0000088e <I2C1_IRQHandler>:
     88e:	e7fe      	b.n	88e <I2C1_IRQHandler>

00000890 <I2C2_IRQHandler>:
     890:	e7fe      	b.n	890 <I2C2_IRQHandler>

00000892 <SPI_IRQHandler>:
     892:	e7fe      	b.n	892 <SPI_IRQHandler>

00000894 <SSP0_IRQHandler>:
     894:	e7fe      	b.n	894 <SSP0_IRQHandler>

00000896 <SSP1_IRQHandler>:
     896:	e7fe      	b.n	896 <SSP1_IRQHandler>

00000898 <PLL0_IRQHandler>:
     898:	e7fe      	b.n	898 <PLL0_IRQHandler>

0000089a <RTC_IRQHandler>:
     89a:	e7fe      	b.n	89a <RTC_IRQHandler>

0000089c <EINT0_IRQHandler>:
     89c:	e7fe      	b.n	89c <EINT0_IRQHandler>

0000089e <EINT1_IRQHandler>:
     89e:	e7fe      	b.n	89e <EINT1_IRQHandler>

000008a0 <EINT2_IRQHandler>:
     8a0:	e7fe      	b.n	8a0 <EINT2_IRQHandler>

000008a2 <EINT3_IRQHandler>:
     8a2:	e7fe      	b.n	8a2 <EINT3_IRQHandler>

000008a4 <ADC_IRQHandler>:
     8a4:	e7fe      	b.n	8a4 <ADC_IRQHandler>

000008a6 <BOD_IRQHandler>:
     8a6:	e7fe      	b.n	8a6 <BOD_IRQHandler>

000008a8 <USB_IRQHandler>:
     8a8:	e7fe      	b.n	8a8 <USB_IRQHandler>

000008aa <CAN_IRQHandler>:
     8aa:	e7fe      	b.n	8aa <CAN_IRQHandler>

000008ac <DMA_IRQHandler>:
     8ac:	e7fe      	b.n	8ac <DMA_IRQHandler>

000008ae <I2S_IRQHandler>:
     8ae:	e7fe      	b.n	8ae <I2S_IRQHandler>

000008b0 <ENET_IRQHandler>:
     8b0:	e7fe      	b.n	8b0 <ENET_IRQHandler>

000008b2 <RIT_IRQHandler>:
     8b2:	e7fe      	b.n	8b2 <RIT_IRQHandler>

000008b4 <MCPWM_IRQHandler>:
     8b4:	e7fe      	b.n	8b4 <MCPWM_IRQHandler>

000008b6 <QEI_IRQHandler>:
     8b6:	e7fe      	b.n	8b6 <QEI_IRQHandler>

000008b8 <PLL1_IRQHandler>:
     8b8:	e7fe      	b.n	8b8 <PLL1_IRQHandler>

000008ba <USBActivity_IRQHandler>:
     8ba:	e7fe      	b.n	8ba <USBActivity_IRQHandler>

000008bc <CANActivity_IRQHandler>:
     8bc:	e7fe      	b.n	8bc <CANActivity_IRQHandler>
     8be:	bf00      	nop

000008c0 <NVIC_SetVector>:
     8c0:	f44f 436d 	mov.w	r3, #60672	; 0xed00
     8c4:	f2ce 0300 	movt	r3, #57344	; 0xe000
     8c8:	689a      	ldr	r2, [r3, #8]
     8ca:	b470      	push	{r4, r5, r6}
     8cc:	f1b2 5f80 	cmp.w	r2, #268435456	; 0x10000000
     8d0:	d019      	beq.n	906 <NVIC_SetVector+0x46>
     8d2:	689e      	ldr	r6, [r3, #8]
     8d4:	f04f 5580 	mov.w	r5, #268435456	; 0x10000000
     8d8:	6832      	ldr	r2, [r6, #0]
     8da:	f1c6 5480 	rsb	r4, r6, #268435456	; 0x10000000
     8de:	4633      	mov	r3, r6
     8e0:	3404      	adds	r4, #4
     8e2:	36c0      	adds	r6, #192	; 0xc0
     8e4:	602a      	str	r2, [r5, #0]
     8e6:	685d      	ldr	r5, [r3, #4]
     8e8:	1d1a      	adds	r2, r3, #4
     8ea:	50e5      	str	r5, [r4, r3]
     8ec:	689d      	ldr	r5, [r3, #8]
     8ee:	3308      	adds	r3, #8
     8f0:	42b3      	cmp	r3, r6
     8f2:	50a5      	str	r5, [r4, r2]
     8f4:	d1f7      	bne.n	8e6 <NVIC_SetVector+0x26>
     8f6:	f44f 4c6d 	mov.w	r12, #60672	; 0xed00
     8fa:	f2ce 0c00 	movt	r12, #57344	; 0xe000
     8fe:	f04f 5380 	mov.w	r3, #268435456	; 0x10000000
     902:	f8cc 3008 	str.w	r3, [r12, #8]
     906:	f100 0010 	add.w	r0, r0, #16
     90a:	0082      	lsls	r2, r0, #2
     90c:	f102 5c80 	add.w	r12, r2, #268435456	; 0x10000000
     910:	f8cc 1000 	str.w	r1, [r12]
     914:	bc70      	pop	{r4, r5, r6}
     916:	4770      	bx	lr

00000918 <SystemInit>:
     918:	f44f 4240 	mov.w	r2, #49152	; 0xc000
     91c:	f2c4 020f 	movt	r2, #16399	; 0x400f
     920:	2320      	movs	r3, #32
     922:	b430      	push	{r4, r5}
     924:	f8c2 31a0 	str.w	r3, [r2, #416]	; 0x1a0
     928:	f8d2 01a0 	ldr.w	r0, [r2, #416]	; 0x1a0
     92c:	0680      	lsls	r0, r0, #26
     92e:	d456      	bmi.n	9de <SystemInit+0xc6>
     930:	f44f 4c40 	mov.w	r12, #49152	; 0xc000
     934:	f2c4 0c0f 	movt	r12, #16399	; 0x400f
     938:	2500      	movs	r5, #0
     93a:	2002      	movs	r0, #2
     93c:	f8cc 0104 	str.w	r0, [r12, #260]	; 0x104
     940:	2401      	movs	r4, #1
     942:	f8cc 51a8 	str.w	r5, [r12, #424]	; 0x1a8
     946:	23aa      	movs	r3, #170	; 0xaa
     948:	f8cc 51ac 	str.w	r5, [r12, #428]	; 0x1ac
     94c:	2255      	movs	r2, #85	; 0x55
     94e:	250b      	movs	r5, #11
     950:	f8cc 410c 	str.w	r4, [r12, #268]	; 0x10c
     954:	4661      	mov	r1, r12
     956:	f8cc 5084 	str.w	r5, [r12, #132]	; 0x84
     95a:	f8cc 308c 	str.w	r3, [r12, #140]	; 0x8c
     95e:	f8cc 208c 	str.w	r2, [r12, #140]	; 0x8c
     962:	f8cc 4080 	str.w	r4, [r12, #128]	; 0x80
     966:	f8cc 308c 	str.w	r3, [r12, #140]	; 0x8c
     96a:	f8cc 208c 	str.w	r2, [r12, #140]	; 0x8c
     96e:	f8d1 2088 	ldr.w	r2, [r1, #136]	; 0x88
     972:	f44f 4c40 	mov.w	r12, #49152	; 0xc000
     976:	0152      	lsls	r2, r2, #5
     978:	f2c4 0c0f 	movt	r12, #16399	; 0x400f
     97c:	d5f7      	bpl.n	96e <SystemInit+0x56>
     97e:	2303      	movs	r3, #3
     980:	21aa      	movs	r1, #170	; 0xaa
     982:	2255      	movs	r2, #85	; 0x55
     984:	f8cc 3080 	str.w	r3, [r12, #128]	; 0x80
     988:	4660      	mov	r0, r12
     98a:	f8cc 108c 	str.w	r1, [r12, #140]	; 0x8c
     98e:	f8cc 208c 	str.w	r2, [r12, #140]	; 0x8c
     992:	f8d0 1088 	ldr.w	r1, [r0, #136]	; 0x88
     996:	f44f 4c40 	mov.w	r12, #49152	; 0xc000
     99a:	f011 7f40 	tst.w	r1, #50331648	; 0x3000000
     99e:	f2c4 0c0f 	movt	r12, #16399	; 0x400f
     9a2:	d0f6      	beq.n	992 <SystemInit+0x7a>
     9a4:	f248 73de 	movw	r3, #34782	; 0x87de
     9a8:	f2c0 4328 	movt	r3, #1064	; 0x428
     9ac:	2005      	movs	r0, #5
     9ae:	2200      	movs	r2, #0
     9b0:	f8cc 0108 	str.w	r0, [r12, #264]	; 0x108
     9b4:	f8cc 30c4 	str.w	r3, [r12, #196]	; 0xc4
     9b8:	f8cc 21c8 	str.w	r2, [r12, #456]	; 0x1c8
     9bc:	f8dc 1000 	ldr.w	r1, [r12]
     9c0:	f421 4370 	bic.w	r3, r1, #61440	; 0xf000
     9c4:	f023 003a 	bic.w	r0, r3, #58	; 0x3a
     9c8:	f440 5240 	orr.w	r2, r0, #12288	; 0x3000
     9cc:	4b08      	ldr	r3, [pc, #32]	; (9f0 <SystemInit+0xd8>)
     9ce:	f042 013a 	orr.w	r1, r2, #58	; 0x3a
     9d2:	2001      	movs	r0, #1
     9d4:	f8cc 1000 	str.w	r1, [r12]
     9d8:	6018      	str	r0, [r3, #0]
     9da:	bc30      	pop	{r4, r5}
     9dc:	4770      	bx	lr
     9de:	f8d2 11a0 	ldr.w	r1, [r2, #416]	; 0x1a0
     9e2:	0649      	lsls	r1, r1, #25
     9e4:	d4a4      	bmi.n	930 <SystemInit+0x18>
     9e6:	f8d2 11a0 	ldr.w	r1, [r2, #416]	; 0x1a0
     9ea:	0649      	lsls	r1, r1, #25
     9ec:	d5f7      	bpl.n	9de <SystemInit+0xc6>
     9ee:	e79f      	b.n	930 <SystemInit+0x18>
     9f0:	10000564 	.word	0x10000564

000009f4 <gpio_set>:
     9f4:	b510      	push	{r4, lr}
     9f6:	2100      	movs	r1, #0
     9f8:	4604      	mov	r4, r0
     9fa:	f004 041f 	and.w	r4, r4, #31
     9fe:	f000 f843 	bl	a88 <pin_function>
     a02:	2001      	movs	r0, #1
     a04:	fa00 f004 	lsl.w	r0, r0, r4
     a08:	bd10      	pop	{r4, pc}
     a0a:	bf00      	nop

00000a0c <gpio_dir>:
     a0c:	b931      	cbnz	r1, a1c <gpio_dir+0x10>
     a0e:	6883      	ldr	r3, [r0, #8]
     a10:	6841      	ldr	r1, [r0, #4]
     a12:	681a      	ldr	r2, [r3, #0]
     a14:	ea22 0001 	bic.w	r0, r2, r1
     a18:	6018      	str	r0, [r3, #0]
     a1a:	4770      	bx	lr
     a1c:	2901      	cmp	r1, #1
     a1e:	d000      	beq.n	a22 <gpio_dir+0x16>
     a20:	4770      	bx	lr
     a22:	6883      	ldr	r3, [r0, #8]
     a24:	6842      	ldr	r2, [r0, #4]
     a26:	6819      	ldr	r1, [r3, #0]
     a28:	ea41 0002 	orr.w	r0, r1, r2
     a2c:	6018      	str	r0, [r3, #0]
     a2e:	4770      	bx	lr

00000a30 <gpio_init>:
     a30:	b5f8      	push	{r3, r4, r5, r6, r7, lr}
     a32:	1c4b      	adds	r3, r1, #1
     a34:	460d      	mov	r5, r1
     a36:	4604      	mov	r4, r0
     a38:	4616      	mov	r6, r2
     a3a:	d01d      	beq.n	a78 <gpio_init+0x48>
     a3c:	6021      	str	r1, [r4, #0]
     a3e:	4608      	mov	r0, r1
     a40:	f7ff ffd8 	bl	9f4 <gpio_set>
     a44:	f025 031f 	bic.w	r3, r5, #31
     a48:	f103 011c 	add.w	r1, r3, #28
     a4c:	f103 0718 	add.w	r7, r3, #24
     a50:	f103 0214 	add.w	r2, r3, #20
     a54:	6060      	str	r0, [r4, #4]
     a56:	6121      	str	r1, [r4, #16]
     a58:	60e7      	str	r7, [r4, #12]
     a5a:	6162      	str	r2, [r4, #20]
     a5c:	60a3      	str	r3, [r4, #8]
     a5e:	4620      	mov	r0, r4
     a60:	4631      	mov	r1, r6
     a62:	f7ff ffd3 	bl	a0c <gpio_dir>
     a66:	b92e      	cbnz	r6, a74 <gpio_init+0x44>
     a68:	4628      	mov	r0, r5
     a6a:	2103      	movs	r1, #3
     a6c:	e8bd 40f8 	ldmia.w	sp!, {r3, r4, r5, r6, r7, lr}
     a70:	f000 b82c 	b.w	acc <pin_mode>
     a74:	2e01      	cmp	r6, #1
     a76:	d000      	beq.n	a7a <gpio_init+0x4a>
     a78:	bdf8      	pop	{r3, r4, r5, r6, r7, pc}
     a7a:	4628      	mov	r0, r5
     a7c:	2102      	movs	r1, #2
     a7e:	e8bd 40f8 	ldmia.w	sp!, {r3, r4, r5, r6, r7, lr}
     a82:	f000 b823 	b.w	acc <pin_mode>
     a86:	bf00      	nop

00000a88 <pin_function>:
     a88:	1c43      	adds	r3, r0, #1
     a8a:	b410      	push	{r4}
     a8c:	d01b      	beq.n	ac6 <pin_function+0x3e>
     a8e:	f100 4060 	add.w	r0, r0, #3758096384	; 0xe0000000
     a92:	f5a0 241c 	sub.w	r4, r0, #638976	; 0x9c000
     a96:	f004 030f 	and.w	r3, r4, #15
     a9a:	0058      	lsls	r0, r3, #1
     a9c:	2203      	movs	r2, #3
     a9e:	fa02 fc00 	lsl.w	r12, r2, r0
     aa2:	fa01 f100 	lsl.w	r1, r1, r0
     aa6:	f44f 4340 	mov.w	r3, #49152	; 0xc000
     aaa:	0920      	lsrs	r0, r4, #4
     aac:	f2c4 0302 	movt	r3, #16386	; 0x4002
     ab0:	f853 4020 	ldr.w	r4, [r3, r0, lsl #2]
     ab4:	ea24 020c 	bic.w	r2, r4, r12
     ab8:	f843 2020 	str.w	r2, [r3, r0, lsl #2]
     abc:	f853 2020 	ldr.w	r2, [r3, r0, lsl #2]
     ac0:	4311      	orrs	r1, r2
     ac2:	f843 1020 	str.w	r1, [r3, r0, lsl #2]
     ac6:	bc10      	pop	{r4}
     ac8:	4770      	bx	lr
     aca:	bf00      	nop

00000acc <pin_mode>:
     acc:	1c42      	adds	r2, r0, #1
     ace:	b470      	push	{r4, r5, r6}
     ad0:	d032      	beq.n	b38 <pin_mode+0x6c>
     ad2:	f100 4060 	add.w	r0, r0, #3758096384	; 0xe0000000
     ad6:	f5a0 201c 	sub.w	r0, r0, #638976	; 0x9c000
     ada:	f000 051f 	and.w	r5, r0, #31
     ade:	f3c1 0480 	ubfx	r4, r1, #2, #1
     ae2:	fa04 fc05 	lsl.w	r12, r4, r5
     ae6:	0942      	lsrs	r2, r0, #5
     ae8:	f44f 4340 	mov.w	r3, #49152	; 0xc000
     aec:	f2c4 0302 	movt	r3, #16386	; 0x4002
     af0:	321a      	adds	r2, #26
     af2:	f853 6022 	ldr.w	r6, [r3, r2, lsl #2]
     af6:	ea26 050c 	bic.w	r5, r6, r12
     afa:	f843 5022 	str.w	r5, [r3, r2, lsl #2]
     afe:	f853 6022 	ldr.w	r6, [r3, r2, lsl #2]
     b02:	ea46 050c 	orr.w	r5, r6, r12
     b06:	f843 5022 	str.w	r5, [r3, r2, lsl #2]
     b0a:	b9ac      	cbnz	r4, b38 <pin_mode+0x6c>
     b0c:	f000 040f 	and.w	r4, r0, #15
     b10:	0062      	lsls	r2, r4, #1
     b12:	2503      	movs	r5, #3
     b14:	fa05 f502 	lsl.w	r5, r5, r2
     b18:	fa01 fc02 	lsl.w	r12, r1, r2
     b1c:	0900      	lsrs	r0, r0, #4
     b1e:	3010      	adds	r0, #16
     b20:	f853 1020 	ldr.w	r1, [r3, r0, lsl #2]
     b24:	ea21 0405 	bic.w	r4, r1, r5
     b28:	f843 4020 	str.w	r4, [r3, r0, lsl #2]
     b2c:	f853 4020 	ldr.w	r4, [r3, r0, lsl #2]
     b30:	ea4c 0204 	orr.w	r2, r12, r4
     b34:	f843 2020 	str.w	r2, [r3, r0, lsl #2]
     b38:	bc70      	pop	{r4, r5, r6}
     b3a:	4770      	bx	lr

00000b3c <exit>:
     b3c:	b510      	push	{r4, lr}
     b3e:	4604      	mov	r4, r0
     b40:	f000 f80a 	bl	b58 <mbed_interface_connected>
     b44:	b920      	cbnz	r0, b50 <exit+0x14>
     b46:	b904      	cbnz	r4, b4a <exit+0xe>
     b48:	e7fe      	b.n	b48 <exit+0xc>
     b4a:	f000 f97d 	bl	e48 <mbed_die>
     b4e:	e7fb      	b.n	b48 <exit+0xc>
     b50:	f000 f804 	bl	b5c <semihost_exit>
     b54:	e7f7      	b.n	b46 <exit+0xa>
     b56:	bf00      	nop

00000b58 <mbed_interface_connected>:
     b58:	f000 b9b8 	b.w	ecc <semihost_connected>

00000b5c <semihost_exit>:
     b5c:	b530      	push	{r4, r5, lr}
     b5e:	b085      	sub	sp, #20
     b60:	466d      	mov	r5, sp
     b62:	2418      	movs	r4, #24
     b64:	4620      	mov	r0, r4
     b66:	4629      	mov	r1, r5
     b68:	beab      	bkpt	0x00ab
     b6a:	4604      	mov	r4, r0
     b6c:	4620      	mov	r0, r4
     b6e:	b005      	add	sp, #20
     b70:	bd30      	pop	{r4, r5, pc}
     b72:	bf00      	nop

00000b74 <wait_us>:
     b74:	b538      	push	{r3, r4, r5, lr}
     b76:	4605      	mov	r5, r0
     b78:	f000 fc66 	bl	1448 <us_ticker_read>
     b7c:	4604      	mov	r4, r0
     b7e:	f000 fc63 	bl	1448 <us_ticker_read>
     b82:	1b00      	subs	r0, r0, r4
     b84:	42a8      	cmp	r0, r5
     b86:	d3fa      	bcc.n	b7e <wait_us+0xa>
     b88:	bd38      	pop	{r3, r4, r5, pc}
     b8a:	bf00      	nop

00000b8c <wait_ms>:
     b8c:	f44f 737a 	mov.w	r3, #1000	; 0x3e8
     b90:	fb03 f000 	mul.w	r0, r3, r0
     b94:	f7ff bfee 	b.w	b74 <wait_us>

00000b98 <wait>:
     b98:	b508      	push	{r3, lr}
     b9a:	f001 f817 	bl	1bcc <__aeabi_f2d>
     b9e:	a306      	add	r3, pc, #24	; (adr r3, bb8 <wait+0x20>)
     ba0:	e9d3 2300 	ldrd	r2, r3, [r3]
     ba4:	f001 f866 	bl	1c74 <__aeabi_dmul>
     ba8:	f001 fafe 	bl	21a8 <__aeabi_d2iz>
     bac:	e8bd 4008 	ldmia.w	sp!, {r3, lr}
     bb0:	f7ff bfe0 	b.w	b74 <wait_us>
     bb4:	f3af 8000 	nop.w
     bb8:	00000000 	.word	0x00000000
     bbc:	412e8480 	.word	0x412e8480

00000bc0 <_ZN4mbed15FunctionPointerC1EPFvvE>:
     bc0:	2200      	movs	r2, #0
     bc2:	6001      	str	r1, [r0, #0]
     bc4:	6042      	str	r2, [r0, #4]
     bc6:	4770      	bx	lr

00000bc8 <_ZN4mbed15FunctionPointer6attachEPFvvE>:
     bc8:	2300      	movs	r3, #0
     bca:	6001      	str	r1, [r0, #0]
     bcc:	6043      	str	r3, [r0, #4]
     bce:	4770      	bx	lr

00000bd0 <_ZN4mbed15FunctionPointer4callEv>:
     bd0:	b508      	push	{r3, lr}
     bd2:	6803      	ldr	r3, [r0, #0]
     bd4:	4601      	mov	r1, r0
     bd6:	b10b      	cbz	r3, bdc <_ZN4mbed15FunctionPointer4callEv+0xc>
     bd8:	4798      	blx	r3
     bda:	bd08      	pop	{r3, pc}
     bdc:	6840      	ldr	r0, [r0, #4]
     bde:	b110      	cbz	r0, be6 <_ZN4mbed15FunctionPointer4callEv+0x16>
     be0:	698a      	ldr	r2, [r1, #24]
     be2:	3108      	adds	r1, #8
     be4:	4790      	blx	r2
     be6:	bd08      	pop	{r3, pc}

00000be8 <_ZL11init_serialv>:
     be8:	4b0e      	ldr	r3, [pc, #56]	; (c24 <Stack_Size+0x24>)
     bea:	b510      	push	{r4, lr}
     bec:	681c      	ldr	r4, [r3, #0]
     bee:	b104      	cbz	r4, bf2 <_ZL11init_serialv+0xa>
     bf0:	bd10      	pop	{r4, pc}
     bf2:	f24c 0102 	movw	r1, #49154	; 0xc002
     bf6:	f24c 0203 	movw	r2, #49155	; 0xc003
     bfa:	480b      	ldr	r0, [pc, #44]	; (c28 <Stack_Size+0x28>)
     bfc:	f2c2 0109 	movt	r1, #8201	; 0x2009
     c00:	f2c2 0209 	movt	r2, #8201	; 0x2009
     c04:	f000 fae4 	bl	11d0 <serial_init>
     c08:	2108      	movs	r1, #8
     c0a:	4807      	ldr	r0, [pc, #28]	; (c28 <Stack_Size+0x28>)
     c0c:	4622      	mov	r2, r4
     c0e:	2301      	movs	r3, #1
     c10:	f000 fa9a 	bl	1148 <serial_format>
     c14:	4804      	ldr	r0, [pc, #16]	; (c28 <Stack_Size+0x28>)
     c16:	f44f 5116 	mov.w	r1, #9600	; 0x2580
     c1a:	e8bd 4010 	ldmia.w	sp!, {r4, lr}
     c1e:	f000 b95f 	b.w	ee0 <serial_baud>
     c22:	bf00      	nop
     c24:	10000668 	.word	0x10000668
     c28:	10000684 	.word	0x10000684

00000c2c <_close>:
     c2c:	2802      	cmp	r0, #2
     c2e:	b508      	push	{r3, lr}
     c30:	dd0b      	ble.n	c4a <_close+0x1e>
     c32:	4b08      	ldr	r3, [pc, #32]	; (c54 <_close+0x28>)
     c34:	1ec2      	subs	r2, r0, #3
     c36:	f853 0022 	ldr.w	r0, [r3, r2, lsl #2]
     c3a:	2100      	movs	r1, #0
     c3c:	f843 1022 	str.w	r1, [r3, r2, lsl #2]
     c40:	b128      	cbz	r0, c4e <_close+0x22>
     c42:	6803      	ldr	r3, [r0, #0]
     c44:	685a      	ldr	r2, [r3, #4]
     c46:	4790      	blx	r2
     c48:	bd08      	pop	{r3, pc}
     c4a:	2000      	movs	r0, #0
     c4c:	bd08      	pop	{r3, pc}
     c4e:	f04f 30ff 	mov.w	r0, #4294967295
     c52:	bd08      	pop	{r3, pc}
     c54:	10000568 	.word	0x10000568

00000c58 <_write>:
     c58:	2802      	cmp	r0, #2
     c5a:	b5f8      	push	{r3, r4, r5, r6, r7, lr}
     c5c:	460d      	mov	r5, r1
     c5e:	4617      	mov	r7, r2
     c60:	dc28      	bgt.n	cb4 <_write+0x5c>
     c62:	491d      	ldr	r1, [pc, #116]	; (cd8 <_write+0x80>)
     c64:	680a      	ldr	r2, [r1, #0]
     c66:	2a00      	cmp	r2, #0
     c68:	d02d      	beq.n	cc6 <_write+0x6e>
     c6a:	b30f      	cbz	r7, cb0 <_write+0x58>
     c6c:	462c      	mov	r4, r5
     c6e:	19ee      	adds	r6, r5, r7
     c70:	f814 1b01 	ldrb.w	r1, [r4], #1
     c74:	43ed      	mvns	r5, r5
     c76:	19ab      	adds	r3, r5, r6
     c78:	4818      	ldr	r0, [pc, #96]	; (cdc <_write+0x84>)
     c7a:	f003 0501 	and.w	r5, r3, #1
     c7e:	f000 fbd9 	bl	1434 <serial_putc>
     c82:	42b4      	cmp	r4, r6
     c84:	d014      	beq.n	cb0 <_write+0x58>
     c86:	b135      	cbz	r5, c96 <_write+0x3e>
     c88:	f814 1b01 	ldrb.w	r1, [r4], #1
     c8c:	4813      	ldr	r0, [pc, #76]	; (cdc <_write+0x84>)
     c8e:	f000 fbd1 	bl	1434 <serial_putc>
     c92:	42b4      	cmp	r4, r6
     c94:	d00c      	beq.n	cb0 <_write+0x58>
     c96:	4625      	mov	r5, r4
     c98:	f815 1b01 	ldrb.w	r1, [r5], #1
     c9c:	480f      	ldr	r0, [pc, #60]	; (cdc <_write+0x84>)
     c9e:	f000 fbc9 	bl	1434 <serial_putc>
     ca2:	7861      	ldrb	r1, [r4, #1]
     ca4:	480d      	ldr	r0, [pc, #52]	; (cdc <_write+0x84>)
     ca6:	1c6c      	adds	r4, r5, #1
     ca8:	f000 fbc4 	bl	1434 <serial_putc>
     cac:	42b4      	cmp	r4, r6
     cae:	d1f2      	bne.n	c96 <_write+0x3e>
     cb0:	4638      	mov	r0, r7
     cb2:	bdf8      	pop	{r3, r4, r5, r6, r7, pc}
     cb4:	4b0a      	ldr	r3, [pc, #40]	; (ce0 <_write+0x88>)
     cb6:	3803      	subs	r0, #3
     cb8:	f853 0020 	ldr.w	r0, [r3, r0, lsl #2]
     cbc:	b140      	cbz	r0, cd0 <_write+0x78>
     cbe:	6803      	ldr	r3, [r0, #0]
     cc0:	681b      	ldr	r3, [r3, #0]
     cc2:	4798      	blx	r3
     cc4:	bdf8      	pop	{r3, r4, r5, r6, r7, pc}
     cc6:	f7ff ff8f 	bl	be8 <_ZL11init_serialv>
     cca:	2f00      	cmp	r7, #0
     ccc:	d1ce      	bne.n	c6c <_write+0x14>
     cce:	e7ef      	b.n	cb0 <_write+0x58>
     cd0:	f04f 30ff 	mov.w	r0, #4294967295
     cd4:	bdf8      	pop	{r3, r4, r5, r6, r7, pc}
     cd6:	bf00      	nop
     cd8:	10000668 	.word	0x10000668
     cdc:	10000684 	.word	0x10000684
     ce0:	10000568 	.word	0x10000568

00000ce4 <_read>:
     ce4:	2802      	cmp	r0, #2
     ce6:	b510      	push	{r4, lr}
     ce8:	460c      	mov	r4, r1
     cea:	dd0a      	ble.n	d02 <_read+0x1e>
     cec:	4b0a      	ldr	r3, [pc, #40]	; (d18 <_read+0x34>)
     cee:	3803      	subs	r0, #3
     cf0:	f853 0020 	ldr.w	r0, [r3, r0, lsl #2]
     cf4:	b160      	cbz	r0, d10 <_read+0x2c>
     cf6:	6803      	ldr	r3, [r0, #0]
     cf8:	689b      	ldr	r3, [r3, #8]
     cfa:	4798      	blx	r3
     cfc:	4601      	mov	r1, r0
     cfe:	4608      	mov	r0, r1
     d00:	bd10      	pop	{r4, pc}
     d02:	4806      	ldr	r0, [pc, #24]	; (d1c <_read+0x38>)
     d04:	f000 fb90 	bl	1428 <serial_getc>
     d08:	2101      	movs	r1, #1
     d0a:	7020      	strb	r0, [r4, #0]
     d0c:	4608      	mov	r0, r1
     d0e:	bd10      	pop	{r4, pc}
     d10:	f04f 31ff 	mov.w	r1, #4294967295
     d14:	e7f3      	b.n	cfe <_read+0x1a>
     d16:	bf00      	nop
     d18:	10000568 	.word	0x10000568
     d1c:	10000684 	.word	0x10000684

00000d20 <_lseek>:
     d20:	2802      	cmp	r0, #2
     d22:	b508      	push	{r3, lr}
     d24:	dd08      	ble.n	d38 <_lseek+0x18>
     d26:	4b07      	ldr	r3, [pc, #28]	; (d44 <_lseek+0x24>)
     d28:	3803      	subs	r0, #3
     d2a:	f853 0020 	ldr.w	r0, [r3, r0, lsl #2]
     d2e:	b128      	cbz	r0, d3c <_lseek+0x1c>
     d30:	6803      	ldr	r3, [r0, #0]
     d32:	691b      	ldr	r3, [r3, #16]
     d34:	4798      	blx	r3
     d36:	bd08      	pop	{r3, pc}
     d38:	2000      	movs	r0, #0
     d3a:	bd08      	pop	{r3, pc}
     d3c:	f04f 30ff 	mov.w	r0, #4294967295
     d40:	bd08      	pop	{r3, pc}
     d42:	bf00      	nop
     d44:	10000568 	.word	0x10000568

00000d48 <_fstat>:
     d48:	2802      	cmp	r0, #2
     d4a:	b508      	push	{r3, lr}
     d4c:	d804      	bhi.n	d58 <_fstat+0x10>
     d4e:	f44f 5000 	mov.w	r0, #8192	; 0x2000
     d52:	6048      	str	r0, [r1, #4]
     d54:	2000      	movs	r0, #0
     d56:	bd08      	pop	{r3, pc}
     d58:	f001 fd92 	bl	2880 <__errno>
     d5c:	2309      	movs	r3, #9
     d5e:	6003      	str	r3, [r0, #0]
     d60:	f04f 30ff 	mov.w	r0, #4294967295
     d64:	bd08      	pop	{r3, pc}
     d66:	bf00      	nop

00000d68 <_ZN4mbed6TickerD1Ev>:
     d68:	4b03      	ldr	r3, [pc, #12]	; (d78 <_ZN4mbed6TickerD1Ev+0x10>)
     d6a:	b510      	push	{r4, lr}
     d6c:	4604      	mov	r4, r0
     d6e:	6003      	str	r3, [r0, #0]
     d70:	f000 f856 	bl	e20 <_ZN4mbed10TimerEventD1Ev>
     d74:	4620      	mov	r0, r4
     d76:	bd10      	pop	{r4, pc}
     d78:	00006c98 	.word	0x00006c98

00000d7c <_ZN4mbed6Ticker7handlerEv>:
     d7c:	6843      	ldr	r3, [r0, #4]
     d7e:	6901      	ldr	r1, [r0, #16]
     d80:	b510      	push	{r4, lr}
     d82:	18c9      	adds	r1, r1, r3
     d84:	4604      	mov	r4, r0
     d86:	f000 f843 	bl	e10 <_ZN4mbed10TimerEvent6insertEj>
     d8a:	f104 0014 	add.w	r0, r4, #20
     d8e:	e8bd 4010 	ldmia.w	sp!, {r4, lr}
     d92:	f7ff bf1d 	b.w	bd0 <_ZN4mbed15FunctionPointer4callEv>
     d96:	bf00      	nop

00000d98 <_ZN4mbed6TickerD0Ev>:
     d98:	4b05      	ldr	r3, [pc, #20]	; (db0 <_ZN4mbed6TickerD0Ev+0x18>)
     d9a:	b510      	push	{r4, lr}
     d9c:	4604      	mov	r4, r0
     d9e:	6003      	str	r3, [r0, #0]
     da0:	f000 f83e 	bl	e20 <_ZN4mbed10TimerEventD1Ev>
     da4:	4620      	mov	r0, r4
     da6:	f000 fcf7 	bl	1798 <_ZdlPv>
     daa:	4620      	mov	r0, r4
     dac:	bd10      	pop	{r4, pc}
     dae:	bf00      	nop
     db0:	00006c98 	.word	0x00006c98

00000db4 <_ZN4mbed6Ticker6detachEv>:
     db4:	b510      	push	{r4, lr}
     db6:	4604      	mov	r4, r0
     db8:	f000 f82e 	bl	e18 <_ZN4mbed10TimerEvent6removeEv>
     dbc:	f104 0014 	add.w	r0, r4, #20
     dc0:	2100      	movs	r1, #0
     dc2:	e8bd 4010 	ldmia.w	sp!, {r4, lr}
     dc6:	f7ff beff 	b.w	bc8 <_ZN4mbed15FunctionPointer6attachEPFvvE>
     dca:	bf00      	nop

00000dcc <_ZN4mbed6Ticker5setupEj>:
     dcc:	b538      	push	{r3, r4, r5, lr}
     dce:	460d      	mov	r5, r1
     dd0:	4604      	mov	r4, r0
     dd2:	f000 f821 	bl	e18 <_ZN4mbed10TimerEvent6removeEv>
     dd6:	6125      	str	r5, [r4, #16]
     dd8:	f000 fb36 	bl	1448 <us_ticker_read>
     ddc:	1941      	adds	r1, r0, r5
     dde:	4620      	mov	r0, r4
     de0:	e8bd 4038 	ldmia.w	sp!, {r3, r4, r5, lr}
     de4:	f000 b814 	b.w	e10 <_ZN4mbed10TimerEvent6insertEj>

00000de8 <_ZN4mbed10TimerEvent3irqEm>:
     de8:	b508      	push	{r3, lr}
     dea:	6803      	ldr	r3, [r0, #0]
     dec:	6899      	ldr	r1, [r3, #8]
     dee:	4788      	blx	r1
     df0:	bd08      	pop	{r3, pc}
     df2:	bf00      	nop

00000df4 <_ZN4mbed10TimerEventC1Ev>:
     df4:	4b05      	ldr	r3, [pc, #20]	; (e0c <_ZN4mbed10TimerEventC1Ev+0x18>)
     df6:	b510      	push	{r4, lr}
     df8:	4604      	mov	r4, r0
     dfa:	6003      	str	r3, [r0, #0]
     dfc:	f640 50e9 	movw	r0, #3561	; 0xde9
     e00:	f2c0 0000 	movt	r0, #0
     e04:	f000 fb84 	bl	1510 <us_ticker_set_handler>
     e08:	4620      	mov	r0, r4
     e0a:	bd10      	pop	{r4, pc}
     e0c:	00006cb8 	.word	0x00006cb8

00000e10 <_ZN4mbed10TimerEvent6insertEj>:
     e10:	4602      	mov	r2, r0
     e12:	3004      	adds	r0, #4
     e14:	f000 bb90 	b.w	1538 <us_ticker_insert_event>

00000e18 <_ZN4mbed10TimerEvent6removeEv>:
     e18:	3004      	adds	r0, #4
     e1a:	f000 bbb7 	b.w	158c <us_ticker_remove_event>
     e1e:	bf00      	nop

00000e20 <_ZN4mbed10TimerEventD1Ev>:
     e20:	4b03      	ldr	r3, [pc, #12]	; (e30 <_ZN4mbed10TimerEventD1Ev+0x10>)
     e22:	b510      	push	{r4, lr}
     e24:	4604      	mov	r4, r0
     e26:	6003      	str	r3, [r0, #0]
     e28:	f7ff fff6 	bl	e18 <_ZN4mbed10TimerEvent6removeEv>
     e2c:	4620      	mov	r0, r4
     e2e:	bd10      	pop	{r4, pc}
     e30:	00006cb8 	.word	0x00006cb8

00000e34 <_ZN4mbed10TimerEventD0Ev>:
     e34:	b510      	push	{r4, lr}
     e36:	4604      	mov	r4, r0
     e38:	f7ff fff2 	bl	e20 <_ZN4mbed10TimerEventD1Ev>
     e3c:	4620      	mov	r0, r4
     e3e:	f000 fcab 	bl	1798 <_ZdlPv>
     e42:	4620      	mov	r0, r4
     e44:	bd10      	pop	{r4, pc}
     e46:	bf00      	nop

00000e48 <mbed_die>:
     e48:	b500      	push	{lr}
     e4a:	f24c 0132 	movw	r1, #49202	; 0xc032
     e4e:	b099      	sub	sp, #100	; 0x64
     e50:	4668      	mov	r0, sp
     e52:	f2c2 0109 	movt	r1, #8201	; 0x2009
     e56:	2201      	movs	r2, #1
     e58:	f7ff fdea 	bl	a30 <gpio_init>
     e5c:	f24c 0134 	movw	r1, #49204	; 0xc034
     e60:	a806      	add	r0, sp, #24
     e62:	f2c2 0109 	movt	r1, #8201	; 0x2009
     e66:	2201      	movs	r2, #1
     e68:	f7ff fde2 	bl	a30 <gpio_init>
     e6c:	f24c 0135 	movw	r1, #49205	; 0xc035
     e70:	a80c      	add	r0, sp, #48	; 0x30
     e72:	f2c2 0109 	movt	r1, #8201	; 0x2009
     e76:	2201      	movs	r2, #1
     e78:	f7ff fdda 	bl	a30 <gpio_init>
     e7c:	f24c 0137 	movw	r1, #49207	; 0xc037
     e80:	a812      	add	r0, sp, #72	; 0x48
     e82:	f2c2 0109 	movt	r1, #8201	; 0x2009
     e86:	2201      	movs	r2, #1
     e88:	f7ff fdd2 	bl	a30 <gpio_init>
     e8c:	9a01      	ldr	r2, [sp, #4]
     e8e:	9b03      	ldr	r3, [sp, #12]
     e90:	990a      	ldr	r1, [sp, #40]	; 0x28
     e92:	601a      	str	r2, [r3, #0]
     e94:	9807      	ldr	r0, [sp, #28]
     e96:	9b10      	ldr	r3, [sp, #64]	; 0x40
     e98:	6008      	str	r0, [r1, #0]
     e9a:	9a0d      	ldr	r2, [sp, #52]	; 0x34
     e9c:	2096      	movs	r0, #150	; 0x96
     e9e:	601a      	str	r2, [r3, #0]
     ea0:	9913      	ldr	r1, [sp, #76]	; 0x4c
     ea2:	9a15      	ldr	r2, [sp, #84]	; 0x54
     ea4:	6011      	str	r1, [r2, #0]
     ea6:	f7ff fe71 	bl	b8c <wait_ms>
     eaa:	9801      	ldr	r0, [sp, #4]
     eac:	9b04      	ldr	r3, [sp, #16]
     eae:	9a09      	ldr	r2, [sp, #36]	; 0x24
     eb0:	6018      	str	r0, [r3, #0]
     eb2:	9907      	ldr	r1, [sp, #28]
     eb4:	9b0f      	ldr	r3, [sp, #60]	; 0x3c
     eb6:	6011      	str	r1, [r2, #0]
     eb8:	980d      	ldr	r0, [sp, #52]	; 0x34
     eba:	9a16      	ldr	r2, [sp, #88]	; 0x58
     ebc:	6018      	str	r0, [r3, #0]
     ebe:	9913      	ldr	r1, [sp, #76]	; 0x4c
     ec0:	2096      	movs	r0, #150	; 0x96
     ec2:	6011      	str	r1, [r2, #0]
     ec4:	f7ff fe62 	bl	b8c <wait_ms>
     ec8:	e7e0      	b.n	e8c <mbed_die+0x44>
     eca:	bf00      	nop

00000ecc <semihost_connected>:
     ecc:	f64e 53f0 	movw	r3, #60912	; 0xedf0
     ed0:	f2ce 0300 	movt	r3, #57344	; 0xe000
     ed4:	6818      	ldr	r0, [r3, #0]
     ed6:	f000 0001 	and.w	r0, r0, #1
     eda:	4770      	bx	lr
     edc:	0000      	movs	r0, r0
	...

00000ee0 <serial_baud>:
     ee0:	e92d 4ff0 	stmdb	sp!, {r4, r5, r6, r7, r8, r9, r10, r11, lr}
     ee4:	2300      	movs	r3, #0
     ee6:	6804      	ldr	r4, [r0, #0]
     ee8:	f2c4 0301 	movt	r3, #16385	; 0x4001
     eec:	b08b      	sub	sp, #44	; 0x2c
     eee:	429c      	cmp	r4, r3
     ef0:	9009      	str	r0, [sp, #36]	; 0x24
     ef2:	f000 80fb 	beq.w	10ec <serial_baud+0x20c>
     ef6:	f340 80d9 	ble.w	10ac <serial_baud+0x1cc>
     efa:	f44f 4c00 	mov.w	r12, #32768	; 0x8000
     efe:	f2c4 0c09 	movt	r12, #16393	; 0x4009
     f02:	4564      	cmp	r4, r12
     f04:	f44f 4340 	mov.w	r3, #49152	; 0xc000
     f08:	f000 80e1 	beq.w	10ce <serial_baud+0x1ee>
     f0c:	f2c4 0309 	movt	r3, #16393	; 0x4009
     f10:	429c      	cmp	r4, r3
     f12:	f040 80d1 	bne.w	10b8 <serial_baud+0x1d8>
     f16:	f44f 4040 	mov.w	r0, #49152	; 0xc000
     f1a:	f2c4 000f 	movt	r0, #16399	; 0x400f
     f1e:	f8d0 21ac 	ldr.w	r2, [r0, #428]	; 0x1ac
     f22:	f422 2340 	bic.w	r3, r2, #786432	; 0xc0000
     f26:	f8c0 31ac 	str.w	r3, [r0, #428]	; 0x1ac
     f2a:	f8d0 21ac 	ldr.w	r2, [r0, #428]	; 0x1ac
     f2e:	f442 2380 	orr.w	r3, r2, #262144	; 0x40000
     f32:	f8c0 31ac 	str.w	r3, [r0, #428]	; 0x1ac
     f36:	4880      	ldr	r0, [pc, #512]	; (1138 <serial_baud+0x258>)
     f38:	010a      	lsls	r2, r1, #4
     f3a:	6803      	ldr	r3, [r0, #0]
     f3c:	9308      	str	r3, [sp, #32]
     f3e:	9808      	ldr	r0, [sp, #32]
     f40:	fbb3 fcf2 	udiv	r12, r3, r2
     f44:	fb02 021c 	mls	r2, r2, r12, r0
     f48:	fa1f f38c 	uxth.w	r3, r12
     f4c:	9307      	str	r3, [sp, #28]
     f4e:	2a00      	cmp	r2, #0
     f50:	f000 80bb 	beq.w	10ca <serial_baud+0x1ea>
     f54:	4608      	mov	r0, r1
     f56:	0859      	lsrs	r1, r3, #1
     f58:	9102      	str	r1, [sp, #8]
     f5a:	f001 fa57 	bl	240c <__aeabi_i2f>
     f5e:	9a02      	ldr	r2, [sp, #8]
     f60:	4683      	mov	r11, r0
     f62:	9807      	ldr	r0, [sp, #28]
     f64:	4290      	cmp	r0, r2
     f66:	f0c0 80b0 	bcc.w	10ca <serial_baud+0x1ea>
     f6a:	9f07      	ldr	r7, [sp, #28]
     f6c:	2401      	movs	r4, #1
     f6e:	2100      	movs	r1, #0
     f70:	46da      	mov	r10, r11
     f72:	9703      	str	r7, [sp, #12]
     f74:	9405      	str	r4, [sp, #20]
     f76:	9104      	str	r1, [sp, #16]
     f78:	f04f 0901 	mov.w	r9, #1
     f7c:	f109 0201 	add.w	r2, r9, #1
     f80:	fa5f f982 	uxtb.w	r9, r2
     f84:	2000      	movs	r0, #0
     f86:	f1b9 0f10 	cmp.w	r9, #16
     f8a:	9006      	str	r0, [sp, #24]
     f8c:	9f08      	ldr	r7, [sp, #32]
     f8e:	d061      	beq.n	1054 <serial_baud+0x174>
     f90:	9802      	ldr	r0, [sp, #8]
     f92:	f001 fa37 	bl	2404 <__aeabi_ui2f>
     f96:	f000 fe19 	bl	1bcc <__aeabi_f2d>
     f9a:	2300      	movs	r3, #0
     f9c:	2200      	movs	r2, #0
     f9e:	f2c4 0330 	movt	r3, #16432	; 0x4030
     fa2:	f000 fe67 	bl	1c74 <__aeabi_dmul>
     fa6:	e9cd 0100 	strd	r0, r1, [sp]
     faa:	2601      	movs	r6, #1
     fac:	4638      	mov	r0, r7
     fae:	f001 fa29 	bl	2404 <__aeabi_ui2f>
     fb2:	f000 fe0b 	bl	1bcc <__aeabi_f2d>
     fb6:	4604      	mov	r4, r0
     fb8:	4630      	mov	r0, r6
     fba:	460d      	mov	r5, r1
     fbc:	f001 fa22 	bl	2404 <__aeabi_ui2f>
     fc0:	4680      	mov	r8, r0
     fc2:	4648      	mov	r0, r9
     fc4:	f001 fa1e 	bl	2404 <__aeabi_ui2f>
     fc8:	4601      	mov	r1, r0
     fca:	4640      	mov	r0, r8
     fcc:	f001 fb26 	bl	261c <__aeabi_fdiv>
     fd0:	f04f 517e 	mov.w	r1, #1065353216	; 0x3f800000
     fd4:	f001 f966 	bl	22a4 <__addsf3>
     fd8:	f000 fdf8 	bl	1bcc <__aeabi_f2d>
     fdc:	4602      	mov	r2, r0
     fde:	460b      	mov	r3, r1
     fe0:	e9dd 0100 	ldrd	r0, r1, [sp]
     fe4:	f000 fe46 	bl	1c74 <__aeabi_dmul>
     fe8:	4602      	mov	r2, r0
     fea:	460b      	mov	r3, r1
     fec:	4620      	mov	r0, r4
     fee:	4629      	mov	r1, r5
     ff0:	f000 ff6a 	bl	1ec8 <__aeabi_ddiv>
     ff4:	f001 f900 	bl	21f8 <__aeabi_d2f>
     ff8:	4601      	mov	r1, r0
     ffa:	4658      	mov	r0, r11
     ffc:	f001 f950 	bl	22a0 <__aeabi_fsub>
    1000:	4659      	mov	r1, r11
    1002:	f001 fb0b 	bl	261c <__aeabi_fdiv>
    1006:	f000 fde1 	bl	1bcc <__aeabi_f2d>
    100a:	f005 fdf3 	bl	6bf4 <fabs>
    100e:	f001 f8f3 	bl	21f8 <__aeabi_d2f>
    1012:	4651      	mov	r1, r10
    1014:	4604      	mov	r4, r0
    1016:	f001 fbeb 	bl	27f0 <__aeabi_fcmplt>
    101a:	b180      	cbz	r0, 103e <serial_baud+0x15e>
    101c:	4620      	mov	r0, r4
    101e:	f000 fdd5 	bl	1bcc <__aeabi_f2d>
    1022:	a343      	add	r3, pc, #268	; (adr r3, 1130 <serial_baud+0x250>)
    1024:	e9d3 2300 	ldrd	r2, r3, [r3]
    1028:	f001 f896 	bl	2158 <__aeabi_dcmplt>
    102c:	9a02      	ldr	r2, [sp, #8]
    102e:	46a2      	mov	r10, r4
    1030:	f8cd 9014 	str.w	r9, [sp, #20]
    1034:	9604      	str	r6, [sp, #16]
    1036:	9203      	str	r2, [sp, #12]
    1038:	b108      	cbz	r0, 103e <serial_baud+0x15e>
    103a:	2301      	movs	r3, #1
    103c:	9306      	str	r3, [sp, #24]
    103e:	3601      	adds	r6, #1
    1040:	b2f6      	uxtb	r6, r6
    1042:	454e      	cmp	r6, r9
    1044:	d1b2      	bne.n	fac <serial_baud+0xcc>
    1046:	f109 0201 	add.w	r2, r9, #1
    104a:	fa5f f982 	uxtb.w	r9, r2
    104e:	f1b9 0f10 	cmp.w	r9, #16
    1052:	d19d      	bne.n	f90 <serial_baud+0xb0>
    1054:	9b02      	ldr	r3, [sp, #8]
    1056:	9807      	ldr	r0, [sp, #28]
    1058:	1c5c      	adds	r4, r3, #1
    105a:	b2a1      	uxth	r1, r4
    105c:	4288      	cmp	r0, r1
    105e:	9102      	str	r1, [sp, #8]
    1060:	d302      	bcc.n	1068 <serial_baud+0x188>
    1062:	9a06      	ldr	r2, [sp, #24]
    1064:	2a00      	cmp	r2, #0
    1066:	d087      	beq.n	f78 <serial_baud+0x98>
    1068:	9b04      	ldr	r3, [sp, #16]
    106a:	9c05      	ldr	r4, [sp, #20]
    106c:	9a09      	ldr	r2, [sp, #36]	; 0x24
    106e:	9803      	ldr	r0, [sp, #12]
    1070:	ea43 1104 	orr.w	r1, r3, r4, lsl #4
    1074:	6814      	ldr	r4, [r2, #0]
    1076:	b2cb      	uxtb	r3, r1
    1078:	9007      	str	r0, [sp, #28]
    107a:	f894 c00c 	ldrb.w	r12, [r4, #12]
    107e:	9907      	ldr	r1, [sp, #28]
    1080:	f04c 0280 	orr.w	r2, r12, #128	; 0x80
    1084:	7322      	strb	r2, [r4, #12]
    1086:	9c09      	ldr	r4, [sp, #36]	; 0x24
    1088:	0a08      	lsrs	r0, r1, #8
    108a:	6822      	ldr	r2, [r4, #0]
    108c:	9c09      	ldr	r4, [sp, #36]	; 0x24
    108e:	7110      	strb	r0, [r2, #4]
    1090:	6820      	ldr	r0, [r4, #0]
    1092:	b2c9      	uxtb	r1, r1
    1094:	7001      	strb	r1, [r0, #0]
    1096:	6822      	ldr	r2, [r4, #0]
    1098:	f882 3028 	strb.w	r3, [r2, #40]	; 0x28
    109c:	6823      	ldr	r3, [r4, #0]
    109e:	7b19      	ldrb	r1, [r3, #12]
    10a0:	f001 007f 	and.w	r0, r1, #127	; 0x7f
    10a4:	7318      	strb	r0, [r3, #12]
    10a6:	b00b      	add	sp, #44	; 0x2c
    10a8:	e8bd 8ff0 	ldmia.w	sp!, {r4, r5, r6, r7, r8, r9, r10, r11, pc}
    10ac:	f44f 4040 	mov.w	r0, #49152	; 0xc000
    10b0:	f2c4 0000 	movt	r0, #16384	; 0x4000
    10b4:	4284      	cmp	r4, r0
    10b6:	d02a      	beq.n	110e <serial_baud+0x22e>
    10b8:	4d20      	ldr	r5, [pc, #128]	; (113c <serial_baud+0x25c>)
    10ba:	4921      	ldr	r1, [pc, #132]	; (1140 <serial_baud+0x260>)
    10bc:	682e      	ldr	r6, [r5, #0]
    10be:	68f0      	ldr	r0, [r6, #12]
    10c0:	f001 fbe4 	bl	288c <fiprintf>
    10c4:	2001      	movs	r0, #1
    10c6:	f7ff fd39 	bl	b3c <exit>
    10ca:	2310      	movs	r3, #16
    10cc:	e7d5      	b.n	107a <serial_baud+0x19a>
    10ce:	f2c4 030f 	movt	r3, #16399	; 0x400f
    10d2:	f8d3 01ac 	ldr.w	r0, [r3, #428]	; 0x1ac
    10d6:	f420 3240 	bic.w	r2, r0, #196608	; 0x30000
    10da:	f8c3 21ac 	str.w	r2, [r3, #428]	; 0x1ac
    10de:	f8d3 01ac 	ldr.w	r0, [r3, #428]	; 0x1ac
    10e2:	f440 3280 	orr.w	r2, r0, #65536	; 0x10000
    10e6:	f8c3 21ac 	str.w	r2, [r3, #428]	; 0x1ac
    10ea:	e724      	b.n	f36 <serial_baud+0x56>
    10ec:	f44f 4c40 	mov.w	r12, #49152	; 0xc000
    10f0:	f2c4 0c0f 	movt	r12, #16399	; 0x400f
    10f4:	f8dc 31a8 	ldr.w	r3, [r12, #424]	; 0x1a8
    10f8:	f423 7040 	bic.w	r0, r3, #768	; 0x300
    10fc:	f8cc 01a8 	str.w	r0, [r12, #424]	; 0x1a8
    1100:	f8dc 21a8 	ldr.w	r2, [r12, #424]	; 0x1a8
    1104:	f442 7380 	orr.w	r3, r2, #256	; 0x100
    1108:	f8cc 31a8 	str.w	r3, [r12, #424]	; 0x1a8
    110c:	e713      	b.n	f36 <serial_baud+0x56>
    110e:	f44f 4c40 	mov.w	r12, #49152	; 0xc000
    1112:	f2c4 0c0f 	movt	r12, #16399	; 0x400f
    1116:	f8dc 21a8 	ldr.w	r2, [r12, #424]	; 0x1a8
    111a:	f022 03c0 	bic.w	r3, r2, #192	; 0xc0
    111e:	f8cc 31a8 	str.w	r3, [r12, #424]	; 0x1a8
    1122:	f8dc 01a8 	ldr.w	r0, [r12, #424]	; 0x1a8
    1126:	f040 0240 	orr.w	r2, r0, #64	; 0x40
    112a:	f8cc 21a8 	str.w	r2, [r12, #424]	; 0x1a8
    112e:	e702      	b.n	f36 <serial_baud+0x56>
    1130:	d2f1a9fc 	.word	0xd2f1a9fc
    1134:	3f50624d 	.word	0x3f50624d
    1138:	10000470 	.word	0x10000470
    113c:	100004d8 	.word	0x100004d8
    1140:	00006d48 	.word	0x00006d48
    1144:	f3af 8000 	nop.w

00001148 <serial_format>:
    1148:	b538      	push	{r3, r4, r5, lr}
    114a:	1f4c      	subs	r4, r1, #5
    114c:	2c03      	cmp	r4, #3
    114e:	460d      	mov	r5, r1
    1150:	d82a      	bhi.n	11a8 <serial_format+0x60>
    1152:	2a04      	cmp	r2, #4
    1154:	d813      	bhi.n	117e <serial_format+0x36>
    1156:	e8df f002 	tbb	[pc, r2]
    115a:	1e1b      	.short	0x1e1b
    115c:	2421      	.short	0x2421
    115e:	03          	.byte	0x03
    115f:	00          	.byte	0x00
    1160:	2203      	movs	r2, #3
    1162:	2101      	movs	r1, #1
    1164:	3b01      	subs	r3, #1
    1166:	2b01      	cmp	r3, #1
    1168:	d828      	bhi.n	11bc <serial_format+0x74>
    116a:	ea44 0483 	orr.w	r4, r4, r3, lsl #2
    116e:	ea44 0cc1 	orr.w	r12, r4, r1, lsl #3
    1172:	6800      	ldr	r0, [r0, #0]
    1174:	ea4c 1202 	orr.w	r2, r12, r2, lsl #4
    1178:	b2d1      	uxtb	r1, r2
    117a:	7301      	strb	r1, [r0, #12]
    117c:	bd38      	pop	{r3, r4, r5, pc}
    117e:	4910      	ldr	r1, [pc, #64]	; (11c0 <serial_format+0x78>)
    1180:	4d10      	ldr	r5, [pc, #64]	; (11c4 <serial_format+0x7c>)
    1182:	682c      	ldr	r4, [r5, #0]
    1184:	68e0      	ldr	r0, [r4, #12]
    1186:	f001 fb81 	bl	288c <fiprintf>
    118a:	2001      	movs	r0, #1
    118c:	f7ff fcd6 	bl	b3c <exit>
    1190:	2200      	movs	r2, #0
    1192:	4611      	mov	r1, r2
    1194:	e7e6      	b.n	1164 <serial_format+0x1c>
    1196:	2200      	movs	r2, #0
    1198:	2101      	movs	r1, #1
    119a:	e7e3      	b.n	1164 <serial_format+0x1c>
    119c:	2201      	movs	r2, #1
    119e:	4611      	mov	r1, r2
    11a0:	e7e0      	b.n	1164 <serial_format+0x1c>
    11a2:	2202      	movs	r2, #2
    11a4:	2101      	movs	r1, #1
    11a6:	e7dd      	b.n	1164 <serial_format+0x1c>
    11a8:	4b06      	ldr	r3, [pc, #24]	; (11c4 <serial_format+0x7c>)
    11aa:	4907      	ldr	r1, [pc, #28]	; (11c8 <serial_format+0x80>)
    11ac:	6818      	ldr	r0, [r3, #0]
    11ae:	462a      	mov	r2, r5
    11b0:	68c0      	ldr	r0, [r0, #12]
    11b2:	f001 fb6b 	bl	288c <fiprintf>
    11b6:	2001      	movs	r0, #1
    11b8:	f7ff fcc0 	bl	b3c <exit>
    11bc:	4903      	ldr	r1, [pc, #12]	; (11cc <serial_format+0x84>)
    11be:	e7df      	b.n	1180 <serial_format+0x38>
    11c0:	00006d94 	.word	0x00006d94
    11c4:	100004d8 	.word	0x100004d8
    11c8:	00006d54 	.word	0x00006d54
    11cc:	00006db4 	.word	0x00006db4

000011d0 <serial_init>:
    11d0:	e92d 43f8 	stmdb	sp!, {r3, r4, r5, r6, r7, r8, r9, lr}
    11d4:	460f      	mov	r7, r1
    11d6:	4605      	mov	r5, r0
    11d8:	498d      	ldr	r1, [pc, #564]	; (1410 <serial_init+0x240>)
    11da:	4638      	mov	r0, r7
    11dc:	4616      	mov	r6, r2
    11de:	f000 fa3f 	bl	1660 <pinmap_peripheral>
    11e2:	498c      	ldr	r1, [pc, #560]	; (1414 <serial_init+0x244>)
    11e4:	4604      	mov	r4, r0
    11e6:	4630      	mov	r0, r6
    11e8:	f000 fa3a 	bl	1660 <pinmap_peripheral>
    11ec:	4601      	mov	r1, r0
    11ee:	4620      	mov	r0, r4
    11f0:	f000 fa1e 	bl	1630 <pinmap_merge>
    11f4:	1c43      	adds	r3, r0, #1
    11f6:	4604      	mov	r4, r0
    11f8:	f000 8101 	beq.w	13fe <serial_init+0x22e>
    11fc:	2300      	movs	r3, #0
    11fe:	f2c4 0301 	movt	r3, #16385	; 0x4001
    1202:	4298      	cmp	r0, r3
    1204:	6028      	str	r0, [r5, #0]
    1206:	d06c      	beq.n	12e2 <serial_init+0x112>
    1208:	d934      	bls.n	1274 <serial_init+0xa4>
    120a:	f44f 4200 	mov.w	r2, #32768	; 0x8000
    120e:	f2c4 0209 	movt	r2, #16393	; 0x4009
    1212:	4290      	cmp	r0, r2
    1214:	f000 80bd 	beq.w	1392 <serial_init+0x1c2>
    1218:	f44f 4140 	mov.w	r1, #49152	; 0xc000
    121c:	f2c4 0109 	movt	r1, #16393	; 0x4009
    1220:	4288      	cmp	r0, r1
    1222:	d12d      	bne.n	1280 <serial_init+0xb0>
    1224:	f44f 4c40 	mov.w	r12, #49152	; 0xc000
    1228:	f2c4 0c0f 	movt	r12, #16399	; 0x400f
    122c:	f8dc 00c4 	ldr.w	r0, [r12, #196]	; 0xc4
    1230:	f04f 0801 	mov.w	r8, #1
    1234:	f040 7200 	orr.w	r2, r0, #33554432	; 0x2000000
    1238:	f8cc 20c4 	str.w	r2, [r12, #196]	; 0xc4
    123c:	f884 8008 	strb.w	r8, [r4, #8]
    1240:	6829      	ldr	r1, [r5, #0]
    1242:	2400      	movs	r4, #0
    1244:	604c      	str	r4, [r1, #4]
    1246:	4628      	mov	r0, r5
    1248:	f44f 5116 	mov.w	r1, #9600	; 0x2580
    124c:	f7ff fe48 	bl	ee0 <serial_baud>
    1250:	4628      	mov	r0, r5
    1252:	4622      	mov	r2, r4
    1254:	4643      	mov	r3, r8
    1256:	2108      	movs	r1, #8
    1258:	f7ff ff76 	bl	1148 <serial_format>
    125c:	4638      	mov	r0, r7
    125e:	496c      	ldr	r1, [pc, #432]	; (1410 <serial_init+0x240>)
    1260:	f000 f9c0 	bl	15e4 <pinmap_pinout>
    1264:	4630      	mov	r0, r6
    1266:	496b      	ldr	r1, [pc, #428]	; (1414 <serial_init+0x244>)
    1268:	f000 f9bc 	bl	15e4 <pinmap_pinout>
    126c:	2303      	movs	r3, #3
    126e:	606b      	str	r3, [r5, #4]
    1270:	e8bd 83f8 	ldmia.w	sp!, {r3, r4, r5, r6, r7, r8, r9, pc}
    1274:	f44f 4040 	mov.w	r0, #49152	; 0xc000
    1278:	f2c4 0000 	movt	r0, #16384	; 0x4000
    127c:	4284      	cmp	r4, r0
    127e:	d058      	beq.n	1332 <serial_init+0x162>
    1280:	f04f 0801 	mov.w	r8, #1
    1284:	f884 8008 	strb.w	r8, [r4, #8]
    1288:	682b      	ldr	r3, [r5, #0]
    128a:	f04f 0900 	mov.w	r9, #0
    128e:	f44f 5116 	mov.w	r1, #9600	; 0x2580
    1292:	f8c3 9004 	str.w	r9, [r3, #4]
    1296:	4628      	mov	r0, r5
    1298:	f7ff fe22 	bl	ee0 <serial_baud>
    129c:	464a      	mov	r2, r9
    129e:	4643      	mov	r3, r8
    12a0:	2108      	movs	r1, #8
    12a2:	4628      	mov	r0, r5
    12a4:	f7ff ff50 	bl	1148 <serial_format>
    12a8:	4638      	mov	r0, r7
    12aa:	4959      	ldr	r1, [pc, #356]	; (1410 <serial_init+0x240>)
    12ac:	f000 f99a 	bl	15e4 <pinmap_pinout>
    12b0:	4630      	mov	r0, r6
    12b2:	4958      	ldr	r1, [pc, #352]	; (1414 <serial_init+0x244>)
    12b4:	f000 f996 	bl	15e4 <pinmap_pinout>
    12b8:	46cc      	mov	r12, r9
    12ba:	f2c4 0c01 	movt	r12, #16385	; 0x4001
    12be:	4564      	cmp	r4, r12
    12c0:	d033      	beq.n	132a <serial_init+0x15a>
    12c2:	f200 808e 	bhi.w	13e2 <serial_init+0x212>
    12c6:	f44f 4040 	mov.w	r0, #49152	; 0xc000
    12ca:	f2c4 0000 	movt	r0, #16384	; 0x4000
    12ce:	4284      	cmp	r4, r0
    12d0:	d053      	beq.n	137a <serial_init+0x1aa>
    12d2:	f44f 4e40 	mov.w	lr, #49152	; 0xc000
    12d6:	f2c4 0e00 	movt	lr, #16384	; 0x4000
    12da:	4574      	cmp	r4, lr
    12dc:	d04f      	beq.n	137e <serial_init+0x1ae>
    12de:	e8bd 83f8 	ldmia.w	sp!, {r3, r4, r5, r6, r7, r8, r9, pc}
    12e2:	f44f 4c40 	mov.w	r12, #49152	; 0xc000
    12e6:	f2c4 0c0f 	movt	r12, #16399	; 0x400f
    12ea:	f8dc 00c4 	ldr.w	r0, [r12, #196]	; 0xc4
    12ee:	f04f 0801 	mov.w	r8, #1
    12f2:	f040 0210 	orr.w	r2, r0, #16
    12f6:	f8cc 20c4 	str.w	r2, [r12, #196]	; 0xc4
    12fa:	f884 8008 	strb.w	r8, [r4, #8]
    12fe:	6829      	ldr	r1, [r5, #0]
    1300:	2400      	movs	r4, #0
    1302:	604c      	str	r4, [r1, #4]
    1304:	4628      	mov	r0, r5
    1306:	f44f 5116 	mov.w	r1, #9600	; 0x2580
    130a:	f7ff fde9 	bl	ee0 <serial_baud>
    130e:	4628      	mov	r0, r5
    1310:	4622      	mov	r2, r4
    1312:	4643      	mov	r3, r8
    1314:	2108      	movs	r1, #8
    1316:	f7ff ff17 	bl	1148 <serial_format>
    131a:	4638      	mov	r0, r7
    131c:	493c      	ldr	r1, [pc, #240]	; (1410 <serial_init+0x240>)
    131e:	f000 f961 	bl	15e4 <pinmap_pinout>
    1322:	4630      	mov	r0, r6
    1324:	493b      	ldr	r1, [pc, #236]	; (1414 <serial_init+0x244>)
    1326:	f000 f95d 	bl	15e4 <pinmap_pinout>
    132a:	2301      	movs	r3, #1
    132c:	606b      	str	r3, [r5, #4]
    132e:	e8bd 83f8 	ldmia.w	sp!, {r3, r4, r5, r6, r7, r8, r9, pc}
    1332:	f44f 4240 	mov.w	r2, #49152	; 0xc000
    1336:	f2c4 020f 	movt	r2, #16399	; 0x400f
    133a:	f8d2 10c4 	ldr.w	r1, [r2, #196]	; 0xc4
    133e:	f04f 0801 	mov.w	r8, #1
    1342:	f041 0308 	orr.w	r3, r1, #8
    1346:	f8c2 30c4 	str.w	r3, [r2, #196]	; 0xc4
    134a:	f884 8008 	strb.w	r8, [r4, #8]
    134e:	6828      	ldr	r0, [r5, #0]
    1350:	2400      	movs	r4, #0
    1352:	6044      	str	r4, [r0, #4]
    1354:	f44f 5116 	mov.w	r1, #9600	; 0x2580
    1358:	4628      	mov	r0, r5
    135a:	f7ff fdc1 	bl	ee0 <serial_baud>
    135e:	4628      	mov	r0, r5
    1360:	4622      	mov	r2, r4
    1362:	4643      	mov	r3, r8
    1364:	2108      	movs	r1, #8
    1366:	f7ff feef 	bl	1148 <serial_format>
    136a:	4638      	mov	r0, r7
    136c:	4928      	ldr	r1, [pc, #160]	; (1410 <serial_init+0x240>)
    136e:	f000 f939 	bl	15e4 <pinmap_pinout>
    1372:	4630      	mov	r0, r6
    1374:	4927      	ldr	r1, [pc, #156]	; (1414 <serial_init+0x244>)
    1376:	f000 f935 	bl	15e4 <pinmap_pinout>
    137a:	2400      	movs	r4, #0
    137c:	606c      	str	r4, [r5, #4]
    137e:	4b26      	ldr	r3, [pc, #152]	; (1418 <serial_init+0x248>)
    1380:	4826      	ldr	r0, [pc, #152]	; (141c <serial_init+0x24c>)
    1382:	2401      	movs	r4, #1
    1384:	4629      	mov	r1, r5
    1386:	2208      	movs	r2, #8
    1388:	601c      	str	r4, [r3, #0]
    138a:	e8bd 43f8 	ldmia.w	sp!, {r3, r4, r5, r6, r7, r8, r9, lr}
    138e:	f001 bb0f 	b.w	29b0 <memcpy>
    1392:	f44f 4e40 	mov.w	lr, #49152	; 0xc000
    1396:	f2c4 0e0f 	movt	lr, #16399	; 0x400f
    139a:	f8de 00c4 	ldr.w	r0, [lr, #196]	; 0xc4
    139e:	f04f 0801 	mov.w	r8, #1
    13a2:	f040 7280 	orr.w	r2, r0, #16777216	; 0x1000000
    13a6:	f8ce 20c4 	str.w	r2, [lr, #196]	; 0xc4
    13aa:	f884 8008 	strb.w	r8, [r4, #8]
    13ae:	6829      	ldr	r1, [r5, #0]
    13b0:	2400      	movs	r4, #0
    13b2:	604c      	str	r4, [r1, #4]
    13b4:	4628      	mov	r0, r5
    13b6:	f44f 5116 	mov.w	r1, #9600	; 0x2580
    13ba:	f7ff fd91 	bl	ee0 <serial_baud>
    13be:	4628      	mov	r0, r5
    13c0:	4622      	mov	r2, r4
    13c2:	4643      	mov	r3, r8
    13c4:	2108      	movs	r1, #8
    13c6:	f7ff febf 	bl	1148 <serial_format>
    13ca:	4638      	mov	r0, r7
    13cc:	4910      	ldr	r1, [pc, #64]	; (1410 <serial_init+0x240>)
    13ce:	f000 f909 	bl	15e4 <pinmap_pinout>
    13d2:	4630      	mov	r0, r6
    13d4:	490f      	ldr	r1, [pc, #60]	; (1414 <serial_init+0x244>)
    13d6:	f000 f905 	bl	15e4 <pinmap_pinout>
    13da:	2302      	movs	r3, #2
    13dc:	606b      	str	r3, [r5, #4]
    13de:	e8bd 83f8 	ldmia.w	sp!, {r3, r4, r5, r6, r7, r8, r9, pc}
    13e2:	f44f 4200 	mov.w	r2, #32768	; 0x8000
    13e6:	f2c4 0209 	movt	r2, #16393	; 0x4009
    13ea:	4294      	cmp	r4, r2
    13ec:	d0f5      	beq.n	13da <serial_init+0x20a>
    13ee:	f44f 4140 	mov.w	r1, #49152	; 0xc000
    13f2:	f2c4 0109 	movt	r1, #16393	; 0x4009
    13f6:	428c      	cmp	r4, r1
    13f8:	f47f af6b 	bne.w	12d2 <serial_init+0x102>
    13fc:	e736      	b.n	126c <serial_init+0x9c>
    13fe:	4d08      	ldr	r5, [pc, #32]	; (1420 <serial_init+0x250>)
    1400:	4908      	ldr	r1, [pc, #32]	; (1424 <serial_init+0x254>)
    1402:	682e      	ldr	r6, [r5, #0]
    1404:	68f0      	ldr	r0, [r6, #12]
    1406:	f001 fa41 	bl	288c <fiprintf>
    140a:	2001      	movs	r0, #1
    140c:	f7ff fb96 	bl	b3c <exit>
    1410:	00006df0 	.word	0x00006df0
    1414:	00006cdc 	.word	0x00006cdc
    1418:	10000668 	.word	0x10000668
    141c:	10000684 	.word	0x10000684
    1420:	100004d8 	.word	0x100004d8
    1424:	00006dd0 	.word	0x00006dd0

00001428 <serial_getc>:
    1428:	6802      	ldr	r2, [r0, #0]
    142a:	7d13      	ldrb	r3, [r2, #20]
    142c:	07d9      	lsls	r1, r3, #31
    142e:	d5fc      	bpl.n	142a <serial_getc+0x2>
    1430:	7810      	ldrb	r0, [r2, #0]
    1432:	4770      	bx	lr

00001434 <serial_putc>:
    1434:	6802      	ldr	r2, [r0, #0]
    1436:	7d13      	ldrb	r3, [r2, #20]
    1438:	f003 0020 	and.w	r0, r3, #32
    143c:	b2c3      	uxtb	r3, r0
    143e:	2b00      	cmp	r3, #0
    1440:	d0f9      	beq.n	1436 <serial_putc+0x2>
    1442:	b2c9      	uxtb	r1, r1
    1444:	7011      	strb	r1, [r2, #0]
    1446:	4770      	bx	lr

00001448 <us_ticker_read>:
    1448:	4915      	ldr	r1, [pc, #84]	; (14a0 <us_ticker_read+0x58>)
    144a:	b430      	push	{r4, r5}
    144c:	680a      	ldr	r2, [r1, #0]
    144e:	b9fa      	cbnz	r2, 1490 <us_ticker_read+0x48>
    1450:	f44f 4040 	mov.w	r0, #49152	; 0xc000
    1454:	f2c4 000f 	movt	r0, #16399	; 0x400f
    1458:	f8d0 50c4 	ldr.w	r5, [r0, #196]	; 0xc4
    145c:	2401      	movs	r4, #1
    145e:	f44f 4380 	mov.w	r3, #16384	; 0x4000
    1462:	600c      	str	r4, [r1, #0]
    1464:	f2c4 0309 	movt	r3, #16393	; 0x4009
    1468:	490e      	ldr	r1, [pc, #56]	; (14a4 <us_ticker_read+0x5c>)
    146a:	f445 0500 	orr.w	r5, r5, #8388608	; 0x800000
    146e:	f8c0 50c4 	str.w	r5, [r0, #196]	; 0xc4
    1472:	671a      	str	r2, [r3, #112]	; 0x70
    1474:	6808      	ldr	r0, [r1, #0]
    1476:	f64d 6c83 	movw	r12, #56963	; 0xde83
    147a:	0882      	lsrs	r2, r0, #2
    147c:	f2c4 3c1b 	movt	r12, #17179	; 0x431b
    1480:	fbac 0102 	umull	r0, r1, r12, r2
    1484:	0c88      	lsrs	r0, r1, #18
    1486:	1e42      	subs	r2, r0, #1
    1488:	2102      	movs	r1, #2
    148a:	6059      	str	r1, [r3, #4]
    148c:	60da      	str	r2, [r3, #12]
    148e:	605c      	str	r4, [r3, #4]
    1490:	f44f 4380 	mov.w	r3, #16384	; 0x4000
    1494:	f2c4 0309 	movt	r3, #16393	; 0x4009
    1498:	6898      	ldr	r0, [r3, #8]
    149a:	bc30      	pop	{r4, r5}
    149c:	4770      	bx	lr
    149e:	bf00      	nop
    14a0:	1000066c 	.word	0x1000066c
    14a4:	10000470 	.word	0x10000470

000014a8 <irq_handler>:
    14a8:	b5f8      	push	{r3, r4, r5, r6, r7, lr}
    14aa:	4d17      	ldr	r5, [pc, #92]	; (1508 <irq_handler+0x60>)
    14ac:	f44f 4380 	mov.w	r3, #16384	; 0x4000
    14b0:	682c      	ldr	r4, [r5, #0]
    14b2:	f2c4 0309 	movt	r3, #16393	; 0x4009
    14b6:	2201      	movs	r2, #1
    14b8:	601a      	str	r2, [r3, #0]
    14ba:	b1e4      	cbz	r4, 14f6 <irq_handler+0x4e>
    14bc:	4f13      	ldr	r7, [pc, #76]	; (150c <irq_handler+0x64>)
    14be:	e006      	b.n	14ce <irq_handler+0x26>
    14c0:	68a1      	ldr	r1, [r4, #8]
    14c2:	6860      	ldr	r0, [r4, #4]
    14c4:	683c      	ldr	r4, [r7, #0]
    14c6:	6029      	str	r1, [r5, #0]
    14c8:	47a0      	blx	r4
    14ca:	682c      	ldr	r4, [r5, #0]
    14cc:	b19c      	cbz	r4, 14f6 <irq_handler+0x4e>
    14ce:	6826      	ldr	r6, [r4, #0]
    14d0:	f7ff ffba 	bl	1448 <us_ticker_read>
    14d4:	1a30      	subs	r0, r6, r0
    14d6:	2800      	cmp	r0, #0
    14d8:	ddf2      	ble.n	14c0 <irq_handler+0x18>
    14da:	6821      	ldr	r1, [r4, #0]
    14dc:	f44f 4c80 	mov.w	r12, #16384	; 0x4000
    14e0:	f2c4 0c09 	movt	r12, #16393	; 0x4009
    14e4:	f8cc 1018 	str.w	r1, [r12, #24]
    14e8:	f8dc 3014 	ldr.w	r3, [r12, #20]
    14ec:	f043 0201 	orr.w	r2, r3, #1
    14f0:	f8cc 2014 	str.w	r2, [r12, #20]
    14f4:	bdf8      	pop	{r3, r4, r5, r6, r7, pc}
    14f6:	f44f 4080 	mov.w	r0, #16384	; 0x4000
    14fa:	f2c4 0009 	movt	r0, #16393	; 0x4009
    14fe:	6943      	ldr	r3, [r0, #20]
    1500:	f023 0201 	bic.w	r2, r3, #1
    1504:	6142      	str	r2, [r0, #20]
    1506:	bdf8      	pop	{r3, r4, r5, r6, r7, pc}
    1508:	10000670 	.word	0x10000670
    150c:	10000674 	.word	0x10000674

00001510 <us_ticker_set_handler>:
    1510:	b508      	push	{r3, lr}
    1512:	f240 6374 	movw	r3, #1652	; 0x674
    1516:	f2c1 0300 	movt	r3, #4096	; 0x1000
    151a:	f241 41a9 	movw	r1, #5289	; 0x14a9
    151e:	6018      	str	r0, [r3, #0]
    1520:	f2c0 0100 	movt	r1, #0
    1524:	2004      	movs	r0, #4
    1526:	f7ff f9cb 	bl	8c0 <NVIC_SetVector>
    152a:	f44f 4061 	mov.w	r0, #57600	; 0xe100
    152e:	f2ce 0000 	movt	r0, #57344	; 0xe000
    1532:	2210      	movs	r2, #16
    1534:	6002      	str	r2, [r0, #0]
    1536:	bd08      	pop	{r3, pc}

00001538 <us_ticker_insert_event>:
    1538:	b410      	push	{r4}
    153a:	b672      	cpsid	i
    153c:	4b12      	ldr	r3, [pc, #72]	; (1588 <us_ticker_insert_event+0x50>)
    153e:	6001      	str	r1, [r0, #0]
    1540:	681c      	ldr	r4, [r3, #0]
    1542:	6042      	str	r2, [r0, #4]
    1544:	b18c      	cbz	r4, 156a <us_ticker_insert_event+0x32>
    1546:	6822      	ldr	r2, [r4, #0]
    1548:	1a8a      	subs	r2, r1, r2
    154a:	2a00      	cmp	r2, #0
    154c:	dc05      	bgt.n	155a <us_ticker_insert_event+0x22>
    154e:	e00c      	b.n	156a <us_ticker_insert_event+0x32>
    1550:	681a      	ldr	r2, [r3, #0]
    1552:	1a8a      	subs	r2, r1, r2
    1554:	2a00      	cmp	r2, #0
    1556:	dd03      	ble.n	1560 <us_ticker_insert_event+0x28>
    1558:	461c      	mov	r4, r3
    155a:	68a3      	ldr	r3, [r4, #8]
    155c:	2b00      	cmp	r3, #0
    155e:	d1f7      	bne.n	1550 <us_ticker_insert_event+0x18>
    1560:	60a0      	str	r0, [r4, #8]
    1562:	6083      	str	r3, [r0, #8]
    1564:	b662      	cpsie	i
    1566:	bc10      	pop	{r4}
    1568:	4770      	bx	lr
    156a:	f44f 4c80 	mov.w	r12, #16384	; 0x4000
    156e:	f2c4 0c09 	movt	r12, #16393	; 0x4009
    1572:	6018      	str	r0, [r3, #0]
    1574:	f8cc 1018 	str.w	r1, [r12, #24]
    1578:	f8dc 1014 	ldr.w	r1, [r12, #20]
    157c:	4623      	mov	r3, r4
    157e:	f041 0201 	orr.w	r2, r1, #1
    1582:	f8cc 2014 	str.w	r2, [r12, #20]
    1586:	e7ec      	b.n	1562 <us_ticker_insert_event+0x2a>
    1588:	10000670 	.word	0x10000670

0000158c <us_ticker_remove_event>:
    158c:	b672      	cpsid	i
    158e:	4b14      	ldr	r3, [pc, #80]	; (15e0 <us_ticker_remove_event+0x54>)
    1590:	681a      	ldr	r2, [r3, #0]
    1592:	4282      	cmp	r2, r0
    1594:	d011      	beq.n	15ba <us_ticker_remove_event+0x2e>
    1596:	b14a      	cbz	r2, 15ac <us_ticker_remove_event+0x20>
    1598:	6891      	ldr	r1, [r2, #8]
    159a:	4281      	cmp	r1, r0
    159c:	d008      	beq.n	15b0 <us_ticker_remove_event+0x24>
    159e:	b129      	cbz	r1, 15ac <us_ticker_remove_event+0x20>
    15a0:	688b      	ldr	r3, [r1, #8]
    15a2:	4283      	cmp	r3, r0
    15a4:	d005      	beq.n	15b2 <us_ticker_remove_event+0x26>
    15a6:	4619      	mov	r1, r3
    15a8:	2900      	cmp	r1, #0
    15aa:	d1f9      	bne.n	15a0 <us_ticker_remove_event+0x14>
    15ac:	b662      	cpsie	i
    15ae:	4770      	bx	lr
    15b0:	4611      	mov	r1, r2
    15b2:	6880      	ldr	r0, [r0, #8]
    15b4:	6088      	str	r0, [r1, #8]
    15b6:	b662      	cpsie	i
    15b8:	4770      	bx	lr
    15ba:	6892      	ldr	r2, [r2, #8]
    15bc:	601a      	str	r2, [r3, #0]
    15be:	2a00      	cmp	r2, #0
    15c0:	d0f4      	beq.n	15ac <us_ticker_remove_event+0x20>
    15c2:	6811      	ldr	r1, [r2, #0]
    15c4:	f44f 4c80 	mov.w	r12, #16384	; 0x4000
    15c8:	f2c4 0c09 	movt	r12, #16393	; 0x4009
    15cc:	f8cc 1018 	str.w	r1, [r12, #24]
    15d0:	f8dc 3014 	ldr.w	r3, [r12, #20]
    15d4:	f043 0001 	orr.w	r0, r3, #1
    15d8:	f8cc 0014 	str.w	r0, [r12, #20]
    15dc:	b662      	cpsie	i
    15de:	4770      	bx	lr
    15e0:	10000670 	.word	0x10000670

000015e4 <pinmap_pinout>:
    15e4:	1c43      	adds	r3, r0, #1
    15e6:	b510      	push	{r4, lr}
    15e8:	4604      	mov	r4, r0
    15ea:	d013      	beq.n	1614 <pinmap_pinout+0x30>
    15ec:	680b      	ldr	r3, [r1, #0]
    15ee:	1c58      	adds	r0, r3, #1
    15f0:	d104      	bne.n	15fc <pinmap_pinout+0x18>
    15f2:	e010      	b.n	1616 <pinmap_pinout+0x32>
    15f4:	f851 3f0c 	ldr.w	r3, [r1, #12]!
    15f8:	1c5a      	adds	r2, r3, #1
    15fa:	d00c      	beq.n	1616 <pinmap_pinout+0x32>
    15fc:	429c      	cmp	r4, r3
    15fe:	d1f9      	bne.n	15f4 <pinmap_pinout+0x10>
    1600:	4620      	mov	r0, r4
    1602:	6889      	ldr	r1, [r1, #8]
    1604:	f7ff fa40 	bl	a88 <pin_function>
    1608:	4620      	mov	r0, r4
    160a:	2102      	movs	r1, #2
    160c:	e8bd 4010 	ldmia.w	sp!, {r4, lr}
    1610:	f7ff ba5c 	b.w	acc <pin_mode>
    1614:	bd10      	pop	{r4, pc}
    1616:	4804      	ldr	r0, [pc, #16]	; (1628 <pinmap_pinout+0x44>)
    1618:	4904      	ldr	r1, [pc, #16]	; (162c <pinmap_pinout+0x48>)
    161a:	6802      	ldr	r2, [r0, #0]
    161c:	68d0      	ldr	r0, [r2, #12]
    161e:	f001 f935 	bl	288c <fiprintf>
    1622:	2001      	movs	r0, #1
    1624:	f7ff fa8a 	bl	b3c <exit>
    1628:	100004d8 	.word	0x100004d8
    162c:	00006e5c 	.word	0x00006e5c

00001630 <pinmap_merge>:
    1630:	4288      	cmp	r0, r1
    1632:	b508      	push	{r3, lr}
    1634:	d003      	beq.n	163e <pinmap_merge+0xe>
    1636:	1c42      	adds	r2, r0, #1
    1638:	d002      	beq.n	1640 <pinmap_merge+0x10>
    163a:	3101      	adds	r1, #1
    163c:	d102      	bne.n	1644 <pinmap_merge+0x14>
    163e:	bd08      	pop	{r3, pc}
    1640:	4608      	mov	r0, r1
    1642:	bd08      	pop	{r3, pc}
    1644:	4b04      	ldr	r3, [pc, #16]	; (1658 <pinmap_merge+0x28>)
    1646:	4905      	ldr	r1, [pc, #20]	; (165c <pinmap_merge+0x2c>)
    1648:	6818      	ldr	r0, [r3, #0]
    164a:	68c0      	ldr	r0, [r0, #12]
    164c:	f001 f91e 	bl	288c <fiprintf>
    1650:	2001      	movs	r0, #1
    1652:	f7ff fa73 	bl	b3c <exit>
    1656:	bf00      	nop
    1658:	100004d8 	.word	0x100004d8
    165c:	00006e70 	.word	0x00006e70

00001660 <pinmap_peripheral>:
    1660:	b508      	push	{r3, lr}
    1662:	1c43      	adds	r3, r0, #1
    1664:	d00b      	beq.n	167e <pinmap_peripheral+0x1e>
    1666:	680b      	ldr	r3, [r1, #0]
    1668:	1c5a      	adds	r2, r3, #1
    166a:	d104      	bne.n	1676 <pinmap_peripheral+0x16>
    166c:	e008      	b.n	1680 <pinmap_peripheral+0x20>
    166e:	f851 3f0c 	ldr.w	r3, [r1, #12]!
    1672:	1c5a      	adds	r2, r3, #1
    1674:	d004      	beq.n	1680 <pinmap_peripheral+0x20>
    1676:	4298      	cmp	r0, r3
    1678:	d1f9      	bne.n	166e <pinmap_peripheral+0xe>
    167a:	6848      	ldr	r0, [r1, #4]
    167c:	bd08      	pop	{r3, pc}
    167e:	bd08      	pop	{r3, pc}
    1680:	4804      	ldr	r0, [pc, #16]	; (1694 <pinmap_peripheral+0x34>)
    1682:	4905      	ldr	r1, [pc, #20]	; (1698 <pinmap_peripheral+0x38>)
    1684:	6802      	ldr	r2, [r0, #0]
    1686:	68d0      	ldr	r0, [r2, #12]
    1688:	f001 f900 	bl	288c <fiprintf>
    168c:	2001      	movs	r0, #1
    168e:	f7ff fa55 	bl	b3c <exit>
    1692:	bf00      	nop
    1694:	100004d8 	.word	0x100004d8
    1698:	00006e84 	.word	0x00006e84

0000169c <_ZNK10__cxxabiv120__si_class_type_info12__do_dyncastEiNS_17__class_type_info10__sub_kindEPKS1_PKvS4_S6_RNS1_16__dyncast_resultE>:
    169c:	e92d 4ff0 	stmdb	sp!, {r4, r5, r6, r7, r8, r9, r10, r11, lr}
    16a0:	460e      	mov	r6, r1
    16a2:	b085      	sub	sp, #20
    16a4:	4619      	mov	r1, r3
    16a6:	4683      	mov	r11, r0
    16a8:	4690      	mov	r8, r2
    16aa:	4699      	mov	r9, r3
    16ac:	9d0e      	ldr	r5, [sp, #56]	; 0x38
    16ae:	9f10      	ldr	r7, [sp, #64]	; 0x40
    16b0:	9c11      	ldr	r4, [sp, #68]	; 0x44
    16b2:	f000 f90f 	bl	18d4 <_ZNKSt9type_infoeqERKS_>
    16b6:	4682      	mov	r10, r0
    16b8:	b180      	cbz	r0, 16dc <_ZNK10__cxxabiv120__si_class_type_info12__do_dyncastEiNS_17__class_type_info10__sub_kindEPKS1_PKvS4_S6_RNS1_16__dyncast_resultE+0x40>
    16ba:	2e00      	cmp	r6, #0
    16bc:	6025      	str	r5, [r4, #0]
    16be:	f884 8004 	strb.w	r8, [r4, #4]
    16c2:	db06      	blt.n	16d2 <_ZNK10__cxxabiv120__si_class_type_info12__do_dyncastEiNS_17__class_type_info10__sub_kindEPKS1_PKvS4_S6_RNS1_16__dyncast_resultE+0x36>
    16c4:	19ad      	adds	r5, r5, r6
    16c6:	42af      	cmp	r7, r5
    16c8:	bf14      	ite	ne
    16ca:	2701      	movne	r7, #1
    16cc:	2706      	moveq	r7, #6
    16ce:	71a7      	strb	r7, [r4, #6]
    16d0:	e00c      	b.n	16ec <_ZNK10__cxxabiv120__si_class_type_info12__do_dyncastEiNS_17__class_type_info10__sub_kindEPKS1_PKvS4_S6_RNS1_16__dyncast_resultE+0x50>
    16d2:	1cb3      	adds	r3, r6, #2
    16d4:	d10a      	bne.n	16ec <_ZNK10__cxxabiv120__si_class_type_info12__do_dyncastEiNS_17__class_type_info10__sub_kindEPKS1_PKvS4_S6_RNS1_16__dyncast_resultE+0x50>
    16d6:	2001      	movs	r0, #1
    16d8:	71a0      	strb	r0, [r4, #6]
    16da:	e007      	b.n	16ec <_ZNK10__cxxabiv120__si_class_type_info12__do_dyncastEiNS_17__class_type_info10__sub_kindEPKS1_PKvS4_S6_RNS1_16__dyncast_resultE+0x50>
    16dc:	42bd      	cmp	r5, r7
    16de:	d107      	bne.n	16f0 <_ZNK10__cxxabiv120__si_class_type_info12__do_dyncastEiNS_17__class_type_info10__sub_kindEPKS1_PKvS4_S6_RNS1_16__dyncast_resultE+0x54>
    16e0:	4658      	mov	r0, r11
    16e2:	990f      	ldr	r1, [sp, #60]	; 0x3c
    16e4:	f000 f8f6 	bl	18d4 <_ZNKSt9type_infoeqERKS_>
    16e8:	b980      	cbnz	r0, 170c <_ZNK10__cxxabiv120__si_class_type_info12__do_dyncastEiNS_17__class_type_info10__sub_kindEPKS1_PKvS4_S6_RNS1_16__dyncast_resultE+0x70>
    16ea:	e001      	b.n	16f0 <_ZNK10__cxxabiv120__si_class_type_info12__do_dyncastEiNS_17__class_type_info10__sub_kindEPKS1_PKvS4_S6_RNS1_16__dyncast_resultE+0x54>
    16ec:	2000      	movs	r0, #0
    16ee:	e010      	b.n	1712 <_ZNK10__cxxabiv120__si_class_type_info12__do_dyncastEiNS_17__class_type_info10__sub_kindEPKS1_PKvS4_S6_RNS1_16__dyncast_resultE+0x76>
    16f0:	f8db 0008 	ldr.w	r0, [r11, #8]
    16f4:	9a0f      	ldr	r2, [sp, #60]	; 0x3c
    16f6:	6803      	ldr	r3, [r0, #0]
    16f8:	9201      	str	r2, [sp, #4]
    16fa:	9500      	str	r5, [sp, #0]
    16fc:	9702      	str	r7, [sp, #8]
    16fe:	9403      	str	r4, [sp, #12]
    1700:	69dc      	ldr	r4, [r3, #28]
    1702:	4631      	mov	r1, r6
    1704:	4642      	mov	r2, r8
    1706:	464b      	mov	r3, r9
    1708:	47a0      	blx	r4
    170a:	e002      	b.n	1712 <_ZNK10__cxxabiv120__si_class_type_info12__do_dyncastEiNS_17__class_type_info10__sub_kindEPKS1_PKvS4_S6_RNS1_16__dyncast_resultE+0x76>
    170c:	f884 8005 	strb.w	r8, [r4, #5]
    1710:	4650      	mov	r0, r10
    1712:	b005      	add	sp, #20
    1714:	e8bd 8ff0 	ldmia.w	sp!, {r4, r5, r6, r7, r8, r9, r10, r11, pc}

00001718 <_ZN10__cxxabiv120__si_class_type_infoD1Ev>:
    1718:	4b03      	ldr	r3, [pc, #12]	; (1728 <_ZN10__cxxabiv120__si_class_type_infoD1Ev+0x10>)
    171a:	b510      	push	{r4, lr}
    171c:	4604      	mov	r4, r0
    171e:	6003      	str	r3, [r0, #0]
    1720:	f000 f86c 	bl	17fc <_ZN10__cxxabiv117__class_type_infoD1Ev>
    1724:	4620      	mov	r0, r4
    1726:	bd10      	pop	{r4, pc}
    1728:	00006eb0 	.word	0x00006eb0

0000172c <_ZN10__cxxabiv120__si_class_type_infoD0Ev>:
    172c:	b510      	push	{r4, lr}
    172e:	4604      	mov	r4, r0
    1730:	f7ff fff2 	bl	1718 <_ZN10__cxxabiv120__si_class_type_infoD1Ev>
    1734:	4620      	mov	r0, r4
    1736:	f000 f82f 	bl	1798 <_ZdlPv>
    173a:	4620      	mov	r0, r4
    173c:	bd10      	pop	{r4, pc}

0000173e <_ZNK10__cxxabiv120__si_class_type_info11__do_upcastEPKNS_17__class_type_infoEPKvRNS1_15__upcast_resultE>:
    173e:	b5f8      	push	{r3, r4, r5, r6, r7, lr}
    1740:	4604      	mov	r4, r0
    1742:	460f      	mov	r7, r1
    1744:	4616      	mov	r6, r2
    1746:	461d      	mov	r5, r3
    1748:	f000 f84b 	bl	17e2 <_ZNK10__cxxabiv117__class_type_info11__do_upcastEPKS0_PKvRNS0_15__upcast_resultE>
    174c:	b938      	cbnz	r0, 175e <_ZNK10__cxxabiv120__si_class_type_info11__do_upcastEPKNS_17__class_type_infoEPKvRNS1_15__upcast_resultE+0x20>
    174e:	68a0      	ldr	r0, [r4, #8]
    1750:	4639      	mov	r1, r7
    1752:	6804      	ldr	r4, [r0, #0]
    1754:	4632      	mov	r2, r6
    1756:	69a4      	ldr	r4, [r4, #24]
    1758:	462b      	mov	r3, r5
    175a:	47a0      	blx	r4
    175c:	bdf8      	pop	{r3, r4, r5, r6, r7, pc}
    175e:	2001      	movs	r0, #1
    1760:	bdf8      	pop	{r3, r4, r5, r6, r7, pc}

00001762 <_ZNK10__cxxabiv120__si_class_type_info20__do_find_public_srcEiPKvPKNS_17__class_type_infoES2_>:
    1762:	e92d 41f3 	stmdb	sp!, {r0, r1, r4, r5, r6, r7, r8, lr}
    1766:	9c08      	ldr	r4, [sp, #32]
    1768:	4607      	mov	r7, r0
    176a:	4294      	cmp	r4, r2
    176c:	4688      	mov	r8, r1
    176e:	4616      	mov	r6, r2
    1770:	461d      	mov	r5, r3
    1772:	d105      	bne.n	1780 <_ZNK10__cxxabiv120__si_class_type_info20__do_find_public_srcEiPKvPKNS_17__class_type_infoES2_+0x1e>
    1774:	4619      	mov	r1, r3
    1776:	f000 f8ad 	bl	18d4 <_ZNKSt9type_infoeqERKS_>
    177a:	b108      	cbz	r0, 1780 <_ZNK10__cxxabiv120__si_class_type_info20__do_find_public_srcEiPKvPKNS_17__class_type_infoES2_+0x1e>
    177c:	2006      	movs	r0, #6
    177e:	e007      	b.n	1790 <_ZNK10__cxxabiv120__si_class_type_info20__do_find_public_srcEiPKvPKNS_17__class_type_infoES2_+0x2e>
    1780:	68b8      	ldr	r0, [r7, #8]
    1782:	4641      	mov	r1, r8
    1784:	6803      	ldr	r3, [r0, #0]
    1786:	9400      	str	r4, [sp, #0]
    1788:	6a1c      	ldr	r4, [r3, #32]
    178a:	4632      	mov	r2, r6
    178c:	462b      	mov	r3, r5
    178e:	47a0      	blx	r4
    1790:	e8bd 81fc 	ldmia.w	sp!, {r2, r3, r4, r5, r6, r7, r8, pc}

00001794 <_Znaj>:
    1794:	f000 b874 	b.w	1880 <_Znwj>

00001798 <_ZdlPv>:
    1798:	b108      	cbz	r0, 179e <_ZdlPv+0x6>
    179a:	f001 b8b7 	b.w	290c <free>
    179e:	4770      	bx	lr

000017a0 <_ZNK10__cxxabiv117__class_type_info11__do_upcastEPKS0_PPv>:
    17a0:	b57f      	push	{r0, r1, r2, r3, r4, r5, r6, lr}
    17a2:	4615      	mov	r5, r2
    17a4:	6802      	ldr	r2, [r0, #0]
    17a6:	2400      	movs	r4, #0
    17a8:	2310      	movs	r3, #16
    17aa:	9302      	str	r3, [sp, #8]
    17ac:	6996      	ldr	r6, [r2, #24]
    17ae:	9400      	str	r4, [sp, #0]
    17b0:	f88d 4004 	strb.w	r4, [sp, #4]
    17b4:	9403      	str	r4, [sp, #12]
    17b6:	682a      	ldr	r2, [r5, #0]
    17b8:	466b      	mov	r3, sp
    17ba:	47b0      	blx	r6
    17bc:	f89d 0004 	ldrb.w	r0, [sp, #4]
    17c0:	f000 0106 	and.w	r1, r0, #6
    17c4:	2906      	cmp	r1, #6
    17c6:	d103      	bne.n	17d0 <_ZNK10__cxxabiv117__class_type_info11__do_upcastEPKS0_PPv+0x30>
    17c8:	9b00      	ldr	r3, [sp, #0]
    17ca:	2001      	movs	r0, #1
    17cc:	602b      	str	r3, [r5, #0]
    17ce:	e000      	b.n	17d2 <_ZNK10__cxxabiv117__class_type_info11__do_upcastEPKS0_PPv+0x32>
    17d0:	4620      	mov	r0, r4
    17d2:	b004      	add	sp, #16
    17d4:	bd70      	pop	{r4, r5, r6, pc}

000017d6 <_ZNK10__cxxabiv117__class_type_info20__do_find_public_srcEiPKvPKS0_S2_>:
    17d6:	9800      	ldr	r0, [sp, #0]
    17d8:	4290      	cmp	r0, r2
    17da:	bf14      	ite	ne
    17dc:	2001      	movne	r0, #1
    17de:	2006      	moveq	r0, #6
    17e0:	4770      	bx	lr

000017e2 <_ZNK10__cxxabiv117__class_type_info11__do_upcastEPKS0_PKvRNS0_15__upcast_resultE>:
    17e2:	b538      	push	{r3, r4, r5, lr}
    17e4:	4615      	mov	r5, r2
    17e6:	461c      	mov	r4, r3
    17e8:	f000 f874 	bl	18d4 <_ZNKSt9type_infoeqERKS_>
    17ec:	b128      	cbz	r0, 17fa <_ZNK10__cxxabiv117__class_type_info11__do_upcastEPKS0_PKvRNS0_15__upcast_resultE+0x18>
    17ee:	2006      	movs	r0, #6
    17f0:	2308      	movs	r3, #8
    17f2:	7120      	strb	r0, [r4, #4]
    17f4:	6025      	str	r5, [r4, #0]
    17f6:	60e3      	str	r3, [r4, #12]
    17f8:	2001      	movs	r0, #1
    17fa:	bd38      	pop	{r3, r4, r5, pc}

000017fc <_ZN10__cxxabiv117__class_type_infoD1Ev>:
    17fc:	4b03      	ldr	r3, [pc, #12]	; (180c <_ZN10__cxxabiv117__class_type_infoD1Ev+0x10>)
    17fe:	b510      	push	{r4, lr}
    1800:	4604      	mov	r4, r0
    1802:	6003      	str	r3, [r0, #0]
    1804:	f000 f850 	bl	18a8 <_ZNSt9type_infoD1Ev>
    1808:	4620      	mov	r0, r4
    180a:	bd10      	pop	{r4, pc}
    180c:	00006f18 	.word	0x00006f18

00001810 <_ZN10__cxxabiv117__class_type_infoD0Ev>:
    1810:	b510      	push	{r4, lr}
    1812:	4604      	mov	r4, r0
    1814:	f7ff fff2 	bl	17fc <_ZN10__cxxabiv117__class_type_infoD1Ev>
    1818:	4620      	mov	r0, r4
    181a:	f7ff ffbd 	bl	1798 <_ZdlPv>
    181e:	4620      	mov	r0, r4
    1820:	bd10      	pop	{r4, pc}

00001822 <_ZNK10__cxxabiv117__class_type_info12__do_dyncastEiNS0_10__sub_kindEPKS0_PKvS3_S5_RNS0_16__dyncast_resultE>:
    1822:	e92d 41f0 	stmdb	sp!, {r4, r5, r6, r7, r8, lr}
    1826:	9e06      	ldr	r6, [sp, #24]
    1828:	4615      	mov	r5, r2
    182a:	9a08      	ldr	r2, [sp, #32]
    182c:	4607      	mov	r7, r0
    182e:	4296      	cmp	r6, r2
    1830:	4698      	mov	r8, r3
    1832:	9c09      	ldr	r4, [sp, #36]	; 0x24
    1834:	d103      	bne.n	183e <_ZNK10__cxxabiv117__class_type_info12__do_dyncastEiNS0_10__sub_kindEPKS0_PKvS3_S5_RNS0_16__dyncast_resultE+0x1c>
    1836:	9907      	ldr	r1, [sp, #28]
    1838:	f000 f84c 	bl	18d4 <_ZNKSt9type_infoeqERKS_>
    183c:	b948      	cbnz	r0, 1852 <_ZNK10__cxxabiv117__class_type_info12__do_dyncastEiNS0_10__sub_kindEPKS0_PKvS3_S5_RNS0_16__dyncast_resultE+0x30>
    183e:	4638      	mov	r0, r7
    1840:	4641      	mov	r1, r8
    1842:	f000 f847 	bl	18d4 <_ZNKSt9type_infoeqERKS_>
    1846:	b128      	cbz	r0, 1854 <_ZNK10__cxxabiv117__class_type_info12__do_dyncastEiNS0_10__sub_kindEPKS0_PKvS3_S5_RNS0_16__dyncast_resultE+0x32>
    1848:	2301      	movs	r3, #1
    184a:	6026      	str	r6, [r4, #0]
    184c:	7125      	strb	r5, [r4, #4]
    184e:	71a3      	strb	r3, [r4, #6]
    1850:	e000      	b.n	1854 <_ZNK10__cxxabiv117__class_type_info12__do_dyncastEiNS0_10__sub_kindEPKS0_PKvS3_S5_RNS0_16__dyncast_resultE+0x32>
    1852:	7165      	strb	r5, [r4, #5]
    1854:	2000      	movs	r0, #0
    1856:	e8bd 81f0 	ldmia.w	sp!, {r4, r5, r6, r7, r8, pc}

0000185a <_ZNK10__cxxabiv117__class_type_info10__do_catchEPKSt9type_infoPPvj>:
    185a:	b5f8      	push	{r3, r4, r5, r6, r7, lr}
    185c:	4605      	mov	r5, r0
    185e:	460c      	mov	r4, r1
    1860:	4616      	mov	r6, r2
    1862:	461f      	mov	r7, r3
    1864:	f000 f836 	bl	18d4 <_ZNKSt9type_infoeqERKS_>
    1868:	b940      	cbnz	r0, 187c <_ZNK10__cxxabiv117__class_type_info10__do_catchEPKSt9type_infoPPvj+0x22>
    186a:	2f03      	cmp	r7, #3
    186c:	d807      	bhi.n	187e <_ZNK10__cxxabiv117__class_type_info10__do_catchEPKSt9type_infoPPvj+0x24>
    186e:	6823      	ldr	r3, [r4, #0]
    1870:	4620      	mov	r0, r4
    1872:	695b      	ldr	r3, [r3, #20]
    1874:	4629      	mov	r1, r5
    1876:	4632      	mov	r2, r6
    1878:	4798      	blx	r3
    187a:	bdf8      	pop	{r3, r4, r5, r6, r7, pc}
    187c:	2001      	movs	r0, #1
    187e:	bdf8      	pop	{r3, r4, r5, r6, r7, pc}

00001880 <_Znwj>:
    1880:	b510      	push	{r4, lr}
    1882:	2800      	cmp	r0, #0
    1884:	bf14      	ite	ne
    1886:	4604      	movne	r4, r0
    1888:	2401      	moveq	r4, #1
    188a:	4620      	mov	r0, r4
    188c:	f001 f836 	bl	28fc <malloc>
    1890:	b930      	cbnz	r0, 18a0 <_Znwj+0x20>
    1892:	4b04      	ldr	r3, [pc, #16]	; (18a4 <_Znwj+0x24>)
    1894:	6818      	ldr	r0, [r3, #0]
    1896:	b908      	cbnz	r0, 189c <_Znwj+0x1c>
    1898:	f7fe ffc2 	bl	820 <abort>
    189c:	4780      	blx	r0
    189e:	e7f4      	b.n	188a <_Znwj+0xa>
    18a0:	bd10      	pop	{r4, pc}
    18a2:	bf00      	nop
    18a4:	10000678 	.word	0x10000678

000018a8 <_ZNSt9type_infoD1Ev>:
    18a8:	4b01      	ldr	r3, [pc, #4]	; (18b0 <_ZNSt9type_infoD1Ev+0x8>)
    18aa:	6003      	str	r3, [r0, #0]
    18ac:	4770      	bx	lr
    18ae:	bf00      	nop
    18b0:	00006f90 	.word	0x00006f90

000018b4 <_ZNKSt9type_info14__is_pointer_pEv>:
    18b4:	2000      	movs	r0, #0
    18b6:	4770      	bx	lr

000018b8 <_ZNKSt9type_info15__is_function_pEv>:
    18b8:	2000      	movs	r0, #0
    18ba:	4770      	bx	lr

000018bc <_ZNKSt9type_info11__do_upcastEPKN10__cxxabiv117__class_type_infoEPPv>:
    18bc:	2000      	movs	r0, #0
    18be:	4770      	bx	lr

000018c0 <_ZNSt9type_infoD0Ev>:
    18c0:	4b03      	ldr	r3, [pc, #12]	; (18d0 <_ZNSt9type_infoD0Ev+0x10>)
    18c2:	b510      	push	{r4, lr}
    18c4:	4604      	mov	r4, r0
    18c6:	6003      	str	r3, [r0, #0]
    18c8:	f7ff ff66 	bl	1798 <_ZdlPv>
    18cc:	4620      	mov	r0, r4
    18ce:	bd10      	pop	{r4, pc}
    18d0:	00006f90 	.word	0x00006f90

000018d4 <_ZNKSt9type_infoeqERKS_>:
    18d4:	4281      	cmp	r1, r0
    18d6:	b508      	push	{r3, lr}
    18d8:	d00e      	beq.n	18f8 <_ZNKSt9type_infoeqERKS_+0x24>
    18da:	6840      	ldr	r0, [r0, #4]
    18dc:	7803      	ldrb	r3, [r0, #0]
    18de:	2b2a      	cmp	r3, #42	; 0x2a
    18e0:	d101      	bne.n	18e6 <_ZNKSt9type_infoeqERKS_+0x12>
    18e2:	2000      	movs	r0, #0
    18e4:	bd08      	pop	{r3, pc}
    18e6:	6849      	ldr	r1, [r1, #4]
    18e8:	780a      	ldrb	r2, [r1, #0]
    18ea:	2a2a      	cmp	r2, #42	; 0x2a
    18ec:	bf08      	it	eq
    18ee:	3101      	addeq	r1, #1
    18f0:	f001 f8dd 	bl	2aae <strcmp>
    18f4:	2800      	cmp	r0, #0
    18f6:	d1f4      	bne.n	18e2 <_ZNKSt9type_infoeqERKS_+0xe>
    18f8:	2001      	movs	r0, #1
    18fa:	bd08      	pop	{r3, pc}

000018fc <_ZNKSt9type_info10__do_catchEPKS_PPvj>:
    18fc:	f7ff bfea 	b.w	18d4 <_ZNKSt9type_infoeqERKS_>

00001900 <_ZdaPv>:
    1900:	f7ff bf4a 	b.w	1798 <_ZdlPv>

00001904 <__aeabi_drsub>:
    1904:	f081 4100 	eor.w	r1, r1, #2147483648	; 0x80000000
    1908:	e002      	b.n	1910 <__adddf3>
    190a:	bf00      	nop

0000190c <__aeabi_dsub>:
    190c:	f083 4300 	eor.w	r3, r3, #2147483648	; 0x80000000

00001910 <__adddf3>:
    1910:	b530      	push	{r4, r5, lr}
    1912:	ea4f 0441 	mov.w	r4, r1, lsl #1
    1916:	ea4f 0543 	mov.w	r5, r3, lsl #1
    191a:	ea94 0f05 	teq	r4, r5
    191e:	bf08      	it	eq
    1920:	ea90 0f02 	teqeq	r0, r2
    1924:	bf1f      	itttt	ne
    1926:	ea54 0c00 	orrsne.w	r12, r4, r0
    192a:	ea55 0c02 	orrsne.w	r12, r5, r2
    192e:	ea7f 5c64 	mvnsne.w	r12, r4, asr #21
    1932:	ea7f 5c65 	mvnsne.w	r12, r5, asr #21
    1936:	f000 80e2 	beq.w	1afe <__adddf3+0x1ee>
    193a:	ea4f 5454 	mov.w	r4, r4, lsr #21
    193e:	ebd4 5555 	rsbs	r5, r4, r5, lsr #21
    1942:	bfb8      	it	lt
    1944:	426d      	neglt	r5, r5
    1946:	dd0c      	ble.n	1962 <__adddf3+0x52>
    1948:	442c      	add	r4, r5
    194a:	ea80 0202 	eor.w	r2, r0, r2
    194e:	ea81 0303 	eor.w	r3, r1, r3
    1952:	ea82 0000 	eor.w	r0, r2, r0
    1956:	ea83 0101 	eor.w	r1, r3, r1
    195a:	ea80 0202 	eor.w	r2, r0, r2
    195e:	ea81 0303 	eor.w	r3, r1, r3
    1962:	2d36      	cmp	r5, #54	; 0x36
    1964:	bf88      	it	hi
    1966:	bd30      	pophi	{r4, r5, pc}
    1968:	f011 4f00 	tst.w	r1, #2147483648	; 0x80000000
    196c:	ea4f 3101 	mov.w	r1, r1, lsl #12
    1970:	f44f 1c80 	mov.w	r12, #1048576	; 0x100000
    1974:	ea4c 3111 	orr.w	r1, r12, r1, lsr #12
    1978:	d002      	beq.n	1980 <__adddf3+0x70>
    197a:	4240      	negs	r0, r0
    197c:	eb61 0141 	sbc.w	r1, r1, r1, lsl #1
    1980:	f013 4f00 	tst.w	r3, #2147483648	; 0x80000000
    1984:	ea4f 3303 	mov.w	r3, r3, lsl #12
    1988:	ea4c 3313 	orr.w	r3, r12, r3, lsr #12
    198c:	d002      	beq.n	1994 <__adddf3+0x84>
    198e:	4252      	negs	r2, r2
    1990:	eb63 0343 	sbc.w	r3, r3, r3, lsl #1
    1994:	ea94 0f05 	teq	r4, r5
    1998:	f000 80a7 	beq.w	1aea <__adddf3+0x1da>
    199c:	f1a4 0401 	sub.w	r4, r4, #1
    19a0:	f1d5 0e20 	rsbs	lr, r5, #32
    19a4:	db0d      	blt.n	19c2 <__adddf3+0xb2>
    19a6:	fa02 fc0e 	lsl.w	r12, r2, lr
    19aa:	fa22 f205 	lsr.w	r2, r2, r5
    19ae:	1880      	adds	r0, r0, r2
    19b0:	f141 0100 	adc.w	r1, r1, #0
    19b4:	fa03 f20e 	lsl.w	r2, r3, lr
    19b8:	1880      	adds	r0, r0, r2
    19ba:	fa43 f305 	asr.w	r3, r3, r5
    19be:	4159      	adcs	r1, r3
    19c0:	e00e      	b.n	19e0 <__adddf3+0xd0>
    19c2:	f1a5 0520 	sub.w	r5, r5, #32
    19c6:	f10e 0e20 	add.w	lr, lr, #32
    19ca:	2a01      	cmp	r2, #1
    19cc:	fa03 fc0e 	lsl.w	r12, r3, lr
    19d0:	bf28      	it	cs
    19d2:	f04c 0c02 	orrcs.w	r12, r12, #2
    19d6:	fa43 f305 	asr.w	r3, r3, r5
    19da:	18c0      	adds	r0, r0, r3
    19dc:	eb51 71e3 	adcs.w	r1, r1, r3, asr #31
    19e0:	f001 4500 	and.w	r5, r1, #2147483648	; 0x80000000
    19e4:	d507      	bpl.n	19f6 <__adddf3+0xe6>
    19e6:	f04f 0e00 	mov.w	lr, #0
    19ea:	f1dc 0c00 	rsbs	r12, r12, #0
    19ee:	eb7e 0000 	sbcs.w	r0, lr, r0
    19f2:	eb6e 0101 	sbc.w	r1, lr, r1
    19f6:	f5b1 1f80 	cmp.w	r1, #1048576	; 0x100000
    19fa:	d31b      	bcc.n	1a34 <__adddf3+0x124>
    19fc:	f5b1 1f00 	cmp.w	r1, #2097152	; 0x200000
    1a00:	d30c      	bcc.n	1a1c <__adddf3+0x10c>
    1a02:	0849      	lsrs	r1, r1, #1
    1a04:	ea5f 0030 	movs.w	r0, r0, rrx
    1a08:	ea4f 0c3c 	mov.w	r12, r12, rrx
    1a0c:	f104 0401 	add.w	r4, r4, #1
    1a10:	ea4f 5244 	mov.w	r2, r4, lsl #21
    1a14:	f512 0f80 	cmn.w	r2, #4194304	; 0x400000
    1a18:	f080 809a 	bcs.w	1b50 <__adddf3+0x240>
    1a1c:	f1bc 4f00 	cmp.w	r12, #2147483648	; 0x80000000
    1a20:	bf08      	it	eq
    1a22:	ea5f 0c50 	movseq.w	r12, r0, lsr #1
    1a26:	f150 0000 	adcs.w	r0, r0, #0
    1a2a:	eb41 5104 	adc.w	r1, r1, r4, lsl #20
    1a2e:	ea41 0105 	orr.w	r1, r1, r5
    1a32:	bd30      	pop	{r4, r5, pc}
    1a34:	ea5f 0c4c 	movs.w	r12, r12, lsl #1
    1a38:	4140      	adcs	r0, r0
    1a3a:	eb41 0101 	adc.w	r1, r1, r1
    1a3e:	f411 1f80 	tst.w	r1, #1048576	; 0x100000
    1a42:	f1a4 0401 	sub.w	r4, r4, #1
    1a46:	d1e9      	bne.n	1a1c <__adddf3+0x10c>
    1a48:	f091 0f00 	teq	r1, #0
    1a4c:	bf04      	itt	eq
    1a4e:	4601      	moveq	r1, r0
    1a50:	2000      	moveq	r0, #0
    1a52:	fab1 f381 	clz	r3, r1
    1a56:	bf08      	it	eq
    1a58:	3320      	addeq	r3, #32
    1a5a:	f1a3 030b 	sub.w	r3, r3, #11
    1a5e:	f1b3 0220 	subs.w	r2, r3, #32
    1a62:	da0c      	bge.n	1a7e <__adddf3+0x16e>
    1a64:	320c      	adds	r2, #12
    1a66:	dd08      	ble.n	1a7a <__adddf3+0x16a>
    1a68:	f102 0c14 	add.w	r12, r2, #20
    1a6c:	f1c2 020c 	rsb	r2, r2, #12
    1a70:	fa01 f00c 	lsl.w	r0, r1, r12
    1a74:	fa21 f102 	lsr.w	r1, r1, r2
    1a78:	e00c      	b.n	1a94 <__adddf3+0x184>
    1a7a:	f102 0214 	add.w	r2, r2, #20
    1a7e:	bfd8      	it	le
    1a80:	f1c2 0c20 	rsble	r12, r2, #32
    1a84:	fa01 f102 	lsl.w	r1, r1, r2
    1a88:	fa20 fc0c 	lsr.w	r12, r0, r12
    1a8c:	bfdc      	itt	le
    1a8e:	ea41 010c 	orrle.w	r1, r1, r12
    1a92:	4090      	lslle	r0, r2
    1a94:	1ae4      	subs	r4, r4, r3
    1a96:	bfa2      	ittt	ge
    1a98:	eb01 5104 	addge.w	r1, r1, r4, lsl #20
    1a9c:	4329      	orrge	r1, r5
    1a9e:	bd30      	popge	{r4, r5, pc}
    1aa0:	ea6f 0404 	mvn.w	r4, r4
    1aa4:	3c1f      	subs	r4, #31
    1aa6:	da1c      	bge.n	1ae2 <__adddf3+0x1d2>
    1aa8:	340c      	adds	r4, #12
    1aaa:	dc0e      	bgt.n	1aca <__adddf3+0x1ba>
    1aac:	f104 0414 	add.w	r4, r4, #20
    1ab0:	f1c4 0220 	rsb	r2, r4, #32
    1ab4:	fa20 f004 	lsr.w	r0, r0, r4
    1ab8:	fa01 f302 	lsl.w	r3, r1, r2
    1abc:	ea40 0003 	orr.w	r0, r0, r3
    1ac0:	fa21 f304 	lsr.w	r3, r1, r4
    1ac4:	ea45 0103 	orr.w	r1, r5, r3
    1ac8:	bd30      	pop	{r4, r5, pc}
    1aca:	f1c4 040c 	rsb	r4, r4, #12
    1ace:	f1c4 0220 	rsb	r2, r4, #32
    1ad2:	fa20 f002 	lsr.w	r0, r0, r2
    1ad6:	fa01 f304 	lsl.w	r3, r1, r4
    1ada:	ea40 0003 	orr.w	r0, r0, r3
    1ade:	4629      	mov	r1, r5
    1ae0:	bd30      	pop	{r4, r5, pc}
    1ae2:	fa21 f004 	lsr.w	r0, r1, r4
    1ae6:	4629      	mov	r1, r5
    1ae8:	bd30      	pop	{r4, r5, pc}
    1aea:	f094 0f00 	teq	r4, #0
    1aee:	f483 1380 	eor.w	r3, r3, #1048576	; 0x100000
    1af2:	bf06      	itte	eq
    1af4:	f481 1180 	eoreq.w	r1, r1, #1048576	; 0x100000
    1af8:	3401      	addeq	r4, #1
    1afa:	3d01      	subne	r5, #1
    1afc:	e74e      	b.n	199c <__adddf3+0x8c>
    1afe:	ea7f 5c64 	mvns.w	r12, r4, asr #21
    1b02:	bf18      	it	ne
    1b04:	ea7f 5c65 	mvnsne.w	r12, r5, asr #21
    1b08:	d029      	beq.n	1b5e <__adddf3+0x24e>
    1b0a:	ea94 0f05 	teq	r4, r5
    1b0e:	bf08      	it	eq
    1b10:	ea90 0f02 	teqeq	r0, r2
    1b14:	d005      	beq.n	1b22 <__adddf3+0x212>
    1b16:	ea54 0c00 	orrs.w	r12, r4, r0
    1b1a:	bf04      	itt	eq
    1b1c:	4619      	moveq	r1, r3
    1b1e:	4610      	moveq	r0, r2
    1b20:	bd30      	pop	{r4, r5, pc}
    1b22:	ea91 0f03 	teq	r1, r3
    1b26:	bf1e      	ittt	ne
    1b28:	2100      	movne	r1, #0
    1b2a:	2000      	movne	r0, #0
    1b2c:	bd30      	popne	{r4, r5, pc}
    1b2e:	ea5f 5c54 	movs.w	r12, r4, lsr #21
    1b32:	d105      	bne.n	1b40 <__adddf3+0x230>
    1b34:	0040      	lsls	r0, r0, #1
    1b36:	4149      	adcs	r1, r1
    1b38:	bf28      	it	cs
    1b3a:	f041 4100 	orrcs.w	r1, r1, #2147483648	; 0x80000000
    1b3e:	bd30      	pop	{r4, r5, pc}
    1b40:	f514 0480 	adds.w	r4, r4, #4194304	; 0x400000
    1b44:	bf3c      	itt	cc
    1b46:	f501 1180 	addcc.w	r1, r1, #1048576	; 0x100000
    1b4a:	bd30      	popcc	{r4, r5, pc}
    1b4c:	f001 4500 	and.w	r5, r1, #2147483648	; 0x80000000
    1b50:	f045 41fe 	orr.w	r1, r5, #2130706432	; 0x7f000000
    1b54:	f441 0170 	orr.w	r1, r1, #15728640	; 0xf00000
    1b58:	f04f 0000 	mov.w	r0, #0
    1b5c:	bd30      	pop	{r4, r5, pc}
    1b5e:	ea7f 5c64 	mvns.w	r12, r4, asr #21
    1b62:	bf1a      	itte	ne
    1b64:	4619      	movne	r1, r3
    1b66:	4610      	movne	r0, r2
    1b68:	ea7f 5c65 	mvnseq.w	r12, r5, asr #21
    1b6c:	bf1c      	itt	ne
    1b6e:	460b      	movne	r3, r1
    1b70:	4602      	movne	r2, r0
    1b72:	ea50 3401 	orrs.w	r4, r0, r1, lsl #12
    1b76:	bf06      	itte	eq
    1b78:	ea52 3503 	orrseq.w	r5, r2, r3, lsl #12
    1b7c:	ea91 0f03 	teqeq	r1, r3
    1b80:	f441 2100 	orrne.w	r1, r1, #524288	; 0x80000
    1b84:	bd30      	pop	{r4, r5, pc}
    1b86:	bf00      	nop

00001b88 <__aeabi_ui2d>:
    1b88:	f090 0f00 	teq	r0, #0
    1b8c:	bf04      	itt	eq
    1b8e:	2100      	moveq	r1, #0
    1b90:	4770      	bxeq	lr
    1b92:	b530      	push	{r4, r5, lr}
    1b94:	f44f 6480 	mov.w	r4, #1024	; 0x400
    1b98:	f104 0432 	add.w	r4, r4, #50	; 0x32
    1b9c:	f04f 0500 	mov.w	r5, #0
    1ba0:	f04f 0100 	mov.w	r1, #0
    1ba4:	e750      	b.n	1a48 <__adddf3+0x138>
    1ba6:	bf00      	nop

00001ba8 <__aeabi_i2d>:
    1ba8:	f090 0f00 	teq	r0, #0
    1bac:	bf04      	itt	eq
    1bae:	2100      	moveq	r1, #0
    1bb0:	4770      	bxeq	lr
    1bb2:	b530      	push	{r4, r5, lr}
    1bb4:	f44f 6480 	mov.w	r4, #1024	; 0x400
    1bb8:	f104 0432 	add.w	r4, r4, #50	; 0x32
    1bbc:	f010 4500 	ands.w	r5, r0, #2147483648	; 0x80000000
    1bc0:	bf48      	it	mi
    1bc2:	4240      	negmi	r0, r0
    1bc4:	f04f 0100 	mov.w	r1, #0
    1bc8:	e73e      	b.n	1a48 <__adddf3+0x138>
    1bca:	bf00      	nop

00001bcc <__aeabi_f2d>:
    1bcc:	0042      	lsls	r2, r0, #1
    1bce:	ea4f 01e2 	mov.w	r1, r2, asr #3
    1bd2:	ea4f 0131 	mov.w	r1, r1, rrx
    1bd6:	ea4f 7002 	mov.w	r0, r2, lsl #28
    1bda:	bf1f      	itttt	ne
    1bdc:	f012 437f 	andsne.w	r3, r2, #4278190080	; 0xff000000
    1be0:	f093 4f7f 	teqne	r3, #4278190080	; 0xff000000
    1be4:	f081 5160 	eorne.w	r1, r1, #939524096	; 0x38000000
    1be8:	4770      	bxne	lr
    1bea:	f092 0f00 	teq	r2, #0
    1bee:	bf14      	ite	ne
    1bf0:	f093 4f7f 	teqne	r3, #4278190080	; 0xff000000
    1bf4:	4770      	bxeq	lr
    1bf6:	b530      	push	{r4, r5, lr}
    1bf8:	f44f 7460 	mov.w	r4, #896	; 0x380
    1bfc:	f001 4500 	and.w	r5, r1, #2147483648	; 0x80000000
    1c00:	f021 4100 	bic.w	r1, r1, #2147483648	; 0x80000000
    1c04:	e720      	b.n	1a48 <__adddf3+0x138>
    1c06:	bf00      	nop

00001c08 <__aeabi_ul2d>:
    1c08:	ea50 0201 	orrs.w	r2, r0, r1
    1c0c:	bf08      	it	eq
    1c0e:	4770      	bxeq	lr
    1c10:	b530      	push	{r4, r5, lr}
    1c12:	f04f 0500 	mov.w	r5, #0
    1c16:	e00a      	b.n	1c2e <__aeabi_l2d+0x16>

00001c18 <__aeabi_l2d>:
    1c18:	ea50 0201 	orrs.w	r2, r0, r1
    1c1c:	bf08      	it	eq
    1c1e:	4770      	bxeq	lr
    1c20:	b530      	push	{r4, r5, lr}
    1c22:	f011 4500 	ands.w	r5, r1, #2147483648	; 0x80000000
    1c26:	d502      	bpl.n	1c2e <__aeabi_l2d+0x16>
    1c28:	4240      	negs	r0, r0
    1c2a:	eb61 0141 	sbc.w	r1, r1, r1, lsl #1
    1c2e:	f44f 6480 	mov.w	r4, #1024	; 0x400
    1c32:	f104 0432 	add.w	r4, r4, #50	; 0x32
    1c36:	ea5f 5c91 	movs.w	r12, r1, lsr #22
    1c3a:	f43f aedc 	beq.w	19f6 <__adddf3+0xe6>
    1c3e:	f04f 0203 	mov.w	r2, #3
    1c42:	ea5f 0cdc 	movs.w	r12, r12, lsr #3
    1c46:	bf18      	it	ne
    1c48:	3203      	addne	r2, #3
    1c4a:	ea5f 0cdc 	movs.w	r12, r12, lsr #3
    1c4e:	bf18      	it	ne
    1c50:	3203      	addne	r2, #3
    1c52:	eb02 02dc 	add.w	r2, r2, r12, lsr #3
    1c56:	f1c2 0320 	rsb	r3, r2, #32
    1c5a:	fa00 fc03 	lsl.w	r12, r0, r3
    1c5e:	fa20 f002 	lsr.w	r0, r0, r2
    1c62:	fa01 fe03 	lsl.w	lr, r1, r3
    1c66:	ea40 000e 	orr.w	r0, r0, lr
    1c6a:	fa21 f102 	lsr.w	r1, r1, r2
    1c6e:	4414      	add	r4, r2
    1c70:	e6c1      	b.n	19f6 <__adddf3+0xe6>
    1c72:	bf00      	nop

00001c74 <__aeabi_dmul>:
    1c74:	b570      	push	{r4, r5, r6, lr}
    1c76:	f04f 0cff 	mov.w	r12, #255	; 0xff
    1c7a:	f44c 6ce0 	orr.w	r12, r12, #1792	; 0x700
    1c7e:	ea1c 5411 	ands.w	r4, r12, r1, lsr #20
    1c82:	bf1d      	ittte	ne
    1c84:	ea1c 5513 	andsne.w	r5, r12, r3, lsr #20
    1c88:	ea94 0f0c 	teqne	r4, r12
    1c8c:	ea95 0f0c 	teqne	r5, r12
    1c90:	f000 f8de 	bleq	1e50 <__aeabi_dmul+0x1dc>
    1c94:	442c      	add	r4, r5
    1c96:	ea81 0603 	eor.w	r6, r1, r3
    1c9a:	ea21 514c 	bic.w	r1, r1, r12, lsl #21
    1c9e:	ea23 534c 	bic.w	r3, r3, r12, lsl #21
    1ca2:	ea50 3501 	orrs.w	r5, r0, r1, lsl #12
    1ca6:	bf18      	it	ne
    1ca8:	ea52 3503 	orrsne.w	r5, r2, r3, lsl #12
    1cac:	f441 1180 	orr.w	r1, r1, #1048576	; 0x100000
    1cb0:	f443 1380 	orr.w	r3, r3, #1048576	; 0x100000
    1cb4:	d038      	beq.n	1d28 <__aeabi_dmul+0xb4>
    1cb6:	fba0 ce02 	umull	r12, lr, r0, r2
    1cba:	f04f 0500 	mov.w	r5, #0
    1cbe:	fbe1 e502 	umlal	lr, r5, r1, r2
    1cc2:	f006 4200 	and.w	r2, r6, #2147483648	; 0x80000000
    1cc6:	fbe0 e503 	umlal	lr, r5, r0, r3
    1cca:	f04f 0600 	mov.w	r6, #0
    1cce:	fbe1 5603 	umlal	r5, r6, r1, r3
    1cd2:	f09c 0f00 	teq	r12, #0
    1cd6:	bf18      	it	ne
    1cd8:	f04e 0e01 	orrne.w	lr, lr, #1
    1cdc:	f1a4 04ff 	sub.w	r4, r4, #255	; 0xff
    1ce0:	f5b6 7f00 	cmp.w	r6, #512	; 0x200
    1ce4:	f564 7440 	sbc.w	r4, r4, #768	; 0x300
    1ce8:	d204      	bcs.n	1cf4 <__aeabi_dmul+0x80>
    1cea:	ea5f 0e4e 	movs.w	lr, lr, lsl #1
    1cee:	416d      	adcs	r5, r5
    1cf0:	eb46 0606 	adc.w	r6, r6, r6
    1cf4:	ea42 21c6 	orr.w	r1, r2, r6, lsl #11
    1cf8:	ea41 5155 	orr.w	r1, r1, r5, lsr #21
    1cfc:	ea4f 20c5 	mov.w	r0, r5, lsl #11
    1d00:	ea40 505e 	orr.w	r0, r0, lr, lsr #21
    1d04:	ea4f 2ece 	mov.w	lr, lr, lsl #11
    1d08:	f1b4 0cfd 	subs.w	r12, r4, #253	; 0xfd
    1d0c:	bf88      	it	hi
    1d0e:	f5bc 6fe0 	cmphi.w	r12, #1792	; 0x700
    1d12:	d81e      	bhi.n	1d52 <__aeabi_dmul+0xde>
    1d14:	f1be 4f00 	cmp.w	lr, #2147483648	; 0x80000000
    1d18:	bf08      	it	eq
    1d1a:	ea5f 0e50 	movseq.w	lr, r0, lsr #1
    1d1e:	f150 0000 	adcs.w	r0, r0, #0
    1d22:	eb41 5104 	adc.w	r1, r1, r4, lsl #20
    1d26:	bd70      	pop	{r4, r5, r6, pc}
    1d28:	f006 4600 	and.w	r6, r6, #2147483648	; 0x80000000
    1d2c:	ea46 0101 	orr.w	r1, r6, r1
    1d30:	ea40 0002 	orr.w	r0, r0, r2
    1d34:	ea81 0103 	eor.w	r1, r1, r3
    1d38:	ebb4 045c 	subs.w	r4, r4, r12, lsr #1
    1d3c:	bfc2      	ittt	gt
    1d3e:	ebd4 050c 	rsbsgt	r5, r4, r12
    1d42:	ea41 5104 	orrgt.w	r1, r1, r4, lsl #20
    1d46:	bd70      	popgt	{r4, r5, r6, pc}
    1d48:	f441 1180 	orr.w	r1, r1, #1048576	; 0x100000
    1d4c:	f04f 0e00 	mov.w	lr, #0
    1d50:	3c01      	subs	r4, #1
    1d52:	f300 80ab 	bgt.w	1eac <__aeabi_dmul+0x238>
    1d56:	f114 0f36 	cmn.w	r4, #54	; 0x36
    1d5a:	bfde      	ittt	le
    1d5c:	2000      	movle	r0, #0
    1d5e:	f001 4100 	andle.w	r1, r1, #2147483648	; 0x80000000
    1d62:	bd70      	pople	{r4, r5, r6, pc}
    1d64:	f1c4 0400 	rsb	r4, r4, #0
    1d68:	3c20      	subs	r4, #32
    1d6a:	da35      	bge.n	1dd8 <__aeabi_dmul+0x164>
    1d6c:	340c      	adds	r4, #12
    1d6e:	dc1b      	bgt.n	1da8 <__aeabi_dmul+0x134>
    1d70:	f104 0414 	add.w	r4, r4, #20
    1d74:	f1c4 0520 	rsb	r5, r4, #32
    1d78:	fa00 f305 	lsl.w	r3, r0, r5
    1d7c:	fa20 f004 	lsr.w	r0, r0, r4
    1d80:	fa01 f205 	lsl.w	r2, r1, r5
    1d84:	ea40 0002 	orr.w	r0, r0, r2
    1d88:	f001 4200 	and.w	r2, r1, #2147483648	; 0x80000000
    1d8c:	f021 4100 	bic.w	r1, r1, #2147483648	; 0x80000000
    1d90:	eb10 70d3 	adds.w	r0, r0, r3, lsr #31
    1d94:	fa21 f604 	lsr.w	r6, r1, r4
    1d98:	eb42 0106 	adc.w	r1, r2, r6
    1d9c:	ea5e 0e43 	orrs.w	lr, lr, r3, lsl #1
    1da0:	bf08      	it	eq
    1da2:	ea20 70d3 	biceq.w	r0, r0, r3, lsr #31
    1da6:	bd70      	pop	{r4, r5, r6, pc}
    1da8:	f1c4 040c 	rsb	r4, r4, #12
    1dac:	f1c4 0520 	rsb	r5, r4, #32
    1db0:	fa00 f304 	lsl.w	r3, r0, r4
    1db4:	fa20 f005 	lsr.w	r0, r0, r5
    1db8:	fa01 f204 	lsl.w	r2, r1, r4
    1dbc:	ea40 0002 	orr.w	r0, r0, r2
    1dc0:	f001 4100 	and.w	r1, r1, #2147483648	; 0x80000000
    1dc4:	eb10 70d3 	adds.w	r0, r0, r3, lsr #31
    1dc8:	f141 0100 	adc.w	r1, r1, #0
    1dcc:	ea5e 0e43 	orrs.w	lr, lr, r3, lsl #1
    1dd0:	bf08      	it	eq
    1dd2:	ea20 70d3 	biceq.w	r0, r0, r3, lsr #31
    1dd6:	bd70      	pop	{r4, r5, r6, pc}
    1dd8:	f1c4 0520 	rsb	r5, r4, #32
    1ddc:	fa00 f205 	lsl.w	r2, r0, r5
    1de0:	ea4e 0e02 	orr.w	lr, lr, r2
    1de4:	fa20 f304 	lsr.w	r3, r0, r4
    1de8:	fa01 f205 	lsl.w	r2, r1, r5
    1dec:	ea43 0302 	orr.w	r3, r3, r2
    1df0:	fa21 f004 	lsr.w	r0, r1, r4
    1df4:	f001 4100 	and.w	r1, r1, #2147483648	; 0x80000000
    1df8:	fa21 f204 	lsr.w	r2, r1, r4
    1dfc:	ea20 0002 	bic.w	r0, r0, r2
    1e00:	eb00 70d3 	add.w	r0, r0, r3, lsr #31
    1e04:	ea5e 0e43 	orrs.w	lr, lr, r3, lsl #1
    1e08:	bf08      	it	eq
    1e0a:	ea20 70d3 	biceq.w	r0, r0, r3, lsr #31
    1e0e:	bd70      	pop	{r4, r5, r6, pc}
    1e10:	f094 0f00 	teq	r4, #0
    1e14:	d10f      	bne.n	1e36 <__aeabi_dmul+0x1c2>
    1e16:	f001 4600 	and.w	r6, r1, #2147483648	; 0x80000000
    1e1a:	0040      	lsls	r0, r0, #1
    1e1c:	eb41 0101 	adc.w	r1, r1, r1
    1e20:	f411 1f80 	tst.w	r1, #1048576	; 0x100000
    1e24:	bf08      	it	eq
    1e26:	3c01      	subeq	r4, #1
    1e28:	d0f7      	beq.n	1e1a <__aeabi_dmul+0x1a6>
    1e2a:	ea41 0106 	orr.w	r1, r1, r6
    1e2e:	f095 0f00 	teq	r5, #0
    1e32:	bf18      	it	ne
    1e34:	4770      	bxne	lr
    1e36:	f003 4600 	and.w	r6, r3, #2147483648	; 0x80000000
    1e3a:	0052      	lsls	r2, r2, #1
    1e3c:	eb43 0303 	adc.w	r3, r3, r3
    1e40:	f413 1f80 	tst.w	r3, #1048576	; 0x100000
    1e44:	bf08      	it	eq
    1e46:	3d01      	subeq	r5, #1
    1e48:	d0f7      	beq.n	1e3a <__aeabi_dmul+0x1c6>
    1e4a:	ea43 0306 	orr.w	r3, r3, r6
    1e4e:	4770      	bx	lr
    1e50:	ea94 0f0c 	teq	r4, r12
    1e54:	ea0c 5513 	and.w	r5, r12, r3, lsr #20
    1e58:	bf18      	it	ne
    1e5a:	ea95 0f0c 	teqne	r5, r12
    1e5e:	d00c      	beq.n	1e7a <__aeabi_dmul+0x206>
    1e60:	ea50 0641 	orrs.w	r6, r0, r1, lsl #1
    1e64:	bf18      	it	ne
    1e66:	ea52 0643 	orrsne.w	r6, r2, r3, lsl #1
    1e6a:	d1d1      	bne.n	1e10 <__aeabi_dmul+0x19c>
    1e6c:	ea81 0103 	eor.w	r1, r1, r3
    1e70:	f001 4100 	and.w	r1, r1, #2147483648	; 0x80000000
    1e74:	f04f 0000 	mov.w	r0, #0
    1e78:	bd70      	pop	{r4, r5, r6, pc}
    1e7a:	ea50 0641 	orrs.w	r6, r0, r1, lsl #1
    1e7e:	bf06      	itte	eq
    1e80:	4610      	moveq	r0, r2
    1e82:	4619      	moveq	r1, r3
    1e84:	ea52 0643 	orrsne.w	r6, r2, r3, lsl #1
    1e88:	d019      	beq.n	1ebe <__aeabi_dmul+0x24a>
    1e8a:	ea94 0f0c 	teq	r4, r12
    1e8e:	d102      	bne.n	1e96 <__aeabi_dmul+0x222>
    1e90:	ea50 3601 	orrs.w	r6, r0, r1, lsl #12
    1e94:	d113      	bne.n	1ebe <__aeabi_dmul+0x24a>
    1e96:	ea95 0f0c 	teq	r5, r12
    1e9a:	d105      	bne.n	1ea8 <__aeabi_dmul+0x234>
    1e9c:	ea52 3603 	orrs.w	r6, r2, r3, lsl #12
    1ea0:	bf1c      	itt	ne
    1ea2:	4610      	movne	r0, r2
    1ea4:	4619      	movne	r1, r3
    1ea6:	d10a      	bne.n	1ebe <__aeabi_dmul+0x24a>
    1ea8:	ea81 0103 	eor.w	r1, r1, r3
    1eac:	f001 4100 	and.w	r1, r1, #2147483648	; 0x80000000
    1eb0:	f041 41fe 	orr.w	r1, r1, #2130706432	; 0x7f000000
    1eb4:	f441 0170 	orr.w	r1, r1, #15728640	; 0xf00000
    1eb8:	f04f 0000 	mov.w	r0, #0
    1ebc:	bd70      	pop	{r4, r5, r6, pc}
    1ebe:	f041 41fe 	orr.w	r1, r1, #2130706432	; 0x7f000000
    1ec2:	f441 0178 	orr.w	r1, r1, #16252928	; 0xf80000
    1ec6:	bd70      	pop	{r4, r5, r6, pc}

00001ec8 <__aeabi_ddiv>:
    1ec8:	b570      	push	{r4, r5, r6, lr}
    1eca:	f04f 0cff 	mov.w	r12, #255	; 0xff
    1ece:	f44c 6ce0 	orr.w	r12, r12, #1792	; 0x700
    1ed2:	ea1c 5411 	ands.w	r4, r12, r1, lsr #20
    1ed6:	bf1d      	ittte	ne
    1ed8:	ea1c 5513 	andsne.w	r5, r12, r3, lsr #20
    1edc:	ea94 0f0c 	teqne	r4, r12
    1ee0:	ea95 0f0c 	teqne	r5, r12
    1ee4:	f000 f8a7 	bleq	2036 <__aeabi_ddiv+0x16e>
    1ee8:	eba4 0405 	sub.w	r4, r4, r5
    1eec:	ea81 0e03 	eor.w	lr, r1, r3
    1ef0:	ea52 3503 	orrs.w	r5, r2, r3, lsl #12
    1ef4:	ea4f 3101 	mov.w	r1, r1, lsl #12
    1ef8:	f000 8088 	beq.w	200c <__aeabi_ddiv+0x144>
    1efc:	ea4f 3303 	mov.w	r3, r3, lsl #12
    1f00:	f04f 5580 	mov.w	r5, #268435456	; 0x10000000
    1f04:	ea45 1313 	orr.w	r3, r5, r3, lsr #4
    1f08:	ea43 6312 	orr.w	r3, r3, r2, lsr #24
    1f0c:	ea4f 2202 	mov.w	r2, r2, lsl #8
    1f10:	ea45 1511 	orr.w	r5, r5, r1, lsr #4
    1f14:	ea45 6510 	orr.w	r5, r5, r0, lsr #24
    1f18:	ea4f 2600 	mov.w	r6, r0, lsl #8
    1f1c:	f00e 4100 	and.w	r1, lr, #2147483648	; 0x80000000
    1f20:	429d      	cmp	r5, r3
    1f22:	bf08      	it	eq
    1f24:	4296      	cmpeq	r6, r2
    1f26:	f144 04fd 	adc.w	r4, r4, #253	; 0xfd
    1f2a:	f504 7440 	add.w	r4, r4, #768	; 0x300
    1f2e:	d202      	bcs.n	1f36 <__aeabi_ddiv+0x6e>
    1f30:	085b      	lsrs	r3, r3, #1
    1f32:	ea4f 0232 	mov.w	r2, r2, rrx
    1f36:	1ab6      	subs	r6, r6, r2
    1f38:	eb65 0503 	sbc.w	r5, r5, r3
    1f3c:	085b      	lsrs	r3, r3, #1
    1f3e:	ea4f 0232 	mov.w	r2, r2, rrx
    1f42:	f44f 1080 	mov.w	r0, #1048576	; 0x100000
    1f46:	f44f 2c00 	mov.w	r12, #524288	; 0x80000
    1f4a:	ebb6 0e02 	subs.w	lr, r6, r2
    1f4e:	eb75 0e03 	sbcs.w	lr, r5, r3
    1f52:	bf22      	ittt	cs
    1f54:	1ab6      	subcs	r6, r6, r2
    1f56:	4675      	movcs	r5, lr
    1f58:	ea40 000c 	orrcs.w	r0, r0, r12
    1f5c:	085b      	lsrs	r3, r3, #1
    1f5e:	ea4f 0232 	mov.w	r2, r2, rrx
    1f62:	ebb6 0e02 	subs.w	lr, r6, r2
    1f66:	eb75 0e03 	sbcs.w	lr, r5, r3
    1f6a:	bf22      	ittt	cs
    1f6c:	1ab6      	subcs	r6, r6, r2
    1f6e:	4675      	movcs	r5, lr
    1f70:	ea40 005c 	orrcs.w	r0, r0, r12, lsr #1
    1f74:	085b      	lsrs	r3, r3, #1
    1f76:	ea4f 0232 	mov.w	r2, r2, rrx
    1f7a:	ebb6 0e02 	subs.w	lr, r6, r2
    1f7e:	eb75 0e03 	sbcs.w	lr, r5, r3
    1f82:	bf22      	ittt	cs
    1f84:	1ab6      	subcs	r6, r6, r2
    1f86:	4675      	movcs	r5, lr
    1f88:	ea40 009c 	orrcs.w	r0, r0, r12, lsr #2
    1f8c:	085b      	lsrs	r3, r3, #1
    1f8e:	ea4f 0232 	mov.w	r2, r2, rrx
    1f92:	ebb6 0e02 	subs.w	lr, r6, r2
    1f96:	eb75 0e03 	sbcs.w	lr, r5, r3
    1f9a:	bf22      	ittt	cs
    1f9c:	1ab6      	subcs	r6, r6, r2
    1f9e:	4675      	movcs	r5, lr
    1fa0:	ea40 00dc 	orrcs.w	r0, r0, r12, lsr #3
    1fa4:	ea55 0e06 	orrs.w	lr, r5, r6
    1fa8:	d018      	beq.n	1fdc <__aeabi_ddiv+0x114>
    1faa:	ea4f 1505 	mov.w	r5, r5, lsl #4
    1fae:	ea45 7516 	orr.w	r5, r5, r6, lsr #28
    1fb2:	ea4f 1606 	mov.w	r6, r6, lsl #4
    1fb6:	ea4f 03c3 	mov.w	r3, r3, lsl #3
    1fba:	ea43 7352 	orr.w	r3, r3, r2, lsr #29
    1fbe:	ea4f 02c2 	mov.w	r2, r2, lsl #3
    1fc2:	ea5f 1c1c 	movs.w	r12, r12, lsr #4
    1fc6:	d1c0      	bne.n	1f4a <__aeabi_ddiv+0x82>
    1fc8:	f411 1f80 	tst.w	r1, #1048576	; 0x100000
    1fcc:	d10b      	bne.n	1fe6 <__aeabi_ddiv+0x11e>
    1fce:	ea41 0100 	orr.w	r1, r1, r0
    1fd2:	f04f 0000 	mov.w	r0, #0
    1fd6:	f04f 4c00 	mov.w	r12, #2147483648	; 0x80000000
    1fda:	e7b6      	b.n	1f4a <__aeabi_ddiv+0x82>
    1fdc:	f411 1f80 	tst.w	r1, #1048576	; 0x100000
    1fe0:	bf04      	itt	eq
    1fe2:	4301      	orreq	r1, r0
    1fe4:	2000      	moveq	r0, #0
    1fe6:	f1b4 0cfd 	subs.w	r12, r4, #253	; 0xfd
    1fea:	bf88      	it	hi
    1fec:	f5bc 6fe0 	cmphi.w	r12, #1792	; 0x700
    1ff0:	f63f aeaf 	bhi.w	1d52 <__aeabi_dmul+0xde>
    1ff4:	ebb5 0c03 	subs.w	r12, r5, r3
    1ff8:	bf04      	itt	eq
    1ffa:	ebb6 0c02 	subseq.w	r12, r6, r2
    1ffe:	ea5f 0c50 	movseq.w	r12, r0, lsr #1
    2002:	f150 0000 	adcs.w	r0, r0, #0
    2006:	eb41 5104 	adc.w	r1, r1, r4, lsl #20
    200a:	bd70      	pop	{r4, r5, r6, pc}
    200c:	f00e 4e00 	and.w	lr, lr, #2147483648	; 0x80000000
    2010:	ea4e 3111 	orr.w	r1, lr, r1, lsr #12
    2014:	eb14 045c 	adds.w	r4, r4, r12, lsr #1
    2018:	bfc2      	ittt	gt
    201a:	ebd4 050c 	rsbsgt	r5, r4, r12
    201e:	ea41 5104 	orrgt.w	r1, r1, r4, lsl #20
    2022:	bd70      	popgt	{r4, r5, r6, pc}
    2024:	f441 1180 	orr.w	r1, r1, #1048576	; 0x100000
    2028:	f04f 0e00 	mov.w	lr, #0
    202c:	3c01      	subs	r4, #1
    202e:	e690      	b.n	1d52 <__aeabi_dmul+0xde>
    2030:	ea45 0e06 	orr.w	lr, r5, r6
    2034:	e68d      	b.n	1d52 <__aeabi_dmul+0xde>
    2036:	ea0c 5513 	and.w	r5, r12, r3, lsr #20
    203a:	ea94 0f0c 	teq	r4, r12
    203e:	bf08      	it	eq
    2040:	ea95 0f0c 	teqeq	r5, r12
    2044:	f43f af3b 	beq.w	1ebe <__aeabi_dmul+0x24a>
    2048:	ea94 0f0c 	teq	r4, r12
    204c:	d10a      	bne.n	2064 <__aeabi_ddiv+0x19c>
    204e:	ea50 3401 	orrs.w	r4, r0, r1, lsl #12
    2052:	f47f af34 	bne.w	1ebe <__aeabi_dmul+0x24a>
    2056:	ea95 0f0c 	teq	r5, r12
    205a:	f47f af25 	bne.w	1ea8 <__aeabi_dmul+0x234>
    205e:	4610      	mov	r0, r2
    2060:	4619      	mov	r1, r3
    2062:	e72c      	b.n	1ebe <__aeabi_dmul+0x24a>
    2064:	ea95 0f0c 	teq	r5, r12
    2068:	d106      	bne.n	2078 <__aeabi_ddiv+0x1b0>
    206a:	ea52 3503 	orrs.w	r5, r2, r3, lsl #12
    206e:	f43f aefd 	beq.w	1e6c <__aeabi_dmul+0x1f8>
    2072:	4610      	mov	r0, r2
    2074:	4619      	mov	r1, r3
    2076:	e722      	b.n	1ebe <__aeabi_dmul+0x24a>
    2078:	ea50 0641 	orrs.w	r6, r0, r1, lsl #1
    207c:	bf18      	it	ne
    207e:	ea52 0643 	orrsne.w	r6, r2, r3, lsl #1
    2082:	f47f aec5 	bne.w	1e10 <__aeabi_dmul+0x19c>
    2086:	ea50 0441 	orrs.w	r4, r0, r1, lsl #1
    208a:	f47f af0d 	bne.w	1ea8 <__aeabi_dmul+0x234>
    208e:	ea52 0543 	orrs.w	r5, r2, r3, lsl #1
    2092:	f47f aeeb 	bne.w	1e6c <__aeabi_dmul+0x1f8>
    2096:	e712      	b.n	1ebe <__aeabi_dmul+0x24a>

00002098 <__gedf2>:
    2098:	f04f 3cff 	mov.w	r12, #4294967295
    209c:	e006      	b.n	20ac <__cmpdf2+0x4>
    209e:	bf00      	nop

000020a0 <__ledf2>:
    20a0:	f04f 0c01 	mov.w	r12, #1
    20a4:	e002      	b.n	20ac <__cmpdf2+0x4>
    20a6:	bf00      	nop

000020a8 <__cmpdf2>:
    20a8:	f04f 0c01 	mov.w	r12, #1
    20ac:	f84d cd04 	str.w	r12, [sp, #-4]!
    20b0:	ea4f 0c41 	mov.w	r12, r1, lsl #1
    20b4:	ea7f 5c6c 	mvns.w	r12, r12, asr #21
    20b8:	ea4f 0c43 	mov.w	r12, r3, lsl #1
    20bc:	bf18      	it	ne
    20be:	ea7f 5c6c 	mvnsne.w	r12, r12, asr #21
    20c2:	d01b      	beq.n	20fc <__cmpdf2+0x54>
    20c4:	b001      	add	sp, #4
    20c6:	ea50 0c41 	orrs.w	r12, r0, r1, lsl #1
    20ca:	bf0c      	ite	eq
    20cc:	ea52 0c43 	orrseq.w	r12, r2, r3, lsl #1
    20d0:	ea91 0f03 	teqne	r1, r3
    20d4:	bf02      	ittt	eq
    20d6:	ea90 0f02 	teqeq	r0, r2
    20da:	2000      	moveq	r0, #0
    20dc:	4770      	bxeq	lr
    20de:	f110 0f00 	cmn.w	r0, #0
    20e2:	ea91 0f03 	teq	r1, r3
    20e6:	bf58      	it	pl
    20e8:	4299      	cmppl	r1, r3
    20ea:	bf08      	it	eq
    20ec:	4290      	cmpeq	r0, r2
    20ee:	bf2c      	ite	cs
    20f0:	17d8      	asrcs	r0, r3, #31
    20f2:	ea6f 70e3 	mvncc.w	r0, r3, asr #31
    20f6:	f040 0001 	orr.w	r0, r0, #1
    20fa:	4770      	bx	lr
    20fc:	ea4f 0c41 	mov.w	r12, r1, lsl #1
    2100:	ea7f 5c6c 	mvns.w	r12, r12, asr #21
    2104:	d102      	bne.n	210c <__cmpdf2+0x64>
    2106:	ea50 3c01 	orrs.w	r12, r0, r1, lsl #12
    210a:	d107      	bne.n	211c <__cmpdf2+0x74>
    210c:	ea4f 0c43 	mov.w	r12, r3, lsl #1
    2110:	ea7f 5c6c 	mvns.w	r12, r12, asr #21
    2114:	d1d6      	bne.n	20c4 <__cmpdf2+0x1c>
    2116:	ea52 3c03 	orrs.w	r12, r2, r3, lsl #12
    211a:	d0d3      	beq.n	20c4 <__cmpdf2+0x1c>
    211c:	f85d 0b04 	ldr.w	r0, [sp], #4
    2120:	4770      	bx	lr
    2122:	bf00      	nop

00002124 <__aeabi_cdrcmple>:
    2124:	4684      	mov	r12, r0
    2126:	4610      	mov	r0, r2
    2128:	4662      	mov	r2, r12
    212a:	468c      	mov	r12, r1
    212c:	4619      	mov	r1, r3
    212e:	4663      	mov	r3, r12
    2130:	e000      	b.n	2134 <__aeabi_cdcmpeq>
    2132:	bf00      	nop

00002134 <__aeabi_cdcmpeq>:
    2134:	b501      	push	{r0, lr}
    2136:	f7ff ffb7 	bl	20a8 <__cmpdf2>
    213a:	2800      	cmp	r0, #0
    213c:	bf48      	it	mi
    213e:	f110 0f00 	cmnmi.w	r0, #0
    2142:	bd01      	pop	{r0, pc}

00002144 <__aeabi_dcmpeq>:
    2144:	f84d ed08 	str.w	lr, [sp, #-8]!
    2148:	f7ff fff4 	bl	2134 <__aeabi_cdcmpeq>
    214c:	bf0c      	ite	eq
    214e:	2001      	moveq	r0, #1
    2150:	2000      	movne	r0, #0
    2152:	f85d fb08 	ldr.w	pc, [sp], #8
    2156:	bf00      	nop

00002158 <__aeabi_dcmplt>:
    2158:	f84d ed08 	str.w	lr, [sp, #-8]!
    215c:	f7ff ffea 	bl	2134 <__aeabi_cdcmpeq>
    2160:	bf34      	ite	cc
    2162:	2001      	movcc	r0, #1
    2164:	2000      	movcs	r0, #0
    2166:	f85d fb08 	ldr.w	pc, [sp], #8
    216a:	bf00      	nop

0000216c <__aeabi_dcmple>:
    216c:	f84d ed08 	str.w	lr, [sp, #-8]!
    2170:	f7ff ffe0 	bl	2134 <__aeabi_cdcmpeq>
    2174:	bf94      	ite	ls
    2176:	2001      	movls	r0, #1
    2178:	2000      	movhi	r0, #0
    217a:	f85d fb08 	ldr.w	pc, [sp], #8
    217e:	bf00      	nop

00002180 <__aeabi_dcmpge>:
    2180:	f84d ed08 	str.w	lr, [sp, #-8]!
    2184:	f7ff ffce 	bl	2124 <__aeabi_cdrcmple>
    2188:	bf94      	ite	ls
    218a:	2001      	movls	r0, #1
    218c:	2000      	movhi	r0, #0
    218e:	f85d fb08 	ldr.w	pc, [sp], #8
    2192:	bf00      	nop

00002194 <__aeabi_dcmpgt>:
    2194:	f84d ed08 	str.w	lr, [sp, #-8]!
    2198:	f7ff ffc4 	bl	2124 <__aeabi_cdrcmple>
    219c:	bf34      	ite	cc
    219e:	2001      	movcc	r0, #1
    21a0:	2000      	movcs	r0, #0
    21a2:	f85d fb08 	ldr.w	pc, [sp], #8
    21a6:	bf00      	nop

000021a8 <__aeabi_d2iz>:
    21a8:	ea4f 0241 	mov.w	r2, r1, lsl #1
    21ac:	f512 1200 	adds.w	r2, r2, #2097152	; 0x200000
    21b0:	d215      	bcs.n	21de <__aeabi_d2iz+0x36>
    21b2:	d511      	bpl.n	21d8 <__aeabi_d2iz+0x30>
    21b4:	f46f 7378 	mvn.w	r3, #992	; 0x3e0
    21b8:	ebb3 5262 	subs.w	r2, r3, r2, asr #21
    21bc:	d912      	bls.n	21e4 <__aeabi_d2iz+0x3c>
    21be:	ea4f 23c1 	mov.w	r3, r1, lsl #11
    21c2:	f043 4300 	orr.w	r3, r3, #2147483648	; 0x80000000
    21c6:	ea43 5350 	orr.w	r3, r3, r0, lsr #21
    21ca:	f011 4f00 	tst.w	r1, #2147483648	; 0x80000000
    21ce:	fa23 f002 	lsr.w	r0, r3, r2
    21d2:	bf18      	it	ne
    21d4:	4240      	negne	r0, r0
    21d6:	4770      	bx	lr
    21d8:	f04f 0000 	mov.w	r0, #0
    21dc:	4770      	bx	lr
    21de:	ea50 3001 	orrs.w	r0, r0, r1, lsl #12
    21e2:	d105      	bne.n	21f0 <__aeabi_d2iz+0x48>
    21e4:	f011 4000 	ands.w	r0, r1, #2147483648	; 0x80000000
    21e8:	bf08      	it	eq
    21ea:	f06f 4000 	mvneq.w	r0, #2147483648	; 0x80000000
    21ee:	4770      	bx	lr
    21f0:	f04f 0000 	mov.w	r0, #0
    21f4:	4770      	bx	lr
    21f6:	bf00      	nop

000021f8 <__aeabi_d2f>:
    21f8:	ea4f 0241 	mov.w	r2, r1, lsl #1
    21fc:	f1b2 43e0 	subs.w	r3, r2, #1879048192	; 0x70000000
    2200:	bf24      	itt	cs
    2202:	f5b3 1c00 	subscs.w	r12, r3, #2097152	; 0x200000
    2206:	f1dc 5cfe 	rsbscs	r12, r12, #532676608	; 0x1fc00000
    220a:	d90d      	bls.n	2228 <__aeabi_d2f+0x30>
    220c:	f001 4c00 	and.w	r12, r1, #2147483648	; 0x80000000
    2210:	ea4f 02c0 	mov.w	r2, r0, lsl #3
    2214:	ea4c 7050 	orr.w	r0, r12, r0, lsr #29
    2218:	f1b2 4f00 	cmp.w	r2, #2147483648	; 0x80000000
    221c:	eb40 0083 	adc.w	r0, r0, r3, lsl #2
    2220:	bf08      	it	eq
    2222:	f020 0001 	biceq.w	r0, r0, #1
    2226:	4770      	bx	lr
    2228:	f011 4f80 	tst.w	r1, #1073741824	; 0x40000000
    222c:	d121      	bne.n	2272 <__aeabi_d2f+0x7a>
    222e:	f113 7238 	adds.w	r2, r3, #48234496	; 0x2e00000
    2232:	bfbc      	itt	lt
    2234:	f001 4000 	andlt.w	r0, r1, #2147483648	; 0x80000000
    2238:	4770      	bxlt	lr
    223a:	f441 1180 	orr.w	r1, r1, #1048576	; 0x100000
    223e:	ea4f 5252 	mov.w	r2, r2, lsr #21
    2242:	f1c2 0218 	rsb	r2, r2, #24
    2246:	f1c2 0c20 	rsb	r12, r2, #32
    224a:	fa10 f30c 	lsls.w	r3, r0, r12
    224e:	fa20 f002 	lsr.w	r0, r0, r2
    2252:	bf18      	it	ne
    2254:	f040 0001 	orrne.w	r0, r0, #1
    2258:	ea4f 23c1 	mov.w	r3, r1, lsl #11
    225c:	ea4f 23d3 	mov.w	r3, r3, lsr #11
    2260:	fa03 fc0c 	lsl.w	r12, r3, r12
    2264:	ea40 000c 	orr.w	r0, r0, r12
    2268:	fa23 f302 	lsr.w	r3, r3, r2
    226c:	ea4f 0343 	mov.w	r3, r3, lsl #1
    2270:	e7cc      	b.n	220c <__aeabi_d2f+0x14>
    2272:	ea7f 5362 	mvns.w	r3, r2, asr #21
    2276:	d107      	bne.n	2288 <__aeabi_d2f+0x90>
    2278:	ea50 3301 	orrs.w	r3, r0, r1, lsl #12
    227c:	bf1e      	ittt	ne
    227e:	f04f 40fe 	movne.w	r0, #2130706432	; 0x7f000000
    2282:	f440 0040 	orrne.w	r0, r0, #12582912	; 0xc00000
    2286:	4770      	bxne	lr
    2288:	f001 4000 	and.w	r0, r1, #2147483648	; 0x80000000
    228c:	f040 40fe 	orr.w	r0, r0, #2130706432	; 0x7f000000
    2290:	f440 0000 	orr.w	r0, r0, #8388608	; 0x800000
    2294:	4770      	bx	lr
    2296:	bf00      	nop

00002298 <__aeabi_frsub>:
    2298:	f080 4000 	eor.w	r0, r0, #2147483648	; 0x80000000
    229c:	e002      	b.n	22a4 <__addsf3>
    229e:	bf00      	nop

000022a0 <__aeabi_fsub>:
    22a0:	f081 4100 	eor.w	r1, r1, #2147483648	; 0x80000000

000022a4 <__addsf3>:
    22a4:	0042      	lsls	r2, r0, #1
    22a6:	bf1f      	itttt	ne
    22a8:	ea5f 0341 	movsne.w	r3, r1, lsl #1
    22ac:	ea92 0f03 	teqne	r2, r3
    22b0:	ea7f 6c22 	mvnsne.w	r12, r2, asr #24
    22b4:	ea7f 6c23 	mvnsne.w	r12, r3, asr #24
    22b8:	d06a      	beq.n	2390 <__addsf3+0xec>
    22ba:	ea4f 6212 	mov.w	r2, r2, lsr #24
    22be:	ebd2 6313 	rsbs	r3, r2, r3, lsr #24
    22c2:	bfc1      	itttt	gt
    22c4:	18d2      	addgt	r2, r2, r3
    22c6:	4041      	eorgt	r1, r0
    22c8:	4048      	eorgt	r0, r1
    22ca:	4041      	eorgt	r1, r0
    22cc:	bfb8      	it	lt
    22ce:	425b      	neglt	r3, r3
    22d0:	2b19      	cmp	r3, #25
    22d2:	bf88      	it	hi
    22d4:	4770      	bxhi	lr
    22d6:	f010 4f00 	tst.w	r0, #2147483648	; 0x80000000
    22da:	f440 0000 	orr.w	r0, r0, #8388608	; 0x800000
    22de:	f020 407f 	bic.w	r0, r0, #4278190080	; 0xff000000
    22e2:	bf18      	it	ne
    22e4:	4240      	negne	r0, r0
    22e6:	f011 4f00 	tst.w	r1, #2147483648	; 0x80000000
    22ea:	f441 0100 	orr.w	r1, r1, #8388608	; 0x800000
    22ee:	f021 417f 	bic.w	r1, r1, #4278190080	; 0xff000000
    22f2:	bf18      	it	ne
    22f4:	4249      	negne	r1, r1
    22f6:	ea92 0f03 	teq	r2, r3
    22fa:	d03f      	beq.n	237c <__addsf3+0xd8>
    22fc:	f1a2 0201 	sub.w	r2, r2, #1
    2300:	fa41 fc03 	asr.w	r12, r1, r3
    2304:	eb10 000c 	adds.w	r0, r0, r12
    2308:	f1c3 0320 	rsb	r3, r3, #32
    230c:	fa01 f103 	lsl.w	r1, r1, r3
    2310:	f000 4300 	and.w	r3, r0, #2147483648	; 0x80000000
    2314:	d502      	bpl.n	231c <__addsf3+0x78>
    2316:	4249      	negs	r1, r1
    2318:	eb60 0040 	sbc.w	r0, r0, r0, lsl #1
    231c:	f5b0 0f00 	cmp.w	r0, #8388608	; 0x800000
    2320:	d313      	bcc.n	234a <__addsf3+0xa6>
    2322:	f1b0 7f80 	cmp.w	r0, #16777216	; 0x1000000
    2326:	d306      	bcc.n	2336 <__addsf3+0x92>
    2328:	0840      	lsrs	r0, r0, #1
    232a:	ea4f 0131 	mov.w	r1, r1, rrx
    232e:	f102 0201 	add.w	r2, r2, #1
    2332:	2afe      	cmp	r2, #254	; 0xfe
    2334:	d251      	bcs.n	23da <__addsf3+0x136>
    2336:	f1b1 4f00 	cmp.w	r1, #2147483648	; 0x80000000
    233a:	eb40 50c2 	adc.w	r0, r0, r2, lsl #23
    233e:	bf08      	it	eq
    2340:	f020 0001 	biceq.w	r0, r0, #1
    2344:	ea40 0003 	orr.w	r0, r0, r3
    2348:	4770      	bx	lr
    234a:	0049      	lsls	r1, r1, #1
    234c:	eb40 0000 	adc.w	r0, r0, r0
    2350:	f410 0f00 	tst.w	r0, #8388608	; 0x800000
    2354:	f1a2 0201 	sub.w	r2, r2, #1
    2358:	d1ed      	bne.n	2336 <__addsf3+0x92>
    235a:	fab0 fc80 	clz	r12, r0
    235e:	f1ac 0c08 	sub.w	r12, r12, #8
    2362:	ebb2 020c 	subs.w	r2, r2, r12
    2366:	fa00 f00c 	lsl.w	r0, r0, r12
    236a:	bfaa      	itet	ge
    236c:	eb00 50c2 	addge.w	r0, r0, r2, lsl #23
    2370:	4252      	neglt	r2, r2
    2372:	4318      	orrge	r0, r3
    2374:	bfbc      	itt	lt
    2376:	40d0      	lsrlt	r0, r2
    2378:	4318      	orrlt	r0, r3
    237a:	4770      	bx	lr
    237c:	f092 0f00 	teq	r2, #0
    2380:	f481 0100 	eor.w	r1, r1, #8388608	; 0x800000
    2384:	bf06      	itte	eq
    2386:	f480 0000 	eoreq.w	r0, r0, #8388608	; 0x800000
    238a:	3201      	addeq	r2, #1
    238c:	3b01      	subne	r3, #1
    238e:	e7b5      	b.n	22fc <__addsf3+0x58>
    2390:	ea4f 0341 	mov.w	r3, r1, lsl #1
    2394:	ea7f 6c22 	mvns.w	r12, r2, asr #24
    2398:	bf18      	it	ne
    239a:	ea7f 6c23 	mvnsne.w	r12, r3, asr #24
    239e:	d021      	beq.n	23e4 <__addsf3+0x140>
    23a0:	ea92 0f03 	teq	r2, r3
    23a4:	d004      	beq.n	23b0 <__addsf3+0x10c>
    23a6:	f092 0f00 	teq	r2, #0
    23aa:	bf08      	it	eq
    23ac:	4608      	moveq	r0, r1
    23ae:	4770      	bx	lr
    23b0:	ea90 0f01 	teq	r0, r1
    23b4:	bf1c      	itt	ne
    23b6:	2000      	movne	r0, #0
    23b8:	4770      	bxne	lr
    23ba:	f012 4f7f 	tst.w	r2, #4278190080	; 0xff000000
    23be:	d104      	bne.n	23ca <__addsf3+0x126>
    23c0:	0040      	lsls	r0, r0, #1
    23c2:	bf28      	it	cs
    23c4:	f040 4000 	orrcs.w	r0, r0, #2147483648	; 0x80000000
    23c8:	4770      	bx	lr
    23ca:	f112 7200 	adds.w	r2, r2, #33554432	; 0x2000000
    23ce:	bf3c      	itt	cc
    23d0:	f500 0000 	addcc.w	r0, r0, #8388608	; 0x800000
    23d4:	4770      	bxcc	lr
    23d6:	f000 4300 	and.w	r3, r0, #2147483648	; 0x80000000
    23da:	f043 40fe 	orr.w	r0, r3, #2130706432	; 0x7f000000
    23de:	f440 0000 	orr.w	r0, r0, #8388608	; 0x800000
    23e2:	4770      	bx	lr
    23e4:	ea7f 6222 	mvns.w	r2, r2, asr #24
    23e8:	bf16      	itet	ne
    23ea:	4608      	movne	r0, r1
    23ec:	ea7f 6323 	mvnseq.w	r3, r3, asr #24
    23f0:	4601      	movne	r1, r0
    23f2:	0242      	lsls	r2, r0, #9
    23f4:	bf06      	itte	eq
    23f6:	ea5f 2341 	movseq.w	r3, r1, lsl #9
    23fa:	ea90 0f01 	teqeq	r0, r1
    23fe:	f440 0080 	orrne.w	r0, r0, #4194304	; 0x400000
    2402:	4770      	bx	lr

00002404 <__aeabi_ui2f>:
    2404:	f04f 0300 	mov.w	r3, #0
    2408:	e004      	b.n	2414 <__aeabi_i2f+0x8>
    240a:	bf00      	nop

0000240c <__aeabi_i2f>:
    240c:	f010 4300 	ands.w	r3, r0, #2147483648	; 0x80000000
    2410:	bf48      	it	mi
    2412:	4240      	negmi	r0, r0
    2414:	ea5f 0c00 	movs.w	r12, r0
    2418:	bf08      	it	eq
    241a:	4770      	bxeq	lr
    241c:	f043 4396 	orr.w	r3, r3, #1258291200	; 0x4b000000
    2420:	4601      	mov	r1, r0
    2422:	f04f 0000 	mov.w	r0, #0
    2426:	e01c      	b.n	2462 <__aeabi_l2f+0x2a>

00002428 <__aeabi_ul2f>:
    2428:	ea50 0201 	orrs.w	r2, r0, r1
    242c:	bf08      	it	eq
    242e:	4770      	bxeq	lr
    2430:	f04f 0300 	mov.w	r3, #0
    2434:	e00a      	b.n	244c <__aeabi_l2f+0x14>
    2436:	bf00      	nop

00002438 <__aeabi_l2f>:
    2438:	ea50 0201 	orrs.w	r2, r0, r1
    243c:	bf08      	it	eq
    243e:	4770      	bxeq	lr
    2440:	f011 4300 	ands.w	r3, r1, #2147483648	; 0x80000000
    2444:	d502      	bpl.n	244c <__aeabi_l2f+0x14>
    2446:	4240      	negs	r0, r0
    2448:	eb61 0141 	sbc.w	r1, r1, r1, lsl #1
    244c:	ea5f 0c01 	movs.w	r12, r1
    2450:	bf02      	ittt	eq
    2452:	4684      	moveq	r12, r0
    2454:	4601      	moveq	r1, r0
    2456:	2000      	moveq	r0, #0
    2458:	f043 43b6 	orr.w	r3, r3, #1526726656	; 0x5b000000
    245c:	bf08      	it	eq
    245e:	f1a3 5380 	subeq.w	r3, r3, #268435456	; 0x10000000
    2462:	f5a3 0300 	sub.w	r3, r3, #8388608	; 0x800000
    2466:	fabc f28c 	clz	r2, r12
    246a:	3a08      	subs	r2, #8
    246c:	eba3 53c2 	sub.w	r3, r3, r2, lsl #23
    2470:	db10      	blt.n	2494 <__aeabi_l2f+0x5c>
    2472:	fa01 fc02 	lsl.w	r12, r1, r2
    2476:	4463      	add	r3, r12
    2478:	fa00 fc02 	lsl.w	r12, r0, r2
    247c:	f1c2 0220 	rsb	r2, r2, #32
    2480:	f1bc 4f00 	cmp.w	r12, #2147483648	; 0x80000000
    2484:	fa20 f202 	lsr.w	r2, r0, r2
    2488:	eb43 0002 	adc.w	r0, r3, r2
    248c:	bf08      	it	eq
    248e:	f020 0001 	biceq.w	r0, r0, #1
    2492:	4770      	bx	lr
    2494:	f102 0220 	add.w	r2, r2, #32
    2498:	fa01 fc02 	lsl.w	r12, r1, r2
    249c:	f1c2 0220 	rsb	r2, r2, #32
    24a0:	ea50 004c 	orrs.w	r0, r0, r12, lsl #1
    24a4:	fa21 f202 	lsr.w	r2, r1, r2
    24a8:	eb43 0002 	adc.w	r0, r3, r2
    24ac:	bf08      	it	eq
    24ae:	ea20 70dc 	biceq.w	r0, r0, r12, lsr #31
    24b2:	4770      	bx	lr

000024b4 <__aeabi_fmul>:
    24b4:	f04f 0cff 	mov.w	r12, #255	; 0xff
    24b8:	ea1c 52d0 	ands.w	r2, r12, r0, lsr #23
    24bc:	bf1e      	ittt	ne
    24be:	ea1c 53d1 	andsne.w	r3, r12, r1, lsr #23
    24c2:	ea92 0f0c 	teqne	r2, r12
    24c6:	ea93 0f0c 	teqne	r3, r12
    24ca:	d06f      	beq.n	25ac <__aeabi_fmul+0xf8>
    24cc:	441a      	add	r2, r3
    24ce:	ea80 0c01 	eor.w	r12, r0, r1
    24d2:	0240      	lsls	r0, r0, #9
    24d4:	bf18      	it	ne
    24d6:	ea5f 2141 	movsne.w	r1, r1, lsl #9
    24da:	d01e      	beq.n	251a <__aeabi_fmul+0x66>
    24dc:	f04f 6300 	mov.w	r3, #134217728	; 0x8000000
    24e0:	ea43 1050 	orr.w	r0, r3, r0, lsr #5
    24e4:	ea43 1151 	orr.w	r1, r3, r1, lsr #5
    24e8:	fba0 3101 	umull	r3, r1, r0, r1
    24ec:	f00c 4000 	and.w	r0, r12, #2147483648	; 0x80000000
    24f0:	f5b1 0f00 	cmp.w	r1, #8388608	; 0x800000
    24f4:	bf3e      	ittt	cc
    24f6:	0049      	lslcc	r1, r1, #1
    24f8:	ea41 71d3 	orrcc.w	r1, r1, r3, lsr #31
    24fc:	005b      	lslcc	r3, r3, #1
    24fe:	ea40 0001 	orr.w	r0, r0, r1
    2502:	f162 027f 	sbc.w	r2, r2, #127	; 0x7f
    2506:	2afd      	cmp	r2, #253	; 0xfd
    2508:	d81d      	bhi.n	2546 <__aeabi_fmul+0x92>
    250a:	f1b3 4f00 	cmp.w	r3, #2147483648	; 0x80000000
    250e:	eb40 50c2 	adc.w	r0, r0, r2, lsl #23
    2512:	bf08      	it	eq
    2514:	f020 0001 	biceq.w	r0, r0, #1
    2518:	4770      	bx	lr
    251a:	f090 0f00 	teq	r0, #0
    251e:	f00c 4c00 	and.w	r12, r12, #2147483648	; 0x80000000
    2522:	bf08      	it	eq
    2524:	0249      	lsleq	r1, r1, #9
    2526:	ea4c 2050 	orr.w	r0, r12, r0, lsr #9
    252a:	ea40 2051 	orr.w	r0, r0, r1, lsr #9
    252e:	3a7f      	subs	r2, #127	; 0x7f
    2530:	bfc2      	ittt	gt
    2532:	f1d2 03ff 	rsbsgt	r3, r2, #255	; 0xff
    2536:	ea40 50c2 	orrgt.w	r0, r0, r2, lsl #23
    253a:	4770      	bxgt	lr
    253c:	f440 0000 	orr.w	r0, r0, #8388608	; 0x800000
    2540:	f04f 0300 	mov.w	r3, #0
    2544:	3a01      	subs	r2, #1
    2546:	dc5d      	bgt.n	2604 <__aeabi_fmul+0x150>
    2548:	f112 0f19 	cmn.w	r2, #25
    254c:	bfdc      	itt	le
    254e:	f000 4000 	andle.w	r0, r0, #2147483648	; 0x80000000
    2552:	4770      	bxle	lr
    2554:	f1c2 0200 	rsb	r2, r2, #0
    2558:	0041      	lsls	r1, r0, #1
    255a:	fa21 f102 	lsr.w	r1, r1, r2
    255e:	f1c2 0220 	rsb	r2, r2, #32
    2562:	fa00 fc02 	lsl.w	r12, r0, r2
    2566:	ea5f 0031 	movs.w	r0, r1, rrx
    256a:	f140 0000 	adc.w	r0, r0, #0
    256e:	ea53 034c 	orrs.w	r3, r3, r12, lsl #1
    2572:	bf08      	it	eq
    2574:	ea20 70dc 	biceq.w	r0, r0, r12, lsr #31
    2578:	4770      	bx	lr
    257a:	f092 0f00 	teq	r2, #0
    257e:	f000 4c00 	and.w	r12, r0, #2147483648	; 0x80000000
    2582:	bf02      	ittt	eq
    2584:	0040      	lsleq	r0, r0, #1
    2586:	f410 0f00 	tsteq.w	r0, #8388608	; 0x800000
    258a:	3a01      	subeq	r2, #1
    258c:	d0f9      	beq.n	2582 <__aeabi_fmul+0xce>
    258e:	ea40 000c 	orr.w	r0, r0, r12
    2592:	f093 0f00 	teq	r3, #0
    2596:	f001 4c00 	and.w	r12, r1, #2147483648	; 0x80000000
    259a:	bf02      	ittt	eq
    259c:	0049      	lsleq	r1, r1, #1
    259e:	f411 0f00 	tsteq.w	r1, #8388608	; 0x800000
    25a2:	3b01      	subeq	r3, #1
    25a4:	d0f9      	beq.n	259a <__aeabi_fmul+0xe6>
    25a6:	ea41 010c 	orr.w	r1, r1, r12
    25aa:	e78f      	b.n	24cc <__aeabi_fmul+0x18>
    25ac:	ea0c 53d1 	and.w	r3, r12, r1, lsr #23
    25b0:	ea92 0f0c 	teq	r2, r12
    25b4:	bf18      	it	ne
    25b6:	ea93 0f0c 	teqne	r3, r12
    25ba:	d00a      	beq.n	25d2 <__aeabi_fmul+0x11e>
    25bc:	f030 4c00 	bics.w	r12, r0, #2147483648	; 0x80000000
    25c0:	bf18      	it	ne
    25c2:	f031 4c00 	bicsne.w	r12, r1, #2147483648	; 0x80000000
    25c6:	d1d8      	bne.n	257a <__aeabi_fmul+0xc6>
    25c8:	ea80 0001 	eor.w	r0, r0, r1
    25cc:	f000 4000 	and.w	r0, r0, #2147483648	; 0x80000000
    25d0:	4770      	bx	lr
    25d2:	f090 0f00 	teq	r0, #0
    25d6:	bf17      	itett	ne
    25d8:	f090 4f00 	teqne	r0, #2147483648	; 0x80000000
    25dc:	4608      	moveq	r0, r1
    25de:	f091 0f00 	teqne	r1, #0
    25e2:	f091 4f00 	teqne	r1, #2147483648	; 0x80000000
    25e6:	d014      	beq.n	2612 <__aeabi_fmul+0x15e>
    25e8:	ea92 0f0c 	teq	r2, r12
    25ec:	d101      	bne.n	25f2 <__aeabi_fmul+0x13e>
    25ee:	0242      	lsls	r2, r0, #9
    25f0:	d10f      	bne.n	2612 <__aeabi_fmul+0x15e>
    25f2:	ea93 0f0c 	teq	r3, r12
    25f6:	d103      	bne.n	2600 <__aeabi_fmul+0x14c>
    25f8:	024b      	lsls	r3, r1, #9
    25fa:	bf18      	it	ne
    25fc:	4608      	movne	r0, r1
    25fe:	d108      	bne.n	2612 <__aeabi_fmul+0x15e>
    2600:	ea80 0001 	eor.w	r0, r0, r1
    2604:	f000 4000 	and.w	r0, r0, #2147483648	; 0x80000000
    2608:	f040 40fe 	orr.w	r0, r0, #2130706432	; 0x7f000000
    260c:	f440 0000 	orr.w	r0, r0, #8388608	; 0x800000
    2610:	4770      	bx	lr
    2612:	f040 40fe 	orr.w	r0, r0, #2130706432	; 0x7f000000
    2616:	f440 0040 	orr.w	r0, r0, #12582912	; 0xc00000
    261a:	4770      	bx	lr

0000261c <__aeabi_fdiv>:
    261c:	f04f 0cff 	mov.w	r12, #255	; 0xff
    2620:	ea1c 52d0 	ands.w	r2, r12, r0, lsr #23
    2624:	bf1e      	ittt	ne
    2626:	ea1c 53d1 	andsne.w	r3, r12, r1, lsr #23
    262a:	ea92 0f0c 	teqne	r2, r12
    262e:	ea93 0f0c 	teqne	r3, r12
    2632:	d069      	beq.n	2708 <__aeabi_fdiv+0xec>
    2634:	eba2 0203 	sub.w	r2, r2, r3
    2638:	ea80 0c01 	eor.w	r12, r0, r1
    263c:	0249      	lsls	r1, r1, #9
    263e:	ea4f 2040 	mov.w	r0, r0, lsl #9
    2642:	d037      	beq.n	26b4 <__aeabi_fdiv+0x98>
    2644:	f04f 5380 	mov.w	r3, #268435456	; 0x10000000
    2648:	ea43 1111 	orr.w	r1, r3, r1, lsr #4
    264c:	ea43 1310 	orr.w	r3, r3, r0, lsr #4
    2650:	f00c 4000 	and.w	r0, r12, #2147483648	; 0x80000000
    2654:	428b      	cmp	r3, r1
    2656:	bf38      	it	cc
    2658:	005b      	lslcc	r3, r3, #1
    265a:	f142 027d 	adc.w	r2, r2, #125	; 0x7d
    265e:	f44f 0c00 	mov.w	r12, #8388608	; 0x800000
    2662:	428b      	cmp	r3, r1
    2664:	bf24      	itt	cs
    2666:	1a5b      	subcs	r3, r3, r1
    2668:	ea40 000c 	orrcs.w	r0, r0, r12
    266c:	ebb3 0f51 	cmp.w	r3, r1, lsr #1
    2670:	bf24      	itt	cs
    2672:	eba3 0351 	subcs.w	r3, r3, r1, lsr #1
    2676:	ea40 005c 	orrcs.w	r0, r0, r12, lsr #1
    267a:	ebb3 0f91 	cmp.w	r3, r1, lsr #2
    267e:	bf24      	itt	cs
    2680:	eba3 0391 	subcs.w	r3, r3, r1, lsr #2
    2684:	ea40 009c 	orrcs.w	r0, r0, r12, lsr #2
    2688:	ebb3 0fd1 	cmp.w	r3, r1, lsr #3
    268c:	bf24      	itt	cs
    268e:	eba3 03d1 	subcs.w	r3, r3, r1, lsr #3
    2692:	ea40 00dc 	orrcs.w	r0, r0, r12, lsr #3
    2696:	011b      	lsls	r3, r3, #4
    2698:	bf18      	it	ne
    269a:	ea5f 1c1c 	movsne.w	r12, r12, lsr #4
    269e:	d1e0      	bne.n	2662 <__aeabi_fdiv+0x46>
    26a0:	2afd      	cmp	r2, #253	; 0xfd
    26a2:	f63f af50 	bhi.w	2546 <__aeabi_fmul+0x92>
    26a6:	428b      	cmp	r3, r1
    26a8:	eb40 50c2 	adc.w	r0, r0, r2, lsl #23
    26ac:	bf08      	it	eq
    26ae:	f020 0001 	biceq.w	r0, r0, #1
    26b2:	4770      	bx	lr
    26b4:	f00c 4c00 	and.w	r12, r12, #2147483648	; 0x80000000
    26b8:	ea4c 2050 	orr.w	r0, r12, r0, lsr #9
    26bc:	327f      	adds	r2, #127	; 0x7f
    26be:	bfc2      	ittt	gt
    26c0:	f1d2 03ff 	rsbsgt	r3, r2, #255	; 0xff
    26c4:	ea40 50c2 	orrgt.w	r0, r0, r2, lsl #23
    26c8:	4770      	bxgt	lr
    26ca:	f440 0000 	orr.w	r0, r0, #8388608	; 0x800000
    26ce:	f04f 0300 	mov.w	r3, #0
    26d2:	3a01      	subs	r2, #1
    26d4:	e737      	b.n	2546 <__aeabi_fmul+0x92>
    26d6:	f092 0f00 	teq	r2, #0
    26da:	f000 4c00 	and.w	r12, r0, #2147483648	; 0x80000000
    26de:	bf02      	ittt	eq
    26e0:	0040      	lsleq	r0, r0, #1
    26e2:	f410 0f00 	tsteq.w	r0, #8388608	; 0x800000
    26e6:	3a01      	subeq	r2, #1
    26e8:	d0f9      	beq.n	26de <__aeabi_fdiv+0xc2>
    26ea:	ea40 000c 	orr.w	r0, r0, r12
    26ee:	f093 0f00 	teq	r3, #0
    26f2:	f001 4c00 	and.w	r12, r1, #2147483648	; 0x80000000
    26f6:	bf02      	ittt	eq
    26f8:	0049      	lsleq	r1, r1, #1
    26fa:	f411 0f00 	tsteq.w	r1, #8388608	; 0x800000
    26fe:	3b01      	subeq	r3, #1
    2700:	d0f9      	beq.n	26f6 <__aeabi_fdiv+0xda>
    2702:	ea41 010c 	orr.w	r1, r1, r12
    2706:	e795      	b.n	2634 <__aeabi_fdiv+0x18>
    2708:	ea0c 53d1 	and.w	r3, r12, r1, lsr #23
    270c:	ea92 0f0c 	teq	r2, r12
    2710:	d108      	bne.n	2724 <__aeabi_fdiv+0x108>
    2712:	0242      	lsls	r2, r0, #9
    2714:	f47f af7d 	bne.w	2612 <__aeabi_fmul+0x15e>
    2718:	ea93 0f0c 	teq	r3, r12
    271c:	f47f af70 	bne.w	2600 <__aeabi_fmul+0x14c>
    2720:	4608      	mov	r0, r1
    2722:	e776      	b.n	2612 <__aeabi_fmul+0x15e>
    2724:	ea93 0f0c 	teq	r3, r12
    2728:	d104      	bne.n	2734 <__aeabi_fdiv+0x118>
    272a:	024b      	lsls	r3, r1, #9
    272c:	f43f af4c 	beq.w	25c8 <__aeabi_fmul+0x114>
    2730:	4608      	mov	r0, r1
    2732:	e76e      	b.n	2612 <__aeabi_fmul+0x15e>
    2734:	f030 4c00 	bics.w	r12, r0, #2147483648	; 0x80000000
    2738:	bf18      	it	ne
    273a:	f031 4c00 	bicsne.w	r12, r1, #2147483648	; 0x80000000
    273e:	d1ca      	bne.n	26d6 <__aeabi_fdiv+0xba>
    2740:	f030 4200 	bics.w	r2, r0, #2147483648	; 0x80000000
    2744:	f47f af5c 	bne.w	2600 <__aeabi_fmul+0x14c>
    2748:	f031 4300 	bics.w	r3, r1, #2147483648	; 0x80000000
    274c:	f47f af3c 	bne.w	25c8 <__aeabi_fmul+0x114>
    2750:	e75f      	b.n	2612 <__aeabi_fmul+0x15e>
    2752:	bf00      	nop

00002754 <__gesf2>:
    2754:	f04f 3cff 	mov.w	r12, #4294967295
    2758:	e006      	b.n	2768 <__cmpsf2+0x4>
    275a:	bf00      	nop

0000275c <__lesf2>:
    275c:	f04f 0c01 	mov.w	r12, #1
    2760:	e002      	b.n	2768 <__cmpsf2+0x4>
    2762:	bf00      	nop

00002764 <__cmpsf2>:
    2764:	f04f 0c01 	mov.w	r12, #1
    2768:	f84d cd04 	str.w	r12, [sp, #-4]!
    276c:	ea4f 0240 	mov.w	r2, r0, lsl #1
    2770:	ea4f 0341 	mov.w	r3, r1, lsl #1
    2774:	ea7f 6c22 	mvns.w	r12, r2, asr #24
    2778:	bf18      	it	ne
    277a:	ea7f 6c23 	mvnsne.w	r12, r3, asr #24
    277e:	d011      	beq.n	27a4 <__cmpsf2+0x40>
    2780:	b001      	add	sp, #4
    2782:	ea52 0c53 	orrs.w	r12, r2, r3, lsr #1
    2786:	bf18      	it	ne
    2788:	ea90 0f01 	teqne	r0, r1
    278c:	bf58      	it	pl
    278e:	ebb2 0003 	subspl.w	r0, r2, r3
    2792:	bf88      	it	hi
    2794:	17c8      	asrhi	r0, r1, #31
    2796:	bf38      	it	cc
    2798:	ea6f 70e1 	mvncc.w	r0, r1, asr #31
    279c:	bf18      	it	ne
    279e:	f040 0001 	orrne.w	r0, r0, #1
    27a2:	4770      	bx	lr
    27a4:	ea7f 6c22 	mvns.w	r12, r2, asr #24
    27a8:	d102      	bne.n	27b0 <__cmpsf2+0x4c>
    27aa:	ea5f 2c40 	movs.w	r12, r0, lsl #9
    27ae:	d105      	bne.n	27bc <__cmpsf2+0x58>
    27b0:	ea7f 6c23 	mvns.w	r12, r3, asr #24
    27b4:	d1e4      	bne.n	2780 <__cmpsf2+0x1c>
    27b6:	ea5f 2c41 	movs.w	r12, r1, lsl #9
    27ba:	d0e1      	beq.n	2780 <__cmpsf2+0x1c>
    27bc:	f85d 0b04 	ldr.w	r0, [sp], #4
    27c0:	4770      	bx	lr
    27c2:	bf00      	nop

000027c4 <__aeabi_cfrcmple>:
    27c4:	4684      	mov	r12, r0
    27c6:	4608      	mov	r0, r1
    27c8:	4661      	mov	r1, r12
    27ca:	e7ff      	b.n	27cc <__aeabi_cfcmpeq>

000027cc <__aeabi_cfcmpeq>:
    27cc:	b50f      	push	{r0, r1, r2, r3, lr}
    27ce:	f7ff ffc9 	bl	2764 <__cmpsf2>
    27d2:	2800      	cmp	r0, #0
    27d4:	bf48      	it	mi
    27d6:	f110 0f00 	cmnmi.w	r0, #0
    27da:	bd0f      	pop	{r0, r1, r2, r3, pc}

000027dc <__aeabi_fcmpeq>:
    27dc:	f84d ed08 	str.w	lr, [sp, #-8]!
    27e0:	f7ff fff4 	bl	27cc <__aeabi_cfcmpeq>
    27e4:	bf0c      	ite	eq
    27e6:	2001      	moveq	r0, #1
    27e8:	2000      	movne	r0, #0
    27ea:	f85d fb08 	ldr.w	pc, [sp], #8
    27ee:	bf00      	nop

000027f0 <__aeabi_fcmplt>:
    27f0:	f84d ed08 	str.w	lr, [sp, #-8]!
    27f4:	f7ff ffea 	bl	27cc <__aeabi_cfcmpeq>
    27f8:	bf34      	ite	cc
    27fa:	2001      	movcc	r0, #1
    27fc:	2000      	movcs	r0, #0
    27fe:	f85d fb08 	ldr.w	pc, [sp], #8
    2802:	bf00      	nop

00002804 <__aeabi_fcmple>:
    2804:	f84d ed08 	str.w	lr, [sp, #-8]!
    2808:	f7ff ffe0 	bl	27cc <__aeabi_cfcmpeq>
    280c:	bf94      	ite	ls
    280e:	2001      	movls	r0, #1
    2810:	2000      	movhi	r0, #0
    2812:	f85d fb08 	ldr.w	pc, [sp], #8
    2816:	bf00      	nop

00002818 <__aeabi_fcmpge>:
    2818:	f84d ed08 	str.w	lr, [sp, #-8]!
    281c:	f7ff ffd2 	bl	27c4 <__aeabi_cfrcmple>
    2820:	bf94      	ite	ls
    2822:	2001      	movls	r0, #1
    2824:	2000      	movhi	r0, #0
    2826:	f85d fb08 	ldr.w	pc, [sp], #8
    282a:	bf00      	nop

0000282c <__aeabi_fcmpgt>:
    282c:	f84d ed08 	str.w	lr, [sp, #-8]!
    2830:	f7ff ffc8 	bl	27c4 <__aeabi_cfrcmple>
    2834:	bf34      	ite	cc
    2836:	2001      	movcc	r0, #1
    2838:	2000      	movcs	r0, #0
    283a:	f85d fb08 	ldr.w	pc, [sp], #8
    283e:	bf00      	nop

00002840 <__aeabi_f2uiz>:
    2840:	0042      	lsls	r2, r0, #1
    2842:	d20e      	bcs.n	2862 <__aeabi_f2uiz+0x22>
    2844:	f1b2 4ffe 	cmp.w	r2, #2130706432	; 0x7f000000
    2848:	d30b      	bcc.n	2862 <__aeabi_f2uiz+0x22>
    284a:	f04f 039e 	mov.w	r3, #158	; 0x9e
    284e:	ebb3 6212 	subs.w	r2, r3, r2, lsr #24
    2852:	d409      	bmi.n	2868 <__aeabi_f2uiz+0x28>
    2854:	ea4f 2300 	mov.w	r3, r0, lsl #8
    2858:	f043 4300 	orr.w	r3, r3, #2147483648	; 0x80000000
    285c:	fa23 f002 	lsr.w	r0, r3, r2
    2860:	4770      	bx	lr
    2862:	f04f 0000 	mov.w	r0, #0
    2866:	4770      	bx	lr
    2868:	f112 0f61 	cmn.w	r2, #97	; 0x61
    286c:	d101      	bne.n	2872 <__aeabi_f2uiz+0x32>
    286e:	0242      	lsls	r2, r0, #9
    2870:	d102      	bne.n	2878 <__aeabi_f2uiz+0x38>
    2872:	f04f 30ff 	mov.w	r0, #4294967295
    2876:	4770      	bx	lr
    2878:	f04f 0000 	mov.w	r0, #0
    287c:	4770      	bx	lr
    287e:	bf00      	nop

00002880 <__errno>:
    2880:	4b01      	ldr	r3, [pc, #4]	; (2888 <__errno+0x8>)
    2882:	6818      	ldr	r0, [r3, #0]
    2884:	4770      	bx	lr
    2886:	bf00      	nop
    2888:	100004d8 	.word	0x100004d8

0000288c <fiprintf>:
    288c:	b40e      	push	{r1, r2, r3}
    288e:	b503      	push	{r0, r1, lr}
    2890:	4601      	mov	r1, r0
    2892:	ab03      	add	r3, sp, #12
    2894:	4805      	ldr	r0, [pc, #20]	; (28ac <fiprintf+0x20>)
    2896:	f853 2b04 	ldr.w	r2, [r3], #4
    289a:	6800      	ldr	r0, [r0, #0]
    289c:	9301      	str	r3, [sp, #4]
    289e:	f000 f947 	bl	2b30 <_vfiprintf_r>
    28a2:	e8bd 400c 	ldmia.w	sp!, {r2, r3, lr}
    28a6:	b003      	add	sp, #12
    28a8:	4770      	bx	lr
    28aa:	bf00      	nop
    28ac:	100004d8 	.word	0x100004d8

000028b0 <__libc_init_array>:
    28b0:	b538      	push	{r3, r4, r5, lr}
    28b2:	4d0e      	ldr	r5, [pc, #56]	; (28ec <__libc_init_array+0x3c>)
    28b4:	4b0e      	ldr	r3, [pc, #56]	; (28f0 <__libc_init_array+0x40>)
    28b6:	2400      	movs	r4, #0
    28b8:	1ae8      	subs	r0, r5, r3
    28ba:	1085      	asrs	r5, r0, #2
    28bc:	42ac      	cmp	r4, r5
    28be:	d005      	beq.n	28cc <__libc_init_array+0x1c>
    28c0:	490b      	ldr	r1, [pc, #44]	; (28f0 <__libc_init_array+0x40>)
    28c2:	f851 2024 	ldr.w	r2, [r1, r4, lsl #2]
    28c6:	4790      	blx	r2
    28c8:	3401      	adds	r4, #1
    28ca:	e7f7      	b.n	28bc <__libc_init_array+0xc>
    28cc:	f004 f996 	bl	6bfc <_init>
    28d0:	4908      	ldr	r1, [pc, #32]	; (28f4 <__libc_init_array+0x44>)
    28d2:	4a09      	ldr	r2, [pc, #36]	; (28f8 <__libc_init_array+0x48>)
    28d4:	1a54      	subs	r4, r2, r1
    28d6:	10a5      	asrs	r5, r4, #2
    28d8:	2400      	movs	r4, #0
    28da:	42ac      	cmp	r4, r5
    28dc:	d005      	beq.n	28ea <__libc_init_array+0x3a>
    28de:	4b05      	ldr	r3, [pc, #20]	; (28f4 <__libc_init_array+0x44>)
    28e0:	f853 0024 	ldr.w	r0, [r3, r4, lsl #2]
    28e4:	4780      	blx	r0
    28e6:	3401      	adds	r4, #1
    28e8:	e7f7      	b.n	28da <__libc_init_array+0x2a>
    28ea:	bd38      	pop	{r3, r4, r5, pc}
    28ec:	10000540 	.word	0x10000540
    28f0:	10000540 	.word	0x10000540
    28f4:	10000540 	.word	0x10000540
    28f8:	10000544 	.word	0x10000544

000028fc <malloc>:
    28fc:	4b02      	ldr	r3, [pc, #8]	; (2908 <malloc+0xc>)
    28fe:	4601      	mov	r1, r0
    2900:	6818      	ldr	r0, [r3, #0]
    2902:	f000 b80b 	b.w	291c <_malloc_r>
    2906:	bf00      	nop
    2908:	100004d8 	.word	0x100004d8

0000290c <free>:
    290c:	4b02      	ldr	r3, [pc, #8]	; (2918 <free+0xc>)
    290e:	4601      	mov	r1, r0
    2910:	6818      	ldr	r0, [r3, #0]
    2912:	f002 b8fd 	b.w	4b10 <_free_r>
    2916:	bf00      	nop
    2918:	100004d8 	.word	0x100004d8

0000291c <_malloc_r>:
    291c:	b570      	push	{r4, r5, r6, lr}
    291e:	1ccd      	adds	r5, r1, #3
    2920:	f025 0503 	bic.w	r5, r5, #3
    2924:	3508      	adds	r5, #8
    2926:	2d0c      	cmp	r5, #12
    2928:	bf38      	it	cc
    292a:	250c      	movcc	r5, #12
    292c:	2d00      	cmp	r5, #0
    292e:	4606      	mov	r6, r0
    2930:	db2d      	blt.n	298e <_malloc_r+0x72>
    2932:	428d      	cmp	r5, r1
    2934:	d32b      	bcc.n	298e <_malloc_r+0x72>
    2936:	4b1d      	ldr	r3, [pc, #116]	; (29ac <_malloc_r+0x90>)
    2938:	681b      	ldr	r3, [r3, #0]
    293a:	461c      	mov	r4, r3
    293c:	b19c      	cbz	r4, 2966 <_malloc_r+0x4a>
    293e:	6822      	ldr	r2, [r4, #0]
    2940:	1b50      	subs	r0, r2, r5
    2942:	d40d      	bmi.n	2960 <_malloc_r+0x44>
    2944:	280b      	cmp	r0, #11
    2946:	d902      	bls.n	294e <_malloc_r+0x32>
    2948:	6020      	str	r0, [r4, #0]
    294a:	1824      	adds	r4, r4, r0
    294c:	e017      	b.n	297e <_malloc_r+0x62>
    294e:	42a3      	cmp	r3, r4
    2950:	d103      	bne.n	295a <_malloc_r+0x3e>
    2952:	6860      	ldr	r0, [r4, #4]
    2954:	4a15      	ldr	r2, [pc, #84]	; (29ac <_malloc_r+0x90>)
    2956:	6010      	str	r0, [r2, #0]
    2958:	e01d      	b.n	2996 <_malloc_r+0x7a>
    295a:	6861      	ldr	r1, [r4, #4]
    295c:	6059      	str	r1, [r3, #4]
    295e:	e01a      	b.n	2996 <_malloc_r+0x7a>
    2960:	4623      	mov	r3, r4
    2962:	6864      	ldr	r4, [r4, #4]
    2964:	e7ea      	b.n	293c <_malloc_r+0x20>
    2966:	4629      	mov	r1, r5
    2968:	4630      	mov	r0, r6
    296a:	f000 f84b 	bl	2a04 <_sbrk_r>
    296e:	1c43      	adds	r3, r0, #1
    2970:	4601      	mov	r1, r0
    2972:	d00c      	beq.n	298e <_malloc_r+0x72>
    2974:	1ccc      	adds	r4, r1, #3
    2976:	f024 0403 	bic.w	r4, r4, #3
    297a:	428c      	cmp	r4, r1
    297c:	d101      	bne.n	2982 <_malloc_r+0x66>
    297e:	6025      	str	r5, [r4, #0]
    2980:	e009      	b.n	2996 <_malloc_r+0x7a>
    2982:	4630      	mov	r0, r6
    2984:	1a61      	subs	r1, r4, r1
    2986:	f000 f83d 	bl	2a04 <_sbrk_r>
    298a:	3001      	adds	r0, #1
    298c:	d1f7      	bne.n	297e <_malloc_r+0x62>
    298e:	200c      	movs	r0, #12
    2990:	6030      	str	r0, [r6, #0]
    2992:	2000      	movs	r0, #0
    2994:	bd70      	pop	{r4, r5, r6, pc}
    2996:	f104 010b 	add.w	r1, r4, #11
    299a:	1d23      	adds	r3, r4, #4
    299c:	f021 0007 	bic.w	r0, r1, #7
    29a0:	1ac3      	subs	r3, r0, r3
    29a2:	d002      	beq.n	29aa <_malloc_r+0x8e>
    29a4:	425a      	negs	r2, r3
    29a6:	50e2      	str	r2, [r4, r3]
    29a8:	bd70      	pop	{r4, r5, r6, pc}
    29aa:	bd70      	pop	{r4, r5, r6, pc}
    29ac:	1000067c 	.word	0x1000067c

000029b0 <memcpy>:
    29b0:	b510      	push	{r4, lr}
    29b2:	2300      	movs	r3, #0
    29b4:	4293      	cmp	r3, r2
    29b6:	d003      	beq.n	29c0 <memcpy+0x10>
    29b8:	5ccc      	ldrb	r4, [r1, r3]
    29ba:	54c4      	strb	r4, [r0, r3]
    29bc:	3301      	adds	r3, #1
    29be:	e7f9      	b.n	29b4 <memcpy+0x4>
    29c0:	bd10      	pop	{r4, pc}

000029c2 <memset>:
    29c2:	1882      	adds	r2, r0, r2
    29c4:	4603      	mov	r3, r0
    29c6:	4293      	cmp	r3, r2
    29c8:	d002      	beq.n	29d0 <memset+0xe>
    29ca:	f803 1b01 	strb.w	r1, [r3], #1
    29ce:	e7fa      	b.n	29c6 <memset+0x4>
    29d0:	4770      	bx	lr
	...

000029d4 <iprintf>:
    29d4:	b40f      	push	{r0, r1, r2, r3}
    29d6:	4b0a      	ldr	r3, [pc, #40]	; (2a00 <iprintf+0x2c>)
    29d8:	b513      	push	{r0, r1, r4, lr}
    29da:	681c      	ldr	r4, [r3, #0]
    29dc:	b124      	cbz	r4, 29e8 <iprintf+0x14>
    29de:	69a0      	ldr	r0, [r4, #24]
    29e0:	b910      	cbnz	r0, 29e8 <iprintf+0x14>
    29e2:	4620      	mov	r0, r4
    29e4:	f002 f82c 	bl	4a40 <__sinit>
    29e8:	ab05      	add	r3, sp, #20
    29ea:	4620      	mov	r0, r4
    29ec:	68a1      	ldr	r1, [r4, #8]
    29ee:	9a04      	ldr	r2, [sp, #16]
    29f0:	9301      	str	r3, [sp, #4]
    29f2:	f000 f89d 	bl	2b30 <_vfiprintf_r>
    29f6:	e8bd 401c 	ldmia.w	sp!, {r2, r3, r4, lr}
    29fa:	b004      	add	sp, #16
    29fc:	4770      	bx	lr
    29fe:	bf00      	nop
    2a00:	100004d8 	.word	0x100004d8

00002a04 <_sbrk_r>:
    2a04:	b538      	push	{r3, r4, r5, lr}
    2a06:	4c06      	ldr	r4, [pc, #24]	; (2a20 <_sbrk_r+0x1c>)
    2a08:	2300      	movs	r3, #0
    2a0a:	4605      	mov	r5, r0
    2a0c:	4608      	mov	r0, r1
    2a0e:	6023      	str	r3, [r4, #0]
    2a10:	f004 f8e0 	bl	6bd4 <_sbrk>
    2a14:	1c43      	adds	r3, r0, #1
    2a16:	d102      	bne.n	2a1e <_sbrk_r+0x1a>
    2a18:	6821      	ldr	r1, [r4, #0]
    2a1a:	b101      	cbz	r1, 2a1e <_sbrk_r+0x1a>
    2a1c:	6029      	str	r1, [r5, #0]
    2a1e:	bd38      	pop	{r3, r4, r5, pc}
    2a20:	1000068c 	.word	0x1000068c

00002a24 <__sread>:
    2a24:	b510      	push	{r4, lr}
    2a26:	460c      	mov	r4, r1
    2a28:	f9b1 100e 	ldrsh.w	r1, [r1, #14]
    2a2c:	f002 fd2e 	bl	548c <_read_r>
    2a30:	2800      	cmp	r0, #0
    2a32:	db03      	blt.n	2a3c <__sread+0x18>
    2a34:	6d62      	ldr	r2, [r4, #84]	; 0x54
    2a36:	1813      	adds	r3, r2, r0
    2a38:	6563      	str	r3, [r4, #84]	; 0x54
    2a3a:	bd10      	pop	{r4, pc}
    2a3c:	89a3      	ldrh	r3, [r4, #12]
    2a3e:	f423 5180 	bic.w	r1, r3, #4096	; 0x1000
    2a42:	81a1      	strh	r1, [r4, #12]
    2a44:	bd10      	pop	{r4, pc}

00002a46 <__swrite>:
    2a46:	e92d 41f0 	stmdb	sp!, {r4, r5, r6, r7, r8, lr}
    2a4a:	461d      	mov	r5, r3
    2a4c:	898b      	ldrh	r3, [r1, #12]
    2a4e:	460c      	mov	r4, r1
    2a50:	f403 7180 	and.w	r1, r3, #256	; 0x100
    2a54:	4616      	mov	r6, r2
    2a56:	b20a      	sxth	r2, r1
    2a58:	4607      	mov	r7, r0
    2a5a:	b12a      	cbz	r2, 2a68 <__swrite+0x22>
    2a5c:	f9b4 100e 	ldrsh.w	r1, [r4, #14]
    2a60:	2200      	movs	r2, #0
    2a62:	2302      	movs	r3, #2
    2a64:	f002 f89c 	bl	4ba0 <_lseek_r>
    2a68:	89a0      	ldrh	r0, [r4, #12]
    2a6a:	f9b4 100e 	ldrsh.w	r1, [r4, #14]
    2a6e:	f420 5380 	bic.w	r3, r0, #4096	; 0x1000
    2a72:	81a3      	strh	r3, [r4, #12]
    2a74:	4638      	mov	r0, r7
    2a76:	4632      	mov	r2, r6
    2a78:	462b      	mov	r3, r5
    2a7a:	e8bd 41f0 	ldmia.w	sp!, {r4, r5, r6, r7, r8, lr}
    2a7e:	f001 b821 	b.w	3ac4 <_write_r>

00002a82 <__sseek>:
    2a82:	b510      	push	{r4, lr}
    2a84:	460c      	mov	r4, r1
    2a86:	f9b1 100e 	ldrsh.w	r1, [r1, #14]
    2a8a:	f002 f889 	bl	4ba0 <_lseek_r>
    2a8e:	1c43      	adds	r3, r0, #1
    2a90:	89a3      	ldrh	r3, [r4, #12]
    2a92:	d103      	bne.n	2a9c <__sseek+0x1a>
    2a94:	f423 5280 	bic.w	r2, r3, #4096	; 0x1000
    2a98:	81a2      	strh	r2, [r4, #12]
    2a9a:	bd10      	pop	{r4, pc}
    2a9c:	f443 5180 	orr.w	r1, r3, #4096	; 0x1000
    2aa0:	81a1      	strh	r1, [r4, #12]
    2aa2:	6560      	str	r0, [r4, #84]	; 0x54
    2aa4:	bd10      	pop	{r4, pc}

00002aa6 <__sclose>:
    2aa6:	f9b1 100e 	ldrsh.w	r1, [r1, #14]
    2aaa:	f001 b893 	b.w	3bd4 <_close_r>

00002aae <strcmp>:
    2aae:	f810 2b01 	ldrb.w	r2, [r0], #1
    2ab2:	f811 3b01 	ldrb.w	r3, [r1], #1
    2ab6:	2a01      	cmp	r2, #1
    2ab8:	bf28      	it	cs
    2aba:	429a      	cmpcs	r2, r3
    2abc:	d0f7      	beq.n	2aae <strcmp>
    2abe:	eba2 0003 	sub.w	r0, r2, r3
    2ac2:	4770      	bx	lr

00002ac4 <strlen>:
    2ac4:	4603      	mov	r3, r0
    2ac6:	f813 2b01 	ldrb.w	r2, [r3], #1
    2aca:	2a00      	cmp	r2, #0
    2acc:	d1fb      	bne.n	2ac6 <strlen+0x2>
    2ace:	1a18      	subs	r0, r3, r0
    2ad0:	3801      	subs	r0, #1
    2ad2:	4770      	bx	lr

00002ad4 <strncmp>:
    2ad4:	b570      	push	{r4, r5, r6, lr}
    2ad6:	b192      	cbz	r2, 2afe <strncmp+0x2a>
    2ad8:	460b      	mov	r3, r1
    2ada:	4605      	mov	r5, r0
    2adc:	b91a      	cbnz	r2, 2ae6 <strncmp+0x12>
    2ade:	7828      	ldrb	r0, [r5, #0]
    2ae0:	7819      	ldrb	r1, [r3, #0]
    2ae2:	1a40      	subs	r0, r0, r1
    2ae4:	bd70      	pop	{r4, r5, r6, pc}
    2ae6:	f810 6b01 	ldrb.w	r6, [r0], #1
    2aea:	781c      	ldrb	r4, [r3, #0]
    2aec:	3101      	adds	r1, #1
    2aee:	42b4      	cmp	r4, r6
    2af0:	d1f5      	bne.n	2ade <strncmp+0xa>
    2af2:	2a01      	cmp	r2, #1
    2af4:	d0f3      	beq.n	2ade <strncmp+0xa>
    2af6:	3a01      	subs	r2, #1
    2af8:	2c00      	cmp	r4, #0
    2afa:	d1ed      	bne.n	2ad8 <strncmp+0x4>
    2afc:	e7ef      	b.n	2ade <strncmp+0xa>
    2afe:	4610      	mov	r0, r2
    2b00:	bd70      	pop	{r4, r5, r6, pc}

00002b02 <__sfputc_r>:
    2b02:	6893      	ldr	r3, [r2, #8]
    2b04:	b510      	push	{r4, lr}
    2b06:	3b01      	subs	r3, #1
    2b08:	2b00      	cmp	r3, #0
    2b0a:	6093      	str	r3, [r2, #8]
    2b0c:	da05      	bge.n	2b1a <__sfputc_r+0x18>
    2b0e:	6994      	ldr	r4, [r2, #24]
    2b10:	42a3      	cmp	r3, r4
    2b12:	db08      	blt.n	2b26 <__sfputc_r+0x24>
    2b14:	b2cb      	uxtb	r3, r1
    2b16:	2b0a      	cmp	r3, #10
    2b18:	d005      	beq.n	2b26 <__sfputc_r+0x24>
    2b1a:	6813      	ldr	r3, [r2, #0]
    2b1c:	b2c8      	uxtb	r0, r1
    2b1e:	f803 1b01 	strb.w	r1, [r3], #1
    2b22:	6013      	str	r3, [r2, #0]
    2b24:	bd10      	pop	{r4, pc}
    2b26:	e8bd 4010 	ldmia.w	sp!, {r4, lr}
    2b2a:	f000 bf71 	b.w	3a10 <__swbuf_r>
	...

00002b30 <_vfiprintf_r>:
    2b30:	e92d 47f0 	stmdb	sp!, {r4, r5, r6, r7, r8, r9, r10, lr}
    2b34:	b09c      	sub	sp, #112	; 0x70
    2b36:	460d      	mov	r5, r1
    2b38:	4614      	mov	r4, r2
    2b3a:	9303      	str	r3, [sp, #12]
    2b3c:	4606      	mov	r6, r0
    2b3e:	b118      	cbz	r0, 2b48 <_vfiprintf_r+0x18>
    2b40:	6983      	ldr	r3, [r0, #24]
    2b42:	b90b      	cbnz	r3, 2b48 <_vfiprintf_r+0x18>
    2b44:	f001 ff7c 	bl	4a40 <__sinit>
    2b48:	487c      	ldr	r0, [pc, #496]	; (2d3c <_vfiprintf_r+0x20c>)
    2b4a:	4285      	cmp	r5, r0
    2b4c:	d101      	bne.n	2b52 <_vfiprintf_r+0x22>
    2b4e:	6875      	ldr	r5, [r6, #4]
    2b50:	e008      	b.n	2b64 <_vfiprintf_r+0x34>
    2b52:	497b      	ldr	r1, [pc, #492]	; (2d40 <_vfiprintf_r+0x210>)
    2b54:	428d      	cmp	r5, r1
    2b56:	d101      	bne.n	2b5c <_vfiprintf_r+0x2c>
    2b58:	68b5      	ldr	r5, [r6, #8]
    2b5a:	e003      	b.n	2b64 <_vfiprintf_r+0x34>
    2b5c:	4a79      	ldr	r2, [pc, #484]	; (2d44 <_vfiprintf_r+0x214>)
    2b5e:	4295      	cmp	r5, r2
    2b60:	bf08      	it	eq
    2b62:	68f5      	ldreq	r5, [r6, #12]
    2b64:	89ab      	ldrh	r3, [r5, #12]
    2b66:	f003 0008 	and.w	r0, r3, #8
    2b6a:	b201      	sxth	r1, r0
    2b6c:	b151      	cbz	r1, 2b84 <_vfiprintf_r+0x54>
    2b6e:	692a      	ldr	r2, [r5, #16]
    2b70:	b142      	cbz	r2, 2b84 <_vfiprintf_r+0x54>
    2b72:	2700      	movs	r7, #0
    2b74:	2320      	movs	r3, #32
    2b76:	2030      	movs	r0, #48	; 0x30
    2b78:	9709      	str	r7, [sp, #36]	; 0x24
    2b7a:	f88d 3029 	strb.w	r3, [sp, #41]	; 0x29
    2b7e:	f88d 002a 	strb.w	r0, [sp, #42]	; 0x2a
    2b82:	e03c      	b.n	2bfe <_vfiprintf_r+0xce>
    2b84:	4630      	mov	r0, r6
    2b86:	4629      	mov	r1, r5
    2b88:	f000 ffae 	bl	3ae8 <__swsetup_r>
    2b8c:	2800      	cmp	r0, #0
    2b8e:	d0f0      	beq.n	2b72 <_vfiprintf_r+0x42>
    2b90:	f04f 30ff 	mov.w	r0, #4294967295
    2b94:	e0ce      	b.n	2d34 <_vfiprintf_r+0x204>
    2b96:	9803      	ldr	r0, [sp, #12]
    2b98:	6807      	ldr	r7, [r0, #0]
    2b9a:	1d02      	adds	r2, r0, #4
    2b9c:	2f00      	cmp	r7, #0
    2b9e:	9203      	str	r2, [sp, #12]
    2ba0:	db7d      	blt.n	2c9e <_vfiprintf_r+0x16e>
    2ba2:	9707      	str	r7, [sp, #28]
    2ba4:	3401      	adds	r4, #1
    2ba6:	7820      	ldrb	r0, [r4, #0]
    2ba8:	282e      	cmp	r0, #46	; 0x2e
    2baa:	f000 808a 	beq.w	2cc2 <_vfiprintf_r+0x192>
    2bae:	4f66      	ldr	r7, [pc, #408]	; (2d48 <_vfiprintf_r+0x218>)
    2bb0:	7821      	ldrb	r1, [r4, #0]
    2bb2:	4638      	mov	r0, r7
    2bb4:	2203      	movs	r2, #3
    2bb6:	f002 f859 	bl	4c6c <memchr>
    2bba:	b138      	cbz	r0, 2bcc <_vfiprintf_r+0x9c>
    2bbc:	1bc7      	subs	r7, r0, r7
    2bbe:	2140      	movs	r1, #64	; 0x40
    2bc0:	fa01 f107 	lsl.w	r1, r1, r7
    2bc4:	9b04      	ldr	r3, [sp, #16]
    2bc6:	3401      	adds	r4, #1
    2bc8:	430b      	orrs	r3, r1
    2bca:	9304      	str	r3, [sp, #16]
    2bcc:	f814 1b01 	ldrb.w	r1, [r4], #1
    2bd0:	485e      	ldr	r0, [pc, #376]	; (2d4c <_vfiprintf_r+0x21c>)
    2bd2:	2206      	movs	r2, #6
    2bd4:	f88d 1028 	strb.w	r1, [sp, #40]	; 0x28
    2bd8:	f002 f848 	bl	4c6c <memchr>
    2bdc:	2800      	cmp	r0, #0
    2bde:	f000 8094 	beq.w	2d0a <_vfiprintf_r+0x1da>
    2be2:	4a5b      	ldr	r2, [pc, #364]	; (2d50 <_vfiprintf_r+0x220>)
    2be4:	2a00      	cmp	r2, #0
    2be6:	f040 8087 	bne.w	2cf8 <_vfiprintf_r+0x1c8>
    2bea:	9f03      	ldr	r7, [sp, #12]
    2bec:	1dfb      	adds	r3, r7, #7
    2bee:	f023 0007 	bic.w	r0, r3, #7
    2bf2:	3008      	adds	r0, #8
    2bf4:	9003      	str	r0, [sp, #12]
    2bf6:	9a09      	ldr	r2, [sp, #36]	; 0x24
    2bf8:	eb02 0108 	add.w	r1, r2, r8
    2bfc:	9109      	str	r1, [sp, #36]	; 0x24
    2bfe:	4621      	mov	r1, r4
    2c00:	460f      	mov	r7, r1
    2c02:	f811 2b01 	ldrb.w	r2, [r1], #1
    2c06:	b92a      	cbnz	r2, 2c14 <_vfiprintf_r+0xe4>
    2c08:	ebb7 0a04 	subs.w	r10, r7, r4
    2c0c:	d015      	beq.n	2c3a <_vfiprintf_r+0x10a>
    2c0e:	f04f 0900 	mov.w	r9, #0
    2c12:	e00c      	b.n	2c2e <_vfiprintf_r+0xfe>
    2c14:	2a25      	cmp	r2, #37	; 0x25
    2c16:	d1f3      	bne.n	2c00 <_vfiprintf_r+0xd0>
    2c18:	e7f6      	b.n	2c08 <_vfiprintf_r+0xd8>
    2c1a:	4630      	mov	r0, r6
    2c1c:	f814 1009 	ldrb.w	r1, [r4, r9]
    2c20:	462a      	mov	r2, r5
    2c22:	f7ff ff6e 	bl	2b02 <__sfputc_r>
    2c26:	3001      	adds	r0, #1
    2c28:	d07c      	beq.n	2d24 <_vfiprintf_r+0x1f4>
    2c2a:	f109 0901 	add.w	r9, r9, #1
    2c2e:	45d1      	cmp	r9, r10
    2c30:	dbf3      	blt.n	2c1a <_vfiprintf_r+0xea>
    2c32:	9b09      	ldr	r3, [sp, #36]	; 0x24
    2c34:	eb03 000a 	add.w	r0, r3, r10
    2c38:	9009      	str	r0, [sp, #36]	; 0x24
    2c3a:	7839      	ldrb	r1, [r7, #0]
    2c3c:	2900      	cmp	r1, #0
    2c3e:	d071      	beq.n	2d24 <_vfiprintf_r+0x1f4>
    2c40:	2400      	movs	r4, #0
    2c42:	f04f 32ff 	mov.w	r2, #4294967295
    2c46:	9404      	str	r4, [sp, #16]
    2c48:	9407      	str	r4, [sp, #28]
    2c4a:	9205      	str	r2, [sp, #20]
    2c4c:	9406      	str	r4, [sp, #24]
    2c4e:	f88d 4053 	strb.w	r4, [sp, #83]	; 0x53
    2c52:	941a      	str	r4, [sp, #104]	; 0x68
    2c54:	f107 0901 	add.w	r9, r7, #1
    2c58:	4f3e      	ldr	r7, [pc, #248]	; (2d54 <_vfiprintf_r+0x224>)
    2c5a:	464c      	mov	r4, r9
    2c5c:	4638      	mov	r0, r7
    2c5e:	7821      	ldrb	r1, [r4, #0]
    2c60:	2205      	movs	r2, #5
    2c62:	f002 f803 	bl	4c6c <memchr>
    2c66:	f109 0901 	add.w	r9, r9, #1
    2c6a:	9b04      	ldr	r3, [sp, #16]
    2c6c:	b130      	cbz	r0, 2c7c <_vfiprintf_r+0x14c>
    2c6e:	1bc4      	subs	r4, r0, r7
    2c70:	2701      	movs	r7, #1
    2c72:	fa07 f704 	lsl.w	r7, r7, r4
    2c76:	433b      	orrs	r3, r7
    2c78:	9304      	str	r3, [sp, #16]
    2c7a:	e7ed      	b.n	2c58 <_vfiprintf_r+0x128>
    2c7c:	06d9      	lsls	r1, r3, #27
    2c7e:	d502      	bpl.n	2c86 <_vfiprintf_r+0x156>
    2c80:	2020      	movs	r0, #32
    2c82:	f88d 0053 	strb.w	r0, [sp, #83]	; 0x53
    2c86:	071a      	lsls	r2, r3, #28
    2c88:	d502      	bpl.n	2c90 <_vfiprintf_r+0x160>
    2c8a:	212b      	movs	r1, #43	; 0x2b
    2c8c:	f88d 1053 	strb.w	r1, [sp, #83]	; 0x53
    2c90:	7822      	ldrb	r2, [r4, #0]
    2c92:	2a2a      	cmp	r2, #42	; 0x2a
    2c94:	f43f af7f 	beq.w	2b96 <_vfiprintf_r+0x66>
    2c98:	9b07      	ldr	r3, [sp, #28]
    2c9a:	4627      	mov	r7, r4
    2c9c:	e005      	b.n	2caa <_vfiprintf_r+0x17a>
    2c9e:	4279      	negs	r1, r7
    2ca0:	f043 0302 	orr.w	r3, r3, #2
    2ca4:	9107      	str	r1, [sp, #28]
    2ca6:	9304      	str	r3, [sp, #16]
    2ca8:	e77c      	b.n	2ba4 <_vfiprintf_r+0x74>
    2caa:	463c      	mov	r4, r7
    2cac:	7821      	ldrb	r1, [r4, #0]
    2cae:	3701      	adds	r7, #1
    2cb0:	3930      	subs	r1, #48	; 0x30
    2cb2:	2909      	cmp	r1, #9
    2cb4:	d803      	bhi.n	2cbe <_vfiprintf_r+0x18e>
    2cb6:	240a      	movs	r4, #10
    2cb8:	fb04 1303 	mla	r3, r4, r3, r1
    2cbc:	e7f5      	b.n	2caa <_vfiprintf_r+0x17a>
    2cbe:	9307      	str	r3, [sp, #28]
    2cc0:	e771      	b.n	2ba6 <_vfiprintf_r+0x76>
    2cc2:	7862      	ldrb	r2, [r4, #1]
    2cc4:	2a2a      	cmp	r2, #42	; 0x2a
    2cc6:	d109      	bne.n	2cdc <_vfiprintf_r+0x1ac>
    2cc8:	9803      	ldr	r0, [sp, #12]
    2cca:	3402      	adds	r4, #2
    2ccc:	6803      	ldr	r3, [r0, #0]
    2cce:	1d02      	adds	r2, r0, #4
    2cd0:	2b00      	cmp	r3, #0
    2cd2:	9203      	str	r2, [sp, #12]
    2cd4:	bfb8      	it	lt
    2cd6:	f04f 33ff 	movlt.w	r3, #4294967295
    2cda:	e00b      	b.n	2cf4 <_vfiprintf_r+0x1c4>
    2cdc:	1c67      	adds	r7, r4, #1
    2cde:	2300      	movs	r3, #0
    2ce0:	463c      	mov	r4, r7
    2ce2:	7821      	ldrb	r1, [r4, #0]
    2ce4:	3701      	adds	r7, #1
    2ce6:	3930      	subs	r1, #48	; 0x30
    2ce8:	2909      	cmp	r1, #9
    2cea:	d803      	bhi.n	2cf4 <_vfiprintf_r+0x1c4>
    2cec:	240a      	movs	r4, #10
    2cee:	fb04 1303 	mla	r3, r4, r3, r1
    2cf2:	e7f5      	b.n	2ce0 <_vfiprintf_r+0x1b0>
    2cf4:	9305      	str	r3, [sp, #20]
    2cf6:	e75a      	b.n	2bae <_vfiprintf_r+0x7e>
    2cf8:	a903      	add	r1, sp, #12
    2cfa:	9100      	str	r1, [sp, #0]
    2cfc:	4630      	mov	r0, r6
    2cfe:	a904      	add	r1, sp, #16
    2d00:	462a      	mov	r2, r5
    2d02:	4b15      	ldr	r3, [pc, #84]	; (2d58 <_vfiprintf_r+0x228>)
    2d04:	f000 f8c2 	bl	2e8c <_printf_float>
    2d08:	e007      	b.n	2d1a <_vfiprintf_r+0x1ea>
    2d0a:	a803      	add	r0, sp, #12
    2d0c:	9000      	str	r0, [sp, #0]
    2d0e:	a904      	add	r1, sp, #16
    2d10:	4630      	mov	r0, r6
    2d12:	462a      	mov	r2, r5
    2d14:	4b10      	ldr	r3, [pc, #64]	; (2d58 <_vfiprintf_r+0x228>)
    2d16:	f000 fb7b 	bl	3410 <_printf_i>
    2d1a:	f1b0 3fff 	cmp.w	r0, #4294967295
    2d1e:	4680      	mov	r8, r0
    2d20:	f47f af69 	bne.w	2bf6 <_vfiprintf_r+0xc6>
    2d24:	89ab      	ldrh	r3, [r5, #12]
    2d26:	f003 0040 	and.w	r0, r3, #64	; 0x40
    2d2a:	b202      	sxth	r2, r0
    2d2c:	2a00      	cmp	r2, #0
    2d2e:	f47f af2f 	bne.w	2b90 <_vfiprintf_r+0x60>
    2d32:	9809      	ldr	r0, [sp, #36]	; 0x24
    2d34:	b01c      	add	sp, #112	; 0x70
    2d36:	e8bd 87f0 	ldmia.w	sp!, {r4, r5, r6, r7, r8, r9, r10, pc}
    2d3a:	bf00      	nop
    2d3c:	00007108 	.word	0x00007108
    2d40:	00007128 	.word	0x00007128
    2d44:	00007148 	.word	0x00007148
    2d48:	00006fb6 	.word	0x00006fb6
    2d4c:	00006fba 	.word	0x00006fba
    2d50:	00002e8d 	.word	0x00002e8d
    2d54:	00006fb0 	.word	0x00006fb0
    2d58:	00002b03 	.word	0x00002b03

00002d5c <__cvt>:
    2d5c:	e92d 4fd0 	stmdb	sp!, {r4, r6, r7, r8, r9, r10, r11, lr}
    2d60:	461e      	mov	r6, r3
    2d62:	b088      	sub	sp, #32
    2d64:	ab12      	add	r3, sp, #72	; 0x48
    2d66:	2e00      	cmp	r6, #0
    2d68:	4692      	mov	r10, r2
    2d6a:	9f10      	ldr	r7, [sp, #64]	; 0x40
    2d6c:	e893 0818 	ldmia.w	r3, {r3, r4, r11}
    2d70:	da03      	bge.n	2d7a <__cvt+0x1e>
    2d72:	f106 4600 	add.w	r6, r6, #2147483648	; 0x80000000
    2d76:	212d      	movs	r1, #45	; 0x2d
    2d78:	e000      	b.n	2d7c <__cvt+0x20>
    2d7a:	2100      	movs	r1, #0
    2d7c:	f1bb 0f66 	cmp.w	r11, #102	; 0x66
    2d80:	7019      	strb	r1, [r3, #0]
    2d82:	d00a      	beq.n	2d9a <__cvt+0x3e>
    2d84:	f1bb 0f46 	cmp.w	r11, #70	; 0x46
    2d88:	d007      	beq.n	2d9a <__cvt+0x3e>
    2d8a:	f1bb 0f65 	cmp.w	r11, #101	; 0x65
    2d8e:	d002      	beq.n	2d96 <__cvt+0x3a>
    2d90:	f1bb 0f45 	cmp.w	r11, #69	; 0x45
    2d94:	d103      	bne.n	2d9e <__cvt+0x42>
    2d96:	3701      	adds	r7, #1
    2d98:	e001      	b.n	2d9e <__cvt+0x42>
    2d9a:	2303      	movs	r3, #3
    2d9c:	e000      	b.n	2da0 <__cvt+0x44>
    2d9e:	2302      	movs	r3, #2
    2da0:	e88d 0088 	stmia.w	sp, {r3, r7}
    2da4:	aa07      	add	r2, sp, #28
    2da6:	ab06      	add	r3, sp, #24
    2da8:	9303      	str	r3, [sp, #12]
    2daa:	9204      	str	r2, [sp, #16]
    2dac:	9402      	str	r4, [sp, #8]
    2dae:	4652      	mov	r2, r10
    2db0:	4633      	mov	r3, r6
    2db2:	f000 ffad 	bl	3d10 <_dtoa_r>
    2db6:	f1bb 0f67 	cmp.w	r11, #103	; 0x67
    2dba:	4680      	mov	r8, r0
    2dbc:	d002      	beq.n	2dc4 <__cvt+0x68>
    2dbe:	f1bb 0f47 	cmp.w	r11, #71	; 0x47
    2dc2:	d102      	bne.n	2dca <__cvt+0x6e>
    2dc4:	9811      	ldr	r0, [sp, #68]	; 0x44
    2dc6:	07c3      	lsls	r3, r0, #31
    2dc8:	d528      	bpl.n	2e1c <__cvt+0xc0>
    2dca:	f1bb 0f66 	cmp.w	r11, #102	; 0x66
    2dce:	eb08 0907 	add.w	r9, r8, r7
    2dd2:	d002      	beq.n	2dda <__cvt+0x7e>
    2dd4:	f1bb 0f46 	cmp.w	r11, #70	; 0x46
    2dd8:	d10f      	bne.n	2dfa <__cvt+0x9e>
    2dda:	f898 1000 	ldrb.w	r1, [r8]
    2dde:	2930      	cmp	r1, #48	; 0x30
    2de0:	d109      	bne.n	2df6 <__cvt+0x9a>
    2de2:	4650      	mov	r0, r10
    2de4:	4631      	mov	r1, r6
    2de6:	2200      	movs	r2, #0
    2de8:	2300      	movs	r3, #0
    2dea:	f7ff f9ab 	bl	2144 <__aeabi_dcmpeq>
    2dee:	b910      	cbnz	r0, 2df6 <__cvt+0x9a>
    2df0:	f1c7 0701 	rsb	r7, r7, #1
    2df4:	6027      	str	r7, [r4, #0]
    2df6:	6823      	ldr	r3, [r4, #0]
    2df8:	4499      	add	r9, r3
    2dfa:	4650      	mov	r0, r10
    2dfc:	4631      	mov	r1, r6
    2dfe:	2200      	movs	r2, #0
    2e00:	2300      	movs	r3, #0
    2e02:	f7ff f99f 	bl	2144 <__aeabi_dcmpeq>
    2e06:	b108      	cbz	r0, 2e0c <__cvt+0xb0>
    2e08:	f8cd 901c 	str.w	r9, [sp, #28]
    2e0c:	9807      	ldr	r0, [sp, #28]
    2e0e:	4548      	cmp	r0, r9
    2e10:	d204      	bcs.n	2e1c <__cvt+0xc0>
    2e12:	2230      	movs	r2, #48	; 0x30
    2e14:	f800 2b01 	strb.w	r2, [r0], #1
    2e18:	9007      	str	r0, [sp, #28]
    2e1a:	e7f7      	b.n	2e0c <__cvt+0xb0>
    2e1c:	9a07      	ldr	r2, [sp, #28]
    2e1e:	9b15      	ldr	r3, [sp, #84]	; 0x54
    2e20:	ebc8 0102 	rsb	r1, r8, r2
    2e24:	6019      	str	r1, [r3, #0]
    2e26:	4640      	mov	r0, r8
    2e28:	b008      	add	sp, #32
    2e2a:	e8bd 8fd0 	ldmia.w	sp!, {r4, r6, r7, r8, r9, r10, r11, pc}

00002e2e <__exponent>:
    2e2e:	b573      	push	{r0, r1, r4, r5, r6, lr}
    2e30:	4603      	mov	r3, r0
    2e32:	2900      	cmp	r1, #0
    2e34:	f803 2b02 	strb.w	r2, [r3], #2
    2e38:	da02      	bge.n	2e40 <__exponent+0x12>
    2e3a:	4249      	negs	r1, r1
    2e3c:	222d      	movs	r2, #45	; 0x2d
    2e3e:	e000      	b.n	2e42 <__exponent+0x14>
    2e40:	222b      	movs	r2, #43	; 0x2b
    2e42:	2909      	cmp	r1, #9
    2e44:	7042      	strb	r2, [r0, #1]
    2e46:	461a      	mov	r2, r3
    2e48:	dd19      	ble.n	2e7e <__exponent+0x50>
    2e4a:	f10d 0406 	add.w	r4, sp, #6
    2e4e:	260a      	movs	r6, #10
    2e50:	fb91 f5f6 	sdiv	r5, r1, r6
    2e54:	fb06 1115 	mls	r1, r6, r5, r1
    2e58:	3130      	adds	r1, #48	; 0x30
    2e5a:	2d09      	cmp	r5, #9
    2e5c:	4623      	mov	r3, r4
    2e5e:	f804 1901 	strb.w	r1, [r4], #-1
    2e62:	4629      	mov	r1, r5
    2e64:	dcf3      	bgt.n	2e4e <__exponent+0x20>
    2e66:	3130      	adds	r1, #48	; 0x30
    2e68:	f803 1d01 	strb.w	r1, [r3, #-1]!
    2e6c:	f10d 0107 	add.w	r1, sp, #7
    2e70:	428b      	cmp	r3, r1
    2e72:	d209      	bcs.n	2e88 <__exponent+0x5a>
    2e74:	f813 1b01 	ldrb.w	r1, [r3], #1
    2e78:	f802 1b01 	strb.w	r1, [r2], #1
    2e7c:	e7f6      	b.n	2e6c <__exponent+0x3e>
    2e7e:	2230      	movs	r2, #48	; 0x30
    2e80:	1889      	adds	r1, r1, r2
    2e82:	701a      	strb	r2, [r3, #0]
    2e84:	7059      	strb	r1, [r3, #1]
    2e86:	1c9a      	adds	r2, r3, #2
    2e88:	1a10      	subs	r0, r2, r0
    2e8a:	bd7c      	pop	{r2, r3, r4, r5, r6, pc}

00002e8c <_printf_float>:
    2e8c:	e92d 4ff0 	stmdb	sp!, {r4, r5, r6, r7, r8, r9, r10, r11, lr}
    2e90:	b091      	sub	sp, #68	; 0x44
    2e92:	460c      	mov	r4, r1
    2e94:	4616      	mov	r6, r2
    2e96:	461f      	mov	r7, r3
    2e98:	f8dd 8068 	ldr.w	r8, [sp, #104]	; 0x68
    2e9c:	4605      	mov	r5, r0
    2e9e:	f001 fe7b 	bl	4b98 <_localeconv_r>
    2ea2:	f8d0 a000 	ldr.w	r10, [r0]
    2ea6:	4650      	mov	r0, r10
    2ea8:	f7ff fe0c 	bl	2ac4 <strlen>
    2eac:	900b      	str	r0, [sp, #44]	; 0x2c
    2eae:	f8d8 0000 	ldr.w	r0, [r8]
    2eb2:	2300      	movs	r3, #0
    2eb4:	1dc1      	adds	r1, r0, #7
    2eb6:	930e      	str	r3, [sp, #56]	; 0x38
    2eb8:	f021 0307 	bic.w	r3, r1, #7
    2ebc:	f103 0208 	add.w	r2, r3, #8
    2ec0:	f894 b018 	ldrb.w	r11, [r4, #24]
    2ec4:	f8c8 2000 	str.w	r2, [r8]
    2ec8:	e9d3 0100 	ldrd	r0, r1, [r3]
    2ecc:	e9c4 0112 	strd	r0, r1, [r4, #72]	; 0x48
    2ed0:	e9d4 0112 	ldrd	r0, r1, [r4, #72]	; 0x48
    2ed4:	f002 fb10 	bl	54f8 <__fpclassifyd>
    2ed8:	2801      	cmp	r0, #1
    2eda:	e9d4 0112 	ldrd	r0, r1, [r4, #72]	; 0x48
    2ede:	d117      	bne.n	2f10 <_printf_float+0x84>
    2ee0:	2200      	movs	r2, #0
    2ee2:	2300      	movs	r3, #0
    2ee4:	f7ff f938 	bl	2158 <__aeabi_dcmplt>
    2ee8:	b110      	cbz	r0, 2ef0 <_printf_float+0x64>
    2eea:	222d      	movs	r2, #45	; 0x2d
    2eec:	f884 2043 	strb.w	r2, [r4, #67]	; 0x43
    2ef0:	489a      	ldr	r0, [pc, #616]	; (315c <_printf_float+0x2d0>)
    2ef2:	499b      	ldr	r1, [pc, #620]	; (3160 <_printf_float+0x2d4>)
    2ef4:	f1bb 0f47 	cmp.w	r11, #71	; 0x47
    2ef8:	bf8c      	ite	hi
    2efa:	4688      	movhi	r8, r1
    2efc:	4680      	movls	r8, r0
    2efe:	6820      	ldr	r0, [r4, #0]
    2f00:	2303      	movs	r3, #3
    2f02:	f020 0104 	bic.w	r1, r0, #4
    2f06:	6123      	str	r3, [r4, #16]
    2f08:	6021      	str	r1, [r4, #0]
    2f0a:	f04f 0900 	mov.w	r9, #0
    2f0e:	e086      	b.n	301e <_printf_float+0x192>
    2f10:	f002 faf2 	bl	54f8 <__fpclassifyd>
    2f14:	b910      	cbnz	r0, 2f1c <_printf_float+0x90>
    2f16:	4893      	ldr	r0, [pc, #588]	; (3164 <_printf_float+0x2d8>)
    2f18:	4993      	ldr	r1, [pc, #588]	; (3168 <_printf_float+0x2dc>)
    2f1a:	e7eb      	b.n	2ef4 <_printf_float+0x68>
    2f1c:	6861      	ldr	r1, [r4, #4]
    2f1e:	1c4a      	adds	r2, r1, #1
    2f20:	d101      	bne.n	2f26 <_printf_float+0x9a>
    2f22:	2306      	movs	r3, #6
    2f24:	e007      	b.n	2f36 <_printf_float+0xaa>
    2f26:	f1bb 0f67 	cmp.w	r11, #103	; 0x67
    2f2a:	d002      	beq.n	2f32 <_printf_float+0xa6>
    2f2c:	f1bb 0f47 	cmp.w	r11, #71	; 0x47
    2f30:	d102      	bne.n	2f38 <_printf_float+0xac>
    2f32:	b909      	cbnz	r1, 2f38 <_printf_float+0xac>
    2f34:	2301      	movs	r3, #1
    2f36:	6063      	str	r3, [r4, #4]
    2f38:	6822      	ldr	r2, [r4, #0]
    2f3a:	6860      	ldr	r0, [r4, #4]
    2f3c:	f442 6180 	orr.w	r1, r2, #1024	; 0x400
    2f40:	e88d 0003 	stmia.w	sp, {r0, r1}
    2f44:	e9d4 2312 	ldrd	r2, r3, [r4, #72]	; 0x48
    2f48:	6021      	str	r1, [r4, #0]
    2f4a:	f10d 0033 	add.w	r0, sp, #51	; 0x33
    2f4e:	a90d      	add	r1, sp, #52	; 0x34
    2f50:	9002      	str	r0, [sp, #8]
    2f52:	9103      	str	r1, [sp, #12]
    2f54:	a80e      	add	r0, sp, #56	; 0x38
    2f56:	2100      	movs	r1, #0
    2f58:	9005      	str	r0, [sp, #20]
    2f5a:	f8cd b010 	str.w	r11, [sp, #16]
    2f5e:	9106      	str	r1, [sp, #24]
    2f60:	4628      	mov	r0, r5
    2f62:	f7ff fefb 	bl	2d5c <__cvt>
    2f66:	f1bb 0f67 	cmp.w	r11, #103	; 0x67
    2f6a:	4680      	mov	r8, r0
    2f6c:	d002      	beq.n	2f74 <_printf_float+0xe8>
    2f6e:	f1bb 0f47 	cmp.w	r11, #71	; 0x47
    2f72:	d109      	bne.n	2f88 <_printf_float+0xfc>
    2f74:	9b0d      	ldr	r3, [sp, #52]	; 0x34
    2f76:	1cd8      	adds	r0, r3, #3
    2f78:	db02      	blt.n	2f80 <_printf_float+0xf4>
    2f7a:	6862      	ldr	r2, [r4, #4]
    2f7c:	4293      	cmp	r3, r2
    2f7e:	dd31      	ble.n	2fe4 <_printf_float+0x158>
    2f80:	f1ab 0c02 	sub.w	r12, r11, #2
    2f84:	fa5f fb8c 	uxtb.w	r11, r12
    2f88:	f1bb 0f65 	cmp.w	r11, #101	; 0x65
    2f8c:	980d      	ldr	r0, [sp, #52]	; 0x34
    2f8e:	d812      	bhi.n	2fb6 <_printf_float+0x12a>
    2f90:	1e41      	subs	r1, r0, #1
    2f92:	465a      	mov	r2, r11
    2f94:	f104 0050 	add.w	r0, r4, #80	; 0x50
    2f98:	910d      	str	r1, [sp, #52]	; 0x34
    2f9a:	f7ff ff48 	bl	2e2e <__exponent>
    2f9e:	9a0e      	ldr	r2, [sp, #56]	; 0x38
    2fa0:	4681      	mov	r9, r0
    2fa2:	1883      	adds	r3, r0, r2
    2fa4:	2a01      	cmp	r2, #1
    2fa6:	6123      	str	r3, [r4, #16]
    2fa8:	dc02      	bgt.n	2fb0 <_printf_float+0x124>
    2faa:	6820      	ldr	r0, [r4, #0]
    2fac:	07c1      	lsls	r1, r0, #31
    2fae:	d530      	bpl.n	3012 <_printf_float+0x186>
    2fb0:	1c59      	adds	r1, r3, #1
    2fb2:	6121      	str	r1, [r4, #16]
    2fb4:	e02d      	b.n	3012 <_printf_float+0x186>
    2fb6:	f1bb 0f66 	cmp.w	r11, #102	; 0x66
    2fba:	d115      	bne.n	2fe8 <_printf_float+0x15c>
    2fbc:	2800      	cmp	r0, #0
    2fbe:	6863      	ldr	r3, [r4, #4]
    2fc0:	dd08      	ble.n	2fd4 <_printf_float+0x148>
    2fc2:	6120      	str	r0, [r4, #16]
    2fc4:	b913      	cbnz	r3, 2fcc <_printf_float+0x140>
    2fc6:	6822      	ldr	r2, [r4, #0]
    2fc8:	07d2      	lsls	r2, r2, #31
    2fca:	d51e      	bpl.n	300a <_printf_float+0x17e>
    2fcc:	3301      	adds	r3, #1
    2fce:	18c0      	adds	r0, r0, r3
    2fd0:	6120      	str	r0, [r4, #16]
    2fd2:	e01a      	b.n	300a <_printf_float+0x17e>
    2fd4:	b913      	cbnz	r3, 2fdc <_printf_float+0x150>
    2fd6:	6821      	ldr	r1, [r4, #0]
    2fd8:	07c8      	lsls	r0, r1, #31
    2fda:	d501      	bpl.n	2fe0 <_printf_float+0x154>
    2fdc:	1c9a      	adds	r2, r3, #2
    2fde:	e013      	b.n	3008 <_printf_float+0x17c>
    2fe0:	2201      	movs	r2, #1
    2fe2:	e011      	b.n	3008 <_printf_float+0x17c>
    2fe4:	f04f 0b67 	mov.w	r11, #103	; 0x67
    2fe8:	9b0d      	ldr	r3, [sp, #52]	; 0x34
    2fea:	990e      	ldr	r1, [sp, #56]	; 0x38
    2fec:	428b      	cmp	r3, r1
    2fee:	db05      	blt.n	2ffc <_printf_float+0x170>
    2ff0:	6820      	ldr	r0, [r4, #0]
    2ff2:	6123      	str	r3, [r4, #16]
    2ff4:	07c1      	lsls	r1, r0, #31
    2ff6:	d508      	bpl.n	300a <_printf_float+0x17e>
    2ff8:	1c5a      	adds	r2, r3, #1
    2ffa:	e005      	b.n	3008 <_printf_float+0x17c>
    2ffc:	2b00      	cmp	r3, #0
    2ffe:	bfd4      	ite	le
    3000:	f1c3 0302 	rsble	r3, r3, #2
    3004:	2301      	movgt	r3, #1
    3006:	18ca      	adds	r2, r1, r3
    3008:	6122      	str	r2, [r4, #16]
    300a:	990d      	ldr	r1, [sp, #52]	; 0x34
    300c:	f04f 0900 	mov.w	r9, #0
    3010:	65a1      	str	r1, [r4, #88]	; 0x58
    3012:	f89d 2033 	ldrb.w	r2, [sp, #51]	; 0x33
    3016:	b112      	cbz	r2, 301e <_printf_float+0x192>
    3018:	232d      	movs	r3, #45	; 0x2d
    301a:	f884 3043 	strb.w	r3, [r4, #67]	; 0x43
    301e:	9700      	str	r7, [sp, #0]
    3020:	4628      	mov	r0, r5
    3022:	4621      	mov	r1, r4
    3024:	aa0f      	add	r2, sp, #60	; 0x3c
    3026:	4633      	mov	r3, r6
    3028:	f000 f982 	bl	3330 <_printf_common>
    302c:	3001      	adds	r0, #1
    302e:	d102      	bne.n	3036 <_printf_float+0x1aa>
    3030:	f04f 30ff 	mov.w	r0, #4294967295
    3034:	e179      	b.n	332a <_printf_float+0x49e>
    3036:	6823      	ldr	r3, [r4, #0]
    3038:	f413 6280 	ands.w	r2, r3, #1024	; 0x400
    303c:	d10d      	bne.n	305a <_printf_float+0x1ce>
    303e:	4691      	mov	r9, r2
    3040:	6920      	ldr	r0, [r4, #16]
    3042:	4581      	cmp	r9, r0
    3044:	da22      	bge.n	308c <_printf_float+0x200>
    3046:	4628      	mov	r0, r5
    3048:	f818 1009 	ldrb.w	r1, [r8, r9]
    304c:	4632      	mov	r2, r6
    304e:	47b8      	blx	r7
    3050:	3001      	adds	r0, #1
    3052:	d0ed      	beq.n	3030 <_printf_float+0x1a4>
    3054:	f109 0901 	add.w	r9, r9, #1
    3058:	e7f2      	b.n	3040 <_printf_float+0x1b4>
    305a:	f1bb 0f65 	cmp.w	r11, #101	; 0x65
    305e:	f240 80f1 	bls.w	3244 <_printf_float+0x3b8>
    3062:	e9d4 0112 	ldrd	r0, r1, [r4, #72]	; 0x48
    3066:	2200      	movs	r2, #0
    3068:	2300      	movs	r3, #0
    306a:	f7ff f86b 	bl	2144 <__aeabi_dcmpeq>
    306e:	2800      	cmp	r0, #0
    3070:	d02d      	beq.n	30ce <_printf_float+0x242>
    3072:	2130      	movs	r1, #48	; 0x30
    3074:	4628      	mov	r0, r5
    3076:	4632      	mov	r2, r6
    3078:	47b8      	blx	r7
    307a:	3001      	adds	r0, #1
    307c:	d0d8      	beq.n	3030 <_printf_float+0x1a4>
    307e:	9b0e      	ldr	r3, [sp, #56]	; 0x38
    3080:	9a0d      	ldr	r2, [sp, #52]	; 0x34
    3082:	429a      	cmp	r2, r3
    3084:	db07      	blt.n	3096 <_printf_float+0x20a>
    3086:	6820      	ldr	r0, [r4, #0]
    3088:	07c3      	lsls	r3, r0, #31
    308a:	d404      	bmi.n	3096 <_printf_float+0x20a>
    308c:	6821      	ldr	r1, [r4, #0]
    308e:	078a      	lsls	r2, r1, #30
    3090:	f100 8148 	bmi.w	3324 <_printf_float+0x498>
    3094:	e140      	b.n	3318 <_printf_float+0x48c>
    3096:	990b      	ldr	r1, [sp, #44]	; 0x2c
    3098:	eb0a 0b01 	add.w	r11, r10, r1
    309c:	45da      	cmp	r10, r11
    309e:	d007      	beq.n	30b0 <_printf_float+0x224>
    30a0:	4628      	mov	r0, r5
    30a2:	f81a 1b01 	ldrb.w	r1, [r10], #1
    30a6:	4632      	mov	r2, r6
    30a8:	47b8      	blx	r7
    30aa:	3001      	adds	r0, #1
    30ac:	d1f6      	bne.n	309c <_printf_float+0x210>
    30ae:	e7bf      	b.n	3030 <_printf_float+0x1a4>
    30b0:	f04f 0800 	mov.w	r8, #0
    30b4:	9b0e      	ldr	r3, [sp, #56]	; 0x38
    30b6:	1e5a      	subs	r2, r3, #1
    30b8:	4590      	cmp	r8, r2
    30ba:	dae7      	bge.n	308c <_printf_float+0x200>
    30bc:	4628      	mov	r0, r5
    30be:	7ea1      	ldrb	r1, [r4, #26]
    30c0:	4632      	mov	r2, r6
    30c2:	47b8      	blx	r7
    30c4:	3001      	adds	r0, #1
    30c6:	d0b3      	beq.n	3030 <_printf_float+0x1a4>
    30c8:	f108 0801 	add.w	r8, r8, #1
    30cc:	e7f2      	b.n	30b4 <_printf_float+0x228>
    30ce:	980d      	ldr	r0, [sp, #52]	; 0x34
    30d0:	2800      	cmp	r0, #0
    30d2:	dc38      	bgt.n	3146 <_printf_float+0x2ba>
    30d4:	2130      	movs	r1, #48	; 0x30
    30d6:	4628      	mov	r0, r5
    30d8:	4632      	mov	r2, r6
    30da:	47b8      	blx	r7
    30dc:	3001      	adds	r0, #1
    30de:	d0a7      	beq.n	3030 <_printf_float+0x1a4>
    30e0:	9a0d      	ldr	r2, [sp, #52]	; 0x34
    30e2:	b922      	cbnz	r2, 30ee <_printf_float+0x262>
    30e4:	980e      	ldr	r0, [sp, #56]	; 0x38
    30e6:	b910      	cbnz	r0, 30ee <_printf_float+0x262>
    30e8:	6821      	ldr	r1, [r4, #0]
    30ea:	07c8      	lsls	r0, r1, #31
    30ec:	d5ce      	bpl.n	308c <_printf_float+0x200>
    30ee:	9b0b      	ldr	r3, [sp, #44]	; 0x2c
    30f0:	eb0a 0b03 	add.w	r11, r10, r3
    30f4:	45da      	cmp	r10, r11
    30f6:	d007      	beq.n	3108 <_printf_float+0x27c>
    30f8:	4628      	mov	r0, r5
    30fa:	f81a 1b01 	ldrb.w	r1, [r10], #1
    30fe:	4632      	mov	r2, r6
    3100:	47b8      	blx	r7
    3102:	3001      	adds	r0, #1
    3104:	d1f6      	bne.n	30f4 <_printf_float+0x268>
    3106:	e793      	b.n	3030 <_printf_float+0x1a4>
    3108:	f04f 0900 	mov.w	r9, #0
    310c:	9a0d      	ldr	r2, [sp, #52]	; 0x34
    310e:	4250      	negs	r0, r2
    3110:	4581      	cmp	r9, r0
    3112:	da08      	bge.n	3126 <_printf_float+0x29a>
    3114:	4628      	mov	r0, r5
    3116:	7ea1      	ldrb	r1, [r4, #26]
    3118:	4632      	mov	r2, r6
    311a:	47b8      	blx	r7
    311c:	3001      	adds	r0, #1
    311e:	d087      	beq.n	3030 <_printf_float+0x1a4>
    3120:	f109 0901 	add.w	r9, r9, #1
    3124:	e7f2      	b.n	310c <_printf_float+0x280>
    3126:	f04f 0900 	mov.w	r9, #0
    312a:	990e      	ldr	r1, [sp, #56]	; 0x38
    312c:	4589      	cmp	r9, r1
    312e:	daad      	bge.n	308c <_printf_float+0x200>
    3130:	4628      	mov	r0, r5
    3132:	f818 1009 	ldrb.w	r1, [r8, r9]
    3136:	4632      	mov	r2, r6
    3138:	47b8      	blx	r7
    313a:	3001      	adds	r0, #1
    313c:	f43f af78 	beq.w	3030 <_printf_float+0x1a4>
    3140:	f109 0901 	add.w	r9, r9, #1
    3144:	e7f1      	b.n	312a <_printf_float+0x29e>
    3146:	6da1      	ldr	r1, [r4, #88]	; 0x58
    3148:	9b0e      	ldr	r3, [sp, #56]	; 0x38
    314a:	428b      	cmp	r3, r1
    314c:	bfb4      	ite	lt
    314e:	469c      	movlt	r12, r3
    3150:	468c      	movge	r12, r1
    3152:	f1bc 0f00 	cmp.w	r12, #0
    3156:	dc09      	bgt.n	316c <_printf_float+0x2e0>
    3158:	2300      	movs	r3, #0
    315a:	e029      	b.n	31b0 <_printf_float+0x324>
    315c:	00006fc1 	.word	0x00006fc1
    3160:	00006fc5 	.word	0x00006fc5
    3164:	00006fc9 	.word	0x00006fc9
    3168:	00006fcd 	.word	0x00006fcd
    316c:	46c1      	mov	r9, r8
    316e:	eb0c 0308 	add.w	r3, r12, r8
    3172:	f819 1b01 	ldrb.w	r1, [r9], #1
    3176:	4628      	mov	r0, r5
    3178:	9309      	str	r3, [sp, #36]	; 0x24
    317a:	f8cd c028 	str.w	r12, [sp, #40]	; 0x28
    317e:	4632      	mov	r2, r6
    3180:	47b8      	blx	r7
    3182:	3001      	adds	r0, #1
    3184:	9b09      	ldr	r3, [sp, #36]	; 0x24
    3186:	f8dd c028 	ldr.w	r12, [sp, #40]	; 0x28
    318a:	f43f af51 	beq.w	3030 <_printf_float+0x1a4>
    318e:	4599      	cmp	r9, r3
    3190:	d1ef      	bne.n	3172 <_printf_float+0x2e6>
    3192:	e7e1      	b.n	3158 <_printf_float+0x2cc>
    3194:	7ea1      	ldrb	r1, [r4, #26]
    3196:	f8cd c028 	str.w	r12, [sp, #40]	; 0x28
    319a:	4628      	mov	r0, r5
    319c:	4632      	mov	r2, r6
    319e:	9309      	str	r3, [sp, #36]	; 0x24
    31a0:	47b8      	blx	r7
    31a2:	3001      	adds	r0, #1
    31a4:	9909      	ldr	r1, [sp, #36]	; 0x24
    31a6:	f8dd c028 	ldr.w	r12, [sp, #40]	; 0x28
    31aa:	f43f af41 	beq.w	3030 <_printf_float+0x1a4>
    31ae:	1c4b      	adds	r3, r1, #1
    31b0:	f8d4 9058 	ldr.w	r9, [r4, #88]	; 0x58
    31b4:	ea2c 72ec 	bic.w	r2, r12, r12, asr #31
    31b8:	ebc2 0009 	rsb	r0, r2, r9
    31bc:	4283      	cmp	r3, r0
    31be:	dbe9      	blt.n	3194 <_printf_float+0x308>
    31c0:	990e      	ldr	r1, [sp, #56]	; 0x38
    31c2:	9b0d      	ldr	r3, [sp, #52]	; 0x34
    31c4:	428b      	cmp	r3, r1
    31c6:	db0f      	blt.n	31e8 <_printf_float+0x35c>
    31c8:	6822      	ldr	r2, [r4, #0]
    31ca:	07d1      	lsls	r1, r2, #31
    31cc:	d40c      	bmi.n	31e8 <_printf_float+0x35c>
    31ce:	990e      	ldr	r1, [sp, #56]	; 0x38
    31d0:	9b0d      	ldr	r3, [sp, #52]	; 0x34
    31d2:	44c8      	add	r8, r9
    31d4:	1aca      	subs	r2, r1, r3
    31d6:	ebc9 0901 	rsb	r9, r9, r1
    31da:	4591      	cmp	r9, r2
    31dc:	bfa8      	it	ge
    31de:	4691      	movge	r9, r2
    31e0:	f1b9 0f00 	cmp.w	r9, #0
    31e4:	dc0d      	bgt.n	3202 <_printf_float+0x376>
    31e6:	e018      	b.n	321a <_printf_float+0x38e>
    31e8:	980b      	ldr	r0, [sp, #44]	; 0x2c
    31ea:	eb0a 0b00 	add.w	r11, r10, r0
    31ee:	45da      	cmp	r10, r11
    31f0:	d0ed      	beq.n	31ce <_printf_float+0x342>
    31f2:	4628      	mov	r0, r5
    31f4:	f81a 1b01 	ldrb.w	r1, [r10], #1
    31f8:	4632      	mov	r2, r6
    31fa:	47b8      	blx	r7
    31fc:	3001      	adds	r0, #1
    31fe:	d1f6      	bne.n	31ee <_printf_float+0x362>
    3200:	e716      	b.n	3030 <_printf_float+0x1a4>
    3202:	eb08 0a09 	add.w	r10, r8, r9
    3206:	4628      	mov	r0, r5
    3208:	f818 1b01 	ldrb.w	r1, [r8], #1
    320c:	4632      	mov	r2, r6
    320e:	47b8      	blx	r7
    3210:	3001      	adds	r0, #1
    3212:	f43f af0d 	beq.w	3030 <_printf_float+0x1a4>
    3216:	45d0      	cmp	r8, r10
    3218:	d1f5      	bne.n	3206 <_printf_float+0x37a>
    321a:	f04f 0800 	mov.w	r8, #0
    321e:	e008      	b.n	3232 <_printf_float+0x3a6>
    3220:	4628      	mov	r0, r5
    3222:	7ea1      	ldrb	r1, [r4, #26]
    3224:	4632      	mov	r2, r6
    3226:	47b8      	blx	r7
    3228:	3001      	adds	r0, #1
    322a:	f43f af01 	beq.w	3030 <_printf_float+0x1a4>
    322e:	f108 0801 	add.w	r8, r8, #1
    3232:	980d      	ldr	r0, [sp, #52]	; 0x34
    3234:	990e      	ldr	r1, [sp, #56]	; 0x38
    3236:	ea29 72e9 	bic.w	r2, r9, r9, asr #31
    323a:	1a0b      	subs	r3, r1, r0
    323c:	1a98      	subs	r0, r3, r2
    323e:	4580      	cmp	r8, r0
    3240:	dbee      	blt.n	3220 <_printf_float+0x394>
    3242:	e723      	b.n	308c <_printf_float+0x200>
    3244:	980e      	ldr	r0, [sp, #56]	; 0x38
    3246:	f898 1000 	ldrb.w	r1, [r8]
    324a:	2801      	cmp	r0, #1
    324c:	dc0a      	bgt.n	3264 <_printf_float+0x3d8>
    324e:	07da      	lsls	r2, r3, #31
    3250:	d408      	bmi.n	3264 <_printf_float+0x3d8>
    3252:	4628      	mov	r0, r5
    3254:	4632      	mov	r2, r6
    3256:	47b8      	blx	r7
    3258:	3001      	adds	r0, #1
    325a:	f43f aee9 	beq.w	3030 <_printf_float+0x1a4>
    325e:	f04f 0800 	mov.w	r8, #0
    3262:	e048      	b.n	32f6 <_printf_float+0x46a>
    3264:	4628      	mov	r0, r5
    3266:	4632      	mov	r2, r6
    3268:	47b8      	blx	r7
    326a:	3001      	adds	r0, #1
    326c:	f43f aee0 	beq.w	3030 <_printf_float+0x1a4>
    3270:	990b      	ldr	r1, [sp, #44]	; 0x2c
    3272:	eb0a 0b01 	add.w	r11, r10, r1
    3276:	45da      	cmp	r10, r11
    3278:	d007      	beq.n	328a <_printf_float+0x3fe>
    327a:	4628      	mov	r0, r5
    327c:	f81a 1b01 	ldrb.w	r1, [r10], #1
    3280:	4632      	mov	r2, r6
    3282:	47b8      	blx	r7
    3284:	3001      	adds	r0, #1
    3286:	d1f6      	bne.n	3276 <_printf_float+0x3ea>
    3288:	e6d2      	b.n	3030 <_printf_float+0x1a4>
    328a:	e9d4 0112 	ldrd	r0, r1, [r4, #72]	; 0x48
    328e:	2200      	movs	r2, #0
    3290:	2300      	movs	r3, #0
    3292:	f7fe ff57 	bl	2144 <__aeabi_dcmpeq>
    3296:	b110      	cbz	r0, 329e <_printf_float+0x412>
    3298:	f04f 0800 	mov.w	r8, #0
    329c:	e01a      	b.n	32d4 <_printf_float+0x448>
    329e:	f04f 0a00 	mov.w	r10, #0
    32a2:	980e      	ldr	r0, [sp, #56]	; 0x38
    32a4:	1e41      	subs	r1, r0, #1
    32a6:	458a      	cmp	r10, r1
    32a8:	dad9      	bge.n	325e <_printf_float+0x3d2>
    32aa:	eb08 020a 	add.w	r2, r8, r10
    32ae:	7851      	ldrb	r1, [r2, #1]
    32b0:	4628      	mov	r0, r5
    32b2:	4632      	mov	r2, r6
    32b4:	47b8      	blx	r7
    32b6:	3001      	adds	r0, #1
    32b8:	f43f aeba 	beq.w	3030 <_printf_float+0x1a4>
    32bc:	f10a 0a01 	add.w	r10, r10, #1
    32c0:	e7ef      	b.n	32a2 <_printf_float+0x416>
    32c2:	4628      	mov	r0, r5
    32c4:	7ea1      	ldrb	r1, [r4, #26]
    32c6:	4632      	mov	r2, r6
    32c8:	47b8      	blx	r7
    32ca:	3001      	adds	r0, #1
    32cc:	f43f aeb0 	beq.w	3030 <_printf_float+0x1a4>
    32d0:	f108 0801 	add.w	r8, r8, #1
    32d4:	9b0e      	ldr	r3, [sp, #56]	; 0x38
    32d6:	1e5a      	subs	r2, r3, #1
    32d8:	4590      	cmp	r8, r2
    32da:	dbf2      	blt.n	32c2 <_printf_float+0x436>
    32dc:	e7bf      	b.n	325e <_printf_float+0x3d2>
    32de:	eb04 0308 	add.w	r3, r4, r8
    32e2:	4628      	mov	r0, r5
    32e4:	f893 1050 	ldrb.w	r1, [r3, #80]	; 0x50
    32e8:	4632      	mov	r2, r6
    32ea:	47b8      	blx	r7
    32ec:	3001      	adds	r0, #1
    32ee:	f43f ae9f 	beq.w	3030 <_printf_float+0x1a4>
    32f2:	f108 0801 	add.w	r8, r8, #1
    32f6:	45c8      	cmp	r8, r9
    32f8:	dbf1      	blt.n	32de <_printf_float+0x452>
    32fa:	e6c7      	b.n	308c <_printf_float+0x200>
    32fc:	4628      	mov	r0, r5
    32fe:	7e61      	ldrb	r1, [r4, #25]
    3300:	4632      	mov	r2, r6
    3302:	47b8      	blx	r7
    3304:	3001      	adds	r0, #1
    3306:	f43f ae93 	beq.w	3030 <_printf_float+0x1a4>
    330a:	f108 0801 	add.w	r8, r8, #1
    330e:	68e2      	ldr	r2, [r4, #12]
    3310:	9b0f      	ldr	r3, [sp, #60]	; 0x3c
    3312:	1ad0      	subs	r0, r2, r3
    3314:	4580      	cmp	r8, r0
    3316:	dbf1      	blt.n	32fc <_printf_float+0x470>
    3318:	68e0      	ldr	r0, [r4, #12]
    331a:	990f      	ldr	r1, [sp, #60]	; 0x3c
    331c:	4288      	cmp	r0, r1
    331e:	bfb8      	it	lt
    3320:	4608      	movlt	r0, r1
    3322:	e002      	b.n	332a <_printf_float+0x49e>
    3324:	f04f 0800 	mov.w	r8, #0
    3328:	e7f1      	b.n	330e <_printf_float+0x482>
    332a:	b011      	add	sp, #68	; 0x44
    332c:	e8bd 8ff0 	ldmia.w	sp!, {r4, r5, r6, r7, r8, r9, r10, r11, pc}

00003330 <_printf_common>:
    3330:	e92d 47f0 	stmdb	sp!, {r4, r5, r6, r7, r8, r9, r10, lr}
    3334:	4615      	mov	r5, r2
    3336:	4699      	mov	r9, r3
    3338:	688a      	ldr	r2, [r1, #8]
    333a:	690b      	ldr	r3, [r1, #16]
    333c:	4680      	mov	r8, r0
    333e:	429a      	cmp	r2, r3
    3340:	bfa8      	it	ge
    3342:	4613      	movge	r3, r2
    3344:	602b      	str	r3, [r5, #0]
    3346:	f891 0043 	ldrb.w	r0, [r1, #67]	; 0x43
    334a:	460c      	mov	r4, r1
    334c:	f8dd a020 	ldr.w	r10, [sp, #32]
    3350:	b108      	cbz	r0, 3356 <_printf_common+0x26>
    3352:	1c59      	adds	r1, r3, #1
    3354:	6029      	str	r1, [r5, #0]
    3356:	6826      	ldr	r6, [r4, #0]
    3358:	06b2      	lsls	r2, r6, #26
    335a:	d502      	bpl.n	3362 <_printf_common+0x32>
    335c:	682a      	ldr	r2, [r5, #0]
    335e:	1c93      	adds	r3, r2, #2
    3360:	602b      	str	r3, [r5, #0]
    3362:	6820      	ldr	r0, [r4, #0]
    3364:	f010 0606 	ands.w	r6, r0, #6
    3368:	d018      	beq.n	339c <_printf_common+0x6c>
    336a:	f894 7043 	ldrb.w	r7, [r4, #67]	; 0x43
    336e:	6820      	ldr	r0, [r4, #0]
    3370:	1c3e      	adds	r6, r7, #0
    3372:	bf18      	it	ne
    3374:	2601      	movne	r6, #1
    3376:	0683      	lsls	r3, r0, #26
    3378:	d51a      	bpl.n	33b0 <_printf_common+0x80>
    337a:	19a1      	adds	r1, r4, r6
    337c:	2230      	movs	r2, #48	; 0x30
    337e:	f881 2043 	strb.w	r2, [r1, #67]	; 0x43
    3382:	f894 3045 	ldrb.w	r3, [r4, #69]	; 0x45
    3386:	3602      	adds	r6, #2
    3388:	f881 3044 	strb.w	r3, [r1, #68]	; 0x44
    338c:	e010      	b.n	33b0 <_printf_common+0x80>
    338e:	4640      	mov	r0, r8
    3390:	7e61      	ldrb	r1, [r4, #25]
    3392:	464a      	mov	r2, r9
    3394:	47d0      	blx	r10
    3396:	3001      	adds	r0, #1
    3398:	d006      	beq.n	33a8 <_printf_common+0x78>
    339a:	3601      	adds	r6, #1
    339c:	68e1      	ldr	r1, [r4, #12]
    339e:	682a      	ldr	r2, [r5, #0]
    33a0:	1a8b      	subs	r3, r1, r2
    33a2:	429e      	cmp	r6, r3
    33a4:	dbf3      	blt.n	338e <_printf_common+0x5e>
    33a6:	e7e0      	b.n	336a <_printf_common+0x3a>
    33a8:	f04f 30ff 	mov.w	r0, #4294967295
    33ac:	e8bd 87f0 	ldmia.w	sp!, {r4, r5, r6, r7, r8, r9, r10, pc}
    33b0:	2700      	movs	r7, #0
    33b2:	42b7      	cmp	r7, r6
    33b4:	da09      	bge.n	33ca <_printf_common+0x9a>
    33b6:	19e1      	adds	r1, r4, r7
    33b8:	4640      	mov	r0, r8
    33ba:	f891 1043 	ldrb.w	r1, [r1, #67]	; 0x43
    33be:	464a      	mov	r2, r9
    33c0:	47d0      	blx	r10
    33c2:	3001      	adds	r0, #1
    33c4:	d0f0      	beq.n	33a8 <_printf_common+0x78>
    33c6:	3701      	adds	r7, #1
    33c8:	e7f3      	b.n	33b2 <_printf_common+0x82>
    33ca:	6821      	ldr	r1, [r4, #0]
    33cc:	6828      	ldr	r0, [r5, #0]
    33ce:	68e6      	ldr	r6, [r4, #12]
    33d0:	f001 0206 	and.w	r2, r1, #6
    33d4:	2a04      	cmp	r2, #4
    33d6:	bf08      	it	eq
    33d8:	ebc0 0506 	rsbeq	r5, r0, r6
    33dc:	6923      	ldr	r3, [r4, #16]
    33de:	68a6      	ldr	r6, [r4, #8]
    33e0:	bf0c      	ite	eq
    33e2:	ea25 75e5 	biceq.w	r5, r5, r5, asr #31
    33e6:	2500      	movne	r5, #0
    33e8:	429e      	cmp	r6, r3
    33ea:	bfc4      	itt	gt
    33ec:	ebc3 0306 	rsbgt	r3, r3, r6
    33f0:	18ed      	addgt	r5, r5, r3
    33f2:	2600      	movs	r6, #0
    33f4:	42ae      	cmp	r6, r5
    33f6:	da07      	bge.n	3408 <_printf_common+0xd8>
    33f8:	4640      	mov	r0, r8
    33fa:	7ea1      	ldrb	r1, [r4, #26]
    33fc:	464a      	mov	r2, r9
    33fe:	47d0      	blx	r10
    3400:	3001      	adds	r0, #1
    3402:	d0d1      	beq.n	33a8 <_printf_common+0x78>
    3404:	3601      	adds	r6, #1
    3406:	e7f5      	b.n	33f4 <_printf_common+0xc4>
    3408:	2000      	movs	r0, #0
    340a:	e8bd 87f0 	ldmia.w	sp!, {r4, r5, r6, r7, r8, r9, r10, pc}
	...

00003410 <_printf_i>:
    3410:	e92d 43f0 	stmdb	sp!, {r4, r5, r6, r7, r8, r9, lr}
    3414:	460c      	mov	r4, r1
    3416:	7e25      	ldrb	r5, [r4, #24]
    3418:	b085      	sub	sp, #20
    341a:	2d6e      	cmp	r5, #110	; 0x6e
    341c:	4690      	mov	r8, r2
    341e:	4607      	mov	r7, r0
    3420:	4699      	mov	r9, r3
    3422:	990c      	ldr	r1, [sp, #48]	; 0x30
    3424:	f104 0243 	add.w	r2, r4, #67	; 0x43
    3428:	f000 80aa 	beq.w	3580 <_printf_i+0x170>
    342c:	d812      	bhi.n	3454 <_printf_i+0x44>
    342e:	2d63      	cmp	r5, #99	; 0x63
    3430:	d024      	beq.n	347c <_printf_i+0x6c>
    3432:	d809      	bhi.n	3448 <_printf_i+0x38>
    3434:	2d00      	cmp	r5, #0
    3436:	f000 80bb 	beq.w	35b0 <_printf_i+0x1a0>
    343a:	2d58      	cmp	r5, #88	; 0x58
    343c:	f040 80cb 	bne.w	35d6 <_printf_i+0x1c6>
    3440:	f884 5045 	strb.w	r5, [r4, #69]	; 0x45
    3444:	4d82      	ldr	r5, [pc, #520]	; (3650 <_printf_i+0x240>)
    3446:	e057      	b.n	34f8 <_printf_i+0xe8>
    3448:	2d64      	cmp	r5, #100	; 0x64
    344a:	d020      	beq.n	348e <_printf_i+0x7e>
    344c:	2d69      	cmp	r5, #105	; 0x69
    344e:	f040 80c2 	bne.w	35d6 <_printf_i+0x1c6>
    3452:	e01c      	b.n	348e <_printf_i+0x7e>
    3454:	2d73      	cmp	r5, #115	; 0x73
    3456:	f000 80af 	beq.w	35b8 <_printf_i+0x1a8>
    345a:	d809      	bhi.n	3470 <_printf_i+0x60>
    345c:	2d6f      	cmp	r5, #111	; 0x6f
    345e:	d02f      	beq.n	34c0 <_printf_i+0xb0>
    3460:	2d70      	cmp	r5, #112	; 0x70
    3462:	f040 80b8 	bne.w	35d6 <_printf_i+0x1c6>
    3466:	6825      	ldr	r5, [r4, #0]
    3468:	f045 0620 	orr.w	r6, r5, #32
    346c:	6026      	str	r6, [r4, #0]
    346e:	e03f      	b.n	34f0 <_printf_i+0xe0>
    3470:	2d75      	cmp	r5, #117	; 0x75
    3472:	d025      	beq.n	34c0 <_printf_i+0xb0>
    3474:	2d78      	cmp	r5, #120	; 0x78
    3476:	f040 80ae 	bne.w	35d6 <_printf_i+0x1c6>
    347a:	e039      	b.n	34f0 <_printf_i+0xe0>
    347c:	6808      	ldr	r0, [r1, #0]
    347e:	f104 0642 	add.w	r6, r4, #66	; 0x42
    3482:	1d02      	adds	r2, r0, #4
    3484:	600a      	str	r2, [r1, #0]
    3486:	6801      	ldr	r1, [r0, #0]
    3488:	f884 1042 	strb.w	r1, [r4, #66]	; 0x42
    348c:	e0a7      	b.n	35de <_printf_i+0x1ce>
    348e:	6820      	ldr	r0, [r4, #0]
    3490:	680b      	ldr	r3, [r1, #0]
    3492:	f010 0f80 	tst.w	r0, #128	; 0x80
    3496:	d002      	beq.n	349e <_printf_i+0x8e>
    3498:	1d1e      	adds	r6, r3, #4
    349a:	600e      	str	r6, [r1, #0]
    349c:	e008      	b.n	34b0 <_printf_i+0xa0>
    349e:	f103 0504 	add.w	r5, r3, #4
    34a2:	f010 0f40 	tst.w	r0, #64	; 0x40
    34a6:	600d      	str	r5, [r1, #0]
    34a8:	d002      	beq.n	34b0 <_printf_i+0xa0>
    34aa:	f9b3 1000 	ldrsh.w	r1, [r3]
    34ae:	e000      	b.n	34b2 <_printf_i+0xa2>
    34b0:	6819      	ldr	r1, [r3, #0]
    34b2:	2900      	cmp	r1, #0
    34b4:	da3c      	bge.n	3530 <_printf_i+0x120>
    34b6:	202d      	movs	r0, #45	; 0x2d
    34b8:	4249      	negs	r1, r1
    34ba:	f884 0043 	strb.w	r0, [r4, #67]	; 0x43
    34be:	e037      	b.n	3530 <_printf_i+0x120>
    34c0:	6825      	ldr	r5, [r4, #0]
    34c2:	680e      	ldr	r6, [r1, #0]
    34c4:	f015 0f80 	tst.w	r5, #128	; 0x80
    34c8:	d002      	beq.n	34d0 <_printf_i+0xc0>
    34ca:	1d33      	adds	r3, r6, #4
    34cc:	600b      	str	r3, [r1, #0]
    34ce:	e007      	b.n	34e0 <_printf_i+0xd0>
    34d0:	f106 0004 	add.w	r0, r6, #4
    34d4:	f015 0f40 	tst.w	r5, #64	; 0x40
    34d8:	6008      	str	r0, [r1, #0]
    34da:	d001      	beq.n	34e0 <_printf_i+0xd0>
    34dc:	8831      	ldrh	r1, [r6, #0]
    34de:	e000      	b.n	34e2 <_printf_i+0xd2>
    34e0:	6831      	ldr	r1, [r6, #0]
    34e2:	7e26      	ldrb	r6, [r4, #24]
    34e4:	4d5a      	ldr	r5, [pc, #360]	; (3650 <_printf_i+0x240>)
    34e6:	2e6f      	cmp	r6, #111	; 0x6f
    34e8:	bf14      	ite	ne
    34ea:	230a      	movne	r3, #10
    34ec:	2308      	moveq	r3, #8
    34ee:	e01b      	b.n	3528 <_printf_i+0x118>
    34f0:	2078      	movs	r0, #120	; 0x78
    34f2:	4d58      	ldr	r5, [pc, #352]	; (3654 <_printf_i+0x244>)
    34f4:	f884 0045 	strb.w	r0, [r4, #69]	; 0x45
    34f8:	6820      	ldr	r0, [r4, #0]
    34fa:	680b      	ldr	r3, [r1, #0]
    34fc:	f010 0f80 	tst.w	r0, #128	; 0x80
    3500:	f103 0604 	add.w	r6, r3, #4
    3504:	600e      	str	r6, [r1, #0]
    3506:	d103      	bne.n	3510 <_printf_i+0x100>
    3508:	0641      	lsls	r1, r0, #25
    350a:	d501      	bpl.n	3510 <_printf_i+0x100>
    350c:	8819      	ldrh	r1, [r3, #0]
    350e:	e000      	b.n	3512 <_printf_i+0x102>
    3510:	6819      	ldr	r1, [r3, #0]
    3512:	07c6      	lsls	r6, r0, #31
    3514:	bf44      	itt	mi
    3516:	f040 0020 	orrmi.w	r0, r0, #32
    351a:	6020      	strmi	r0, [r4, #0]
    351c:	b919      	cbnz	r1, 3526 <_printf_i+0x116>
    351e:	6820      	ldr	r0, [r4, #0]
    3520:	f020 0320 	bic.w	r3, r0, #32
    3524:	6023      	str	r3, [r4, #0]
    3526:	2310      	movs	r3, #16
    3528:	2000      	movs	r0, #0
    352a:	f884 0043 	strb.w	r0, [r4, #67]	; 0x43
    352e:	e001      	b.n	3534 <_printf_i+0x124>
    3530:	4d47      	ldr	r5, [pc, #284]	; (3650 <_printf_i+0x240>)
    3532:	230a      	movs	r3, #10
    3534:	6866      	ldr	r6, [r4, #4]
    3536:	2e00      	cmp	r6, #0
    3538:	60a6      	str	r6, [r4, #8]
    353a:	db03      	blt.n	3544 <_printf_i+0x134>
    353c:	6820      	ldr	r0, [r4, #0]
    353e:	f020 0004 	bic.w	r0, r0, #4
    3542:	6020      	str	r0, [r4, #0]
    3544:	b901      	cbnz	r1, 3548 <_printf_i+0x138>
    3546:	b16e      	cbz	r6, 3564 <_printf_i+0x154>
    3548:	f104 0042 	add.w	r0, r4, #66	; 0x42
    354c:	fbb1 fef3 	udiv	lr, r1, r3
    3550:	fb03 111e 	mls	r1, r3, lr, r1
    3554:	5c69      	ldrb	r1, [r5, r1]
    3556:	4606      	mov	r6, r0
    3558:	f800 1901 	strb.w	r1, [r0], #-1
    355c:	4671      	mov	r1, lr
    355e:	2900      	cmp	r1, #0
    3560:	d1f4      	bne.n	354c <_printf_i+0x13c>
    3562:	e000      	b.n	3566 <_printf_i+0x156>
    3564:	4616      	mov	r6, r2
    3566:	1b92      	subs	r2, r2, r6
    3568:	2b08      	cmp	r3, #8
    356a:	6122      	str	r2, [r4, #16]
    356c:	d13c      	bne.n	35e8 <_printf_i+0x1d8>
    356e:	6823      	ldr	r3, [r4, #0]
    3570:	07d8      	lsls	r0, r3, #31
    3572:	d539      	bpl.n	35e8 <_printf_i+0x1d8>
    3574:	6860      	ldr	r0, [r4, #4]
    3576:	4290      	cmp	r0, r2
    3578:	dc36      	bgt.n	35e8 <_printf_i+0x1d8>
    357a:	1c51      	adds	r1, r2, #1
    357c:	6061      	str	r1, [r4, #4]
    357e:	e033      	b.n	35e8 <_printf_i+0x1d8>
    3580:	6826      	ldr	r6, [r4, #0]
    3582:	680b      	ldr	r3, [r1, #0]
    3584:	f016 0f80 	tst.w	r6, #128	; 0x80
    3588:	d005      	beq.n	3596 <_printf_i+0x186>
    358a:	1d1e      	adds	r6, r3, #4
    358c:	600e      	str	r6, [r1, #0]
    358e:	6819      	ldr	r1, [r3, #0]
    3590:	6960      	ldr	r0, [r4, #20]
    3592:	6008      	str	r0, [r1, #0]
    3594:	e00c      	b.n	35b0 <_printf_i+0x1a0>
    3596:	f103 0004 	add.w	r0, r3, #4
    359a:	f016 0f40 	tst.w	r6, #64	; 0x40
    359e:	6008      	str	r0, [r1, #0]
    35a0:	d003      	beq.n	35aa <_printf_i+0x19a>
    35a2:	6818      	ldr	r0, [r3, #0]
    35a4:	6963      	ldr	r3, [r4, #20]
    35a6:	8003      	strh	r3, [r0, #0]
    35a8:	e002      	b.n	35b0 <_printf_i+0x1a0>
    35aa:	6961      	ldr	r1, [r4, #20]
    35ac:	681e      	ldr	r6, [r3, #0]
    35ae:	6031      	str	r1, [r6, #0]
    35b0:	2300      	movs	r3, #0
    35b2:	6123      	str	r3, [r4, #16]
    35b4:	4616      	mov	r6, r2
    35b6:	e017      	b.n	35e8 <_printf_i+0x1d8>
    35b8:	680e      	ldr	r6, [r1, #0]
    35ba:	1d32      	adds	r2, r6, #4
    35bc:	600a      	str	r2, [r1, #0]
    35be:	6836      	ldr	r6, [r6, #0]
    35c0:	4630      	mov	r0, r6
    35c2:	f7ff fa7f 	bl	2ac4 <strlen>
    35c6:	6863      	ldr	r3, [r4, #4]
    35c8:	6120      	str	r0, [r4, #16]
    35ca:	4298      	cmp	r0, r3
    35cc:	bf88      	it	hi
    35ce:	6123      	strhi	r3, [r4, #16]
    35d0:	6920      	ldr	r0, [r4, #16]
    35d2:	6060      	str	r0, [r4, #4]
    35d4:	e005      	b.n	35e2 <_printf_i+0x1d2>
    35d6:	f104 0642 	add.w	r6, r4, #66	; 0x42
    35da:	f884 5042 	strb.w	r5, [r4, #66]	; 0x42
    35de:	2301      	movs	r3, #1
    35e0:	6123      	str	r3, [r4, #16]
    35e2:	2100      	movs	r1, #0
    35e4:	f884 1043 	strb.w	r1, [r4, #67]	; 0x43
    35e8:	f8cd 9000 	str.w	r9, [sp]
    35ec:	4638      	mov	r0, r7
    35ee:	4621      	mov	r1, r4
    35f0:	aa03      	add	r2, sp, #12
    35f2:	4643      	mov	r3, r8
    35f4:	f7ff fe9c 	bl	3330 <_printf_common>
    35f8:	3001      	adds	r0, #1
    35fa:	d102      	bne.n	3602 <_printf_i+0x1f2>
    35fc:	f04f 30ff 	mov.w	r0, #4294967295
    3600:	e022      	b.n	3648 <_printf_i+0x238>
    3602:	2500      	movs	r5, #0
    3604:	6922      	ldr	r2, [r4, #16]
    3606:	4295      	cmp	r5, r2
    3608:	da07      	bge.n	361a <_printf_i+0x20a>
    360a:	4638      	mov	r0, r7
    360c:	5d71      	ldrb	r1, [r6, r5]
    360e:	4642      	mov	r2, r8
    3610:	47c8      	blx	r9
    3612:	3001      	adds	r0, #1
    3614:	d0f2      	beq.n	35fc <_printf_i+0x1ec>
    3616:	3501      	adds	r5, #1
    3618:	e7f4      	b.n	3604 <_printf_i+0x1f4>
    361a:	6821      	ldr	r1, [r4, #0]
    361c:	0789      	lsls	r1, r1, #30
    361e:	d405      	bmi.n	362c <_printf_i+0x21c>
    3620:	68e0      	ldr	r0, [r4, #12]
    3622:	9903      	ldr	r1, [sp, #12]
    3624:	4288      	cmp	r0, r1
    3626:	bfb8      	it	lt
    3628:	4608      	movlt	r0, r1
    362a:	e00d      	b.n	3648 <_printf_i+0x238>
    362c:	2500      	movs	r5, #0
    362e:	68e0      	ldr	r0, [r4, #12]
    3630:	9b03      	ldr	r3, [sp, #12]
    3632:	1ac2      	subs	r2, r0, r3
    3634:	4295      	cmp	r5, r2
    3636:	daf3      	bge.n	3620 <_printf_i+0x210>
    3638:	4638      	mov	r0, r7
    363a:	7e61      	ldrb	r1, [r4, #25]
    363c:	4642      	mov	r2, r8
    363e:	47c8      	blx	r9
    3640:	3001      	adds	r0, #1
    3642:	d0db      	beq.n	35fc <_printf_i+0x1ec>
    3644:	3501      	adds	r5, #1
    3646:	e7f2      	b.n	362e <_printf_i+0x21e>
    3648:	b005      	add	sp, #20
    364a:	e8bd 83f0 	ldmia.w	sp!, {r4, r5, r6, r7, r8, r9, pc}
    364e:	bf00      	nop
    3650:	00006fd1 	.word	0x00006fd1
    3654:	00006fe2 	.word	0x00006fe2

00003658 <_scanf_float>:
    3658:	e92d 4ff0 	stmdb	sp!, {r4, r5, r6, r7, r8, r9, r10, r11, lr}
    365c:	b087      	sub	sp, #28
    365e:	9303      	str	r3, [sp, #12]
    3660:	688b      	ldr	r3, [r1, #8]
    3662:	4616      	mov	r6, r2
    3664:	1e5a      	subs	r2, r3, #1
    3666:	f5b2 7fae 	cmp.w	r2, #348	; 0x15c
    366a:	4607      	mov	r7, r0
    366c:	460c      	mov	r4, r1
    366e:	d907      	bls.n	3680 <_scanf_float+0x28>
    3670:	f46f 70ae 	mvn.w	r0, #348	; 0x15c
    3674:	f240 115d 	movw	r1, #349	; 0x15d
    3678:	eb03 0c00 	add.w	r12, r3, r0
    367c:	60a1      	str	r1, [r4, #8]
    367e:	e001      	b.n	3684 <_scanf_float+0x2c>
    3680:	f04f 0c00 	mov.w	r12, #0
    3684:	6825      	ldr	r5, [r4, #0]
    3686:	46a0      	mov	r8, r4
    3688:	f445 63f0 	orr.w	r3, r5, #1920	; 0x780
    368c:	f848 3b1c 	str.w	r3, [r8], #28
    3690:	2500      	movs	r5, #0
    3692:	46c3      	mov	r11, r8
    3694:	462a      	mov	r2, r5
    3696:	46a9      	mov	r9, r5
    3698:	9505      	str	r5, [sp, #20]
    369a:	46aa      	mov	r10, r5
    369c:	9504      	str	r5, [sp, #16]
    369e:	68a1      	ldr	r1, [r4, #8]
    36a0:	2900      	cmp	r1, #0
    36a2:	f000 80df 	beq.w	3864 <_scanf_float+0x20c>
    36a6:	6830      	ldr	r0, [r6, #0]
    36a8:	7803      	ldrb	r3, [r0, #0]
    36aa:	2b4e      	cmp	r3, #78	; 0x4e
    36ac:	d05c      	beq.n	3768 <_scanf_float+0x110>
    36ae:	d81d      	bhi.n	36ec <_scanf_float+0x94>
    36b0:	2b39      	cmp	r3, #57	; 0x39
    36b2:	d80f      	bhi.n	36d4 <_scanf_float+0x7c>
    36b4:	2b31      	cmp	r3, #49	; 0x31
    36b6:	d247      	bcs.n	3748 <_scanf_float+0xf0>
    36b8:	2b2e      	cmp	r3, #46	; 0x2e
    36ba:	f000 8090 	beq.w	37de <_scanf_float+0x186>
    36be:	d805      	bhi.n	36cc <_scanf_float+0x74>
    36c0:	2b2b      	cmp	r3, #43	; 0x2b
    36c2:	d049      	beq.n	3758 <_scanf_float+0x100>
    36c4:	2b2d      	cmp	r3, #45	; 0x2d
    36c6:	f040 80cd 	bne.w	3864 <_scanf_float+0x20c>
    36ca:	e045      	b.n	3758 <_scanf_float+0x100>
    36cc:	2b30      	cmp	r3, #48	; 0x30
    36ce:	f040 80c9 	bne.w	3864 <_scanf_float+0x20c>
    36d2:	e028      	b.n	3726 <_scanf_float+0xce>
    36d4:	2b45      	cmp	r3, #69	; 0x45
    36d6:	f000 808b 	beq.w	37f0 <_scanf_float+0x198>
    36da:	d803      	bhi.n	36e4 <_scanf_float+0x8c>
    36dc:	2b41      	cmp	r3, #65	; 0x41
    36de:	f040 80c1 	bne.w	3864 <_scanf_float+0x20c>
    36e2:	e056      	b.n	3792 <_scanf_float+0x13a>
    36e4:	2b46      	cmp	r3, #70	; 0x46
    36e6:	d06e      	beq.n	37c6 <_scanf_float+0x16e>
    36e8:	2b49      	cmp	r3, #73	; 0x49
    36ea:	e013      	b.n	3714 <_scanf_float+0xbc>
    36ec:	2b66      	cmp	r3, #102	; 0x66
    36ee:	d06a      	beq.n	37c6 <_scanf_float+0x16e>
    36f0:	d80c      	bhi.n	370c <_scanf_float+0xb4>
    36f2:	2b59      	cmp	r3, #89	; 0x59
    36f4:	d06f      	beq.n	37d6 <_scanf_float+0x17e>
    36f6:	d803      	bhi.n	3700 <_scanf_float+0xa8>
    36f8:	2b54      	cmp	r3, #84	; 0x54
    36fa:	f040 80b3 	bne.w	3864 <_scanf_float+0x20c>
    36fe:	e066      	b.n	37ce <_scanf_float+0x176>
    3700:	2b61      	cmp	r3, #97	; 0x61
    3702:	d046      	beq.n	3792 <_scanf_float+0x13a>
    3704:	2b65      	cmp	r3, #101	; 0x65
    3706:	f040 80ad 	bne.w	3864 <_scanf_float+0x20c>
    370a:	e071      	b.n	37f0 <_scanf_float+0x198>
    370c:	2b6e      	cmp	r3, #110	; 0x6e
    370e:	d02b      	beq.n	3768 <_scanf_float+0x110>
    3710:	d803      	bhi.n	371a <_scanf_float+0xc2>
    3712:	2b69      	cmp	r3, #105	; 0x69
    3714:	f040 80a6 	bne.w	3864 <_scanf_float+0x20c>
    3718:	e03f      	b.n	379a <_scanf_float+0x142>
    371a:	2b74      	cmp	r3, #116	; 0x74
    371c:	d057      	beq.n	37ce <_scanf_float+0x176>
    371e:	2b79      	cmp	r3, #121	; 0x79
    3720:	f040 80a0 	bne.w	3864 <_scanf_float+0x20c>
    3724:	e057      	b.n	37d6 <_scanf_float+0x17e>
    3726:	6820      	ldr	r0, [r4, #0]
    3728:	f410 7f80 	tst.w	r0, #256	; 0x100
    372c:	d00c      	beq.n	3748 <_scanf_float+0xf0>
    372e:	f020 0380 	bic.w	r3, r0, #128	; 0x80
    3732:	6023      	str	r3, [r4, #0]
    3734:	f10a 0a01 	add.w	r10, r10, #1
    3738:	f1bc 0f00 	cmp.w	r12, #0
    373c:	d075      	beq.n	382a <_scanf_float+0x1d2>
    373e:	3101      	adds	r1, #1
    3740:	f10c 3cff 	add.w	r12, r12, #4294967295
    3744:	60a1      	str	r1, [r4, #8]
    3746:	e070      	b.n	382a <_scanf_float+0x1d2>
    3748:	1951      	adds	r1, r2, r5
    374a:	2900      	cmp	r1, #0
    374c:	f040 808a 	bne.w	3864 <_scanf_float+0x20c>
    3750:	6820      	ldr	r0, [r4, #0]
    3752:	f420 70c0 	bic.w	r0, r0, #384	; 0x180
    3756:	e005      	b.n	3764 <_scanf_float+0x10c>
    3758:	6821      	ldr	r1, [r4, #0]
    375a:	0608      	lsls	r0, r1, #24
    375c:	f140 8082 	bpl.w	3864 <_scanf_float+0x20c>
    3760:	f021 0080 	bic.w	r0, r1, #128	; 0x80
    3764:	6020      	str	r0, [r4, #0]
    3766:	e05e      	b.n	3826 <_scanf_float+0x1ce>
    3768:	b96a      	cbnz	r2, 3786 <_scanf_float+0x12e>
    376a:	f1ba 0f00 	cmp.w	r10, #0
    376e:	d10c      	bne.n	378a <_scanf_float+0x132>
    3770:	6821      	ldr	r1, [r4, #0]
    3772:	f401 60e0 	and.w	r0, r1, #1792	; 0x700
    3776:	f5b0 6fe0 	cmp.w	r0, #1792	; 0x700
    377a:	d106      	bne.n	378a <_scanf_float+0x132>
    377c:	f421 62f0 	bic.w	r2, r1, #1920	; 0x780
    3780:	6022      	str	r2, [r4, #0]
    3782:	2201      	movs	r2, #1
    3784:	e04f      	b.n	3826 <_scanf_float+0x1ce>
    3786:	2a02      	cmp	r2, #2
    3788:	d04c      	beq.n	3824 <_scanf_float+0x1cc>
    378a:	2d01      	cmp	r5, #1
    378c:	d018      	beq.n	37c0 <_scanf_float+0x168>
    378e:	2d04      	cmp	r5, #4
    3790:	e015      	b.n	37be <_scanf_float+0x166>
    3792:	2a01      	cmp	r2, #1
    3794:	d166      	bne.n	3864 <_scanf_float+0x20c>
    3796:	2202      	movs	r2, #2
    3798:	e045      	b.n	3826 <_scanf_float+0x1ce>
    379a:	b96d      	cbnz	r5, 37b8 <_scanf_float+0x160>
    379c:	f1ba 0f00 	cmp.w	r10, #0
    37a0:	d163      	bne.n	386a <_scanf_float+0x212>
    37a2:	6821      	ldr	r1, [r4, #0]
    37a4:	f401 60e0 	and.w	r0, r1, #1792	; 0x700
    37a8:	f5b0 6fe0 	cmp.w	r0, #1792	; 0x700
    37ac:	d161      	bne.n	3872 <_scanf_float+0x21a>
    37ae:	f421 65f0 	bic.w	r5, r1, #1920	; 0x780
    37b2:	6025      	str	r5, [r4, #0]
    37b4:	2501      	movs	r5, #1
    37b6:	e036      	b.n	3826 <_scanf_float+0x1ce>
    37b8:	2d03      	cmp	r5, #3
    37ba:	d001      	beq.n	37c0 <_scanf_float+0x168>
    37bc:	2d05      	cmp	r5, #5
    37be:	d151      	bne.n	3864 <_scanf_float+0x20c>
    37c0:	3501      	adds	r5, #1
    37c2:	b2ed      	uxtb	r5, r5
    37c4:	e02f      	b.n	3826 <_scanf_float+0x1ce>
    37c6:	2d02      	cmp	r5, #2
    37c8:	d14c      	bne.n	3864 <_scanf_float+0x20c>
    37ca:	2503      	movs	r5, #3
    37cc:	e02b      	b.n	3826 <_scanf_float+0x1ce>
    37ce:	2d06      	cmp	r5, #6
    37d0:	d148      	bne.n	3864 <_scanf_float+0x20c>
    37d2:	2507      	movs	r5, #7
    37d4:	e027      	b.n	3826 <_scanf_float+0x1ce>
    37d6:	2d07      	cmp	r5, #7
    37d8:	d144      	bne.n	3864 <_scanf_float+0x20c>
    37da:	2508      	movs	r5, #8
    37dc:	e023      	b.n	3826 <_scanf_float+0x1ce>
    37de:	6821      	ldr	r1, [r4, #0]
    37e0:	0588      	lsls	r0, r1, #22
    37e2:	d53f      	bpl.n	3864 <_scanf_float+0x20c>
    37e4:	f421 7020 	bic.w	r0, r1, #640	; 0x280
    37e8:	6020      	str	r0, [r4, #0]
    37ea:	f8cd a010 	str.w	r10, [sp, #16]
    37ee:	e01a      	b.n	3826 <_scanf_float+0x1ce>
    37f0:	6821      	ldr	r1, [r4, #0]
    37f2:	f401 60a0 	and.w	r0, r1, #1280	; 0x500
    37f6:	f5b0 6f80 	cmp.w	r0, #1024	; 0x400
    37fa:	d004      	beq.n	3806 <_scanf_float+0x1ae>
    37fc:	0548      	lsls	r0, r1, #21
    37fe:	d531      	bpl.n	3864 <_scanf_float+0x20c>
    3800:	f1ba 0f00 	cmp.w	r10, #0
    3804:	d035      	beq.n	3872 <_scanf_float+0x21a>
    3806:	0588      	lsls	r0, r1, #22
    3808:	d404      	bmi.n	3814 <_scanf_float+0x1bc>
    380a:	9804      	ldr	r0, [sp, #16]
    380c:	46d9      	mov	r9, r11
    380e:	ebc0 000a 	rsb	r0, r0, r10
    3812:	9005      	str	r0, [sp, #20]
    3814:	f421 61f0 	bic.w	r1, r1, #1920	; 0x780
    3818:	f441 70c0 	orr.w	r0, r1, #384	; 0x180
    381c:	6020      	str	r0, [r4, #0]
    381e:	f04f 0a00 	mov.w	r10, #0
    3822:	e000      	b.n	3826 <_scanf_float+0x1ce>
    3824:	2203      	movs	r2, #3
    3826:	f80b 3b01 	strb.w	r3, [r11], #1
    382a:	68a3      	ldr	r3, [r4, #8]
    382c:	6920      	ldr	r0, [r4, #16]
    382e:	1e59      	subs	r1, r3, #1
    3830:	60a1      	str	r1, [r4, #8]
    3832:	6871      	ldr	r1, [r6, #4]
    3834:	1c43      	adds	r3, r0, #1
    3836:	1e48      	subs	r0, r1, #1
    3838:	2800      	cmp	r0, #0
    383a:	6123      	str	r3, [r4, #16]
    383c:	6070      	str	r0, [r6, #4]
    383e:	dd03      	ble.n	3848 <_scanf_float+0x1f0>
    3840:	6833      	ldr	r3, [r6, #0]
    3842:	1c59      	adds	r1, r3, #1
    3844:	6031      	str	r1, [r6, #0]
    3846:	e72a      	b.n	369e <_scanf_float+0x46>
    3848:	9202      	str	r2, [sp, #8]
    384a:	f8cd c004 	str.w	r12, [sp, #4]
    384e:	f8d4 3180 	ldr.w	r3, [r4, #384]	; 0x180
    3852:	4638      	mov	r0, r7
    3854:	4631      	mov	r1, r6
    3856:	4798      	blx	r3
    3858:	9a02      	ldr	r2, [sp, #8]
    385a:	f8dd c004 	ldr.w	r12, [sp, #4]
    385e:	2800      	cmp	r0, #0
    3860:	f43f af1d 	beq.w	369e <_scanf_float+0x46>
    3864:	f1ba 0f00 	cmp.w	r10, #0
    3868:	d003      	beq.n	3872 <_scanf_float+0x21a>
    386a:	6821      	ldr	r1, [r4, #0]
    386c:	f421 7080 	bic.w	r0, r1, #256	; 0x100
    3870:	6020      	str	r0, [r4, #0]
    3872:	1e53      	subs	r3, r2, #1
    3874:	2b01      	cmp	r3, #1
    3876:	d811      	bhi.n	389c <_scanf_float+0x244>
    3878:	45c3      	cmp	r11, r8
    387a:	465a      	mov	r2, r11
    387c:	d90c      	bls.n	3898 <_scanf_float+0x240>
    387e:	f812 1c01 	ldrb.w	r1, [r2, #-1]
    3882:	f8d4 317c 	ldr.w	r3, [r4, #380]	; 0x17c
    3886:	4638      	mov	r0, r7
    3888:	4632      	mov	r2, r6
    388a:	4798      	blx	r3
    388c:	6921      	ldr	r1, [r4, #16]
    388e:	f10b 3bff 	add.w	r11, r11, #4294967295
    3892:	1e48      	subs	r0, r1, #1
    3894:	6120      	str	r0, [r4, #16]
    3896:	e7ef      	b.n	3878 <_scanf_float+0x220>
    3898:	2001      	movs	r0, #1
    389a:	e0b4      	b.n	3a06 <_scanf_float+0x3ae>
    389c:	1e6a      	subs	r2, r5, #1
    389e:	2a06      	cmp	r2, #6
    38a0:	d82e      	bhi.n	3900 <_scanf_float+0x2a8>
    38a2:	2d02      	cmp	r5, #2
    38a4:	d91c      	bls.n	38e0 <_scanf_float+0x288>
    38a6:	46dc      	mov	r12, r11
    38a8:	ebcb 0105 	rsb	r1, r11, r5
    38ac:	eb01 030c 	add.w	r3, r1, r12
    38b0:	f003 00ff 	and.w	r0, r3, #255	; 0xff
    38b4:	2803      	cmp	r0, #3
    38b6:	d90e      	bls.n	38d6 <_scanf_float+0x27e>
    38b8:	f81c 1d01 	ldrb.w	r1, [r12, #-1]!
    38bc:	f8d4 317c 	ldr.w	r3, [r4, #380]	; 0x17c
    38c0:	f8cd c004 	str.w	r12, [sp, #4]
    38c4:	4638      	mov	r0, r7
    38c6:	4632      	mov	r2, r6
    38c8:	4798      	blx	r3
    38ca:	6921      	ldr	r1, [r4, #16]
    38cc:	f8dd c004 	ldr.w	r12, [sp, #4]
    38d0:	1e48      	subs	r0, r1, #1
    38d2:	6120      	str	r0, [r4, #16]
    38d4:	e7e8      	b.n	38a8 <_scanf_float+0x250>
    38d6:	3d03      	subs	r5, #3
    38d8:	b2ed      	uxtb	r5, r5
    38da:	ebc5 0b0b 	rsb	r11, r5, r11
    38de:	e00f      	b.n	3900 <_scanf_float+0x2a8>
    38e0:	45c3      	cmp	r11, r8
    38e2:	4659      	mov	r1, r11
    38e4:	d9d8      	bls.n	3898 <_scanf_float+0x240>
    38e6:	4632      	mov	r2, r6
    38e8:	f8d4 317c 	ldr.w	r3, [r4, #380]	; 0x17c
    38ec:	4638      	mov	r0, r7
    38ee:	f811 1c01 	ldrb.w	r1, [r1, #-1]
    38f2:	4798      	blx	r3
    38f4:	6920      	ldr	r0, [r4, #16]
    38f6:	f10b 3bff 	add.w	r11, r11, #4294967295
    38fa:	1e42      	subs	r2, r0, #1
    38fc:	6122      	str	r2, [r4, #16]
    38fe:	e7ef      	b.n	38e0 <_scanf_float+0x288>
    3900:	6821      	ldr	r1, [r4, #0]
    3902:	05ca      	lsls	r2, r1, #23
    3904:	d52e      	bpl.n	3964 <_scanf_float+0x30c>
    3906:	054b      	lsls	r3, r1, #21
    3908:	d50f      	bpl.n	392a <_scanf_float+0x2d2>
    390a:	45c3      	cmp	r11, r8
    390c:	4659      	mov	r1, r11
    390e:	d9c3      	bls.n	3898 <_scanf_float+0x240>
    3910:	4632      	mov	r2, r6
    3912:	f8d4 317c 	ldr.w	r3, [r4, #380]	; 0x17c
    3916:	4638      	mov	r0, r7
    3918:	f811 1c01 	ldrb.w	r1, [r1, #-1]
    391c:	4798      	blx	r3
    391e:	6920      	ldr	r0, [r4, #16]
    3920:	f10b 3bff 	add.w	r11, r11, #4294967295
    3924:	1e42      	subs	r2, r0, #1
    3926:	6122      	str	r2, [r4, #16]
    3928:	e7ef      	b.n	390a <_scanf_float+0x2b2>
    392a:	f81b 1c01 	ldrb.w	r1, [r11, #-1]
    392e:	6922      	ldr	r2, [r4, #16]
    3930:	f10b 35ff 	add.w	r5, r11, #4294967295
    3934:	1e53      	subs	r3, r2, #1
    3936:	2965      	cmp	r1, #101	; 0x65
    3938:	6123      	str	r3, [r4, #16]
    393a:	d00d      	beq.n	3958 <_scanf_float+0x300>
    393c:	2945      	cmp	r1, #69	; 0x45
    393e:	d00b      	beq.n	3958 <_scanf_float+0x300>
    3940:	f8d4 517c 	ldr.w	r5, [r4, #380]	; 0x17c
    3944:	4632      	mov	r2, r6
    3946:	4638      	mov	r0, r7
    3948:	47a8      	blx	r5
    394a:	6920      	ldr	r0, [r4, #16]
    394c:	f81b 1c02 	ldrb.w	r1, [r11, #-2]
    3950:	1e42      	subs	r2, r0, #1
    3952:	f1ab 0502 	sub.w	r5, r11, #2
    3956:	6122      	str	r2, [r4, #16]
    3958:	f8d4 317c 	ldr.w	r3, [r4, #380]	; 0x17c
    395c:	4638      	mov	r0, r7
    395e:	4632      	mov	r2, r6
    3960:	4798      	blx	r3
    3962:	46ab      	mov	r11, r5
    3964:	6821      	ldr	r1, [r4, #0]
    3966:	f011 0210 	ands.w	r2, r1, #16
    396a:	d14b      	bne.n	3a04 <_scanf_float+0x3ac>
    396c:	f88b 2000 	strb.w	r2, [r11]
    3970:	6826      	ldr	r6, [r4, #0]
    3972:	f406 65c0 	and.w	r5, r6, #1536	; 0x600
    3976:	f5b5 6f80 	cmp.w	r5, #1024	; 0x400
    397a:	d106      	bne.n	398a <_scanf_float+0x332>
    397c:	9804      	ldr	r0, [sp, #16]
    397e:	ebc0 030a 	rsb	r3, r0, r10
    3982:	425a      	negs	r2, r3
    3984:	b1a3      	cbz	r3, 39b0 <_scanf_float+0x358>
    3986:	46d9      	mov	r9, r11
    3988:	e008      	b.n	399c <_scanf_float+0x344>
    398a:	9e05      	ldr	r6, [sp, #20]
    398c:	b186      	cbz	r6, 39b0 <_scanf_float+0x358>
    398e:	4638      	mov	r0, r7
    3990:	f109 0101 	add.w	r1, r9, #1
    3994:	230a      	movs	r3, #10
    3996:	f002 fba7 	bl	60e8 <_strtol_r>
    399a:	1b82      	subs	r2, r0, r6
    399c:	f204 116f 	addw	r1, r4, #367	; 0x16f
    39a0:	4589      	cmp	r9, r1
    39a2:	bf28      	it	cs
    39a4:	f504 79b7 	addcs.w	r9, r4, #366	; 0x16e
    39a8:	4648      	mov	r0, r9
    39aa:	4918      	ldr	r1, [pc, #96]	; (3a0c <_scanf_float+0x3b4>)
    39ac:	f001 fdda 	bl	5564 <siprintf>
    39b0:	2200      	movs	r2, #0
    39b2:	4638      	mov	r0, r7
    39b4:	4641      	mov	r1, r8
    39b6:	f001 fe0f 	bl	55d8 <_strtod_r>
    39ba:	6822      	ldr	r2, [r4, #0]
    39bc:	9d03      	ldr	r5, [sp, #12]
    39be:	f012 0f02 	tst.w	r2, #2
    39c2:	4606      	mov	r6, r0
    39c4:	460f      	mov	r7, r1
    39c6:	682b      	ldr	r3, [r5, #0]
    39c8:	d002      	beq.n	39d0 <_scanf_float+0x378>
    39ca:	1d18      	adds	r0, r3, #4
    39cc:	6028      	str	r0, [r5, #0]
    39ce:	e006      	b.n	39de <_scanf_float+0x386>
    39d0:	9d03      	ldr	r5, [sp, #12]
    39d2:	f012 0f04 	tst.w	r2, #4
    39d6:	f103 0204 	add.w	r2, r3, #4
    39da:	602a      	str	r2, [r5, #0]
    39dc:	d003      	beq.n	39e6 <_scanf_float+0x38e>
    39de:	6819      	ldr	r1, [r3, #0]
    39e0:	e9c1 6700 	strd	r6, r7, [r1]
    39e4:	e00b      	b.n	39fe <_scanf_float+0x3a6>
    39e6:	681d      	ldr	r5, [r3, #0]
    39e8:	f001 fd86 	bl	54f8 <__fpclassifyd>
    39ec:	b910      	cbnz	r0, 39f4 <_scanf_float+0x39c>
    39ee:	f001 fdb5 	bl	555c <nanf>
    39f2:	e003      	b.n	39fc <_scanf_float+0x3a4>
    39f4:	4630      	mov	r0, r6
    39f6:	4639      	mov	r1, r7
    39f8:	f7fe fbfe 	bl	21f8 <__aeabi_d2f>
    39fc:	6028      	str	r0, [r5, #0]
    39fe:	68e3      	ldr	r3, [r4, #12]
    3a00:	1c5a      	adds	r2, r3, #1
    3a02:	60e2      	str	r2, [r4, #12]
    3a04:	2000      	movs	r0, #0
    3a06:	b007      	add	sp, #28
    3a08:	e8bd 8ff0 	ldmia.w	sp!, {r4, r5, r6, r7, r8, r9, r10, r11, pc}
    3a0c:	00006ff3 	.word	0x00006ff3

00003a10 <__swbuf_r>:
    3a10:	b570      	push	{r4, r5, r6, lr}
    3a12:	460e      	mov	r6, r1
    3a14:	4614      	mov	r4, r2
    3a16:	4605      	mov	r5, r0
    3a18:	b118      	cbz	r0, 3a22 <__swbuf_r+0x12>
    3a1a:	6983      	ldr	r3, [r0, #24]
    3a1c:	b90b      	cbnz	r3, 3a22 <__swbuf_r+0x12>
    3a1e:	f001 f80f 	bl	4a40 <__sinit>
    3a22:	4825      	ldr	r0, [pc, #148]	; (3ab8 <__swbuf_r+0xa8>)
    3a24:	4284      	cmp	r4, r0
    3a26:	d101      	bne.n	3a2c <__swbuf_r+0x1c>
    3a28:	686c      	ldr	r4, [r5, #4]
    3a2a:	e008      	b.n	3a3e <__swbuf_r+0x2e>
    3a2c:	4923      	ldr	r1, [pc, #140]	; (3abc <__swbuf_r+0xac>)
    3a2e:	428c      	cmp	r4, r1
    3a30:	d101      	bne.n	3a36 <__swbuf_r+0x26>
    3a32:	68ac      	ldr	r4, [r5, #8]
    3a34:	e003      	b.n	3a3e <__swbuf_r+0x2e>
    3a36:	4a22      	ldr	r2, [pc, #136]	; (3ac0 <__swbuf_r+0xb0>)
    3a38:	4294      	cmp	r4, r2
    3a3a:	bf08      	it	eq
    3a3c:	68ec      	ldreq	r4, [r5, #12]
    3a3e:	89a0      	ldrh	r0, [r4, #12]
    3a40:	69a3      	ldr	r3, [r4, #24]
    3a42:	f000 0108 	and.w	r1, r0, #8
    3a46:	b20a      	sxth	r2, r1
    3a48:	60a3      	str	r3, [r4, #8]
    3a4a:	b10a      	cbz	r2, 3a50 <__swbuf_r+0x40>
    3a4c:	6923      	ldr	r3, [r4, #16]
    3a4e:	b95b      	cbnz	r3, 3a68 <__swbuf_r+0x58>
    3a50:	4628      	mov	r0, r5
    3a52:	4621      	mov	r1, r4
    3a54:	f000 f848 	bl	3ae8 <__swsetup_r>
    3a58:	b130      	cbz	r0, 3a68 <__swbuf_r+0x58>
    3a5a:	89a6      	ldrh	r6, [r4, #12]
    3a5c:	2009      	movs	r0, #9
    3a5e:	f046 0240 	orr.w	r2, r6, #64	; 0x40
    3a62:	81a2      	strh	r2, [r4, #12]
    3a64:	6028      	str	r0, [r5, #0]
    3a66:	e00b      	b.n	3a80 <__swbuf_r+0x70>
    3a68:	6820      	ldr	r0, [r4, #0]
    3a6a:	6921      	ldr	r1, [r4, #16]
    3a6c:	6962      	ldr	r2, [r4, #20]
    3a6e:	1a40      	subs	r0, r0, r1
    3a70:	4290      	cmp	r0, r2
    3a72:	b2f6      	uxtb	r6, r6
    3a74:	db07      	blt.n	3a86 <__swbuf_r+0x76>
    3a76:	4628      	mov	r0, r5
    3a78:	4621      	mov	r1, r4
    3a7a:	f000 fee9 	bl	4850 <_fflush_r>
    3a7e:	b110      	cbz	r0, 3a86 <__swbuf_r+0x76>
    3a80:	f04f 36ff 	mov.w	r6, #4294967295
    3a84:	e015      	b.n	3ab2 <__swbuf_r+0xa2>
    3a86:	68a3      	ldr	r3, [r4, #8]
    3a88:	6822      	ldr	r2, [r4, #0]
    3a8a:	1e59      	subs	r1, r3, #1
    3a8c:	60a1      	str	r1, [r4, #8]
    3a8e:	f802 6b01 	strb.w	r6, [r2], #1
    3a92:	6963      	ldr	r3, [r4, #20]
    3a94:	3001      	adds	r0, #1
    3a96:	4298      	cmp	r0, r3
    3a98:	6022      	str	r2, [r4, #0]
    3a9a:	d004      	beq.n	3aa6 <__swbuf_r+0x96>
    3a9c:	89a1      	ldrh	r1, [r4, #12]
    3a9e:	07cb      	lsls	r3, r1, #31
    3aa0:	d507      	bpl.n	3ab2 <__swbuf_r+0xa2>
    3aa2:	2e0a      	cmp	r6, #10
    3aa4:	d105      	bne.n	3ab2 <__swbuf_r+0xa2>
    3aa6:	4628      	mov	r0, r5
    3aa8:	4621      	mov	r1, r4
    3aaa:	f000 fed1 	bl	4850 <_fflush_r>
    3aae:	2800      	cmp	r0, #0
    3ab0:	d1e6      	bne.n	3a80 <__swbuf_r+0x70>
    3ab2:	4630      	mov	r0, r6
    3ab4:	bd70      	pop	{r4, r5, r6, pc}
    3ab6:	bf00      	nop
    3ab8:	00007108 	.word	0x00007108
    3abc:	00007128 	.word	0x00007128
    3ac0:	00007148 	.word	0x00007148

00003ac4 <_write_r>:
    3ac4:	b538      	push	{r3, r4, r5, lr}
    3ac6:	4c07      	ldr	r4, [pc, #28]	; (3ae4 <_write_r+0x20>)
    3ac8:	4605      	mov	r5, r0
    3aca:	2000      	movs	r0, #0
    3acc:	6020      	str	r0, [r4, #0]
    3ace:	4608      	mov	r0, r1
    3ad0:	4611      	mov	r1, r2
    3ad2:	461a      	mov	r2, r3
    3ad4:	f7fd f8c0 	bl	c58 <_write>
    3ad8:	1c43      	adds	r3, r0, #1
    3ada:	d102      	bne.n	3ae2 <_write_r+0x1e>
    3adc:	6823      	ldr	r3, [r4, #0]
    3ade:	b103      	cbz	r3, 3ae2 <_write_r+0x1e>
    3ae0:	602b      	str	r3, [r5, #0]
    3ae2:	bd38      	pop	{r3, r4, r5, pc}
    3ae4:	1000068c 	.word	0x1000068c

00003ae8 <__swsetup_r>:
    3ae8:	4a36      	ldr	r2, [pc, #216]	; (3bc4 <__swsetup_r+0xdc>)
    3aea:	b570      	push	{r4, r5, r6, lr}
    3aec:	4605      	mov	r5, r0
    3aee:	6810      	ldr	r0, [r2, #0]
    3af0:	460c      	mov	r4, r1
    3af2:	4616      	mov	r6, r2
    3af4:	b118      	cbz	r0, 3afe <__swsetup_r+0x16>
    3af6:	6981      	ldr	r1, [r0, #24]
    3af8:	b909      	cbnz	r1, 3afe <__swsetup_r+0x16>
    3afa:	f000 ffa1 	bl	4a40 <__sinit>
    3afe:	4b32      	ldr	r3, [pc, #200]	; (3bc8 <__swsetup_r+0xe0>)
    3b00:	429c      	cmp	r4, r3
    3b02:	d102      	bne.n	3b0a <__swsetup_r+0x22>
    3b04:	6832      	ldr	r2, [r6, #0]
    3b06:	6854      	ldr	r4, [r2, #4]
    3b08:	e00c      	b.n	3b24 <__swsetup_r+0x3c>
    3b0a:	4830      	ldr	r0, [pc, #192]	; (3bcc <__swsetup_r+0xe4>)
    3b0c:	4284      	cmp	r4, r0
    3b0e:	d103      	bne.n	3b18 <__swsetup_r+0x30>
    3b10:	4b2c      	ldr	r3, [pc, #176]	; (3bc4 <__swsetup_r+0xdc>)
    3b12:	6818      	ldr	r0, [r3, #0]
    3b14:	6884      	ldr	r4, [r0, #8]
    3b16:	e005      	b.n	3b24 <__swsetup_r+0x3c>
    3b18:	4a2d      	ldr	r2, [pc, #180]	; (3bd0 <__swsetup_r+0xe8>)
    3b1a:	4294      	cmp	r4, r2
    3b1c:	d102      	bne.n	3b24 <__swsetup_r+0x3c>
    3b1e:	4c29      	ldr	r4, [pc, #164]	; (3bc4 <__swsetup_r+0xdc>)
    3b20:	6821      	ldr	r1, [r4, #0]
    3b22:	68cc      	ldr	r4, [r1, #12]
    3b24:	89a1      	ldrh	r1, [r4, #12]
    3b26:	f001 0308 	and.w	r3, r1, #8
    3b2a:	b218      	sxth	r0, r3
    3b2c:	bb08      	cbnz	r0, 3b72 <__swsetup_r+0x8a>
    3b2e:	f001 0210 	and.w	r2, r1, #16
    3b32:	b213      	sxth	r3, r2
    3b34:	b913      	cbnz	r3, 3b3c <__swsetup_r+0x54>
    3b36:	f04f 30ff 	mov.w	r0, #4294967295
    3b3a:	bd70      	pop	{r4, r5, r6, pc}
    3b3c:	f001 0104 	and.w	r1, r1, #4
    3b40:	b208      	sxth	r0, r1
    3b42:	b190      	cbz	r0, 3b6a <__swsetup_r+0x82>
    3b44:	6b61      	ldr	r1, [r4, #52]	; 0x34
    3b46:	b141      	cbz	r1, 3b5a <__swsetup_r+0x72>
    3b48:	f104 0244 	add.w	r2, r4, #68	; 0x44
    3b4c:	4291      	cmp	r1, r2
    3b4e:	d002      	beq.n	3b56 <__swsetup_r+0x6e>
    3b50:	4628      	mov	r0, r5
    3b52:	f000 ffdd 	bl	4b10 <_free_r>
    3b56:	2300      	movs	r3, #0
    3b58:	6363      	str	r3, [r4, #52]	; 0x34
    3b5a:	89a1      	ldrh	r1, [r4, #12]
    3b5c:	6923      	ldr	r3, [r4, #16]
    3b5e:	f021 0024 	bic.w	r0, r1, #36	; 0x24
    3b62:	2200      	movs	r2, #0
    3b64:	81a0      	strh	r0, [r4, #12]
    3b66:	6062      	str	r2, [r4, #4]
    3b68:	6023      	str	r3, [r4, #0]
    3b6a:	89a1      	ldrh	r1, [r4, #12]
    3b6c:	f041 0008 	orr.w	r0, r1, #8
    3b70:	81a0      	strh	r0, [r4, #12]
    3b72:	6922      	ldr	r2, [r4, #16]
    3b74:	b94a      	cbnz	r2, 3b8a <__swsetup_r+0xa2>
    3b76:	89a3      	ldrh	r3, [r4, #12]
    3b78:	f403 7120 	and.w	r1, r3, #640	; 0x280
    3b7c:	f5b1 7f00 	cmp.w	r1, #512	; 0x200
    3b80:	d003      	beq.n	3b8a <__swsetup_r+0xa2>
    3b82:	4628      	mov	r0, r5
    3b84:	4621      	mov	r1, r4
    3b86:	f001 f81d 	bl	4bc4 <__smakebuf_r>
    3b8a:	89a0      	ldrh	r0, [r4, #12]
    3b8c:	f010 0201 	ands.w	r2, r0, #1
    3b90:	d005      	beq.n	3b9e <__swsetup_r+0xb6>
    3b92:	6963      	ldr	r3, [r4, #20]
    3b94:	2200      	movs	r2, #0
    3b96:	4259      	negs	r1, r3
    3b98:	60a2      	str	r2, [r4, #8]
    3b9a:	61a1      	str	r1, [r4, #24]
    3b9c:	e007      	b.n	3bae <__swsetup_r+0xc6>
    3b9e:	f000 0302 	and.w	r3, r0, #2
    3ba2:	b219      	sxth	r1, r3
    3ba4:	b909      	cbnz	r1, 3baa <__swsetup_r+0xc2>
    3ba6:	6960      	ldr	r0, [r4, #20]
    3ba8:	e000      	b.n	3bac <__swsetup_r+0xc4>
    3baa:	4610      	mov	r0, r2
    3bac:	60a0      	str	r0, [r4, #8]
    3bae:	6920      	ldr	r0, [r4, #16]
    3bb0:	b930      	cbnz	r0, 3bc0 <__swsetup_r+0xd8>
    3bb2:	89a2      	ldrh	r2, [r4, #12]
    3bb4:	f002 0380 	and.w	r3, r2, #128	; 0x80
    3bb8:	b218      	sxth	r0, r3
    3bba:	2800      	cmp	r0, #0
    3bbc:	d1bb      	bne.n	3b36 <__swsetup_r+0x4e>
    3bbe:	bd70      	pop	{r4, r5, r6, pc}
    3bc0:	2000      	movs	r0, #0
    3bc2:	bd70      	pop	{r4, r5, r6, pc}
    3bc4:	100004d8 	.word	0x100004d8
    3bc8:	00007108 	.word	0x00007108
    3bcc:	00007128 	.word	0x00007128
    3bd0:	00007148 	.word	0x00007148

00003bd4 <_close_r>:
    3bd4:	b538      	push	{r3, r4, r5, lr}
    3bd6:	4c06      	ldr	r4, [pc, #24]	; (3bf0 <_close_r+0x1c>)
    3bd8:	2300      	movs	r3, #0
    3bda:	4605      	mov	r5, r0
    3bdc:	4608      	mov	r0, r1
    3bde:	6023      	str	r3, [r4, #0]
    3be0:	f7fd f824 	bl	c2c <_close>
    3be4:	1c43      	adds	r3, r0, #1
    3be6:	d102      	bne.n	3bee <_close_r+0x1a>
    3be8:	6821      	ldr	r1, [r4, #0]
    3bea:	b101      	cbz	r1, 3bee <_close_r+0x1a>
    3bec:	6029      	str	r1, [r5, #0]
    3bee:	bd38      	pop	{r3, r4, r5, pc}
    3bf0:	1000068c 	.word	0x1000068c

00003bf4 <quorem>:
    3bf4:	e92d 4ff7 	stmdb	sp!, {r0, r1, r2, r4, r5, r6, r7, r8, r9, r10, r11, lr}
    3bf8:	690b      	ldr	r3, [r1, #16]
    3bfa:	6902      	ldr	r2, [r0, #16]
    3bfc:	4605      	mov	r5, r0
    3bfe:	429a      	cmp	r2, r3
    3c00:	f2c0 8082 	blt.w	3d08 <quorem+0x114>
    3c04:	1cd8      	adds	r0, r3, #3
    3c06:	0086      	lsls	r6, r0, #2
    3c08:	198a      	adds	r2, r1, r6
    3c0a:	6850      	ldr	r0, [r2, #4]
    3c0c:	1e5c      	subs	r4, r3, #1
    3c0e:	19ab      	adds	r3, r5, r6
    3c10:	f102 0904 	add.w	r9, r2, #4
    3c14:	685a      	ldr	r2, [r3, #4]
    3c16:	1c46      	adds	r6, r0, #1
    3c18:	fbb2 f6f6 	udiv	r6, r2, r6
    3c1c:	f101 0814 	add.w	r8, r1, #20
    3c20:	f105 0714 	add.w	r7, r5, #20
    3c24:	2e00      	cmp	r6, #0
    3c26:	d03d      	beq.n	3ca4 <quorem+0xb0>
    3c28:	2000      	movs	r0, #0
    3c2a:	463a      	mov	r2, r7
    3c2c:	f8cd 8004 	str.w	r8, [sp, #4]
    3c30:	4686      	mov	lr, r0
    3c32:	9b01      	ldr	r3, [sp, #4]
    3c34:	f853 cb04 	ldr.w	r12, [r3], #4
    3c38:	fa1f fa8c 	uxth.w	r10, r12
    3c3c:	fb06 0a0a 	mla	r10, r6, r10, r0
    3c40:	ea4f 401c 	mov.w	r0, r12, lsr #16
    3c44:	9301      	str	r3, [sp, #4]
    3c46:	fb06 f300 	mul.w	r3, r6, r0
    3c4a:	eb03 4c1a 	add.w	r12, r3, r10, lsr #16
    3c4e:	6813      	ldr	r3, [r2, #0]
    3c50:	ea4f 401c 	mov.w	r0, r12, lsr #16
    3c54:	fa1f fb83 	uxth.w	r11, r3
    3c58:	44de      	add	lr, r11
    3c5a:	fa1f fc8c 	uxth.w	r12, r12
    3c5e:	fa1f fa8a 	uxth.w	r10, r10
    3c62:	ebca 0a0e 	rsb	r10, r10, lr
    3c66:	ebcc 4313 	rsb	r3, r12, r3, lsr #16
    3c6a:	eb03 4c2a 	add.w	r12, r3, r10, asr #16
    3c6e:	9b01      	ldr	r3, [sp, #4]
    3c70:	fa1f fa8a 	uxth.w	r10, r10
    3c74:	ea4f 4e2c 	mov.w	lr, r12, asr #16
    3c78:	454b      	cmp	r3, r9
    3c7a:	ea4a 4c0c 	orr.w	r12, r10, r12, lsl #16
    3c7e:	f842 cb04 	str.w	r12, [r2], #4
    3c82:	d9d6      	bls.n	3c32 <quorem+0x3e>
    3c84:	1d22      	adds	r2, r4, #4
    3c86:	eb05 0382 	add.w	r3, r5, r2, lsl #2
    3c8a:	6858      	ldr	r0, [r3, #4]
    3c8c:	b950      	cbnz	r0, 3ca4 <quorem+0xb0>
    3c8e:	42bb      	cmp	r3, r7
    3c90:	461a      	mov	r2, r3
    3c92:	d801      	bhi.n	3c98 <quorem+0xa4>
    3c94:	612c      	str	r4, [r5, #16]
    3c96:	e005      	b.n	3ca4 <quorem+0xb0>
    3c98:	6810      	ldr	r0, [r2, #0]
    3c9a:	3b04      	subs	r3, #4
    3c9c:	2800      	cmp	r0, #0
    3c9e:	d1f9      	bne.n	3c94 <quorem+0xa0>
    3ca0:	3c01      	subs	r4, #1
    3ca2:	e7f4      	b.n	3c8e <quorem+0x9a>
    3ca4:	4628      	mov	r0, r5
    3ca6:	f001 fa45 	bl	5134 <__mcmp>
    3caa:	2800      	cmp	r0, #0
    3cac:	db2a      	blt.n	3d04 <quorem+0x110>
    3cae:	3601      	adds	r6, #1
    3cb0:	463b      	mov	r3, r7
    3cb2:	2000      	movs	r0, #0
    3cb4:	f858 eb04 	ldr.w	lr, [r8], #4
    3cb8:	681a      	ldr	r2, [r3, #0]
    3cba:	fa1f f18e 	uxth.w	r1, lr
    3cbe:	fa1f fa82 	uxth.w	r10, r2
    3cc2:	ebc1 010a 	rsb	r1, r1, r10
    3cc6:	ea4f 4c1e 	mov.w	r12, lr, lsr #16
    3cca:	1809      	adds	r1, r1, r0
    3ccc:	ebcc 4012 	rsb	r0, r12, r2, lsr #16
    3cd0:	eb00 4221 	add.w	r2, r0, r1, asr #16
    3cd4:	b289      	uxth	r1, r1
    3cd6:	1410      	asrs	r0, r2, #16
    3cd8:	ea41 4202 	orr.w	r2, r1, r2, lsl #16
    3cdc:	45c8      	cmp	r8, r9
    3cde:	f843 2b04 	str.w	r2, [r3], #4
    3ce2:	d9e7      	bls.n	3cb4 <quorem+0xc0>
    3ce4:	1d23      	adds	r3, r4, #4
    3ce6:	eb05 0383 	add.w	r3, r5, r3, lsl #2
    3cea:	6858      	ldr	r0, [r3, #4]
    3cec:	b950      	cbnz	r0, 3d04 <quorem+0x110>
    3cee:	42bb      	cmp	r3, r7
    3cf0:	4619      	mov	r1, r3
    3cf2:	d801      	bhi.n	3cf8 <quorem+0x104>
    3cf4:	612c      	str	r4, [r5, #16]
    3cf6:	e005      	b.n	3d04 <quorem+0x110>
    3cf8:	680a      	ldr	r2, [r1, #0]
    3cfa:	3b04      	subs	r3, #4
    3cfc:	2a00      	cmp	r2, #0
    3cfe:	d1f9      	bne.n	3cf4 <quorem+0x100>
    3d00:	3c01      	subs	r4, #1
    3d02:	e7f4      	b.n	3cee <quorem+0xfa>
    3d04:	4630      	mov	r0, r6
    3d06:	e000      	b.n	3d0a <quorem+0x116>
    3d08:	2000      	movs	r0, #0
    3d0a:	e8bd 8ffe 	ldmia.w	sp!, {r1, r2, r3, r4, r5, r6, r7, r8, r9, r10, r11, pc}
	...

00003d10 <_dtoa_r>:
    3d10:	e92d 4ff0 	stmdb	sp!, {r4, r5, r6, r7, r8, r9, r10, r11, lr}
    3d14:	6a45      	ldr	r5, [r0, #36]	; 0x24
    3d16:	b099      	sub	sp, #100	; 0x64
    3d18:	4683      	mov	r11, r0
    3d1a:	9c25      	ldr	r4, [sp, #148]	; 0x94
    3d1c:	e9cd 2304 	strd	r2, r3, [sp, #16]
    3d20:	b945      	cbnz	r5, 3d34 <_dtoa_r+0x24>
    3d22:	2010      	movs	r0, #16
    3d24:	f7fe fdea 	bl	28fc <malloc>
    3d28:	f8cb 0024 	str.w	r0, [r11, #36]	; 0x24
    3d2c:	6045      	str	r5, [r0, #4]
    3d2e:	6085      	str	r5, [r0, #8]
    3d30:	6005      	str	r5, [r0, #0]
    3d32:	60c5      	str	r5, [r0, #12]
    3d34:	f8db 3024 	ldr.w	r3, [r11, #36]	; 0x24
    3d38:	6819      	ldr	r1, [r3, #0]
    3d3a:	b161      	cbz	r1, 3d56 <_dtoa_r+0x46>
    3d3c:	6858      	ldr	r0, [r3, #4]
    3d3e:	2201      	movs	r2, #1
    3d40:	fa02 f600 	lsl.w	r6, r2, r0
    3d44:	6048      	str	r0, [r1, #4]
    3d46:	608e      	str	r6, [r1, #8]
    3d48:	4658      	mov	r0, r11
    3d4a:	f000 ffd2 	bl	4cf2 <_Bfree>
    3d4e:	f8db 1024 	ldr.w	r1, [r11, #36]	; 0x24
    3d52:	2700      	movs	r7, #0
    3d54:	600f      	str	r7, [r1, #0]
    3d56:	9b05      	ldr	r3, [sp, #20]
    3d58:	2b00      	cmp	r3, #0
    3d5a:	da05      	bge.n	3d68 <_dtoa_r+0x58>
    3d5c:	2201      	movs	r2, #1
    3d5e:	f023 4600 	bic.w	r6, r3, #2147483648	; 0x80000000
    3d62:	6022      	str	r2, [r4, #0]
    3d64:	9605      	str	r6, [sp, #20]
    3d66:	e001      	b.n	3d6c <_dtoa_r+0x5c>
    3d68:	2000      	movs	r0, #0
    3d6a:	6020      	str	r0, [r4, #0]
    3d6c:	9f05      	ldr	r7, [sp, #20]
    3d6e:	499a      	ldr	r1, [pc, #616]	; (3fd8 <_dtoa_r+0x2c8>)
    3d70:	4b99      	ldr	r3, [pc, #612]	; (3fd8 <_dtoa_r+0x2c8>)
    3d72:	4039      	ands	r1, r7
    3d74:	4299      	cmp	r1, r3
    3d76:	d11c      	bne.n	3db2 <_dtoa_r+0xa2>
    3d78:	9924      	ldr	r1, [sp, #144]	; 0x90
    3d7a:	9b04      	ldr	r3, [sp, #16]
    3d7c:	f242 720f 	movw	r2, #9999	; 0x270f
    3d80:	600a      	str	r2, [r1, #0]
    3d82:	b93b      	cbnz	r3, 3d94 <_dtoa_r+0x84>
    3d84:	4e95      	ldr	r6, [pc, #596]	; (3fdc <_dtoa_r+0x2cc>)
    3d86:	4896      	ldr	r0, [pc, #600]	; (3fe0 <_dtoa_r+0x2d0>)
    3d88:	f3c7 0713 	ubfx	r7, r7, #0, #20
    3d8c:	2f00      	cmp	r7, #0
    3d8e:	bf18      	it	ne
    3d90:	4630      	movne	r0, r6
    3d92:	e000      	b.n	3d96 <_dtoa_r+0x86>
    3d94:	4891      	ldr	r0, [pc, #580]	; (3fdc <_dtoa_r+0x2cc>)
    3d96:	9e26      	ldr	r6, [sp, #152]	; 0x98
    3d98:	2e00      	cmp	r6, #0
    3d9a:	f000 8552 	beq.w	4842 <_dtoa_r+0xb32>
    3d9e:	78c2      	ldrb	r2, [r0, #3]
    3da0:	b112      	cbz	r2, 3da8 <_dtoa_r+0x98>
    3da2:	f100 0108 	add.w	r1, r0, #8
    3da6:	e000      	b.n	3daa <_dtoa_r+0x9a>
    3da8:	1cc1      	adds	r1, r0, #3
    3daa:	9e26      	ldr	r6, [sp, #152]	; 0x98
    3dac:	6031      	str	r1, [r6, #0]
    3dae:	f000 bd48 	b.w	4842 <_dtoa_r+0xb32>
    3db2:	e9dd 4504 	ldrd	r4, r5, [sp, #16]
    3db6:	2200      	movs	r2, #0
    3db8:	4620      	mov	r0, r4
    3dba:	4629      	mov	r1, r5
    3dbc:	2300      	movs	r3, #0
    3dbe:	f7fe f9c1 	bl	2144 <__aeabi_dcmpeq>
    3dc2:	b158      	cbz	r0, 3ddc <_dtoa_r+0xcc>
    3dc4:	9e24      	ldr	r6, [sp, #144]	; 0x90
    3dc6:	2301      	movs	r3, #1
    3dc8:	6033      	str	r3, [r6, #0]
    3dca:	9e26      	ldr	r6, [sp, #152]	; 0x98
    3dcc:	2e00      	cmp	r6, #0
    3dce:	f000 8535 	beq.w	483c <_dtoa_r+0xb2c>
    3dd2:	4884      	ldr	r0, [pc, #528]	; (3fe4 <_dtoa_r+0x2d4>)
    3dd4:	6030      	str	r0, [r6, #0]
    3dd6:	3801      	subs	r0, #1
    3dd8:	f000 bd33 	b.w	4842 <_dtoa_r+0xb32>
    3ddc:	a817      	add	r0, sp, #92	; 0x5c
    3dde:	aa16      	add	r2, sp, #88	; 0x58
    3de0:	9000      	str	r0, [sp, #0]
    3de2:	9201      	str	r2, [sp, #4]
    3de4:	4658      	mov	r0, r11
    3de6:	4622      	mov	r2, r4
    3de8:	462b      	mov	r3, r5
    3dea:	f001 fa97 	bl	531c <__d2b>
    3dee:	f3c7 560a 	ubfx	r6, r7, #20, #11
    3df2:	4682      	mov	r10, r0
    3df4:	b166      	cbz	r6, 3e10 <_dtoa_r+0x100>
    3df6:	4620      	mov	r0, r4
    3df8:	f025 447f 	bic.w	r4, r5, #4278190080	; 0xff000000
    3dfc:	f424 0570 	bic.w	r5, r4, #15728640	; 0xf00000
    3e00:	f045 517f 	orr.w	r1, r5, #1069547520	; 0x3fc00000
    3e04:	f441 1140 	orr.w	r1, r1, #3145728	; 0x300000
    3e08:	f2a6 36ff 	subw	r6, r6, #1023	; 0x3ff
    3e0c:	2200      	movs	r2, #0
    3e0e:	e01c      	b.n	3e4a <_dtoa_r+0x13a>
    3e10:	9c17      	ldr	r4, [sp, #92]	; 0x5c
    3e12:	9d16      	ldr	r5, [sp, #88]	; 0x58
    3e14:	f46f 6182 	mvn.w	r1, #1040	; 0x410
    3e18:	192e      	adds	r6, r5, r4
    3e1a:	428e      	cmp	r6, r1
    3e1c:	db0a      	blt.n	3e34 <_dtoa_r+0x124>
    3e1e:	4972      	ldr	r1, [pc, #456]	; (3fe8 <_dtoa_r+0x2d8>)
    3e20:	9d04      	ldr	r5, [sp, #16]
    3e22:	f206 4412 	addw	r4, r6, #1042	; 0x412
    3e26:	1b8b      	subs	r3, r1, r6
    3e28:	fa25 f004 	lsr.w	r0, r5, r4
    3e2c:	fa07 f703 	lsl.w	r7, r7, r3
    3e30:	4338      	orrs	r0, r7
    3e32:	e004      	b.n	3e3e <_dtoa_r+0x12e>
    3e34:	4b6d      	ldr	r3, [pc, #436]	; (3fec <_dtoa_r+0x2dc>)
    3e36:	9a04      	ldr	r2, [sp, #16]
    3e38:	1b98      	subs	r0, r3, r6
    3e3a:	fa02 f000 	lsl.w	r0, r2, r0
    3e3e:	f7fd fea3 	bl	1b88 <__aeabi_ui2d>
    3e42:	3e01      	subs	r6, #1
    3e44:	f1a1 71f8 	sub.w	r1, r1, #32505856	; 0x1f00000
    3e48:	2201      	movs	r2, #1
    3e4a:	9215      	str	r2, [sp, #84]	; 0x54
    3e4c:	4b68      	ldr	r3, [pc, #416]	; (3ff0 <_dtoa_r+0x2e0>)
    3e4e:	2200      	movs	r2, #0
    3e50:	f7fd fd5c 	bl	190c <__aeabi_dsub>
    3e54:	a35a      	add	r3, pc, #360	; (adr r3, 3fc0 <_dtoa_r+0x2b0>)
    3e56:	e9d3 2300 	ldrd	r2, r3, [r3]
    3e5a:	f7fd ff0b 	bl	1c74 <__aeabi_dmul>
    3e5e:	a35a      	add	r3, pc, #360	; (adr r3, 3fc8 <_dtoa_r+0x2b8>)
    3e60:	e9d3 2300 	ldrd	r2, r3, [r3]
    3e64:	f7fd fd54 	bl	1910 <__adddf3>
    3e68:	4604      	mov	r4, r0
    3e6a:	4630      	mov	r0, r6
    3e6c:	460d      	mov	r5, r1
    3e6e:	f7fd fe9b 	bl	1ba8 <__aeabi_i2d>
    3e72:	a357      	add	r3, pc, #348	; (adr r3, 3fd0 <_dtoa_r+0x2c0>)
    3e74:	e9d3 2300 	ldrd	r2, r3, [r3]
    3e78:	f7fd fefc 	bl	1c74 <__aeabi_dmul>
    3e7c:	4602      	mov	r2, r0
    3e7e:	460b      	mov	r3, r1
    3e80:	4620      	mov	r0, r4
    3e82:	4629      	mov	r1, r5
    3e84:	f7fd fd44 	bl	1910 <__adddf3>
    3e88:	4604      	mov	r4, r0
    3e8a:	460d      	mov	r5, r1
    3e8c:	f7fe f98c 	bl	21a8 <__aeabi_d2iz>
    3e90:	4629      	mov	r1, r5
    3e92:	4681      	mov	r9, r0
    3e94:	2200      	movs	r2, #0
    3e96:	4620      	mov	r0, r4
    3e98:	2300      	movs	r3, #0
    3e9a:	f7fe f95d 	bl	2158 <__aeabi_dcmplt>
    3e9e:	b158      	cbz	r0, 3eb8 <_dtoa_r+0x1a8>
    3ea0:	4648      	mov	r0, r9
    3ea2:	f7fd fe81 	bl	1ba8 <__aeabi_i2d>
    3ea6:	4602      	mov	r2, r0
    3ea8:	460b      	mov	r3, r1
    3eaa:	4620      	mov	r0, r4
    3eac:	4629      	mov	r1, r5
    3eae:	f7fe f949 	bl	2144 <__aeabi_dcmpeq>
    3eb2:	b908      	cbnz	r0, 3eb8 <_dtoa_r+0x1a8>
    3eb4:	f109 39ff 	add.w	r9, r9, #4294967295
    3eb8:	f1b9 0f16 	cmp.w	r9, #22
    3ebc:	d80e      	bhi.n	3edc <_dtoa_r+0x1cc>
    3ebe:	484d      	ldr	r0, [pc, #308]	; (3ff4 <_dtoa_r+0x2e4>)
    3ec0:	eb00 03c9 	add.w	r3, r0, r9, lsl #3
    3ec4:	e9d3 0100 	ldrd	r0, r1, [r3]
    3ec8:	e9dd 2304 	ldrd	r2, r3, [sp, #16]
    3ecc:	f7fe f962 	bl	2194 <__aeabi_dcmpgt>
    3ed0:	b128      	cbz	r0, 3ede <_dtoa_r+0x1ce>
    3ed2:	2200      	movs	r2, #0
    3ed4:	f109 39ff 	add.w	r9, r9, #4294967295
    3ed8:	9214      	str	r2, [sp, #80]	; 0x50
    3eda:	e001      	b.n	3ee0 <_dtoa_r+0x1d0>
    3edc:	2001      	movs	r0, #1
    3ede:	9014      	str	r0, [sp, #80]	; 0x50
    3ee0:	9916      	ldr	r1, [sp, #88]	; 0x58
    3ee2:	1b8e      	subs	r6, r1, r6
    3ee4:	1e74      	subs	r4, r6, #1
    3ee6:	d504      	bpl.n	3ef2 <_dtoa_r+0x1e2>
    3ee8:	4265      	negs	r5, r4
    3eea:	2000      	movs	r0, #0
    3eec:	9508      	str	r5, [sp, #32]
    3eee:	9009      	str	r0, [sp, #36]	; 0x24
    3ef0:	e002      	b.n	3ef8 <_dtoa_r+0x1e8>
    3ef2:	2300      	movs	r3, #0
    3ef4:	9409      	str	r4, [sp, #36]	; 0x24
    3ef6:	9308      	str	r3, [sp, #32]
    3ef8:	f1b9 0f00 	cmp.w	r9, #0
    3efc:	db08      	blt.n	3f10 <_dtoa_r+0x200>
    3efe:	9d09      	ldr	r5, [sp, #36]	; 0x24
    3f00:	2300      	movs	r3, #0
    3f02:	eb05 0009 	add.w	r0, r5, r9
    3f06:	9009      	str	r0, [sp, #36]	; 0x24
    3f08:	f8cd 9044 	str.w	r9, [sp, #68]	; 0x44
    3f0c:	930c      	str	r3, [sp, #48]	; 0x30
    3f0e:	e008      	b.n	3f22 <_dtoa_r+0x212>
    3f10:	9a08      	ldr	r2, [sp, #32]
    3f12:	f1c9 0600 	rsb	r6, r9, #0
    3f16:	ebc9 0102 	rsb	r1, r9, r2
    3f1a:	2400      	movs	r4, #0
    3f1c:	9108      	str	r1, [sp, #32]
    3f1e:	960c      	str	r6, [sp, #48]	; 0x30
    3f20:	9411      	str	r4, [sp, #68]	; 0x44
    3f22:	9a22      	ldr	r2, [sp, #136]	; 0x88
    3f24:	2a09      	cmp	r2, #9
    3f26:	d827      	bhi.n	3f78 <_dtoa_r+0x268>
    3f28:	2a05      	cmp	r2, #5
    3f2a:	dd03      	ble.n	3f34 <_dtoa_r+0x224>
    3f2c:	1f11      	subs	r1, r2, #4
    3f2e:	9122      	str	r1, [sp, #136]	; 0x88
    3f30:	2500      	movs	r5, #0
    3f32:	e000      	b.n	3f36 <_dtoa_r+0x226>
    3f34:	2501      	movs	r5, #1
    3f36:	9e22      	ldr	r6, [sp, #136]	; 0x88
    3f38:	1eb4      	subs	r4, r6, #2
    3f3a:	2c03      	cmp	r4, #3
    3f3c:	d821      	bhi.n	3f82 <_dtoa_r+0x272>
    3f3e:	e8df f004 	tbb	[pc, r4]
    3f42:	0f06      	.short	0x0f06
    3f44:	0402      	.short	0x0402
    3f46:	2301      	movs	r3, #1
    3f48:	e002      	b.n	3f50 <_dtoa_r+0x240>
    3f4a:	2001      	movs	r0, #1
    3f4c:	e009      	b.n	3f62 <_dtoa_r+0x252>
    3f4e:	2300      	movs	r3, #0
    3f50:	9a23      	ldr	r2, [sp, #140]	; 0x8c
    3f52:	930d      	str	r3, [sp, #52]	; 0x34
    3f54:	2a00      	cmp	r2, #0
    3f56:	dd1e      	ble.n	3f96 <_dtoa_r+0x286>
    3f58:	920b      	str	r2, [sp, #44]	; 0x2c
    3f5a:	9207      	str	r2, [sp, #28]
    3f5c:	4613      	mov	r3, r2
    3f5e:	e01f      	b.n	3fa0 <_dtoa_r+0x290>
    3f60:	2000      	movs	r0, #0
    3f62:	9c23      	ldr	r4, [sp, #140]	; 0x8c
    3f64:	900d      	str	r0, [sp, #52]	; 0x34
    3f66:	eb04 0009 	add.w	r0, r4, r9
    3f6a:	1c43      	adds	r3, r0, #1
    3f6c:	2b00      	cmp	r3, #0
    3f6e:	900b      	str	r0, [sp, #44]	; 0x2c
    3f70:	9307      	str	r3, [sp, #28]
    3f72:	dc15      	bgt.n	3fa0 <_dtoa_r+0x290>
    3f74:	2301      	movs	r3, #1
    3f76:	e013      	b.n	3fa0 <_dtoa_r+0x290>
    3f78:	2501      	movs	r5, #1
    3f7a:	2200      	movs	r2, #0
    3f7c:	9222      	str	r2, [sp, #136]	; 0x88
    3f7e:	950d      	str	r5, [sp, #52]	; 0x34
    3f80:	e001      	b.n	3f86 <_dtoa_r+0x276>
    3f82:	2601      	movs	r6, #1
    3f84:	960d      	str	r6, [sp, #52]	; 0x34
    3f86:	f04f 31ff 	mov.w	r1, #4294967295
    3f8a:	2600      	movs	r6, #0
    3f8c:	910b      	str	r1, [sp, #44]	; 0x2c
    3f8e:	9107      	str	r1, [sp, #28]
    3f90:	2312      	movs	r3, #18
    3f92:	9623      	str	r6, [sp, #140]	; 0x8c
    3f94:	e004      	b.n	3fa0 <_dtoa_r+0x290>
    3f96:	2101      	movs	r1, #1
    3f98:	910b      	str	r1, [sp, #44]	; 0x2c
    3f9a:	9107      	str	r1, [sp, #28]
    3f9c:	460b      	mov	r3, r1
    3f9e:	9123      	str	r1, [sp, #140]	; 0x8c
    3fa0:	f8db 4024 	ldr.w	r4, [r11, #36]	; 0x24
    3fa4:	2000      	movs	r0, #0
    3fa6:	6060      	str	r0, [r4, #4]
    3fa8:	2104      	movs	r1, #4
    3faa:	f101 0214 	add.w	r2, r1, #20
    3fae:	429a      	cmp	r2, r3
    3fb0:	d822      	bhi.n	3ff8 <_dtoa_r+0x2e8>
    3fb2:	6860      	ldr	r0, [r4, #4]
    3fb4:	0049      	lsls	r1, r1, #1
    3fb6:	1c42      	adds	r2, r0, #1
    3fb8:	6062      	str	r2, [r4, #4]
    3fba:	e7f6      	b.n	3faa <_dtoa_r+0x29a>
    3fbc:	f3af 8000 	nop.w
    3fc0:	636f4361 	.word	0x636f4361
    3fc4:	3fd287a7 	.word	0x3fd287a7
    3fc8:	8b60c8b3 	.word	0x8b60c8b3
    3fcc:	3fc68a28 	.word	0x3fc68a28
    3fd0:	509f79fb 	.word	0x509f79fb
    3fd4:	3fd34413 	.word	0x3fd34413
    3fd8:	7ff00000 	.word	0x7ff00000
    3fdc:	00007102 	.word	0x00007102
    3fe0:	000070f9 	.word	0x000070f9
    3fe4:	00007107 	.word	0x00007107
    3fe8:	fffffc0e 	.word	0xfffffc0e
    3fec:	fffffbee 	.word	0xfffffbee
    3ff0:	3ff80000 	.word	0x3ff80000
    3ff4:	00007170 	.word	0x00007170
    3ff8:	6861      	ldr	r1, [r4, #4]
    3ffa:	4658      	mov	r0, r11
    3ffc:	f000 fe44 	bl	4c88 <_Balloc>
    4000:	6020      	str	r0, [r4, #0]
    4002:	f8db 4024 	ldr.w	r4, [r11, #36]	; 0x24
    4006:	9907      	ldr	r1, [sp, #28]
    4008:	6823      	ldr	r3, [r4, #0]
    400a:	290e      	cmp	r1, #14
    400c:	930a      	str	r3, [sp, #40]	; 0x28
    400e:	f200 815e 	bhi.w	42ce <_dtoa_r+0x5be>
    4012:	2d00      	cmp	r5, #0
    4014:	f000 815b 	beq.w	42ce <_dtoa_r+0x5be>
    4018:	f1b9 0f00 	cmp.w	r9, #0
    401c:	e9dd 0104 	ldrd	r0, r1, [sp, #16]
    4020:	e9cd 0112 	strd	r0, r1, [sp, #72]	; 0x48
    4024:	dd33      	ble.n	408e <_dtoa_r+0x37e>
    4026:	4b9d      	ldr	r3, [pc, #628]	; (429c <_dtoa_r+0x58c>)
    4028:	f009 070f 	and.w	r7, r9, #15
    402c:	eb03 06c7 	add.w	r6, r3, r7, lsl #3
    4030:	e9d6 4500 	ldrd	r4, r5, [r6]
    4034:	ea4f 1629 	mov.w	r6, r9, asr #4
    4038:	06f2      	lsls	r2, r6, #27
    403a:	d50c      	bpl.n	4056 <_dtoa_r+0x346>
    403c:	4a98      	ldr	r2, [pc, #608]	; (42a0 <_dtoa_r+0x590>)
    403e:	f006 060f 	and.w	r6, r6, #15
    4042:	f102 0320 	add.w	r3, r2, #32
    4046:	e9d3 2300 	ldrd	r2, r3, [r3]
    404a:	f7fd ff3d 	bl	1ec8 <__aeabi_ddiv>
    404e:	2703      	movs	r7, #3
    4050:	e9cd 0104 	strd	r0, r1, [sp, #16]
    4054:	e000      	b.n	4058 <_dtoa_r+0x348>
    4056:	2702      	movs	r7, #2
    4058:	f8df 8244 	ldr.w	r8, [pc, #580]	; 42a0 <_dtoa_r+0x590>
    405c:	b176      	cbz	r6, 407c <_dtoa_r+0x36c>
    405e:	07f3      	lsls	r3, r6, #31
    4060:	d508      	bpl.n	4074 <_dtoa_r+0x364>
    4062:	4620      	mov	r0, r4
    4064:	4629      	mov	r1, r5
    4066:	e9d8 2300 	ldrd	r2, r3, [r8]
    406a:	f7fd fe03 	bl	1c74 <__aeabi_dmul>
    406e:	3701      	adds	r7, #1
    4070:	4604      	mov	r4, r0
    4072:	460d      	mov	r5, r1
    4074:	1076      	asrs	r6, r6, #1
    4076:	f108 0808 	add.w	r8, r8, #8
    407a:	e7ef      	b.n	405c <_dtoa_r+0x34c>
    407c:	e9dd 0104 	ldrd	r0, r1, [sp, #16]
    4080:	4622      	mov	r2, r4
    4082:	462b      	mov	r3, r5
    4084:	f7fd ff20 	bl	1ec8 <__aeabi_ddiv>
    4088:	e9cd 0104 	strd	r0, r1, [sp, #16]
    408c:	e020      	b.n	40d0 <_dtoa_r+0x3c0>
    408e:	f1c9 0700 	rsb	r7, r9, #0
    4092:	b1e7      	cbz	r7, 40ce <_dtoa_r+0x3be>
    4094:	4e81      	ldr	r6, [pc, #516]	; (429c <_dtoa_r+0x58c>)
    4096:	f007 050f 	and.w	r5, r7, #15
    409a:	eb06 02c5 	add.w	r2, r6, r5, lsl #3
    409e:	e9dd 0112 	ldrd	r0, r1, [sp, #72]	; 0x48
    40a2:	ca0c      	ldmia	r2, {r2, r3}
    40a4:	f7fd fde6 	bl	1c74 <__aeabi_dmul>
    40a8:	4d7d      	ldr	r5, [pc, #500]	; (42a0 <_dtoa_r+0x590>)
    40aa:	113c      	asrs	r4, r7, #4
    40ac:	2702      	movs	r7, #2
    40ae:	b14c      	cbz	r4, 40c4 <_dtoa_r+0x3b4>
    40b0:	07e6      	lsls	r6, r4, #31
    40b2:	d504      	bpl.n	40be <_dtoa_r+0x3ae>
    40b4:	e9d5 2300 	ldrd	r2, r3, [r5]
    40b8:	3701      	adds	r7, #1
    40ba:	f7fd fddb 	bl	1c74 <__aeabi_dmul>
    40be:	1064      	asrs	r4, r4, #1
    40c0:	3508      	adds	r5, #8
    40c2:	e7f4      	b.n	40ae <_dtoa_r+0x39e>
    40c4:	4602      	mov	r2, r0
    40c6:	460b      	mov	r3, r1
    40c8:	e9cd 2304 	strd	r2, r3, [sp, #16]
    40cc:	e000      	b.n	40d0 <_dtoa_r+0x3c0>
    40ce:	2702      	movs	r7, #2
    40d0:	9814      	ldr	r0, [sp, #80]	; 0x50
    40d2:	b1e0      	cbz	r0, 410e <_dtoa_r+0x3fe>
    40d4:	e9dd 4504 	ldrd	r4, r5, [sp, #16]
    40d8:	2200      	movs	r2, #0
    40da:	4620      	mov	r0, r4
    40dc:	4629      	mov	r1, r5
    40de:	4b71      	ldr	r3, [pc, #452]	; (42a4 <_dtoa_r+0x594>)
    40e0:	f7fe f83a 	bl	2158 <__aeabi_dcmplt>
    40e4:	b198      	cbz	r0, 410e <_dtoa_r+0x3fe>
    40e6:	9907      	ldr	r1, [sp, #28]
    40e8:	b189      	cbz	r1, 410e <_dtoa_r+0x3fe>
    40ea:	9b0b      	ldr	r3, [sp, #44]	; 0x2c
    40ec:	2b00      	cmp	r3, #0
    40ee:	f340 80ea 	ble.w	42c6 <_dtoa_r+0x5b6>
    40f2:	4620      	mov	r0, r4
    40f4:	f109 36ff 	add.w	r6, r9, #4294967295
    40f8:	4629      	mov	r1, r5
    40fa:	2200      	movs	r2, #0
    40fc:	4b6a      	ldr	r3, [pc, #424]	; (42a8 <_dtoa_r+0x598>)
    40fe:	9610      	str	r6, [sp, #64]	; 0x40
    4100:	f7fd fdb8 	bl	1c74 <__aeabi_dmul>
    4104:	3701      	adds	r7, #1
    4106:	e9cd 0104 	strd	r0, r1, [sp, #16]
    410a:	9c0b      	ldr	r4, [sp, #44]	; 0x2c
    410c:	e002      	b.n	4114 <_dtoa_r+0x404>
    410e:	9c07      	ldr	r4, [sp, #28]
    4110:	f8cd 9040 	str.w	r9, [sp, #64]	; 0x40
    4114:	4638      	mov	r0, r7
    4116:	f7fd fd47 	bl	1ba8 <__aeabi_i2d>
    411a:	e9dd 2304 	ldrd	r2, r3, [sp, #16]
    411e:	f7fd fda9 	bl	1c74 <__aeabi_dmul>
    4122:	2200      	movs	r2, #0
    4124:	4b61      	ldr	r3, [pc, #388]	; (42ac <_dtoa_r+0x59c>)
    4126:	f7fd fbf3 	bl	1910 <__adddf3>
    412a:	f1a1 7550 	sub.w	r5, r1, #54525952	; 0x3400000
    412e:	4606      	mov	r6, r0
    4130:	462f      	mov	r7, r5
    4132:	b9cc      	cbnz	r4, 4168 <_dtoa_r+0x458>
    4134:	e9dd 0104 	ldrd	r0, r1, [sp, #16]
    4138:	2200      	movs	r2, #0
    413a:	4b5d      	ldr	r3, [pc, #372]	; (42b0 <_dtoa_r+0x5a0>)
    413c:	f7fd fbe6 	bl	190c <__aeabi_dsub>
    4140:	4632      	mov	r2, r6
    4142:	462b      	mov	r3, r5
    4144:	e9cd 0104 	strd	r0, r1, [sp, #16]
    4148:	f7fe f824 	bl	2194 <__aeabi_dcmpgt>
    414c:	2800      	cmp	r0, #0
    414e:	f040 8247 	bne.w	45e0 <_dtoa_r+0x8d0>
    4152:	e9dd 0104 	ldrd	r0, r1, [sp, #16]
    4156:	4632      	mov	r2, r6
    4158:	f105 4300 	add.w	r3, r5, #2147483648	; 0x80000000
    415c:	f7fd fffc 	bl	2158 <__aeabi_dcmplt>
    4160:	2800      	cmp	r0, #0
    4162:	f040 8236 	bne.w	45d2 <_dtoa_r+0x8c2>
    4166:	e0ae      	b.n	42c6 <_dtoa_r+0x5b6>
    4168:	484c      	ldr	r0, [pc, #304]	; (429c <_dtoa_r+0x58c>)
    416a:	990d      	ldr	r1, [sp, #52]	; 0x34
    416c:	1e62      	subs	r2, r4, #1
    416e:	eb00 03c2 	add.w	r3, r0, r2, lsl #3
    4172:	2900      	cmp	r1, #0
    4174:	d04b      	beq.n	420e <_dtoa_r+0x4fe>
    4176:	e9d3 2300 	ldrd	r2, r3, [r3]
    417a:	2000      	movs	r0, #0
    417c:	494d      	ldr	r1, [pc, #308]	; (42b4 <_dtoa_r+0x5a4>)
    417e:	f7fd fea3 	bl	1ec8 <__aeabi_ddiv>
    4182:	4632      	mov	r2, r6
    4184:	462b      	mov	r3, r5
    4186:	f7fd fbc1 	bl	190c <__aeabi_dsub>
    418a:	e9dd 6704 	ldrd	r6, r7, [sp, #16]
    418e:	e9cd 010e 	strd	r0, r1, [sp, #56]	; 0x38
    4192:	9d0a      	ldr	r5, [sp, #40]	; 0x28
    4194:	4639      	mov	r1, r7
    4196:	4630      	mov	r0, r6
    4198:	f7fe f806 	bl	21a8 <__aeabi_d2iz>
    419c:	4680      	mov	r8, r0
    419e:	f7fd fd03 	bl	1ba8 <__aeabi_i2d>
    41a2:	4602      	mov	r2, r0
    41a4:	460b      	mov	r3, r1
    41a6:	4630      	mov	r0, r6
    41a8:	4639      	mov	r1, r7
    41aa:	f7fd fbaf 	bl	190c <__aeabi_dsub>
    41ae:	f108 0330 	add.w	r3, r8, #48	; 0x30
    41b2:	f805 3b01 	strb.w	r3, [r5], #1
    41b6:	e9dd 230e 	ldrd	r2, r3, [sp, #56]	; 0x38
    41ba:	4606      	mov	r6, r0
    41bc:	460f      	mov	r7, r1
    41be:	46a8      	mov	r8, r5
    41c0:	f7fd ffca 	bl	2158 <__aeabi_dcmplt>
    41c4:	2800      	cmp	r0, #0
    41c6:	f040 8327 	bne.w	4818 <_dtoa_r+0xb08>
    41ca:	4632      	mov	r2, r6
    41cc:	463b      	mov	r3, r7
    41ce:	2000      	movs	r0, #0
    41d0:	4934      	ldr	r1, [pc, #208]	; (42a4 <_dtoa_r+0x594>)
    41d2:	f7fd fb9b 	bl	190c <__aeabi_dsub>
    41d6:	e9dd 230e 	ldrd	r2, r3, [sp, #56]	; 0x38
    41da:	f7fd ffbd 	bl	2158 <__aeabi_dcmplt>
    41de:	2800      	cmp	r0, #0
    41e0:	f040 80d3 	bne.w	438a <_dtoa_r+0x67a>
    41e4:	990a      	ldr	r1, [sp, #40]	; 0x28
    41e6:	1a68      	subs	r0, r5, r1
    41e8:	42a0      	cmp	r0, r4
    41ea:	da6c      	bge.n	42c6 <_dtoa_r+0x5b6>
    41ec:	e9dd 010e 	ldrd	r0, r1, [sp, #56]	; 0x38
    41f0:	2200      	movs	r2, #0
    41f2:	4b2d      	ldr	r3, [pc, #180]	; (42a8 <_dtoa_r+0x598>)
    41f4:	f7fd fd3e 	bl	1c74 <__aeabi_dmul>
    41f8:	2200      	movs	r2, #0
    41fa:	e9cd 010e 	strd	r0, r1, [sp, #56]	; 0x38
    41fe:	4b2a      	ldr	r3, [pc, #168]	; (42a8 <_dtoa_r+0x598>)
    4200:	4630      	mov	r0, r6
    4202:	4639      	mov	r1, r7
    4204:	f7fd fd36 	bl	1c74 <__aeabi_dmul>
    4208:	4606      	mov	r6, r0
    420a:	460f      	mov	r7, r1
    420c:	e7c2      	b.n	4194 <_dtoa_r+0x484>
    420e:	e9d3 0100 	ldrd	r0, r1, [r3]
    4212:	4632      	mov	r2, r6
    4214:	462b      	mov	r3, r5
    4216:	f7fd fd2d 	bl	1c74 <__aeabi_dmul>
    421a:	e9dd 6704 	ldrd	r6, r7, [sp, #16]
    421e:	9d0a      	ldr	r5, [sp, #40]	; 0x28
    4220:	e9cd 010e 	strd	r0, r1, [sp, #56]	; 0x38
    4224:	192c      	adds	r4, r5, r4
    4226:	46a8      	mov	r8, r5
    4228:	4639      	mov	r1, r7
    422a:	4630      	mov	r0, r6
    422c:	f7fd ffbc 	bl	21a8 <__aeabi_d2iz>
    4230:	4605      	mov	r5, r0
    4232:	f7fd fcb9 	bl	1ba8 <__aeabi_i2d>
    4236:	4602      	mov	r2, r0
    4238:	460b      	mov	r3, r1
    423a:	4630      	mov	r0, r6
    423c:	4639      	mov	r1, r7
    423e:	f7fd fb65 	bl	190c <__aeabi_dsub>
    4242:	3530      	adds	r5, #48	; 0x30
    4244:	f808 5b01 	strb.w	r5, [r8], #1
    4248:	45a0      	cmp	r8, r4
    424a:	4606      	mov	r6, r0
    424c:	460f      	mov	r7, r1
    424e:	d133      	bne.n	42b8 <_dtoa_r+0x5a8>
    4250:	2200      	movs	r2, #0
    4252:	4b18      	ldr	r3, [pc, #96]	; (42b4 <_dtoa_r+0x5a4>)
    4254:	e9dd 010e 	ldrd	r0, r1, [sp, #56]	; 0x38
    4258:	f7fd fb5a 	bl	1910 <__adddf3>
    425c:	4602      	mov	r2, r0
    425e:	460b      	mov	r3, r1
    4260:	4630      	mov	r0, r6
    4262:	4639      	mov	r1, r7
    4264:	f7fd ff96 	bl	2194 <__aeabi_dcmpgt>
    4268:	2800      	cmp	r0, #0
    426a:	f040 808e 	bne.w	438a <_dtoa_r+0x67a>
    426e:	e9dd 230e 	ldrd	r2, r3, [sp, #56]	; 0x38
    4272:	2000      	movs	r0, #0
    4274:	490f      	ldr	r1, [pc, #60]	; (42b4 <_dtoa_r+0x5a4>)
    4276:	f7fd fb49 	bl	190c <__aeabi_dsub>
    427a:	4602      	mov	r2, r0
    427c:	460b      	mov	r3, r1
    427e:	4630      	mov	r0, r6
    4280:	4639      	mov	r1, r7
    4282:	f7fd ff69 	bl	2158 <__aeabi_dcmplt>
    4286:	b1f0      	cbz	r0, 42c6 <_dtoa_r+0x5b6>
    4288:	4640      	mov	r0, r8
    428a:	4680      	mov	r8, r0
    428c:	f818 2c01 	ldrb.w	r2, [r8, #-1]
    4290:	f100 30ff 	add.w	r0, r0, #4294967295
    4294:	2a30      	cmp	r2, #48	; 0x30
    4296:	d0f8      	beq.n	428a <_dtoa_r+0x57a>
    4298:	e2be      	b.n	4818 <_dtoa_r+0xb08>
    429a:	bf00      	nop
    429c:	00007170 	.word	0x00007170
    42a0:	00007248 	.word	0x00007248
    42a4:	3ff00000 	.word	0x3ff00000
    42a8:	40240000 	.word	0x40240000
    42ac:	401c0000 	.word	0x401c0000
    42b0:	40140000 	.word	0x40140000
    42b4:	3fe00000 	.word	0x3fe00000
    42b8:	2200      	movs	r2, #0
    42ba:	4b9a      	ldr	r3, [pc, #616]	; (4524 <_dtoa_r+0x814>)
    42bc:	f7fd fcda 	bl	1c74 <__aeabi_dmul>
    42c0:	4606      	mov	r6, r0
    42c2:	460f      	mov	r7, r1
    42c4:	e7b0      	b.n	4228 <_dtoa_r+0x518>
    42c6:	e9dd 4512 	ldrd	r4, r5, [sp, #72]	; 0x48
    42ca:	e9cd 4504 	strd	r4, r5, [sp, #16]
    42ce:	9d17      	ldr	r5, [sp, #92]	; 0x5c
    42d0:	2d00      	cmp	r5, #0
    42d2:	db7c      	blt.n	43ce <_dtoa_r+0x6be>
    42d4:	f1b9 0f0e 	cmp.w	r9, #14
    42d8:	dc79      	bgt.n	43ce <_dtoa_r+0x6be>
    42da:	4c93      	ldr	r4, [pc, #588]	; (4528 <_dtoa_r+0x818>)
    42dc:	9923      	ldr	r1, [sp, #140]	; 0x8c
    42de:	eb04 05c9 	add.w	r5, r4, r9, lsl #3
    42e2:	2900      	cmp	r1, #0
    42e4:	e9d5 4500 	ldrd	r4, r5, [r5]
    42e8:	da14      	bge.n	4314 <_dtoa_r+0x604>
    42ea:	9a07      	ldr	r2, [sp, #28]
    42ec:	2a00      	cmp	r2, #0
    42ee:	dc11      	bgt.n	4314 <_dtoa_r+0x604>
    42f0:	f040 816e 	bne.w	45d0 <_dtoa_r+0x8c0>
    42f4:	4620      	mov	r0, r4
    42f6:	4629      	mov	r1, r5
    42f8:	2200      	movs	r2, #0
    42fa:	4b8c      	ldr	r3, [pc, #560]	; (452c <_dtoa_r+0x81c>)
    42fc:	f7fd fcba 	bl	1c74 <__aeabi_dmul>
    4300:	e9dd 2304 	ldrd	r2, r3, [sp, #16]
    4304:	f7fd ff3c 	bl	2180 <__aeabi_dcmpge>
    4308:	9c07      	ldr	r4, [sp, #28]
    430a:	4625      	mov	r5, r4
    430c:	2800      	cmp	r0, #0
    430e:	f040 8161 	bne.w	45d4 <_dtoa_r+0x8c4>
    4312:	e168      	b.n	45e6 <_dtoa_r+0x8d6>
    4314:	9e0a      	ldr	r6, [sp, #40]	; 0x28
    4316:	9807      	ldr	r0, [sp, #28]
    4318:	9f0a      	ldr	r7, [sp, #40]	; 0x28
    431a:	1833      	adds	r3, r6, r0
    431c:	3701      	adds	r7, #1
    431e:	9308      	str	r3, [sp, #32]
    4320:	4622      	mov	r2, r4
    4322:	462b      	mov	r3, r5
    4324:	e9dd 0104 	ldrd	r0, r1, [sp, #16]
    4328:	f7fd fdce 	bl	1ec8 <__aeabi_ddiv>
    432c:	f7fd ff3c 	bl	21a8 <__aeabi_d2iz>
    4330:	9007      	str	r0, [sp, #28]
    4332:	f7fd fc39 	bl	1ba8 <__aeabi_i2d>
    4336:	4622      	mov	r2, r4
    4338:	462b      	mov	r3, r5
    433a:	f7fd fc9b 	bl	1c74 <__aeabi_dmul>
    433e:	4602      	mov	r2, r0
    4340:	460b      	mov	r3, r1
    4342:	e9dd 0104 	ldrd	r0, r1, [sp, #16]
    4346:	f7fd fae1 	bl	190c <__aeabi_dsub>
    434a:	9e07      	ldr	r6, [sp, #28]
    434c:	4602      	mov	r2, r0
    434e:	3630      	adds	r6, #48	; 0x30
    4350:	f807 6c01 	strb.w	r6, [r7, #-1]
    4354:	9e08      	ldr	r6, [sp, #32]
    4356:	460b      	mov	r3, r1
    4358:	42b7      	cmp	r7, r6
    435a:	46b8      	mov	r8, r7
    435c:	d129      	bne.n	43b2 <_dtoa_r+0x6a2>
    435e:	f7fd fad7 	bl	1910 <__adddf3>
    4362:	4622      	mov	r2, r4
    4364:	462b      	mov	r3, r5
    4366:	4606      	mov	r6, r0
    4368:	460f      	mov	r7, r1
    436a:	f7fd ff13 	bl	2194 <__aeabi_dcmpgt>
    436e:	b970      	cbnz	r0, 438e <_dtoa_r+0x67e>
    4370:	4630      	mov	r0, r6
    4372:	4639      	mov	r1, r7
    4374:	4622      	mov	r2, r4
    4376:	462b      	mov	r3, r5
    4378:	f7fd fee4 	bl	2144 <__aeabi_dcmpeq>
    437c:	2800      	cmp	r0, #0
    437e:	f000 824d 	beq.w	481c <_dtoa_r+0xb0c>
    4382:	9907      	ldr	r1, [sp, #28]
    4384:	07c9      	lsls	r1, r1, #31
    4386:	d402      	bmi.n	438e <_dtoa_r+0x67e>
    4388:	e248      	b.n	481c <_dtoa_r+0xb0c>
    438a:	f8dd 9040 	ldr.w	r9, [sp, #64]	; 0x40
    438e:	4640      	mov	r0, r8
    4390:	4680      	mov	r8, r0
    4392:	f818 2c01 	ldrb.w	r2, [r8, #-1]
    4396:	3801      	subs	r0, #1
    4398:	2a39      	cmp	r2, #57	; 0x39
    439a:	d106      	bne.n	43aa <_dtoa_r+0x69a>
    439c:	9b0a      	ldr	r3, [sp, #40]	; 0x28
    439e:	4283      	cmp	r3, r0
    43a0:	d1f6      	bne.n	4390 <_dtoa_r+0x680>
    43a2:	2630      	movs	r6, #48	; 0x30
    43a4:	f109 0901 	add.w	r9, r9, #1
    43a8:	701e      	strb	r6, [r3, #0]
    43aa:	7801      	ldrb	r1, [r0, #0]
    43ac:	1c4a      	adds	r2, r1, #1
    43ae:	7002      	strb	r2, [r0, #0]
    43b0:	e234      	b.n	481c <_dtoa_r+0xb0c>
    43b2:	2200      	movs	r2, #0
    43b4:	4b5b      	ldr	r3, [pc, #364]	; (4524 <_dtoa_r+0x814>)
    43b6:	f7fd fc5d 	bl	1c74 <__aeabi_dmul>
    43ba:	2200      	movs	r2, #0
    43bc:	2300      	movs	r3, #0
    43be:	e9cd 0104 	strd	r0, r1, [sp, #16]
    43c2:	3701      	adds	r7, #1
    43c4:	f7fd febe 	bl	2144 <__aeabi_dcmpeq>
    43c8:	2800      	cmp	r0, #0
    43ca:	d0a9      	beq.n	4320 <_dtoa_r+0x610>
    43cc:	e226      	b.n	481c <_dtoa_r+0xb0c>
    43ce:	9f0d      	ldr	r7, [sp, #52]	; 0x34
    43d0:	2f00      	cmp	r7, #0
    43d2:	d030      	beq.n	4436 <_dtoa_r+0x726>
    43d4:	9a22      	ldr	r2, [sp, #136]	; 0x88
    43d6:	2a01      	cmp	r2, #1
    43d8:	dc0a      	bgt.n	43f0 <_dtoa_r+0x6e0>
    43da:	9915      	ldr	r1, [sp, #84]	; 0x54
    43dc:	b111      	cbz	r1, 43e4 <_dtoa_r+0x6d4>
    43de:	f205 4333 	addw	r3, r5, #1075	; 0x433
    43e2:	e002      	b.n	43ea <_dtoa_r+0x6da>
    43e4:	9816      	ldr	r0, [sp, #88]	; 0x58
    43e6:	f1c0 0336 	rsb	r3, r0, #54	; 0x36
    43ea:	9c0c      	ldr	r4, [sp, #48]	; 0x30
    43ec:	9e08      	ldr	r6, [sp, #32]
    43ee:	e016      	b.n	441e <_dtoa_r+0x70e>
    43f0:	9e07      	ldr	r6, [sp, #28]
    43f2:	9b0c      	ldr	r3, [sp, #48]	; 0x30
    43f4:	1e71      	subs	r1, r6, #1
    43f6:	428b      	cmp	r3, r1
    43f8:	db01      	blt.n	43fe <_dtoa_r+0x6ee>
    43fa:	1a5c      	subs	r4, r3, r1
    43fc:	e006      	b.n	440c <_dtoa_r+0x6fc>
    43fe:	980c      	ldr	r0, [sp, #48]	; 0x30
    4400:	9f11      	ldr	r7, [sp, #68]	; 0x44
    4402:	1a0d      	subs	r5, r1, r0
    4404:	197c      	adds	r4, r7, r5
    4406:	9411      	str	r4, [sp, #68]	; 0x44
    4408:	910c      	str	r1, [sp, #48]	; 0x30
    440a:	2400      	movs	r4, #0
    440c:	9a07      	ldr	r2, [sp, #28]
    440e:	2a00      	cmp	r2, #0
    4410:	da03      	bge.n	441a <_dtoa_r+0x70a>
    4412:	9e08      	ldr	r6, [sp, #32]
    4414:	2300      	movs	r3, #0
    4416:	1ab6      	subs	r6, r6, r2
    4418:	e001      	b.n	441e <_dtoa_r+0x70e>
    441a:	9e08      	ldr	r6, [sp, #32]
    441c:	9b07      	ldr	r3, [sp, #28]
    441e:	9d08      	ldr	r5, [sp, #32]
    4420:	9a09      	ldr	r2, [sp, #36]	; 0x24
    4422:	18ef      	adds	r7, r5, r3
    4424:	4658      	mov	r0, r11
    4426:	18d3      	adds	r3, r2, r3
    4428:	2101      	movs	r1, #1
    442a:	9708      	str	r7, [sp, #32]
    442c:	9309      	str	r3, [sp, #36]	; 0x24
    442e:	f000 fd41 	bl	4eb4 <__i2b>
    4432:	4605      	mov	r5, r0
    4434:	e002      	b.n	443c <_dtoa_r+0x72c>
    4436:	9c0c      	ldr	r4, [sp, #48]	; 0x30
    4438:	9e08      	ldr	r6, [sp, #32]
    443a:	9d0d      	ldr	r5, [sp, #52]	; 0x34
    443c:	b166      	cbz	r6, 4458 <_dtoa_r+0x748>
    443e:	9f09      	ldr	r7, [sp, #36]	; 0x24
    4440:	2f00      	cmp	r7, #0
    4442:	dd09      	ble.n	4458 <_dtoa_r+0x748>
    4444:	9908      	ldr	r1, [sp, #32]
    4446:	9a09      	ldr	r2, [sp, #36]	; 0x24
    4448:	42b7      	cmp	r7, r6
    444a:	bfa8      	it	ge
    444c:	4637      	movge	r7, r6
    444e:	1bc8      	subs	r0, r1, r7
    4450:	1bd3      	subs	r3, r2, r7
    4452:	9008      	str	r0, [sp, #32]
    4454:	1bf6      	subs	r6, r6, r7
    4456:	9309      	str	r3, [sp, #36]	; 0x24
    4458:	9f0c      	ldr	r7, [sp, #48]	; 0x30
    445a:	2f00      	cmp	r7, #0
    445c:	dd20      	ble.n	44a0 <_dtoa_r+0x790>
    445e:	990d      	ldr	r1, [sp, #52]	; 0x34
    4460:	b1c1      	cbz	r1, 4494 <_dtoa_r+0x784>
    4462:	2c00      	cmp	r4, #0
    4464:	dd10      	ble.n	4488 <_dtoa_r+0x778>
    4466:	4629      	mov	r1, r5
    4468:	4622      	mov	r2, r4
    446a:	4658      	mov	r0, r11
    446c:	f000 fdbc 	bl	4fe8 <__pow5mult>
    4470:	4605      	mov	r5, r0
    4472:	4652      	mov	r2, r10
    4474:	4629      	mov	r1, r5
    4476:	4658      	mov	r0, r11
    4478:	f000 fd25 	bl	4ec6 <__multiply>
    447c:	4651      	mov	r1, r10
    447e:	4607      	mov	r7, r0
    4480:	4658      	mov	r0, r11
    4482:	f000 fc36 	bl	4cf2 <_Bfree>
    4486:	46ba      	mov	r10, r7
    4488:	980c      	ldr	r0, [sp, #48]	; 0x30
    448a:	1b02      	subs	r2, r0, r4
    448c:	d008      	beq.n	44a0 <_dtoa_r+0x790>
    448e:	4658      	mov	r0, r11
    4490:	4651      	mov	r1, r10
    4492:	e002      	b.n	449a <_dtoa_r+0x78a>
    4494:	9a0c      	ldr	r2, [sp, #48]	; 0x30
    4496:	4658      	mov	r0, r11
    4498:	4651      	mov	r1, r10
    449a:	f000 fda5 	bl	4fe8 <__pow5mult>
    449e:	4682      	mov	r10, r0
    44a0:	2101      	movs	r1, #1
    44a2:	4658      	mov	r0, r11
    44a4:	f000 fd06 	bl	4eb4 <__i2b>
    44a8:	9a11      	ldr	r2, [sp, #68]	; 0x44
    44aa:	4604      	mov	r4, r0
    44ac:	2a00      	cmp	r2, #0
    44ae:	dd05      	ble.n	44bc <_dtoa_r+0x7ac>
    44b0:	4621      	mov	r1, r4
    44b2:	4658      	mov	r0, r11
    44b4:	9a11      	ldr	r2, [sp, #68]	; 0x44
    44b6:	f000 fd97 	bl	4fe8 <__pow5mult>
    44ba:	4604      	mov	r4, r0
    44bc:	9b22      	ldr	r3, [sp, #136]	; 0x88
    44be:	2b01      	cmp	r3, #1
    44c0:	dc10      	bgt.n	44e4 <_dtoa_r+0x7d4>
    44c2:	9904      	ldr	r1, [sp, #16]
    44c4:	b971      	cbnz	r1, 44e4 <_dtoa_r+0x7d4>
    44c6:	9805      	ldr	r0, [sp, #20]
    44c8:	f3c0 0713 	ubfx	r7, r0, #0, #20
    44cc:	b967      	cbnz	r7, 44e8 <_dtoa_r+0x7d8>
    44ce:	4f18      	ldr	r7, [pc, #96]	; (4530 <_dtoa_r+0x820>)
    44d0:	4007      	ands	r7, r0
    44d2:	b157      	cbz	r7, 44ea <_dtoa_r+0x7da>
    44d4:	9a08      	ldr	r2, [sp, #32]
    44d6:	9909      	ldr	r1, [sp, #36]	; 0x24
    44d8:	1c53      	adds	r3, r2, #1
    44da:	1c48      	adds	r0, r1, #1
    44dc:	9308      	str	r3, [sp, #32]
    44de:	9009      	str	r0, [sp, #36]	; 0x24
    44e0:	2701      	movs	r7, #1
    44e2:	e002      	b.n	44ea <_dtoa_r+0x7da>
    44e4:	2700      	movs	r7, #0
    44e6:	e000      	b.n	44ea <_dtoa_r+0x7da>
    44e8:	9f04      	ldr	r7, [sp, #16]
    44ea:	9a11      	ldr	r2, [sp, #68]	; 0x44
    44ec:	b142      	cbz	r2, 4500 <_dtoa_r+0x7f0>
    44ee:	6921      	ldr	r1, [r4, #16]
    44f0:	eb04 0081 	add.w	r0, r4, r1, lsl #2
    44f4:	6900      	ldr	r0, [r0, #16]
    44f6:	f000 fc91 	bl	4e1c <__hi0bits>
    44fa:	f1c0 0320 	rsb	r3, r0, #32
    44fe:	e000      	b.n	4502 <_dtoa_r+0x7f2>
    4500:	2301      	movs	r3, #1
    4502:	9909      	ldr	r1, [sp, #36]	; 0x24
    4504:	185a      	adds	r2, r3, r1
    4506:	f012 031f 	ands.w	r3, r2, #31
    450a:	d015      	beq.n	4538 <_dtoa_r+0x828>
    450c:	f1c3 0020 	rsb	r0, r3, #32
    4510:	2804      	cmp	r0, #4
    4512:	dd0f      	ble.n	4534 <_dtoa_r+0x824>
    4514:	9808      	ldr	r0, [sp, #32]
    4516:	f1c3 031c 	rsb	r3, r3, #28
    451a:	18c2      	adds	r2, r0, r3
    451c:	9208      	str	r2, [sp, #32]
    451e:	18f6      	adds	r6, r6, r3
    4520:	e010      	b.n	4544 <_dtoa_r+0x834>
    4522:	bf00      	nop
    4524:	40240000 	.word	0x40240000
    4528:	00007170 	.word	0x00007170
    452c:	40140000 	.word	0x40140000
    4530:	7ff00000 	.word	0x7ff00000
    4534:	d008      	beq.n	4548 <_dtoa_r+0x838>
    4536:	4603      	mov	r3, r0
    4538:	9908      	ldr	r1, [sp, #32]
    453a:	331c      	adds	r3, #28
    453c:	18ca      	adds	r2, r1, r3
    453e:	9909      	ldr	r1, [sp, #36]	; 0x24
    4540:	9208      	str	r2, [sp, #32]
    4542:	18f6      	adds	r6, r6, r3
    4544:	18cb      	adds	r3, r1, r3
    4546:	9309      	str	r3, [sp, #36]	; 0x24
    4548:	9a08      	ldr	r2, [sp, #32]
    454a:	2a00      	cmp	r2, #0
    454c:	dd04      	ble.n	4558 <_dtoa_r+0x848>
    454e:	4651      	mov	r1, r10
    4550:	4658      	mov	r0, r11
    4552:	f000 fd9b 	bl	508c <__lshift>
    4556:	4682      	mov	r10, r0
    4558:	9a09      	ldr	r2, [sp, #36]	; 0x24
    455a:	2a00      	cmp	r2, #0
    455c:	dd04      	ble.n	4568 <_dtoa_r+0x858>
    455e:	4621      	mov	r1, r4
    4560:	4658      	mov	r0, r11
    4562:	f000 fd93 	bl	508c <__lshift>
    4566:	4604      	mov	r4, r0
    4568:	9914      	ldr	r1, [sp, #80]	; 0x50
    456a:	b1e1      	cbz	r1, 45a6 <_dtoa_r+0x896>
    456c:	4650      	mov	r0, r10
    456e:	4621      	mov	r1, r4
    4570:	f000 fde0 	bl	5134 <__mcmp>
    4574:	2800      	cmp	r0, #0
    4576:	da16      	bge.n	45a6 <_dtoa_r+0x896>
    4578:	4651      	mov	r1, r10
    457a:	4658      	mov	r0, r11
    457c:	220a      	movs	r2, #10
    457e:	2300      	movs	r3, #0
    4580:	f000 fbce 	bl	4d20 <__multadd>
    4584:	4682      	mov	r10, r0
    4586:	980d      	ldr	r0, [sp, #52]	; 0x34
    4588:	f109 39ff 	add.w	r9, r9, #4294967295
    458c:	b148      	cbz	r0, 45a2 <_dtoa_r+0x892>
    458e:	4629      	mov	r1, r5
    4590:	220a      	movs	r2, #10
    4592:	4658      	mov	r0, r11
    4594:	2300      	movs	r3, #0
    4596:	f000 fbc3 	bl	4d20 <__multadd>
    459a:	9a0b      	ldr	r2, [sp, #44]	; 0x2c
    459c:	4605      	mov	r5, r0
    459e:	9207      	str	r2, [sp, #28]
    45a0:	e001      	b.n	45a6 <_dtoa_r+0x896>
    45a2:	9b0b      	ldr	r3, [sp, #44]	; 0x2c
    45a4:	9307      	str	r3, [sp, #28]
    45a6:	9807      	ldr	r0, [sp, #28]
    45a8:	2800      	cmp	r0, #0
    45aa:	dc25      	bgt.n	45f8 <_dtoa_r+0x8e8>
    45ac:	9922      	ldr	r1, [sp, #136]	; 0x88
    45ae:	2902      	cmp	r1, #2
    45b0:	dd22      	ble.n	45f8 <_dtoa_r+0x8e8>
    45b2:	b978      	cbnz	r0, 45d4 <_dtoa_r+0x8c4>
    45b4:	4621      	mov	r1, r4
    45b6:	2205      	movs	r2, #5
    45b8:	9b07      	ldr	r3, [sp, #28]
    45ba:	4658      	mov	r0, r11
    45bc:	f000 fbb0 	bl	4d20 <__multadd>
    45c0:	4604      	mov	r4, r0
    45c2:	4621      	mov	r1, r4
    45c4:	4650      	mov	r0, r10
    45c6:	f000 fdb5 	bl	5134 <__mcmp>
    45ca:	2800      	cmp	r0, #0
    45cc:	dc0b      	bgt.n	45e6 <_dtoa_r+0x8d6>
    45ce:	e001      	b.n	45d4 <_dtoa_r+0x8c4>
    45d0:	2400      	movs	r4, #0
    45d2:	4625      	mov	r5, r4
    45d4:	9b23      	ldr	r3, [sp, #140]	; 0x8c
    45d6:	f8dd 8028 	ldr.w	r8, [sp, #40]	; 0x28
    45da:	ea6f 0903 	mvn.w	r9, r3
    45de:	e009      	b.n	45f4 <_dtoa_r+0x8e4>
    45e0:	f8dd 9040 	ldr.w	r9, [sp, #64]	; 0x40
    45e4:	4625      	mov	r5, r4
    45e6:	f8dd 8028 	ldr.w	r8, [sp, #40]	; 0x28
    45ea:	2031      	movs	r0, #49	; 0x31
    45ec:	f808 0b01 	strb.w	r0, [r8], #1
    45f0:	f109 0901 	add.w	r9, r9, #1
    45f4:	2600      	movs	r6, #0
    45f6:	e0fe      	b.n	47f6 <_dtoa_r+0xae6>
    45f8:	9b0d      	ldr	r3, [sp, #52]	; 0x34
    45fa:	2b00      	cmp	r3, #0
    45fc:	f000 80b3 	beq.w	4766 <_dtoa_r+0xa56>
    4600:	2e00      	cmp	r6, #0
    4602:	dd05      	ble.n	4610 <_dtoa_r+0x900>
    4604:	4629      	mov	r1, r5
    4606:	4658      	mov	r0, r11
    4608:	4632      	mov	r2, r6
    460a:	f000 fd3f 	bl	508c <__lshift>
    460e:	4605      	mov	r5, r0
    4610:	b19f      	cbz	r7, 463a <_dtoa_r+0x92a>
    4612:	6869      	ldr	r1, [r5, #4]
    4614:	4658      	mov	r0, r11
    4616:	f000 fb37 	bl	4c88 <_Balloc>
    461a:	692b      	ldr	r3, [r5, #16]
    461c:	4607      	mov	r7, r0
    461e:	1c9a      	adds	r2, r3, #2
    4620:	f105 010c 	add.w	r1, r5, #12
    4624:	0092      	lsls	r2, r2, #2
    4626:	f100 000c 	add.w	r0, r0, #12
    462a:	f7fe f9c1 	bl	29b0 <memcpy>
    462e:	4658      	mov	r0, r11
    4630:	4639      	mov	r1, r7
    4632:	2201      	movs	r2, #1
    4634:	f000 fd2a 	bl	508c <__lshift>
    4638:	e000      	b.n	463c <_dtoa_r+0x92c>
    463a:	4628      	mov	r0, r5
    463c:	9b0a      	ldr	r3, [sp, #40]	; 0x28
    463e:	9907      	ldr	r1, [sp, #28]
    4640:	9e0a      	ldr	r6, [sp, #40]	; 0x28
    4642:	185a      	adds	r2, r3, r1
    4644:	1c77      	adds	r7, r6, #1
    4646:	9209      	str	r2, [sp, #36]	; 0x24
    4648:	462e      	mov	r6, r5
    464a:	4605      	mov	r5, r0
    464c:	4621      	mov	r1, r4
    464e:	4650      	mov	r0, r10
    4650:	f7ff fad0 	bl	3bf4 <quorem>
    4654:	4603      	mov	r3, r0
    4656:	3330      	adds	r3, #48	; 0x30
    4658:	9007      	str	r0, [sp, #28]
    465a:	4631      	mov	r1, r6
    465c:	4650      	mov	r0, r10
    465e:	9302      	str	r3, [sp, #8]
    4660:	f000 fd68 	bl	5134 <__mcmp>
    4664:	4621      	mov	r1, r4
    4666:	9008      	str	r0, [sp, #32]
    4668:	462a      	mov	r2, r5
    466a:	4658      	mov	r0, r11
    466c:	f000 fd7f 	bl	516e <__mdiff>
    4670:	4684      	mov	r12, r0
    4672:	68c0      	ldr	r0, [r0, #12]
    4674:	f107 38ff 	add.w	r8, r7, #4294967295
    4678:	9b02      	ldr	r3, [sp, #8]
    467a:	b950      	cbnz	r0, 4692 <_dtoa_r+0x982>
    467c:	4661      	mov	r1, r12
    467e:	4650      	mov	r0, r10
    4680:	f8cd c00c 	str.w	r12, [sp, #12]
    4684:	f000 fd56 	bl	5134 <__mcmp>
    4688:	9b02      	ldr	r3, [sp, #8]
    468a:	4602      	mov	r2, r0
    468c:	f8dd c00c 	ldr.w	r12, [sp, #12]
    4690:	e000      	b.n	4694 <_dtoa_r+0x984>
    4692:	2201      	movs	r2, #1
    4694:	4658      	mov	r0, r11
    4696:	4661      	mov	r1, r12
    4698:	9203      	str	r2, [sp, #12]
    469a:	9302      	str	r3, [sp, #8]
    469c:	f000 fb29 	bl	4cf2 <_Bfree>
    46a0:	9a03      	ldr	r2, [sp, #12]
    46a2:	9b02      	ldr	r3, [sp, #8]
    46a4:	b96a      	cbnz	r2, 46c2 <_dtoa_r+0x9b2>
    46a6:	9922      	ldr	r1, [sp, #136]	; 0x88
    46a8:	b959      	cbnz	r1, 46c2 <_dtoa_r+0x9b2>
    46aa:	9804      	ldr	r0, [sp, #16]
    46ac:	f000 0101 	and.w	r1, r0, #1
    46b0:	b939      	cbnz	r1, 46c2 <_dtoa_r+0x9b2>
    46b2:	2b39      	cmp	r3, #57	; 0x39
    46b4:	d02b      	beq.n	470e <_dtoa_r+0x9fe>
    46b6:	9a08      	ldr	r2, [sp, #32]
    46b8:	2a00      	cmp	r2, #0
    46ba:	dd2d      	ble.n	4718 <_dtoa_r+0xa08>
    46bc:	9b07      	ldr	r3, [sp, #28]
    46be:	3331      	adds	r3, #49	; 0x31
    46c0:	e02a      	b.n	4718 <_dtoa_r+0xa08>
    46c2:	9808      	ldr	r0, [sp, #32]
    46c4:	2800      	cmp	r0, #0
    46c6:	db06      	blt.n	46d6 <_dtoa_r+0x9c6>
    46c8:	d11d      	bne.n	4706 <_dtoa_r+0x9f6>
    46ca:	9922      	ldr	r1, [sp, #136]	; 0x88
    46cc:	b9d9      	cbnz	r1, 4706 <_dtoa_r+0x9f6>
    46ce:	9804      	ldr	r0, [sp, #16]
    46d0:	f000 0101 	and.w	r1, r0, #1
    46d4:	b9b9      	cbnz	r1, 4706 <_dtoa_r+0x9f6>
    46d6:	2a00      	cmp	r2, #0
    46d8:	461f      	mov	r7, r3
    46da:	dd1d      	ble.n	4718 <_dtoa_r+0xa08>
    46dc:	4651      	mov	r1, r10
    46de:	2201      	movs	r2, #1
    46e0:	4658      	mov	r0, r11
    46e2:	9302      	str	r3, [sp, #8]
    46e4:	f000 fcd2 	bl	508c <__lshift>
    46e8:	4621      	mov	r1, r4
    46ea:	4682      	mov	r10, r0
    46ec:	f000 fd22 	bl	5134 <__mcmp>
    46f0:	2800      	cmp	r0, #0
    46f2:	9b02      	ldr	r3, [sp, #8]
    46f4:	dc02      	bgt.n	46fc <_dtoa_r+0x9ec>
    46f6:	d10f      	bne.n	4718 <_dtoa_r+0xa08>
    46f8:	07da      	lsls	r2, r3, #31
    46fa:	d50d      	bpl.n	4718 <_dtoa_r+0xa08>
    46fc:	9b07      	ldr	r3, [sp, #28]
    46fe:	3331      	adds	r3, #49	; 0x31
    4700:	2f39      	cmp	r7, #57	; 0x39
    4702:	d109      	bne.n	4718 <_dtoa_r+0xa08>
    4704:	e003      	b.n	470e <_dtoa_r+0x9fe>
    4706:	2a00      	cmp	r2, #0
    4708:	dd09      	ble.n	471e <_dtoa_r+0xa0e>
    470a:	2b39      	cmp	r3, #57	; 0x39
    470c:	d103      	bne.n	4716 <_dtoa_r+0xa06>
    470e:	2339      	movs	r3, #57	; 0x39
    4710:	f808 3b01 	strb.w	r3, [r8], #1
    4714:	e055      	b.n	47c2 <_dtoa_r+0xab2>
    4716:	3301      	adds	r3, #1
    4718:	f808 3b01 	strb.w	r3, [r8], #1
    471c:	e06b      	b.n	47f6 <_dtoa_r+0xae6>
    471e:	9a09      	ldr	r2, [sp, #36]	; 0x24
    4720:	46b8      	mov	r8, r7
    4722:	4297      	cmp	r7, r2
    4724:	f807 3c01 	strb.w	r3, [r7, #-1]
    4728:	d03b      	beq.n	47a2 <_dtoa_r+0xa92>
    472a:	4651      	mov	r1, r10
    472c:	220a      	movs	r2, #10
    472e:	2300      	movs	r3, #0
    4730:	4658      	mov	r0, r11
    4732:	f000 faf5 	bl	4d20 <__multadd>
    4736:	220a      	movs	r2, #10
    4738:	2300      	movs	r3, #0
    473a:	42ae      	cmp	r6, r5
    473c:	4682      	mov	r10, r0
    473e:	4631      	mov	r1, r6
    4740:	4658      	mov	r0, r11
    4742:	d104      	bne.n	474e <_dtoa_r+0xa3e>
    4744:	f000 faec 	bl	4d20 <__multadd>
    4748:	4606      	mov	r6, r0
    474a:	4605      	mov	r5, r0
    474c:	e009      	b.n	4762 <_dtoa_r+0xa52>
    474e:	f000 fae7 	bl	4d20 <__multadd>
    4752:	4629      	mov	r1, r5
    4754:	4606      	mov	r6, r0
    4756:	220a      	movs	r2, #10
    4758:	4658      	mov	r0, r11
    475a:	2300      	movs	r3, #0
    475c:	f000 fae0 	bl	4d20 <__multadd>
    4760:	4605      	mov	r5, r0
    4762:	3701      	adds	r7, #1
    4764:	e772      	b.n	464c <_dtoa_r+0x93c>
    4766:	9e0d      	ldr	r6, [sp, #52]	; 0x34
    4768:	4650      	mov	r0, r10
    476a:	4621      	mov	r1, r4
    476c:	f7ff fa42 	bl	3bf4 <quorem>
    4770:	9a0a      	ldr	r2, [sp, #40]	; 0x28
    4772:	f100 0330 	add.w	r3, r0, #48	; 0x30
    4776:	9807      	ldr	r0, [sp, #28]
    4778:	5593      	strb	r3, [r2, r6]
    477a:	3601      	adds	r6, #1
    477c:	4286      	cmp	r6, r0
    477e:	da07      	bge.n	4790 <_dtoa_r+0xa80>
    4780:	4651      	mov	r1, r10
    4782:	4658      	mov	r0, r11
    4784:	220a      	movs	r2, #10
    4786:	2300      	movs	r3, #0
    4788:	f000 faca 	bl	4d20 <__multadd>
    478c:	4682      	mov	r10, r0
    478e:	e7eb      	b.n	4768 <_dtoa_r+0xa58>
    4790:	f8dd 8028 	ldr.w	r8, [sp, #40]	; 0x28
    4794:	9907      	ldr	r1, [sp, #28]
    4796:	2600      	movs	r6, #0
    4798:	2901      	cmp	r1, #1
    479a:	bfac      	ite	ge
    479c:	4488      	addge	r8, r1
    479e:	f108 0801 	addlt.w	r8, r8, #1
    47a2:	4651      	mov	r1, r10
    47a4:	2201      	movs	r2, #1
    47a6:	4658      	mov	r0, r11
    47a8:	9302      	str	r3, [sp, #8]
    47aa:	f000 fc6f 	bl	508c <__lshift>
    47ae:	4621      	mov	r1, r4
    47b0:	4682      	mov	r10, r0
    47b2:	f000 fcbf 	bl	5134 <__mcmp>
    47b6:	2800      	cmp	r0, #0
    47b8:	9b02      	ldr	r3, [sp, #8]
    47ba:	dc02      	bgt.n	47c2 <_dtoa_r+0xab2>
    47bc:	d114      	bne.n	47e8 <_dtoa_r+0xad8>
    47be:	07db      	lsls	r3, r3, #31
    47c0:	d512      	bpl.n	47e8 <_dtoa_r+0xad8>
    47c2:	4641      	mov	r1, r8
    47c4:	f811 0c01 	ldrb.w	r0, [r1, #-1]
    47c8:	4688      	mov	r8, r1
    47ca:	2839      	cmp	r0, #57	; 0x39
    47cc:	f101 31ff 	add.w	r1, r1, #4294967295
    47d0:	d107      	bne.n	47e2 <_dtoa_r+0xad2>
    47d2:	980a      	ldr	r0, [sp, #40]	; 0x28
    47d4:	4288      	cmp	r0, r1
    47d6:	d1f5      	bne.n	47c4 <_dtoa_r+0xab4>
    47d8:	2331      	movs	r3, #49	; 0x31
    47da:	f109 0901 	add.w	r9, r9, #1
    47de:	7003      	strb	r3, [r0, #0]
    47e0:	e009      	b.n	47f6 <_dtoa_r+0xae6>
    47e2:	1c42      	adds	r2, r0, #1
    47e4:	700a      	strb	r2, [r1, #0]
    47e6:	e006      	b.n	47f6 <_dtoa_r+0xae6>
    47e8:	4640      	mov	r0, r8
    47ea:	4680      	mov	r8, r0
    47ec:	f818 1c01 	ldrb.w	r1, [r8, #-1]
    47f0:	3801      	subs	r0, #1
    47f2:	2930      	cmp	r1, #48	; 0x30
    47f4:	d0f9      	beq.n	47ea <_dtoa_r+0xada>
    47f6:	4658      	mov	r0, r11
    47f8:	4621      	mov	r1, r4
    47fa:	f000 fa7a 	bl	4cf2 <_Bfree>
    47fe:	b16d      	cbz	r5, 481c <_dtoa_r+0xb0c>
    4800:	b12e      	cbz	r6, 480e <_dtoa_r+0xafe>
    4802:	42ae      	cmp	r6, r5
    4804:	d003      	beq.n	480e <_dtoa_r+0xafe>
    4806:	4658      	mov	r0, r11
    4808:	4631      	mov	r1, r6
    480a:	f000 fa72 	bl	4cf2 <_Bfree>
    480e:	4658      	mov	r0, r11
    4810:	4629      	mov	r1, r5
    4812:	f000 fa6e 	bl	4cf2 <_Bfree>
    4816:	e001      	b.n	481c <_dtoa_r+0xb0c>
    4818:	f8dd 9040 	ldr.w	r9, [sp, #64]	; 0x40
    481c:	4651      	mov	r1, r10
    481e:	2600      	movs	r6, #0
    4820:	4658      	mov	r0, r11
    4822:	f000 fa66 	bl	4cf2 <_Bfree>
    4826:	f888 6000 	strb.w	r6, [r8]
    482a:	9a24      	ldr	r2, [sp, #144]	; 0x90
    482c:	9e26      	ldr	r6, [sp, #152]	; 0x98
    482e:	f109 0101 	add.w	r1, r9, #1
    4832:	6011      	str	r1, [r2, #0]
    4834:	b126      	cbz	r6, 4840 <_dtoa_r+0xb30>
    4836:	f8c6 8000 	str.w	r8, [r6]
    483a:	e001      	b.n	4840 <_dtoa_r+0xb30>
    483c:	4802      	ldr	r0, [pc, #8]	; (4848 <_dtoa_r+0xb38>)
    483e:	e000      	b.n	4842 <_dtoa_r+0xb32>
    4840:	980a      	ldr	r0, [sp, #40]	; 0x28
    4842:	b019      	add	sp, #100	; 0x64
    4844:	e8bd 8ff0 	ldmia.w	sp!, {r4, r5, r6, r7, r8, r9, r10, r11, pc}
    4848:	00007106 	.word	0x00007106
    484c:	f3af 8000 	nop.w

00004850 <_fflush_r>:
    4850:	690b      	ldr	r3, [r1, #16]
    4852:	e92d 41f0 	stmdb	sp!, {r4, r5, r6, r7, r8, lr}
    4856:	4605      	mov	r5, r0
    4858:	460c      	mov	r4, r1
    485a:	2b00      	cmp	r3, #0
    485c:	d03b      	beq.n	48d6 <_fflush_r+0x86>
    485e:	b118      	cbz	r0, 4868 <_fflush_r+0x18>
    4860:	6981      	ldr	r1, [r0, #24]
    4862:	b909      	cbnz	r1, 4868 <_fflush_r+0x18>
    4864:	f000 f8ec 	bl	4a40 <__sinit>
    4868:	4848      	ldr	r0, [pc, #288]	; (498c <_fflush_r+0x13c>)
    486a:	4284      	cmp	r4, r0
    486c:	d101      	bne.n	4872 <_fflush_r+0x22>
    486e:	686c      	ldr	r4, [r5, #4]
    4870:	e008      	b.n	4884 <_fflush_r+0x34>
    4872:	4a47      	ldr	r2, [pc, #284]	; (4990 <_fflush_r+0x140>)
    4874:	4294      	cmp	r4, r2
    4876:	d101      	bne.n	487c <_fflush_r+0x2c>
    4878:	68ac      	ldr	r4, [r5, #8]
    487a:	e003      	b.n	4884 <_fflush_r+0x34>
    487c:	4b45      	ldr	r3, [pc, #276]	; (4994 <_fflush_r+0x144>)
    487e:	429c      	cmp	r4, r3
    4880:	bf08      	it	eq
    4882:	68ec      	ldreq	r4, [r5, #12]
    4884:	89a1      	ldrh	r1, [r4, #12]
    4886:	b331      	cbz	r1, 48d6 <_fflush_r+0x86>
    4888:	f001 0008 	and.w	r0, r1, #8
    488c:	b202      	sxth	r2, r0
    488e:	2a00      	cmp	r2, #0
    4890:	d161      	bne.n	4956 <_fflush_r+0x106>
    4892:	6862      	ldr	r2, [r4, #4]
    4894:	f441 6000 	orr.w	r0, r1, #2048	; 0x800
    4898:	2a00      	cmp	r2, #0
    489a:	81a0      	strh	r0, [r4, #12]
    489c:	dc02      	bgt.n	48a4 <_fflush_r+0x54>
    489e:	6c23      	ldr	r3, [r4, #64]	; 0x40
    48a0:	2b00      	cmp	r3, #0
    48a2:	dd18      	ble.n	48d6 <_fflush_r+0x86>
    48a4:	6ae6      	ldr	r6, [r4, #44]	; 0x2c
    48a6:	b1b6      	cbz	r6, 48d6 <_fflush_r+0x86>
    48a8:	f401 5180 	and.w	r1, r1, #4096	; 0x1000
    48ac:	2000      	movs	r0, #0
    48ae:	b20a      	sxth	r2, r1
    48b0:	682f      	ldr	r7, [r5, #0]
    48b2:	6028      	str	r0, [r5, #0]
    48b4:	b10a      	cbz	r2, 48ba <_fflush_r+0x6a>
    48b6:	6d62      	ldr	r2, [r4, #84]	; 0x54
    48b8:	e010      	b.n	48dc <_fflush_r+0x8c>
    48ba:	2301      	movs	r3, #1
    48bc:	4628      	mov	r0, r5
    48be:	6a21      	ldr	r1, [r4, #32]
    48c0:	47b0      	blx	r6
    48c2:	4602      	mov	r2, r0
    48c4:	3001      	adds	r0, #1
    48c6:	d109      	bne.n	48dc <_fflush_r+0x8c>
    48c8:	682b      	ldr	r3, [r5, #0]
    48ca:	b13b      	cbz	r3, 48dc <_fflush_r+0x8c>
    48cc:	2b1d      	cmp	r3, #29
    48ce:	d001      	beq.n	48d4 <_fflush_r+0x84>
    48d0:	2b16      	cmp	r3, #22
    48d2:	d11b      	bne.n	490c <_fflush_r+0xbc>
    48d4:	602f      	str	r7, [r5, #0]
    48d6:	2000      	movs	r0, #0
    48d8:	e8bd 81f0 	ldmia.w	sp!, {r4, r5, r6, r7, r8, pc}
    48dc:	89a6      	ldrh	r6, [r4, #12]
    48de:	f006 0004 	and.w	r0, r6, #4
    48e2:	b201      	sxth	r1, r0
    48e4:	b129      	cbz	r1, 48f2 <_fflush_r+0xa2>
    48e6:	6863      	ldr	r3, [r4, #4]
    48e8:	6b66      	ldr	r6, [r4, #52]	; 0x34
    48ea:	1ad2      	subs	r2, r2, r3
    48ec:	b10e      	cbz	r6, 48f2 <_fflush_r+0xa2>
    48ee:	6c20      	ldr	r0, [r4, #64]	; 0x40
    48f0:	1a12      	subs	r2, r2, r0
    48f2:	6a21      	ldr	r1, [r4, #32]
    48f4:	2300      	movs	r3, #0
    48f6:	6ae6      	ldr	r6, [r4, #44]	; 0x2c
    48f8:	4628      	mov	r0, r5
    48fa:	47b0      	blx	r6
    48fc:	1c41      	adds	r1, r0, #1
    48fe:	d10d      	bne.n	491c <_fflush_r+0xcc>
    4900:	682a      	ldr	r2, [r5, #0]
    4902:	b15a      	cbz	r2, 491c <_fflush_r+0xcc>
    4904:	2a1d      	cmp	r2, #29
    4906:	d009      	beq.n	491c <_fflush_r+0xcc>
    4908:	2a16      	cmp	r2, #22
    490a:	d007      	beq.n	491c <_fflush_r+0xcc>
    490c:	89a1      	ldrh	r1, [r4, #12]
    490e:	f04f 30ff 	mov.w	r0, #4294967295
    4912:	f041 0340 	orr.w	r3, r1, #64	; 0x40
    4916:	81a3      	strh	r3, [r4, #12]
    4918:	e8bd 81f0 	ldmia.w	sp!, {r4, r5, r6, r7, r8, pc}
    491c:	89a3      	ldrh	r3, [r4, #12]
    491e:	2200      	movs	r2, #0
    4920:	6921      	ldr	r1, [r4, #16]
    4922:	6062      	str	r2, [r4, #4]
    4924:	f403 5280 	and.w	r2, r3, #4096	; 0x1000
    4928:	6021      	str	r1, [r4, #0]
    492a:	b211      	sxth	r1, r2
    492c:	b121      	cbz	r1, 4938 <_fflush_r+0xe8>
    492e:	1c42      	adds	r2, r0, #1
    4930:	d101      	bne.n	4936 <_fflush_r+0xe6>
    4932:	682b      	ldr	r3, [r5, #0]
    4934:	b903      	cbnz	r3, 4938 <_fflush_r+0xe8>
    4936:	6560      	str	r0, [r4, #84]	; 0x54
    4938:	6b61      	ldr	r1, [r4, #52]	; 0x34
    493a:	602f      	str	r7, [r5, #0]
    493c:	2900      	cmp	r1, #0
    493e:	d0ca      	beq.n	48d6 <_fflush_r+0x86>
    4940:	f104 0044 	add.w	r0, r4, #68	; 0x44
    4944:	4281      	cmp	r1, r0
    4946:	d002      	beq.n	494e <_fflush_r+0xfe>
    4948:	4628      	mov	r0, r5
    494a:	f000 f8e1 	bl	4b10 <_free_r>
    494e:	2000      	movs	r0, #0
    4950:	6360      	str	r0, [r4, #52]	; 0x34
    4952:	e8bd 81f0 	ldmia.w	sp!, {r4, r5, r6, r7, r8, pc}
    4956:	6926      	ldr	r6, [r4, #16]
    4958:	2e00      	cmp	r6, #0
    495a:	d0bc      	beq.n	48d6 <_fflush_r+0x86>
    495c:	0789      	lsls	r1, r1, #30
    495e:	6823      	ldr	r3, [r4, #0]
    4960:	bf0c      	ite	eq
    4962:	6961      	ldreq	r1, [r4, #20]
    4964:	2100      	movne	r1, #0
    4966:	ebc6 0803 	rsb	r8, r6, r3
    496a:	6026      	str	r6, [r4, #0]
    496c:	60a1      	str	r1, [r4, #8]
    496e:	f1b8 0f00 	cmp.w	r8, #0
    4972:	ddb0      	ble.n	48d6 <_fflush_r+0x86>
    4974:	6aa7      	ldr	r7, [r4, #40]	; 0x28
    4976:	4628      	mov	r0, r5
    4978:	6a21      	ldr	r1, [r4, #32]
    497a:	4632      	mov	r2, r6
    497c:	4643      	mov	r3, r8
    497e:	47b8      	blx	r7
    4980:	2800      	cmp	r0, #0
    4982:	ddc3      	ble.n	490c <_fflush_r+0xbc>
    4984:	1836      	adds	r6, r6, r0
    4986:	ebc0 0808 	rsb	r8, r0, r8
    498a:	e7f0      	b.n	496e <_fflush_r+0x11e>
    498c:	00007108 	.word	0x00007108
    4990:	00007128 	.word	0x00007128
    4994:	00007148 	.word	0x00007148

00004998 <_cleanup_r>:
    4998:	b5f8      	push	{r3, r4, r5, r6, r7, lr}
    499a:	4607      	mov	r7, r0
    499c:	f100 044c 	add.w	r4, r0, #76	; 0x4c
    49a0:	b194      	cbz	r4, 49c8 <_cleanup_r+0x30>
    49a2:	68a5      	ldr	r5, [r4, #8]
    49a4:	6866      	ldr	r6, [r4, #4]
    49a6:	3e01      	subs	r6, #1
    49a8:	d40c      	bmi.n	49c4 <_cleanup_r+0x2c>
    49aa:	f9b5 300c 	ldrsh.w	r3, [r5, #12]
    49ae:	b13b      	cbz	r3, 49c0 <_cleanup_r+0x28>
    49b0:	f9b5 000e 	ldrsh.w	r0, [r5, #14]
    49b4:	1c43      	adds	r3, r0, #1
    49b6:	d003      	beq.n	49c0 <_cleanup_r+0x28>
    49b8:	4638      	mov	r0, r7
    49ba:	4629      	mov	r1, r5
    49bc:	f7ff ff48 	bl	4850 <_fflush_r>
    49c0:	3568      	adds	r5, #104	; 0x68
    49c2:	e7f0      	b.n	49a6 <_cleanup_r+0xe>
    49c4:	6824      	ldr	r4, [r4, #0]
    49c6:	e7eb      	b.n	49a0 <_cleanup_r+0x8>
    49c8:	bdf8      	pop	{r3, r4, r5, r6, r7, pc}
	...

000049cc <std.isra.0>:
    49cc:	2300      	movs	r3, #0
    49ce:	b510      	push	{r4, lr}
    49d0:	4604      	mov	r4, r0
    49d2:	6003      	str	r3, [r0, #0]
    49d4:	6043      	str	r3, [r0, #4]
    49d6:	6083      	str	r3, [r0, #8]
    49d8:	8181      	strh	r1, [r0, #12]
    49da:	6643      	str	r3, [r0, #100]	; 0x64
    49dc:	81c2      	strh	r2, [r0, #14]
    49de:	6103      	str	r3, [r0, #16]
    49e0:	6143      	str	r3, [r0, #20]
    49e2:	6183      	str	r3, [r0, #24]
    49e4:	4619      	mov	r1, r3
    49e6:	2208      	movs	r2, #8
    49e8:	f100 005c 	add.w	r0, r0, #92	; 0x5c
    49ec:	f7fd ffe9 	bl	29c2 <memset>
    49f0:	4804      	ldr	r0, [pc, #16]	; (4a04 <std.isra.0+0x38>)
    49f2:	4905      	ldr	r1, [pc, #20]	; (4a08 <std.isra.0+0x3c>)
    49f4:	4a05      	ldr	r2, [pc, #20]	; (4a0c <std.isra.0+0x40>)
    49f6:	4b06      	ldr	r3, [pc, #24]	; (4a10 <std.isra.0+0x44>)
    49f8:	6224      	str	r4, [r4, #32]
    49fa:	6260      	str	r0, [r4, #36]	; 0x24
    49fc:	62a1      	str	r1, [r4, #40]	; 0x28
    49fe:	62e2      	str	r2, [r4, #44]	; 0x2c
    4a00:	6323      	str	r3, [r4, #48]	; 0x30
    4a02:	bd10      	pop	{r4, pc}
    4a04:	00002a25 	.word	0x00002a25
    4a08:	00002a47 	.word	0x00002a47
    4a0c:	00002a83 	.word	0x00002a83
    4a10:	00002aa7 	.word	0x00002aa7

00004a14 <__sfmoreglue>:
    4a14:	b570      	push	{r4, r5, r6, lr}
    4a16:	2568      	movs	r5, #104	; 0x68
    4a18:	434d      	muls	r5, r1
    4a1a:	460e      	mov	r6, r1
    4a1c:	f105 010c 	add.w	r1, r5, #12
    4a20:	f7fd ff7c 	bl	291c <_malloc_r>
    4a24:	4604      	mov	r4, r0
    4a26:	b140      	cbz	r0, 4a3a <__sfmoreglue+0x26>
    4a28:	f100 000c 	add.w	r0, r0, #12
    4a2c:	2100      	movs	r1, #0
    4a2e:	e884 0042 	stmia.w	r4, {r1, r6}
    4a32:	60a0      	str	r0, [r4, #8]
    4a34:	462a      	mov	r2, r5
    4a36:	f7fd ffc4 	bl	29c2 <memset>
    4a3a:	4620      	mov	r0, r4
    4a3c:	bd70      	pop	{r4, r5, r6, pc}
	...

00004a40 <__sinit>:
    4a40:	b570      	push	{r4, r5, r6, lr}
    4a42:	6985      	ldr	r5, [r0, #24]
    4a44:	4604      	mov	r4, r0
    4a46:	2d00      	cmp	r5, #0
    4a48:	d122      	bne.n	4a90 <__sinit+0x50>
    4a4a:	4b12      	ldr	r3, [pc, #72]	; (4a94 <__sinit+0x54>)
    4a4c:	2601      	movs	r6, #1
    4a4e:	6283      	str	r3, [r0, #40]	; 0x28
    4a50:	6186      	str	r6, [r0, #24]
    4a52:	64c5      	str	r5, [r0, #76]	; 0x4c
    4a54:	6505      	str	r5, [r0, #80]	; 0x50
    4a56:	6545      	str	r5, [r0, #84]	; 0x54
    4a58:	f000 f81e 	bl	4a98 <__sfp>
    4a5c:	6060      	str	r0, [r4, #4]
    4a5e:	4620      	mov	r0, r4
    4a60:	f000 f81a 	bl	4a98 <__sfp>
    4a64:	60a0      	str	r0, [r4, #8]
    4a66:	4620      	mov	r0, r4
    4a68:	f000 f816 	bl	4a98 <__sfp>
    4a6c:	2104      	movs	r1, #4
    4a6e:	60e0      	str	r0, [r4, #12]
    4a70:	462a      	mov	r2, r5
    4a72:	6860      	ldr	r0, [r4, #4]
    4a74:	f7ff ffaa 	bl	49cc <std.isra.0>
    4a78:	68a0      	ldr	r0, [r4, #8]
    4a7a:	2109      	movs	r1, #9
    4a7c:	4632      	mov	r2, r6
    4a7e:	f7ff ffa5 	bl	49cc <std.isra.0>
    4a82:	68e0      	ldr	r0, [r4, #12]
    4a84:	2112      	movs	r1, #18
    4a86:	2202      	movs	r2, #2
    4a88:	e8bd 4070 	ldmia.w	sp!, {r4, r5, r6, lr}
    4a8c:	f7ff bf9e 	b.w	49cc <std.isra.0>
    4a90:	bd70      	pop	{r4, r5, r6, pc}
    4a92:	bf00      	nop
    4a94:	00004999 	.word	0x00004999

00004a98 <__sfp>:
    4a98:	b5f8      	push	{r3, r4, r5, r6, r7, lr}
    4a9a:	4b1c      	ldr	r3, [pc, #112]	; (4b0c <__sfp+0x74>)
    4a9c:	4607      	mov	r7, r0
    4a9e:	681e      	ldr	r6, [r3, #0]
    4aa0:	69b0      	ldr	r0, [r6, #24]
    4aa2:	b910      	cbnz	r0, 4aaa <__sfp+0x12>
    4aa4:	4630      	mov	r0, r6
    4aa6:	f7ff ffcb 	bl	4a40 <__sinit>
    4aaa:	364c      	adds	r6, #76	; 0x4c
    4aac:	68b4      	ldr	r4, [r6, #8]
    4aae:	6871      	ldr	r1, [r6, #4]
    4ab0:	3901      	subs	r1, #1
    4ab2:	d404      	bmi.n	4abe <__sfp+0x26>
    4ab4:	f9b4 500c 	ldrsh.w	r5, [r4, #12]
    4ab8:	b185      	cbz	r5, 4adc <__sfp+0x44>
    4aba:	3468      	adds	r4, #104	; 0x68
    4abc:	e7f8      	b.n	4ab0 <__sfp+0x18>
    4abe:	6832      	ldr	r2, [r6, #0]
    4ac0:	b10a      	cbz	r2, 4ac6 <__sfp+0x2e>
    4ac2:	6836      	ldr	r6, [r6, #0]
    4ac4:	e7f2      	b.n	4aac <__sfp+0x14>
    4ac6:	4638      	mov	r0, r7
    4ac8:	2104      	movs	r1, #4
    4aca:	f7ff ffa3 	bl	4a14 <__sfmoreglue>
    4ace:	6030      	str	r0, [r6, #0]
    4ad0:	2800      	cmp	r0, #0
    4ad2:	d1f6      	bne.n	4ac2 <__sfp+0x2a>
    4ad4:	240c      	movs	r4, #12
    4ad6:	603c      	str	r4, [r7, #0]
    4ad8:	4604      	mov	r4, r0
    4ada:	e015      	b.n	4b08 <__sfp+0x70>
    4adc:	f64f 73ff 	movw	r3, #65535	; 0xffff
    4ae0:	2001      	movs	r0, #1
    4ae2:	81a0      	strh	r0, [r4, #12]
    4ae4:	81e3      	strh	r3, [r4, #14]
    4ae6:	6665      	str	r5, [r4, #100]	; 0x64
    4ae8:	6025      	str	r5, [r4, #0]
    4aea:	60a5      	str	r5, [r4, #8]
    4aec:	6065      	str	r5, [r4, #4]
    4aee:	6125      	str	r5, [r4, #16]
    4af0:	6165      	str	r5, [r4, #20]
    4af2:	61a5      	str	r5, [r4, #24]
    4af4:	f104 005c 	add.w	r0, r4, #92	; 0x5c
    4af8:	4629      	mov	r1, r5
    4afa:	2208      	movs	r2, #8
    4afc:	f7fd ff61 	bl	29c2 <memset>
    4b00:	6365      	str	r5, [r4, #52]	; 0x34
    4b02:	63a5      	str	r5, [r4, #56]	; 0x38
    4b04:	64a5      	str	r5, [r4, #72]	; 0x48
    4b06:	64e5      	str	r5, [r4, #76]	; 0x4c
    4b08:	4620      	mov	r0, r4
    4b0a:	bdf8      	pop	{r3, r4, r5, r6, r7, pc}
    4b0c:	00006fac 	.word	0x00006fac

00004b10 <_free_r>:
    4b10:	b530      	push	{r4, r5, lr}
    4b12:	2900      	cmp	r1, #0
    4b14:	d03c      	beq.n	4b90 <_free_r+0x80>
    4b16:	f851 2c04 	ldr.w	r2, [r1, #-4]
    4b1a:	1f0b      	subs	r3, r1, #4
    4b1c:	491d      	ldr	r1, [pc, #116]	; (4b94 <_free_r+0x84>)
    4b1e:	2a00      	cmp	r2, #0
    4b20:	bfb8      	it	lt
    4b22:	189b      	addlt	r3, r3, r2
    4b24:	680a      	ldr	r2, [r1, #0]
    4b26:	b912      	cbnz	r2, 4b2e <_free_r+0x1e>
    4b28:	605a      	str	r2, [r3, #4]
    4b2a:	600b      	str	r3, [r1, #0]
    4b2c:	bd30      	pop	{r4, r5, pc}
    4b2e:	4293      	cmp	r3, r2
    4b30:	d20e      	bcs.n	4b50 <_free_r+0x40>
    4b32:	6819      	ldr	r1, [r3, #0]
    4b34:	1858      	adds	r0, r3, r1
    4b36:	4290      	cmp	r0, r2
    4b38:	d103      	bne.n	4b42 <_free_r+0x32>
    4b3a:	585a      	ldr	r2, [r3, r1]
    4b3c:	1889      	adds	r1, r1, r2
    4b3e:	6842      	ldr	r2, [r0, #4]
    4b40:	6019      	str	r1, [r3, #0]
    4b42:	4814      	ldr	r0, [pc, #80]	; (4b94 <_free_r+0x84>)
    4b44:	605a      	str	r2, [r3, #4]
    4b46:	6003      	str	r3, [r0, #0]
    4b48:	bd30      	pop	{r4, r5, pc}
    4b4a:	4299      	cmp	r1, r3
    4b4c:	d803      	bhi.n	4b56 <_free_r+0x46>
    4b4e:	460a      	mov	r2, r1
    4b50:	6851      	ldr	r1, [r2, #4]
    4b52:	2900      	cmp	r1, #0
    4b54:	d1f9      	bne.n	4b4a <_free_r+0x3a>
    4b56:	6814      	ldr	r4, [r2, #0]
    4b58:	1915      	adds	r5, r2, r4
    4b5a:	429d      	cmp	r5, r3
    4b5c:	d10a      	bne.n	4b74 <_free_r+0x64>
    4b5e:	6818      	ldr	r0, [r3, #0]
    4b60:	1823      	adds	r3, r4, r0
    4b62:	18d0      	adds	r0, r2, r3
    4b64:	4288      	cmp	r0, r1
    4b66:	6013      	str	r3, [r2, #0]
    4b68:	d112      	bne.n	4b90 <_free_r+0x80>
    4b6a:	6808      	ldr	r0, [r1, #0]
    4b6c:	181b      	adds	r3, r3, r0
    4b6e:	6013      	str	r3, [r2, #0]
    4b70:	684b      	ldr	r3, [r1, #4]
    4b72:	e00c      	b.n	4b8e <_free_r+0x7e>
    4b74:	d902      	bls.n	4b7c <_free_r+0x6c>
    4b76:	230c      	movs	r3, #12
    4b78:	6003      	str	r3, [r0, #0]
    4b7a:	bd30      	pop	{r4, r5, pc}
    4b7c:	6818      	ldr	r0, [r3, #0]
    4b7e:	181c      	adds	r4, r3, r0
    4b80:	428c      	cmp	r4, r1
    4b82:	d103      	bne.n	4b8c <_free_r+0x7c>
    4b84:	680c      	ldr	r4, [r1, #0]
    4b86:	6849      	ldr	r1, [r1, #4]
    4b88:	1900      	adds	r0, r0, r4
    4b8a:	6018      	str	r0, [r3, #0]
    4b8c:	6059      	str	r1, [r3, #4]
    4b8e:	6053      	str	r3, [r2, #4]
    4b90:	bd30      	pop	{r4, r5, pc}
    4b92:	bf00      	nop
    4b94:	1000067c 	.word	0x1000067c

00004b98 <_localeconv_r>:
    4b98:	4800      	ldr	r0, [pc, #0]	; (4b9c <_localeconv_r+0x4>)
    4b9a:	4770      	bx	lr
    4b9c:	100004e0 	.word	0x100004e0

00004ba0 <_lseek_r>:
    4ba0:	b538      	push	{r3, r4, r5, lr}
    4ba2:	4c07      	ldr	r4, [pc, #28]	; (4bc0 <_lseek_r+0x20>)
    4ba4:	4605      	mov	r5, r0
    4ba6:	2000      	movs	r0, #0
    4ba8:	6020      	str	r0, [r4, #0]
    4baa:	4608      	mov	r0, r1
    4bac:	4611      	mov	r1, r2
    4bae:	461a      	mov	r2, r3
    4bb0:	f7fc f8b6 	bl	d20 <_lseek>
    4bb4:	1c43      	adds	r3, r0, #1
    4bb6:	d102      	bne.n	4bbe <_lseek_r+0x1e>
    4bb8:	6823      	ldr	r3, [r4, #0]
    4bba:	b103      	cbz	r3, 4bbe <_lseek_r+0x1e>
    4bbc:	602b      	str	r3, [r5, #0]
    4bbe:	bd38      	pop	{r3, r4, r5, pc}
    4bc0:	1000068c 	.word	0x1000068c

00004bc4 <__smakebuf_r>:
    4bc4:	b5f0      	push	{r4, r5, r6, r7, lr}
    4bc6:	898b      	ldrh	r3, [r1, #12]
    4bc8:	460c      	mov	r4, r1
    4bca:	f003 0102 	and.w	r1, r3, #2
    4bce:	b20a      	sxth	r2, r1
    4bd0:	b091      	sub	sp, #68	; 0x44
    4bd2:	4605      	mov	r5, r0
    4bd4:	bb52      	cbnz	r2, 4c2c <__smakebuf_r+0x68>
    4bd6:	f9b4 100e 	ldrsh.w	r1, [r4, #14]
    4bda:	2900      	cmp	r1, #0
    4bdc:	da0a      	bge.n	4bf4 <__smakebuf_r+0x30>
    4bde:	89a1      	ldrh	r1, [r4, #12]
    4be0:	2700      	movs	r7, #0
    4be2:	f001 0280 	and.w	r2, r1, #128	; 0x80
    4be6:	b210      	sxth	r0, r2
    4be8:	42b8      	cmp	r0, r7
    4bea:	bf14      	ite	ne
    4bec:	2640      	movne	r6, #64	; 0x40
    4bee:	f44f 6680 	moveq.w	r6, #1024	; 0x400
    4bf2:	e00e      	b.n	4c12 <__smakebuf_r+0x4e>
    4bf4:	aa01      	add	r2, sp, #4
    4bf6:	f001 fc5d 	bl	64b4 <_fstat_r>
    4bfa:	2800      	cmp	r0, #0
    4bfc:	dbef      	blt.n	4bde <__smakebuf_r+0x1a>
    4bfe:	9f02      	ldr	r7, [sp, #8]
    4c00:	f407 4070 	and.w	r0, r7, #61440	; 0xf000
    4c04:	f5b0 5600 	subs.w	r6, r0, #8192	; 0x2000
    4c08:	4273      	negs	r3, r6
    4c0a:	eb53 0706 	adcs.w	r7, r3, r6
    4c0e:	f44f 6680 	mov.w	r6, #1024	; 0x400
    4c12:	4628      	mov	r0, r5
    4c14:	4631      	mov	r1, r6
    4c16:	f7fd fe81 	bl	291c <_malloc_r>
    4c1a:	b970      	cbnz	r0, 4c3a <__smakebuf_r+0x76>
    4c1c:	89a1      	ldrh	r1, [r4, #12]
    4c1e:	f401 7200 	and.w	r2, r1, #512	; 0x200
    4c22:	b210      	sxth	r0, r2
    4c24:	b9e8      	cbnz	r0, 4c62 <__smakebuf_r+0x9e>
    4c26:	f041 0302 	orr.w	r3, r1, #2
    4c2a:	81a3      	strh	r3, [r4, #12]
    4c2c:	f104 0147 	add.w	r1, r4, #71	; 0x47
    4c30:	2201      	movs	r2, #1
    4c32:	6021      	str	r1, [r4, #0]
    4c34:	6121      	str	r1, [r4, #16]
    4c36:	6162      	str	r2, [r4, #20]
    4c38:	e013      	b.n	4c62 <__smakebuf_r+0x9e>
    4c3a:	89a1      	ldrh	r1, [r4, #12]
    4c3c:	4b0a      	ldr	r3, [pc, #40]	; (4c68 <__smakebuf_r+0xa4>)
    4c3e:	f041 0280 	orr.w	r2, r1, #128	; 0x80
    4c42:	62ab      	str	r3, [r5, #40]	; 0x28
    4c44:	81a2      	strh	r2, [r4, #12]
    4c46:	6020      	str	r0, [r4, #0]
    4c48:	6120      	str	r0, [r4, #16]
    4c4a:	6166      	str	r6, [r4, #20]
    4c4c:	b14f      	cbz	r7, 4c62 <__smakebuf_r+0x9e>
    4c4e:	4628      	mov	r0, r5
    4c50:	f9b4 100e 	ldrsh.w	r1, [r4, #14]
    4c54:	f001 ff7c 	bl	6b50 <_isatty_r>
    4c58:	b118      	cbz	r0, 4c62 <__smakebuf_r+0x9e>
    4c5a:	89a0      	ldrh	r0, [r4, #12]
    4c5c:	f040 0301 	orr.w	r3, r0, #1
    4c60:	81a3      	strh	r3, [r4, #12]
    4c62:	b011      	add	sp, #68	; 0x44
    4c64:	bdf0      	pop	{r4, r5, r6, r7, pc}
    4c66:	bf00      	nop
    4c68:	00004999 	.word	0x00004999

00004c6c <memchr>:
    4c6c:	b510      	push	{r4, lr}
    4c6e:	b2c9      	uxtb	r1, r1
    4c70:	4603      	mov	r3, r0
    4c72:	1882      	adds	r2, r0, r2
    4c74:	4293      	cmp	r3, r2
    4c76:	4618      	mov	r0, r3
    4c78:	d004      	beq.n	4c84 <memchr+0x18>
    4c7a:	7804      	ldrb	r4, [r0, #0]
    4c7c:	3301      	adds	r3, #1
    4c7e:	428c      	cmp	r4, r1
    4c80:	d1f8      	bne.n	4c74 <memchr+0x8>
    4c82:	e000      	b.n	4c86 <memchr+0x1a>
    4c84:	2000      	movs	r0, #0
    4c86:	bd10      	pop	{r4, pc}

00004c88 <_Balloc>:
    4c88:	b570      	push	{r4, r5, r6, lr}
    4c8a:	6a45      	ldr	r5, [r0, #36]	; 0x24
    4c8c:	4604      	mov	r4, r0
    4c8e:	460e      	mov	r6, r1
    4c90:	b93d      	cbnz	r5, 4ca2 <_Balloc+0x1a>
    4c92:	2010      	movs	r0, #16
    4c94:	f7fd fe32 	bl	28fc <malloc>
    4c98:	6260      	str	r0, [r4, #36]	; 0x24
    4c9a:	6045      	str	r5, [r0, #4]
    4c9c:	6085      	str	r5, [r0, #8]
    4c9e:	6005      	str	r5, [r0, #0]
    4ca0:	60c5      	str	r5, [r0, #12]
    4ca2:	6a65      	ldr	r5, [r4, #36]	; 0x24
    4ca4:	68eb      	ldr	r3, [r5, #12]
    4ca6:	b143      	cbz	r3, 4cba <_Balloc+0x32>
    4ca8:	6a62      	ldr	r2, [r4, #36]	; 0x24
    4caa:	68d3      	ldr	r3, [r2, #12]
    4cac:	f853 0026 	ldr.w	r0, [r3, r6, lsl #2]
    4cb0:	b178      	cbz	r0, 4cd2 <_Balloc+0x4a>
    4cb2:	6801      	ldr	r1, [r0, #0]
    4cb4:	f843 1026 	str.w	r1, [r3, r6, lsl #2]
    4cb8:	e017      	b.n	4cea <_Balloc+0x62>
    4cba:	2104      	movs	r1, #4
    4cbc:	4620      	mov	r0, r4
    4cbe:	2221      	movs	r2, #33	; 0x21
    4cc0:	f001 fbea 	bl	6498 <_calloc_r>
    4cc4:	60e8      	str	r0, [r5, #12]
    4cc6:	6a60      	ldr	r0, [r4, #36]	; 0x24
    4cc8:	68c1      	ldr	r1, [r0, #12]
    4cca:	2900      	cmp	r1, #0
    4ccc:	d1ec      	bne.n	4ca8 <_Balloc+0x20>
    4cce:	2000      	movs	r0, #0
    4cd0:	bd70      	pop	{r4, r5, r6, pc}
    4cd2:	2101      	movs	r1, #1
    4cd4:	fa01 f506 	lsl.w	r5, r1, r6
    4cd8:	1d6a      	adds	r2, r5, #5
    4cda:	4620      	mov	r0, r4
    4cdc:	0092      	lsls	r2, r2, #2
    4cde:	f001 fbdb 	bl	6498 <_calloc_r>
    4ce2:	2800      	cmp	r0, #0
    4ce4:	d0f3      	beq.n	4cce <_Balloc+0x46>
    4ce6:	6046      	str	r6, [r0, #4]
    4ce8:	6085      	str	r5, [r0, #8]
    4cea:	2300      	movs	r3, #0
    4cec:	6103      	str	r3, [r0, #16]
    4cee:	60c3      	str	r3, [r0, #12]
    4cf0:	bd70      	pop	{r4, r5, r6, pc}

00004cf2 <_Bfree>:
    4cf2:	b570      	push	{r4, r5, r6, lr}
    4cf4:	6a44      	ldr	r4, [r0, #36]	; 0x24
    4cf6:	4606      	mov	r6, r0
    4cf8:	460d      	mov	r5, r1
    4cfa:	b93c      	cbnz	r4, 4d0c <_Bfree+0x1a>
    4cfc:	2010      	movs	r0, #16
    4cfe:	f7fd fdfd 	bl	28fc <malloc>
    4d02:	6270      	str	r0, [r6, #36]	; 0x24
    4d04:	6044      	str	r4, [r0, #4]
    4d06:	6084      	str	r4, [r0, #8]
    4d08:	6004      	str	r4, [r0, #0]
    4d0a:	60c4      	str	r4, [r0, #12]
    4d0c:	b13d      	cbz	r5, 4d1e <_Bfree+0x2c>
    4d0e:	6a73      	ldr	r3, [r6, #36]	; 0x24
    4d10:	686a      	ldr	r2, [r5, #4]
    4d12:	68d8      	ldr	r0, [r3, #12]
    4d14:	f850 1022 	ldr.w	r1, [r0, r2, lsl #2]
    4d18:	6029      	str	r1, [r5, #0]
    4d1a:	f840 5022 	str.w	r5, [r0, r2, lsl #2]
    4d1e:	bd70      	pop	{r4, r5, r6, pc}

00004d20 <__multadd>:
    4d20:	e92d 41f0 	stmdb	sp!, {r4, r5, r6, r7, r8, lr}
    4d24:	460c      	mov	r4, r1
    4d26:	461e      	mov	r6, r3
    4d28:	690d      	ldr	r5, [r1, #16]
    4d2a:	4607      	mov	r7, r0
    4d2c:	f101 0114 	add.w	r1, r1, #20
    4d30:	2300      	movs	r3, #0
    4d32:	6808      	ldr	r0, [r1, #0]
    4d34:	3301      	adds	r3, #1
    4d36:	fa1f fc80 	uxth.w	r12, r0
    4d3a:	fb02 6c0c 	mla	r12, r2, r12, r6
    4d3e:	0c06      	lsrs	r6, r0, #16
    4d40:	4356      	muls	r6, r2
    4d42:	eb06 401c 	add.w	r0, r6, r12, lsr #16
    4d46:	fa1f fc8c 	uxth.w	r12, r12
    4d4a:	0c06      	lsrs	r6, r0, #16
    4d4c:	eb0c 4000 	add.w	r0, r12, r0, lsl #16
    4d50:	42ab      	cmp	r3, r5
    4d52:	f841 0b04 	str.w	r0, [r1], #4
    4d56:	dbec      	blt.n	4d32 <__multadd+0x12>
    4d58:	b1de      	cbz	r6, 4d92 <__multadd+0x72>
    4d5a:	68a2      	ldr	r2, [r4, #8]
    4d5c:	4295      	cmp	r5, r2
    4d5e:	db13      	blt.n	4d88 <__multadd+0x68>
    4d60:	6861      	ldr	r1, [r4, #4]
    4d62:	4638      	mov	r0, r7
    4d64:	3101      	adds	r1, #1
    4d66:	f7ff ff8f 	bl	4c88 <_Balloc>
    4d6a:	4680      	mov	r8, r0
    4d6c:	6920      	ldr	r0, [r4, #16]
    4d6e:	f104 010c 	add.w	r1, r4, #12
    4d72:	1c83      	adds	r3, r0, #2
    4d74:	009a      	lsls	r2, r3, #2
    4d76:	f108 000c 	add.w	r0, r8, #12
    4d7a:	f7fd fe19 	bl	29b0 <memcpy>
    4d7e:	4621      	mov	r1, r4
    4d80:	4638      	mov	r0, r7
    4d82:	f7ff ffb6 	bl	4cf2 <_Bfree>
    4d86:	4644      	mov	r4, r8
    4d88:	eb04 0285 	add.w	r2, r4, r5, lsl #2
    4d8c:	3501      	adds	r5, #1
    4d8e:	6156      	str	r6, [r2, #20]
    4d90:	6125      	str	r5, [r4, #16]
    4d92:	4620      	mov	r0, r4
    4d94:	e8bd 81f0 	ldmia.w	sp!, {r4, r5, r6, r7, r8, pc}

00004d98 <__s2b>:
    4d98:	e92d 43f8 	stmdb	sp!, {r3, r4, r5, r6, r7, r8, r9, lr}
    4d9c:	4614      	mov	r4, r2
    4d9e:	4698      	mov	r8, r3
    4da0:	f103 0208 	add.w	r2, r3, #8
    4da4:	2309      	movs	r3, #9
    4da6:	4605      	mov	r5, r0
    4da8:	460e      	mov	r6, r1
    4daa:	fb92 f0f3 	sdiv	r0, r2, r3
    4dae:	2100      	movs	r1, #0
    4db0:	2301      	movs	r3, #1
    4db2:	4298      	cmp	r0, r3
    4db4:	dd02      	ble.n	4dbc <__s2b+0x24>
    4db6:	005b      	lsls	r3, r3, #1
    4db8:	3101      	adds	r1, #1
    4dba:	e7fa      	b.n	4db2 <__s2b+0x1a>
    4dbc:	4628      	mov	r0, r5
    4dbe:	f7ff ff63 	bl	4c88 <_Balloc>
    4dc2:	4601      	mov	r1, r0
    4dc4:	9808      	ldr	r0, [sp, #32]
    4dc6:	2701      	movs	r7, #1
    4dc8:	2c09      	cmp	r4, #9
    4dca:	6148      	str	r0, [r1, #20]
    4dcc:	610f      	str	r7, [r1, #16]
    4dce:	dd12      	ble.n	4df6 <__s2b+0x5e>
    4dd0:	f106 0909 	add.w	r9, r6, #9
    4dd4:	464f      	mov	r7, r9
    4dd6:	1936      	adds	r6, r6, r4
    4dd8:	f817 3b01 	ldrb.w	r3, [r7], #1
    4ddc:	220a      	movs	r2, #10
    4dde:	3b30      	subs	r3, #48	; 0x30
    4de0:	4628      	mov	r0, r5
    4de2:	f7ff ff9d 	bl	4d20 <__multadd>
    4de6:	42b7      	cmp	r7, r6
    4de8:	4601      	mov	r1, r0
    4dea:	d1f5      	bne.n	4dd8 <__s2b+0x40>
    4dec:	eb09 0704 	add.w	r7, r9, r4
    4df0:	3f08      	subs	r7, #8
    4df2:	4626      	mov	r6, r4
    4df4:	e002      	b.n	4dfc <__s2b+0x64>
    4df6:	f106 070a 	add.w	r7, r6, #10
    4dfa:	2609      	movs	r6, #9
    4dfc:	4634      	mov	r4, r6
    4dfe:	4544      	cmp	r4, r8
    4e00:	da09      	bge.n	4e16 <__s2b+0x7e>
    4e02:	1bba      	subs	r2, r7, r6
    4e04:	5d13      	ldrb	r3, [r2, r4]
    4e06:	4628      	mov	r0, r5
    4e08:	220a      	movs	r2, #10
    4e0a:	3b30      	subs	r3, #48	; 0x30
    4e0c:	f7ff ff88 	bl	4d20 <__multadd>
    4e10:	3401      	adds	r4, #1
    4e12:	4601      	mov	r1, r0
    4e14:	e7f3      	b.n	4dfe <__s2b+0x66>
    4e16:	4608      	mov	r0, r1
    4e18:	e8bd 83f8 	ldmia.w	sp!, {r3, r4, r5, r6, r7, r8, r9, pc}

00004e1c <__hi0bits>:
    4e1c:	0c02      	lsrs	r2, r0, #16
    4e1e:	4603      	mov	r3, r0
    4e20:	0410      	lsls	r0, r2, #16
    4e22:	b910      	cbnz	r0, 4e2a <__hi0bits+0xe>
    4e24:	041b      	lsls	r3, r3, #16
    4e26:	2010      	movs	r0, #16
    4e28:	e000      	b.n	4e2c <__hi0bits+0x10>
    4e2a:	2000      	movs	r0, #0
    4e2c:	f013 4f7f 	tst.w	r3, #4278190080	; 0xff000000
    4e30:	d101      	bne.n	4e36 <__hi0bits+0x1a>
    4e32:	3008      	adds	r0, #8
    4e34:	021b      	lsls	r3, r3, #8
    4e36:	f013 4f70 	tst.w	r3, #4026531840	; 0xf0000000
    4e3a:	d101      	bne.n	4e40 <__hi0bits+0x24>
    4e3c:	3004      	adds	r0, #4
    4e3e:	011b      	lsls	r3, r3, #4
    4e40:	f013 4f40 	tst.w	r3, #3221225472	; 0xc0000000
    4e44:	d101      	bne.n	4e4a <__hi0bits+0x2e>
    4e46:	3002      	adds	r0, #2
    4e48:	009b      	lsls	r3, r3, #2
    4e4a:	2b00      	cmp	r3, #0
    4e4c:	db04      	blt.n	4e58 <__hi0bits+0x3c>
    4e4e:	005b      	lsls	r3, r3, #1
    4e50:	d501      	bpl.n	4e56 <__hi0bits+0x3a>
    4e52:	3001      	adds	r0, #1
    4e54:	4770      	bx	lr
    4e56:	2020      	movs	r0, #32
    4e58:	4770      	bx	lr

00004e5a <__lo0bits>:
    4e5a:	6803      	ldr	r3, [r0, #0]
    4e5c:	4602      	mov	r2, r0
    4e5e:	f013 0007 	ands.w	r0, r3, #7
    4e62:	d00b      	beq.n	4e7c <__lo0bits+0x22>
    4e64:	07d9      	lsls	r1, r3, #31
    4e66:	d421      	bmi.n	4eac <__lo0bits+0x52>
    4e68:	0798      	lsls	r0, r3, #30
    4e6a:	d503      	bpl.n	4e74 <__lo0bits+0x1a>
    4e6c:	0859      	lsrs	r1, r3, #1
    4e6e:	6011      	str	r1, [r2, #0]
    4e70:	2001      	movs	r0, #1
    4e72:	4770      	bx	lr
    4e74:	0898      	lsrs	r0, r3, #2
    4e76:	6010      	str	r0, [r2, #0]
    4e78:	2002      	movs	r0, #2
    4e7a:	4770      	bx	lr
    4e7c:	b299      	uxth	r1, r3
    4e7e:	b909      	cbnz	r1, 4e84 <__lo0bits+0x2a>
    4e80:	0c1b      	lsrs	r3, r3, #16
    4e82:	2010      	movs	r0, #16
    4e84:	f013 0fff 	tst.w	r3, #255	; 0xff
    4e88:	d101      	bne.n	4e8e <__lo0bits+0x34>
    4e8a:	3008      	adds	r0, #8
    4e8c:	0a1b      	lsrs	r3, r3, #8
    4e8e:	0719      	lsls	r1, r3, #28
    4e90:	d101      	bne.n	4e96 <__lo0bits+0x3c>
    4e92:	3004      	adds	r0, #4
    4e94:	091b      	lsrs	r3, r3, #4
    4e96:	0799      	lsls	r1, r3, #30
    4e98:	d101      	bne.n	4e9e <__lo0bits+0x44>
    4e9a:	3002      	adds	r0, #2
    4e9c:	089b      	lsrs	r3, r3, #2
    4e9e:	07d9      	lsls	r1, r3, #31
    4ea0:	d402      	bmi.n	4ea8 <__lo0bits+0x4e>
    4ea2:	085b      	lsrs	r3, r3, #1
    4ea4:	d004      	beq.n	4eb0 <__lo0bits+0x56>
    4ea6:	3001      	adds	r0, #1
    4ea8:	6013      	str	r3, [r2, #0]
    4eaa:	4770      	bx	lr
    4eac:	2000      	movs	r0, #0
    4eae:	4770      	bx	lr
    4eb0:	2020      	movs	r0, #32
    4eb2:	4770      	bx	lr

00004eb4 <__i2b>:
    4eb4:	b510      	push	{r4, lr}
    4eb6:	460c      	mov	r4, r1
    4eb8:	2101      	movs	r1, #1
    4eba:	f7ff fee5 	bl	4c88 <_Balloc>
    4ebe:	2201      	movs	r2, #1
    4ec0:	6144      	str	r4, [r0, #20]
    4ec2:	6102      	str	r2, [r0, #16]
    4ec4:	bd10      	pop	{r4, pc}

00004ec6 <__multiply>:
    4ec6:	e92d 4ff0 	stmdb	sp!, {r4, r5, r6, r7, r8, r9, r10, r11, lr}
    4eca:	4616      	mov	r6, r2
    4ecc:	6933      	ldr	r3, [r6, #16]
    4ece:	690a      	ldr	r2, [r1, #16]
    4ed0:	b085      	sub	sp, #20
    4ed2:	429a      	cmp	r2, r3
    4ed4:	460d      	mov	r5, r1
    4ed6:	da01      	bge.n	4edc <__multiply+0x16>
    4ed8:	4635      	mov	r5, r6
    4eda:	460e      	mov	r6, r1
    4edc:	f8d5 8010 	ldr.w	r8, [r5, #16]
    4ee0:	6937      	ldr	r7, [r6, #16]
    4ee2:	68aa      	ldr	r2, [r5, #8]
    4ee4:	6869      	ldr	r1, [r5, #4]
    4ee6:	eb08 0407 	add.w	r4, r8, r7
    4eea:	4294      	cmp	r4, r2
    4eec:	bfc8      	it	gt
    4eee:	3101      	addgt	r1, #1
    4ef0:	f7ff feca 	bl	4c88 <_Balloc>
    4ef4:	eb00 0184 	add.w	r1, r0, r4, lsl #2
    4ef8:	3114      	adds	r1, #20
    4efa:	f100 0314 	add.w	r3, r0, #20
    4efe:	9101      	str	r1, [sp, #4]
    4f00:	9a01      	ldr	r2, [sp, #4]
    4f02:	4293      	cmp	r3, r2
    4f04:	d203      	bcs.n	4f0e <__multiply+0x48>
    4f06:	2200      	movs	r2, #0
    4f08:	f843 2b04 	str.w	r2, [r3], #4
    4f0c:	e7f8      	b.n	4f00 <__multiply+0x3a>
    4f0e:	eb06 0787 	add.w	r7, r6, r7, lsl #2
    4f12:	f105 0314 	add.w	r3, r5, #20
    4f16:	eb05 0c88 	add.w	r12, r5, r8, lsl #2
    4f1a:	3714      	adds	r7, #20
    4f1c:	9302      	str	r3, [sp, #8]
    4f1e:	f10c 0e14 	add.w	lr, r12, #20
    4f22:	9703      	str	r7, [sp, #12]
    4f24:	f100 0318 	add.w	r3, r0, #24
    4f28:	f106 0214 	add.w	r2, r6, #20
    4f2c:	9d03      	ldr	r5, [sp, #12]
    4f2e:	4611      	mov	r1, r2
    4f30:	42aa      	cmp	r2, r5
    4f32:	d24c      	bcs.n	4fce <__multiply+0x108>
    4f34:	8809      	ldrh	r1, [r1, #0]
    4f36:	3204      	adds	r2, #4
    4f38:	b309      	cbz	r1, 4f7e <__multiply+0xb8>
    4f3a:	9f02      	ldr	r7, [sp, #8]
    4f3c:	1f1d      	subs	r5, r3, #4
    4f3e:	2600      	movs	r6, #0
    4f40:	f857 9b04 	ldr.w	r9, [r7], #4
    4f44:	f8d5 8000 	ldr.w	r8, [r5]
    4f48:	fa1f fb89 	uxth.w	r11, r9
    4f4c:	fa1f fa88 	uxth.w	r10, r8
    4f50:	fb01 ac0b 	mla	r12, r1, r11, r10
    4f54:	ea4f 4919 	mov.w	r9, r9, lsr #16
    4f58:	eb0c 0a06 	add.w	r10, r12, r6
    4f5c:	ea4f 4618 	mov.w	r6, r8, lsr #16
    4f60:	fb01 6809 	mla	r8, r1, r9, r6
    4f64:	fa1f fc8a 	uxth.w	r12, r10
    4f68:	eb08 481a 	add.w	r8, r8, r10, lsr #16
    4f6c:	ea4c 4a08 	orr.w	r10, r12, r8, lsl #16
    4f70:	45be      	cmp	lr, r7
    4f72:	ea4f 4618 	mov.w	r6, r8, lsr #16
    4f76:	f845 ab04 	str.w	r10, [r5], #4
    4f7a:	d8e1      	bhi.n	4f40 <__multiply+0x7a>
    4f7c:	602e      	str	r6, [r5, #0]
    4f7e:	f832 1c02 	ldrh.w	r1, [r2, #-2]
    4f82:	b311      	cbz	r1, 4fca <__multiply+0x104>
    4f84:	f853 6c04 	ldr.w	r6, [r3, #-4]
    4f88:	9f02      	ldr	r7, [sp, #8]
    4f8a:	461d      	mov	r5, r3
    4f8c:	f04f 0900 	mov.w	r9, #0
    4f90:	f835 ac02 	ldrh.w	r10, [r5, #-2]
    4f94:	f8b7 b000 	ldrh.w	r11, [r7]
    4f98:	b2b6      	uxth	r6, r6
    4f9a:	fb01 ac0b 	mla	r12, r1, r11, r10
    4f9e:	44e1      	add	r9, r12
    4fa0:	ea46 4609 	orr.w	r6, r6, r9, lsl #16
    4fa4:	f845 6c04 	str.w	r6, [r5, #-4]
    4fa8:	46a8      	mov	r8, r5
    4faa:	f857 6b04 	ldr.w	r6, [r7], #4
    4fae:	f8b8 a000 	ldrh.w	r10, [r8]
    4fb2:	0c36      	lsrs	r6, r6, #16
    4fb4:	fb01 a606 	mla	r6, r1, r6, r10
    4fb8:	3504      	adds	r5, #4
    4fba:	eb06 4619 	add.w	r6, r6, r9, lsr #16
    4fbe:	4577      	cmp	r7, lr
    4fc0:	ea4f 4916 	mov.w	r9, r6, lsr #16
    4fc4:	d3e4      	bcc.n	4f90 <__multiply+0xca>
    4fc6:	f8c8 6000 	str.w	r6, [r8]
    4fca:	3304      	adds	r3, #4
    4fcc:	e7ae      	b.n	4f2c <__multiply+0x66>
    4fce:	9b01      	ldr	r3, [sp, #4]
    4fd0:	2c00      	cmp	r4, #0
    4fd2:	dc03      	bgt.n	4fdc <__multiply+0x116>
    4fd4:	6104      	str	r4, [r0, #16]
    4fd6:	b005      	add	sp, #20
    4fd8:	e8bd 8ff0 	ldmia.w	sp!, {r4, r5, r6, r7, r8, r9, r10, r11, pc}
    4fdc:	f853 2d04 	ldr.w	r2, [r3, #-4]!
    4fe0:	2a00      	cmp	r2, #0
    4fe2:	d1f7      	bne.n	4fd4 <__multiply+0x10e>
    4fe4:	3c01      	subs	r4, #1
    4fe6:	e7f3      	b.n	4fd0 <__multiply+0x10a>

00004fe8 <__pow5mult>:
    4fe8:	f012 0303 	ands.w	r3, r2, #3
    4fec:	e92d 41f0 	stmdb	sp!, {r4, r5, r6, r7, r8, lr}
    4ff0:	4605      	mov	r5, r0
    4ff2:	460e      	mov	r6, r1
    4ff4:	4617      	mov	r7, r2
    4ff6:	d007      	beq.n	5008 <__pow5mult+0x20>
    4ff8:	4a23      	ldr	r2, [pc, #140]	; (5088 <__pow5mult+0xa0>)
    4ffa:	1e5e      	subs	r6, r3, #1
    4ffc:	f852 2026 	ldr.w	r2, [r2, r6, lsl #2]
    5000:	2300      	movs	r3, #0
    5002:	f7ff fe8d 	bl	4d20 <__multadd>
    5006:	4606      	mov	r6, r0
    5008:	10bf      	asrs	r7, r7, #2
    500a:	d039      	beq.n	5080 <__pow5mult+0x98>
    500c:	6a6c      	ldr	r4, [r5, #36]	; 0x24
    500e:	b93c      	cbnz	r4, 5020 <__pow5mult+0x38>
    5010:	2010      	movs	r0, #16
    5012:	f7fd fc73 	bl	28fc <malloc>
    5016:	6268      	str	r0, [r5, #36]	; 0x24
    5018:	6044      	str	r4, [r0, #4]
    501a:	6084      	str	r4, [r0, #8]
    501c:	6004      	str	r4, [r0, #0]
    501e:	60c4      	str	r4, [r0, #12]
    5020:	f8d5 8024 	ldr.w	r8, [r5, #36]	; 0x24
    5024:	f8d8 4008 	ldr.w	r4, [r8, #8]
    5028:	b99c      	cbnz	r4, 5052 <__pow5mult+0x6a>
    502a:	4628      	mov	r0, r5
    502c:	f240 2171 	movw	r1, #625	; 0x271
    5030:	f7ff ff40 	bl	4eb4 <__i2b>
    5034:	4604      	mov	r4, r0
    5036:	f8c8 0008 	str.w	r0, [r8, #8]
    503a:	2000      	movs	r0, #0
    503c:	6020      	str	r0, [r4, #0]
    503e:	e008      	b.n	5052 <__pow5mult+0x6a>
    5040:	107f      	asrs	r7, r7, #1
    5042:	d01d      	beq.n	5080 <__pow5mult+0x98>
    5044:	f8d4 8000 	ldr.w	r8, [r4]
    5048:	4640      	mov	r0, r8
    504a:	f1b8 0f00 	cmp.w	r8, #0
    504e:	d00e      	beq.n	506e <__pow5mult+0x86>
    5050:	4604      	mov	r4, r0
    5052:	07f8      	lsls	r0, r7, #31
    5054:	d5f4      	bpl.n	5040 <__pow5mult+0x58>
    5056:	4631      	mov	r1, r6
    5058:	4622      	mov	r2, r4
    505a:	4628      	mov	r0, r5
    505c:	f7ff ff33 	bl	4ec6 <__multiply>
    5060:	4631      	mov	r1, r6
    5062:	4680      	mov	r8, r0
    5064:	4628      	mov	r0, r5
    5066:	f7ff fe44 	bl	4cf2 <_Bfree>
    506a:	4646      	mov	r6, r8
    506c:	e7e8      	b.n	5040 <__pow5mult+0x58>
    506e:	4628      	mov	r0, r5
    5070:	4621      	mov	r1, r4
    5072:	4622      	mov	r2, r4
    5074:	f7ff ff27 	bl	4ec6 <__multiply>
    5078:	6020      	str	r0, [r4, #0]
    507a:	f8c0 8000 	str.w	r8, [r0]
    507e:	e7e7      	b.n	5050 <__pow5mult+0x68>
    5080:	4630      	mov	r0, r6
    5082:	e8bd 81f0 	ldmia.w	sp!, {r4, r5, r6, r7, r8, pc}
    5086:	bf00      	nop
    5088:	00007238 	.word	0x00007238

0000508c <__lshift>:
    508c:	e92d 47f0 	stmdb	sp!, {r4, r5, r6, r7, r8, r9, r10, lr}
    5090:	460c      	mov	r4, r1
    5092:	6923      	ldr	r3, [r4, #16]
    5094:	ea4f 1862 	mov.w	r8, r2, asr #5
    5098:	eb08 0a03 	add.w	r10, r8, r3
    509c:	6849      	ldr	r1, [r1, #4]
    509e:	68a5      	ldr	r5, [r4, #8]
    50a0:	4681      	mov	r9, r0
    50a2:	4617      	mov	r7, r2
    50a4:	f10a 0601 	add.w	r6, r10, #1
    50a8:	42ae      	cmp	r6, r5
    50aa:	dd02      	ble.n	50b2 <__lshift+0x26>
    50ac:	3101      	adds	r1, #1
    50ae:	006d      	lsls	r5, r5, #1
    50b0:	e7fa      	b.n	50a8 <__lshift+0x1c>
    50b2:	4648      	mov	r0, r9
    50b4:	f7ff fde8 	bl	4c88 <_Balloc>
    50b8:	2200      	movs	r2, #0
    50ba:	4605      	mov	r5, r0
    50bc:	f100 0014 	add.w	r0, r0, #20
    50c0:	4542      	cmp	r2, r8
    50c2:	da04      	bge.n	50ce <__lshift+0x42>
    50c4:	2100      	movs	r1, #0
    50c6:	f840 1022 	str.w	r1, [r0, r2, lsl #2]
    50ca:	3201      	adds	r2, #1
    50cc:	e7f8      	b.n	50c0 <__lshift+0x34>
    50ce:	ea28 70e8 	bic.w	r0, r8, r8, asr #31
    50d2:	6922      	ldr	r2, [r4, #16]
    50d4:	eb05 0380 	add.w	r3, r5, r0, lsl #2
    50d8:	3314      	adds	r3, #20
    50da:	eb04 0082 	add.w	r0, r4, r2, lsl #2
    50de:	f017 071f 	ands.w	r7, r7, #31
    50e2:	f104 0114 	add.w	r1, r4, #20
    50e6:	f100 0e14 	add.w	lr, r0, #20
    50ea:	d014      	beq.n	5116 <__lshift+0x8a>
    50ec:	4618      	mov	r0, r3
    50ee:	f1c7 0c20 	rsb	r12, r7, #32
    50f2:	2300      	movs	r3, #0
    50f4:	680a      	ldr	r2, [r1, #0]
    50f6:	fa02 f207 	lsl.w	r2, r2, r7
    50fa:	4313      	orrs	r3, r2
    50fc:	f840 3b04 	str.w	r3, [r0], #4
    5100:	f851 3b04 	ldr.w	r3, [r1], #4
    5104:	4571      	cmp	r1, lr
    5106:	fa23 f30c 	lsr.w	r3, r3, r12
    510a:	d3f3      	bcc.n	50f4 <__lshift+0x68>
    510c:	6003      	str	r3, [r0, #0]
    510e:	b143      	cbz	r3, 5122 <__lshift+0x96>
    5110:	f10a 0602 	add.w	r6, r10, #2
    5114:	e005      	b.n	5122 <__lshift+0x96>
    5116:	f851 2b04 	ldr.w	r2, [r1], #4
    511a:	458e      	cmp	lr, r1
    511c:	f843 2b04 	str.w	r2, [r3], #4
    5120:	d8f9      	bhi.n	5116 <__lshift+0x8a>
    5122:	3e01      	subs	r6, #1
    5124:	4648      	mov	r0, r9
    5126:	612e      	str	r6, [r5, #16]
    5128:	4621      	mov	r1, r4
    512a:	f7ff fde2 	bl	4cf2 <_Bfree>
    512e:	4628      	mov	r0, r5
    5130:	e8bd 87f0 	ldmia.w	sp!, {r4, r5, r6, r7, r8, r9, r10, pc}

00005134 <__mcmp>:
    5134:	4603      	mov	r3, r0
    5136:	690a      	ldr	r2, [r1, #16]
    5138:	6900      	ldr	r0, [r0, #16]
    513a:	b530      	push	{r4, r5, lr}
    513c:	1a80      	subs	r0, r0, r2
    513e:	d115      	bne.n	516c <__mcmp+0x38>
    5140:	1d15      	adds	r5, r2, #4
    5142:	00aa      	lsls	r2, r5, #2
    5144:	f103 0414 	add.w	r4, r3, #20
    5148:	1889      	adds	r1, r1, r2
    514a:	189b      	adds	r3, r3, r2
    514c:	3304      	adds	r3, #4
    514e:	1d0a      	adds	r2, r1, #4
    5150:	f853 5d04 	ldr.w	r5, [r3, #-4]!
    5154:	f852 1d04 	ldr.w	r1, [r2, #-4]!
    5158:	428d      	cmp	r5, r1
    515a:	d003      	beq.n	5164 <__mcmp+0x30>
    515c:	d205      	bcs.n	516a <__mcmp+0x36>
    515e:	f04f 30ff 	mov.w	r0, #4294967295
    5162:	bd30      	pop	{r4, r5, pc}
    5164:	429c      	cmp	r4, r3
    5166:	d3f3      	bcc.n	5150 <__mcmp+0x1c>
    5168:	bd30      	pop	{r4, r5, pc}
    516a:	2001      	movs	r0, #1
    516c:	bd30      	pop	{r4, r5, pc}

0000516e <__mdiff>:
    516e:	e92d 47f0 	stmdb	sp!, {r4, r5, r6, r7, r8, r9, r10, lr}
    5172:	4606      	mov	r6, r0
    5174:	460c      	mov	r4, r1
    5176:	4608      	mov	r0, r1
    5178:	4611      	mov	r1, r2
    517a:	4615      	mov	r5, r2
    517c:	f7ff ffda 	bl	5134 <__mcmp>
    5180:	1e07      	subs	r7, r0, #0
    5182:	d108      	bne.n	5196 <__mdiff+0x28>
    5184:	4639      	mov	r1, r7
    5186:	4630      	mov	r0, r6
    5188:	f7ff fd7e 	bl	4c88 <_Balloc>
    518c:	2101      	movs	r1, #1
    518e:	6101      	str	r1, [r0, #16]
    5190:	6147      	str	r7, [r0, #20]
    5192:	e8bd 87f0 	ldmia.w	sp!, {r4, r5, r6, r7, r8, r9, r10, pc}
    5196:	db01      	blt.n	519c <__mdiff+0x2e>
    5198:	2700      	movs	r7, #0
    519a:	e003      	b.n	51a4 <__mdiff+0x36>
    519c:	4623      	mov	r3, r4
    519e:	2701      	movs	r7, #1
    51a0:	462c      	mov	r4, r5
    51a2:	461d      	mov	r5, r3
    51a4:	6861      	ldr	r1, [r4, #4]
    51a6:	4630      	mov	r0, r6
    51a8:	f7ff fd6e 	bl	4c88 <_Balloc>
    51ac:	692a      	ldr	r2, [r5, #16]
    51ae:	6923      	ldr	r3, [r4, #16]
    51b0:	eb05 0182 	add.w	r1, r5, r2, lsl #2
    51b4:	eb04 0c83 	add.w	r12, r4, r3, lsl #2
    51b8:	60c7      	str	r7, [r0, #12]
    51ba:	f10c 0c14 	add.w	r12, r12, #20
    51be:	f101 0814 	add.w	r8, r1, #20
    51c2:	3414      	adds	r4, #20
    51c4:	3514      	adds	r5, #20
    51c6:	f100 0714 	add.w	r7, r0, #20
    51ca:	2200      	movs	r2, #0
    51cc:	f854 6b04 	ldr.w	r6, [r4], #4
    51d0:	f855 1b04 	ldr.w	r1, [r5], #4
    51d4:	fa1f f986 	uxth.w	r9, r6
    51d8:	444a      	add	r2, r9
    51da:	fa1f fa81 	uxth.w	r10, r1
    51de:	0c09      	lsrs	r1, r1, #16
    51e0:	ebca 0e02 	rsb	lr, r10, r2
    51e4:	ebc1 4616 	rsb	r6, r1, r6, lsr #16
    51e8:	eb06 412e 	add.w	r1, r6, lr, asr #16
    51ec:	fa1f f98e 	uxth.w	r9, lr
    51f0:	140a      	asrs	r2, r1, #16
    51f2:	ea49 4101 	orr.w	r1, r9, r1, lsl #16
    51f6:	f847 1b04 	str.w	r1, [r7], #4
    51fa:	45a8      	cmp	r8, r5
    51fc:	4626      	mov	r6, r4
    51fe:	4639      	mov	r1, r7
    5200:	d8e4      	bhi.n	51cc <__mdiff+0x5e>
    5202:	4566      	cmp	r6, r12
    5204:	d20d      	bcs.n	5222 <__mdiff+0xb4>
    5206:	f856 4b04 	ldr.w	r4, [r6], #4
    520a:	b2a5      	uxth	r5, r4
    520c:	18ad      	adds	r5, r5, r2
    520e:	0c22      	lsrs	r2, r4, #16
    5210:	eb02 4425 	add.w	r4, r2, r5, asr #16
    5214:	b2ad      	uxth	r5, r5
    5216:	1422      	asrs	r2, r4, #16
    5218:	ea45 4404 	orr.w	r4, r5, r4, lsl #16
    521c:	f841 4b04 	str.w	r4, [r1], #4
    5220:	e7ef      	b.n	5202 <__mdiff+0x94>
    5222:	f851 2d04 	ldr.w	r2, [r1, #-4]!
    5226:	b90a      	cbnz	r2, 522c <__mdiff+0xbe>
    5228:	3b01      	subs	r3, #1
    522a:	e7fa      	b.n	5222 <__mdiff+0xb4>
    522c:	6103      	str	r3, [r0, #16]
    522e:	e8bd 87f0 	ldmia.w	sp!, {r4, r5, r6, r7, r8, r9, r10, pc}
	...

00005234 <__ulp>:
    5234:	4b0e      	ldr	r3, [pc, #56]	; (5270 <__ulp+0x3c>)
    5236:	400b      	ands	r3, r1
    5238:	f1a3 7050 	sub.w	r0, r3, #54525952	; 0x3400000
    523c:	2800      	cmp	r0, #0
    523e:	dd01      	ble.n	5244 <__ulp+0x10>
    5240:	4601      	mov	r1, r0
    5242:	e008      	b.n	5256 <__ulp+0x22>
    5244:	4241      	negs	r1, r0
    5246:	150b      	asrs	r3, r1, #20
    5248:	2100      	movs	r1, #0
    524a:	2b13      	cmp	r3, #19
    524c:	dc05      	bgt.n	525a <__ulp+0x26>
    524e:	f44f 2000 	mov.w	r0, #524288	; 0x80000
    5252:	fa40 f103 	asr.w	r1, r0, r3
    5256:	2000      	movs	r0, #0
    5258:	4770      	bx	lr
    525a:	2b32      	cmp	r3, #50	; 0x32
    525c:	f04f 0201 	mov.w	r2, #1
    5260:	bfda      	itte	le
    5262:	f1c3 0333 	rsble	r3, r3, #51	; 0x33
    5266:	fa02 f303 	lslle.w	r3, r2, r3
    526a:	4613      	movgt	r3, r2
    526c:	4618      	mov	r0, r3
    526e:	4770      	bx	lr
    5270:	7ff00000 	.word	0x7ff00000

00005274 <__b2d>:
    5274:	e92d 43f8 	stmdb	sp!, {r3, r4, r5, r6, r7, r8, r9, lr}
    5278:	6903      	ldr	r3, [r0, #16]
    527a:	4689      	mov	r9, r1
    527c:	1d19      	adds	r1, r3, #4
    527e:	eb00 0881 	add.w	r8, r0, r1, lsl #2
    5282:	4646      	mov	r6, r8
    5284:	f856 4b04 	ldr.w	r4, [r6], #4
    5288:	f100 0714 	add.w	r7, r0, #20
    528c:	4620      	mov	r0, r4
    528e:	f7ff fdc5 	bl	4e1c <__hi0bits>
    5292:	f1c0 0220 	rsb	r2, r0, #32
    5296:	280a      	cmp	r0, #10
    5298:	4645      	mov	r5, r8
    529a:	f8c9 2000 	str.w	r2, [r9]
    529e:	dc14      	bgt.n	52ca <__b2d+0x56>
    52a0:	f1c0 010b 	rsb	r1, r0, #11
    52a4:	fa24 f501 	lsr.w	r5, r4, r1
    52a8:	45b8      	cmp	r8, r7
    52aa:	f045 557f 	orr.w	r5, r5, #1069547520	; 0x3fc00000
    52ae:	f445 1340 	orr.w	r3, r5, #3145728	; 0x300000
    52b2:	bf8c      	ite	hi
    52b4:	f856 5c08 	ldrhi.w	r5, [r6, #-8]
    52b8:	2500      	movls	r5, #0
    52ba:	3015      	adds	r0, #21
    52bc:	fa25 f201 	lsr.w	r2, r5, r1
    52c0:	fa04 f400 	lsl.w	r4, r4, r0
    52c4:	ea42 0004 	orr.w	r0, r2, r4
    52c8:	e025      	b.n	5316 <__b2d+0xa2>
    52ca:	45b8      	cmp	r8, r7
    52cc:	d903      	bls.n	52d6 <__b2d+0x62>
    52ce:	3d04      	subs	r5, #4
    52d0:	f856 1c08 	ldr.w	r1, [r6, #-8]
    52d4:	e000      	b.n	52d8 <__b2d+0x64>
    52d6:	2100      	movs	r1, #0
    52d8:	f1b0 060b 	subs.w	r6, r0, #11
    52dc:	d016      	beq.n	530c <__b2d+0x98>
    52de:	fa04 f406 	lsl.w	r4, r4, r6
    52e2:	f1c0 022b 	rsb	r2, r0, #43	; 0x2b
    52e6:	fa21 fc02 	lsr.w	r12, r1, r2
    52ea:	f044 547f 	orr.w	r4, r4, #1069547520	; 0x3fc00000
    52ee:	f444 1440 	orr.w	r4, r4, #3145728	; 0x300000
    52f2:	42bd      	cmp	r5, r7
    52f4:	ea44 030c 	orr.w	r3, r4, r12
    52f8:	bf8c      	ite	hi
    52fa:	f855 4c04 	ldrhi.w	r4, [r5, #-4]
    52fe:	2400      	movls	r4, #0
    5300:	fa24 f002 	lsr.w	r0, r4, r2
    5304:	fa01 f106 	lsl.w	r1, r1, r6
    5308:	4308      	orrs	r0, r1
    530a:	e004      	b.n	5316 <__b2d+0xa2>
    530c:	f044 547f 	orr.w	r4, r4, #1069547520	; 0x3fc00000
    5310:	f444 1340 	orr.w	r3, r4, #3145728	; 0x300000
    5314:	4608      	mov	r0, r1
    5316:	4619      	mov	r1, r3
    5318:	e8bd 83f8 	ldmia.w	sp!, {r3, r4, r5, r6, r7, r8, r9, pc}

0000531c <__d2b>:
    531c:	e92d 43f7 	stmdb	sp!, {r0, r1, r2, r4, r5, r6, r7, r8, r9, lr}
    5320:	2101      	movs	r1, #1
    5322:	461d      	mov	r5, r3
    5324:	f8dd 9028 	ldr.w	r9, [sp, #40]	; 0x28
    5328:	f8dd 802c 	ldr.w	r8, [sp, #44]	; 0x2c
    532c:	4614      	mov	r4, r2
    532e:	f7ff fcab 	bl	4c88 <_Balloc>
    5332:	f3c5 570a 	ubfx	r7, r5, #20, #11
    5336:	f025 437f 	bic.w	r3, r5, #4278190080	; 0xff000000
    533a:	4606      	mov	r6, r0
    533c:	f423 0070 	bic.w	r0, r3, #15728640	; 0xf00000
    5340:	b10f      	cbz	r7, 5346 <__d2b+0x2a>
    5342:	f440 1080 	orr.w	r0, r0, #1048576	; 0x100000
    5346:	9001      	str	r0, [sp, #4]
    5348:	b1dc      	cbz	r4, 5382 <__d2b+0x66>
    534a:	aa02      	add	r2, sp, #8
    534c:	4668      	mov	r0, sp
    534e:	f842 4d08 	str.w	r4, [r2, #-8]!
    5352:	f7ff fd82 	bl	4e5a <__lo0bits>
    5356:	9c00      	ldr	r4, [sp, #0]
    5358:	b150      	cbz	r0, 5370 <__d2b+0x54>
    535a:	9a01      	ldr	r2, [sp, #4]
    535c:	f1c0 0320 	rsb	r3, r0, #32
    5360:	fa02 f103 	lsl.w	r1, r2, r3
    5364:	fa22 f200 	lsr.w	r2, r2, r0
    5368:	430c      	orrs	r4, r1
    536a:	6174      	str	r4, [r6, #20]
    536c:	9201      	str	r2, [sp, #4]
    536e:	e000      	b.n	5372 <__d2b+0x56>
    5370:	6174      	str	r4, [r6, #20]
    5372:	9a01      	ldr	r2, [sp, #4]
    5374:	2a00      	cmp	r2, #0
    5376:	bf0c      	ite	eq
    5378:	2401      	moveq	r4, #1
    537a:	2402      	movne	r4, #2
    537c:	61b2      	str	r2, [r6, #24]
    537e:	6134      	str	r4, [r6, #16]
    5380:	e007      	b.n	5392 <__d2b+0x76>
    5382:	a801      	add	r0, sp, #4
    5384:	f7ff fd69 	bl	4e5a <__lo0bits>
    5388:	9901      	ldr	r1, [sp, #4]
    538a:	2401      	movs	r4, #1
    538c:	6171      	str	r1, [r6, #20]
    538e:	6134      	str	r4, [r6, #16]
    5390:	3020      	adds	r0, #32
    5392:	b13f      	cbz	r7, 53a4 <__d2b+0x88>
    5394:	f2a7 4733 	subw	r7, r7, #1075	; 0x433
    5398:	183f      	adds	r7, r7, r0
    539a:	f8c9 7000 	str.w	r7, [r9]
    539e:	f1c0 0135 	rsb	r1, r0, #53	; 0x35
    53a2:	e00a      	b.n	53ba <__d2b+0x9e>
    53a4:	eb06 0384 	add.w	r3, r6, r4, lsl #2
    53a8:	f2a0 4032 	subw	r0, r0, #1074	; 0x432
    53ac:	f8c9 0000 	str.w	r0, [r9]
    53b0:	6918      	ldr	r0, [r3, #16]
    53b2:	f7ff fd33 	bl	4e1c <__hi0bits>
    53b6:	0164      	lsls	r4, r4, #5
    53b8:	1a21      	subs	r1, r4, r0
    53ba:	f8c8 1000 	str.w	r1, [r8]
    53be:	4630      	mov	r0, r6
    53c0:	e8bd 83fe 	ldmia.w	sp!, {r1, r2, r3, r4, r5, r6, r7, r8, r9, pc}

000053c4 <__ratio>:
    53c4:	e92d 41f3 	stmdb	sp!, {r0, r1, r4, r5, r6, r7, r8, lr}
    53c8:	460e      	mov	r6, r1
    53ca:	4669      	mov	r1, sp
    53cc:	4680      	mov	r8, r0
    53ce:	f7ff ff51 	bl	5274 <__b2d>
    53d2:	460d      	mov	r5, r1
    53d4:	4604      	mov	r4, r0
    53d6:	a901      	add	r1, sp, #4
    53d8:	4630      	mov	r0, r6
    53da:	f7ff ff4b 	bl	5274 <__b2d>
    53de:	9f00      	ldr	r7, [sp, #0]
    53e0:	460b      	mov	r3, r1
    53e2:	9901      	ldr	r1, [sp, #4]
    53e4:	4602      	mov	r2, r0
    53e6:	1a7f      	subs	r7, r7, r1
    53e8:	f8d8 0010 	ldr.w	r0, [r8, #16]
    53ec:	6931      	ldr	r1, [r6, #16]
    53ee:	1a40      	subs	r0, r0, r1
    53f0:	eb07 1140 	add.w	r1, r7, r0, lsl #5
    53f4:	2900      	cmp	r1, #0
    53f6:	bfd6      	itet	le
    53f8:	eba3 5101 	suble.w	r1, r3, r1, lsl #20
    53fc:	eb05 5501 	addgt.w	r5, r5, r1, lsl #20
    5400:	460b      	movle	r3, r1
    5402:	4620      	mov	r0, r4
    5404:	4629      	mov	r1, r5
    5406:	f7fc fd5f 	bl	1ec8 <__aeabi_ddiv>
    540a:	e8bd 81fc 	ldmia.w	sp!, {r2, r3, r4, r5, r6, r7, r8, pc}

0000540e <__copybits>:
    540e:	3901      	subs	r1, #1
    5410:	114b      	asrs	r3, r1, #5
    5412:	b510      	push	{r4, lr}
    5414:	1c59      	adds	r1, r3, #1
    5416:	6913      	ldr	r3, [r2, #16]
    5418:	eb00 0181 	add.w	r1, r0, r1, lsl #2
    541c:	eb02 0383 	add.w	r3, r2, r3, lsl #2
    5420:	3314      	adds	r3, #20
    5422:	3214      	adds	r2, #20
    5424:	429a      	cmp	r2, r3
    5426:	d204      	bcs.n	5432 <__copybits+0x24>
    5428:	f852 4b04 	ldr.w	r4, [r2], #4
    542c:	f840 4b04 	str.w	r4, [r0], #4
    5430:	e7f8      	b.n	5424 <__copybits+0x16>
    5432:	4288      	cmp	r0, r1
    5434:	d203      	bcs.n	543e <__copybits+0x30>
    5436:	2200      	movs	r2, #0
    5438:	f840 2b04 	str.w	r2, [r0], #4
    543c:	e7f9      	b.n	5432 <__copybits+0x24>
    543e:	bd10      	pop	{r4, pc}

00005440 <__any_on>:
    5440:	6902      	ldr	r2, [r0, #16]
    5442:	114b      	asrs	r3, r1, #5
    5444:	4293      	cmp	r3, r2
    5446:	b530      	push	{r4, r5, lr}
    5448:	f100 0414 	add.w	r4, r0, #20
    544c:	dc0d      	bgt.n	546a <__any_on+0x2a>
    544e:	da0d      	bge.n	546c <__any_on+0x2c>
    5450:	f011 011f 	ands.w	r1, r1, #31
    5454:	d00a      	beq.n	546c <__any_on+0x2c>
    5456:	eb00 0583 	add.w	r5, r0, r3, lsl #2
    545a:	696a      	ldr	r2, [r5, #20]
    545c:	fa22 f501 	lsr.w	r5, r2, r1
    5460:	fa05 f101 	lsl.w	r1, r5, r1
    5464:	4291      	cmp	r1, r2
    5466:	d10f      	bne.n	5488 <__any_on+0x48>
    5468:	e000      	b.n	546c <__any_on+0x2c>
    546a:	4613      	mov	r3, r2
    546c:	eb00 0083 	add.w	r0, r0, r3, lsl #2
    5470:	3014      	adds	r0, #20
    5472:	42a0      	cmp	r0, r4
    5474:	4602      	mov	r2, r0
    5476:	d905      	bls.n	5484 <__any_on+0x44>
    5478:	f852 1c04 	ldr.w	r1, [r2, #-4]
    547c:	3804      	subs	r0, #4
    547e:	2900      	cmp	r1, #0
    5480:	d0f7      	beq.n	5472 <__any_on+0x32>
    5482:	e001      	b.n	5488 <__any_on+0x48>
    5484:	2000      	movs	r0, #0
    5486:	bd30      	pop	{r4, r5, pc}
    5488:	2001      	movs	r0, #1
    548a:	bd30      	pop	{r4, r5, pc}

0000548c <_read_r>:
    548c:	b538      	push	{r3, r4, r5, lr}
    548e:	4c07      	ldr	r4, [pc, #28]	; (54ac <_read_r+0x20>)
    5490:	4605      	mov	r5, r0
    5492:	2000      	movs	r0, #0
    5494:	6020      	str	r0, [r4, #0]
    5496:	4608      	mov	r0, r1
    5498:	4611      	mov	r1, r2
    549a:	461a      	mov	r2, r3
    549c:	f7fb fc22 	bl	ce4 <_read>
    54a0:	1c43      	adds	r3, r0, #1
    54a2:	d102      	bne.n	54aa <_read_r+0x1e>
    54a4:	6823      	ldr	r3, [r4, #0]
    54a6:	b103      	cbz	r3, 54aa <_read_r+0x1e>
    54a8:	602b      	str	r3, [r5, #0]
    54aa:	bd38      	pop	{r3, r4, r5, pc}
    54ac:	1000068c 	.word	0x1000068c

000054b0 <_realloc_r>:
    54b0:	b5f8      	push	{r3, r4, r5, r6, r7, lr}
    54b2:	4606      	mov	r6, r0
    54b4:	4615      	mov	r5, r2
    54b6:	460c      	mov	r4, r1
    54b8:	b921      	cbnz	r1, 54c4 <_realloc_r+0x14>
    54ba:	4611      	mov	r1, r2
    54bc:	e8bd 40f8 	ldmia.w	sp!, {r3, r4, r5, r6, r7, lr}
    54c0:	f7fd ba2c 	b.w	291c <_malloc_r>
    54c4:	b91a      	cbnz	r2, 54ce <_realloc_r+0x1e>
    54c6:	f7ff fb23 	bl	4b10 <_free_r>
    54ca:	462c      	mov	r4, r5
    54cc:	e012      	b.n	54f4 <_realloc_r+0x44>
    54ce:	f001 fb4f 	bl	6b70 <_malloc_usable_size_r>
    54d2:	42a8      	cmp	r0, r5
    54d4:	d20e      	bcs.n	54f4 <_realloc_r+0x44>
    54d6:	4630      	mov	r0, r6
    54d8:	4629      	mov	r1, r5
    54da:	f7fd fa1f 	bl	291c <_malloc_r>
    54de:	4607      	mov	r7, r0
    54e0:	b138      	cbz	r0, 54f2 <_realloc_r+0x42>
    54e2:	4621      	mov	r1, r4
    54e4:	462a      	mov	r2, r5
    54e6:	f7fd fa63 	bl	29b0 <memcpy>
    54ea:	4630      	mov	r0, r6
    54ec:	4621      	mov	r1, r4
    54ee:	f7ff fb0f 	bl	4b10 <_free_r>
    54f2:	463c      	mov	r4, r7
    54f4:	4620      	mov	r0, r4
    54f6:	bdf8      	pop	{r3, r4, r5, r6, r7, pc}

000054f8 <__fpclassifyd>:
    54f8:	460b      	mov	r3, r1
    54fa:	b111      	cbz	r1, 5502 <__fpclassifyd+0xa>
    54fc:	f1b1 4f00 	cmp.w	r1, #2147483648	; 0x80000000
    5500:	d100      	bne.n	5504 <__fpclassifyd+0xc>
    5502:	b1e0      	cbz	r0, 553e <__fpclassifyd+0x46>
    5504:	4a12      	ldr	r2, [pc, #72]	; (5550 <__fpclassifyd+0x58>)
    5506:	f5a3 1180 	sub.w	r1, r3, #1048576	; 0x100000
    550a:	4291      	cmp	r1, r2
    550c:	d919      	bls.n	5542 <__fpclassifyd+0x4a>
    550e:	f103 41ff 	add.w	r1, r3, #2139095040	; 0x7f800000
    5512:	f501 01e0 	add.w	r1, r1, #7340032	; 0x700000
    5516:	4291      	cmp	r1, r2
    5518:	d913      	bls.n	5542 <__fpclassifyd+0x4a>
    551a:	4a0e      	ldr	r2, [pc, #56]	; (5554 <__fpclassifyd+0x5c>)
    551c:	4293      	cmp	r3, r2
    551e:	d912      	bls.n	5546 <__fpclassifyd+0x4e>
    5520:	f103 4100 	add.w	r1, r3, #2147483648	; 0x80000000
    5524:	4291      	cmp	r1, r2
    5526:	d90e      	bls.n	5546 <__fpclassifyd+0x4e>
    5528:	4a0b      	ldr	r2, [pc, #44]	; (5558 <__fpclassifyd+0x60>)
    552a:	4293      	cmp	r3, r2
    552c:	d002      	beq.n	5534 <__fpclassifyd+0x3c>
    552e:	f513 1f80 	cmn.w	r3, #1048576	; 0x100000
    5532:	d10a      	bne.n	554a <__fpclassifyd+0x52>
    5534:	f1d0 0001 	rsbs	r0, r0, #1
    5538:	bf38      	it	cc
    553a:	2000      	movcc	r0, #0
    553c:	4770      	bx	lr
    553e:	2002      	movs	r0, #2
    5540:	4770      	bx	lr
    5542:	2004      	movs	r0, #4
    5544:	4770      	bx	lr
    5546:	2003      	movs	r0, #3
    5548:	4770      	bx	lr
    554a:	2000      	movs	r0, #0
    554c:	4770      	bx	lr
    554e:	bf00      	nop
    5550:	7fdfffff 	.word	0x7fdfffff
    5554:	000fffff 	.word	0x000fffff
    5558:	7ff00000 	.word	0x7ff00000

0000555c <nanf>:
    555c:	4800      	ldr	r0, [pc, #0]	; (5560 <nanf+0x4>)
    555e:	4770      	bx	lr
    5560:	7fc00000 	.word	0x7fc00000

00005564 <siprintf>:
    5564:	b40e      	push	{r1, r2, r3}
    5566:	b500      	push	{lr}
    5568:	b09c      	sub	sp, #112	; 0x70
    556a:	9002      	str	r0, [sp, #8]
    556c:	9006      	str	r0, [sp, #24]
    556e:	f06f 4000 	mvn.w	r0, #2147483648	; 0x80000000
    5572:	ab1d      	add	r3, sp, #116	; 0x74
    5574:	9004      	str	r0, [sp, #16]
    5576:	9007      	str	r0, [sp, #28]
    5578:	f44f 7102 	mov.w	r1, #520	; 0x208
    557c:	480a      	ldr	r0, [pc, #40]	; (55a8 <siprintf+0x44>)
    557e:	f853 2b04 	ldr.w	r2, [r3], #4
    5582:	f8ad 1014 	strh.w	r1, [sp, #20]
    5586:	f64f 71ff 	movw	r1, #65535	; 0xffff
    558a:	f8ad 1016 	strh.w	r1, [sp, #22]
    558e:	6800      	ldr	r0, [r0, #0]
    5590:	a902      	add	r1, sp, #8
    5592:	9301      	str	r3, [sp, #4]
    5594:	f000 fe86 	bl	62a4 <_svfiprintf_r>
    5598:	9b02      	ldr	r3, [sp, #8]
    559a:	2200      	movs	r2, #0
    559c:	701a      	strb	r2, [r3, #0]
    559e:	b01c      	add	sp, #112	; 0x70
    55a0:	f85d eb04 	ldr.w	lr, [sp], #4
    55a4:	b003      	add	sp, #12
    55a6:	4770      	bx	lr
    55a8:	100004d8 	.word	0x100004d8

000055ac <match>:
    55ac:	b530      	push	{r4, r5, lr}
    55ae:	6805      	ldr	r5, [r0, #0]
    55b0:	f811 2b01 	ldrb.w	r2, [r1], #1
    55b4:	462c      	mov	r4, r5
    55b6:	1c6b      	adds	r3, r5, #1
    55b8:	b152      	cbz	r2, 55d0 <match+0x24>
    55ba:	461d      	mov	r5, r3
    55bc:	7863      	ldrb	r3, [r4, #1]
    55be:	2b40      	cmp	r3, #64	; 0x40
    55c0:	dd02      	ble.n	55c8 <match+0x1c>
    55c2:	2b5a      	cmp	r3, #90	; 0x5a
    55c4:	bfd8      	it	le
    55c6:	3320      	addle	r3, #32
    55c8:	4293      	cmp	r3, r2
    55ca:	d0f1      	beq.n	55b0 <match+0x4>
    55cc:	2000      	movs	r0, #0
    55ce:	bd30      	pop	{r4, r5, pc}
    55d0:	6003      	str	r3, [r0, #0]
    55d2:	2001      	movs	r0, #1
    55d4:	bd30      	pop	{r4, r5, pc}
	...

000055d8 <_strtod_r>:
    55d8:	e92d 4ff0 	stmdb	sp!, {r4, r5, r6, r7, r8, r9, r10, r11, lr}
    55dc:	b097      	sub	sp, #92	; 0x5c
    55de:	9002      	str	r0, [sp, #8]
    55e0:	4688      	mov	r8, r1
    55e2:	920f      	str	r2, [sp, #60]	; 0x3c
    55e4:	f04f 0a00 	mov.w	r10, #0
    55e8:	f04f 0b00 	mov.w	r11, #0
    55ec:	9111      	str	r1, [sp, #68]	; 0x44
    55ee:	9a11      	ldr	r2, [sp, #68]	; 0x44
    55f0:	7813      	ldrb	r3, [r2, #0]
    55f2:	2b0d      	cmp	r3, #13
    55f4:	d805      	bhi.n	5602 <_strtod_r+0x2a>
    55f6:	2b09      	cmp	r3, #9
    55f8:	d213      	bcs.n	5622 <_strtod_r+0x4a>
    55fa:	2b00      	cmp	r3, #0
    55fc:	f000 81af 	beq.w	595e <_strtod_r+0x386>
    5600:	e012      	b.n	5628 <_strtod_r+0x50>
    5602:	2b2b      	cmp	r3, #43	; 0x2b
    5604:	d006      	beq.n	5614 <_strtod_r+0x3c>
    5606:	2b2d      	cmp	r3, #45	; 0x2d
    5608:	d002      	beq.n	5610 <_strtod_r+0x38>
    560a:	2b20      	cmp	r3, #32
    560c:	d10c      	bne.n	5628 <_strtod_r+0x50>
    560e:	e008      	b.n	5622 <_strtod_r+0x4a>
    5610:	2301      	movs	r3, #1
    5612:	e000      	b.n	5616 <_strtod_r+0x3e>
    5614:	2300      	movs	r3, #0
    5616:	1c54      	adds	r4, r2, #1
    5618:	9411      	str	r4, [sp, #68]	; 0x44
    561a:	7852      	ldrb	r2, [r2, #1]
    561c:	930b      	str	r3, [sp, #44]	; 0x2c
    561e:	b92a      	cbnz	r2, 562c <_strtod_r+0x54>
    5620:	e19d      	b.n	595e <_strtod_r+0x386>
    5622:	1c51      	adds	r1, r2, #1
    5624:	9111      	str	r1, [sp, #68]	; 0x44
    5626:	e7e2      	b.n	55ee <_strtod_r+0x16>
    5628:	2400      	movs	r4, #0
    562a:	940b      	str	r4, [sp, #44]	; 0x2c
    562c:	9c11      	ldr	r4, [sp, #68]	; 0x44
    562e:	7821      	ldrb	r1, [r4, #0]
    5630:	2930      	cmp	r1, #48	; 0x30
    5632:	d156      	bne.n	56e2 <_strtod_r+0x10a>
    5634:	7863      	ldrb	r3, [r4, #1]
    5636:	2b58      	cmp	r3, #88	; 0x58
    5638:	d001      	beq.n	563e <_strtod_r+0x66>
    563a:	2b78      	cmp	r3, #120	; 0x78
    563c:	d145      	bne.n	56ca <_strtod_r+0xf2>
    563e:	990b      	ldr	r1, [sp, #44]	; 0x2c
    5640:	4e9f      	ldr	r6, [pc, #636]	; (58c0 <_strtod_r+0x2e8>)
    5642:	af12      	add	r7, sp, #72	; 0x48
    5644:	9700      	str	r7, [sp, #0]
    5646:	9101      	str	r1, [sp, #4]
    5648:	9802      	ldr	r0, [sp, #8]
    564a:	a911      	add	r1, sp, #68	; 0x44
    564c:	4632      	mov	r2, r6
    564e:	ab13      	add	r3, sp, #76	; 0x4c
    5650:	f000 ff9e 	bl	6590 <__gethex>
    5654:	f010 0707 	ands.w	r7, r0, #7
    5658:	4605      	mov	r5, r0
    565a:	f000 8525 	beq.w	60a8 <_strtod_r+0xad0>
    565e:	2f06      	cmp	r7, #6
    5660:	d103      	bne.n	566a <_strtod_r+0x92>
    5662:	1c61      	adds	r1, r4, #1
    5664:	9111      	str	r1, [sp, #68]	; 0x44
    5666:	f000 bd1f 	b.w	60a8 <_strtod_r+0xad0>
    566a:	9a12      	ldr	r2, [sp, #72]	; 0x48
    566c:	b13a      	cbz	r2, 567e <_strtod_r+0xa6>
    566e:	a814      	add	r0, sp, #80	; 0x50
    5670:	6831      	ldr	r1, [r6, #0]
    5672:	f7ff fecc 	bl	540e <__copybits>
    5676:	9802      	ldr	r0, [sp, #8]
    5678:	9912      	ldr	r1, [sp, #72]	; 0x48
    567a:	f7ff fb3a 	bl	4cf2 <_Bfree>
    567e:	3f01      	subs	r7, #1
    5680:	9813      	ldr	r0, [sp, #76]	; 0x4c
    5682:	2f04      	cmp	r7, #4
    5684:	d81a      	bhi.n	56bc <_strtod_r+0xe4>
    5686:	e8df f007 	tbb	[pc, r7]
    568a:	0308      	.short	0x0308
    568c:	1512      	.short	0x1512
    568e:	08          	.byte	0x08
    568f:	00          	.byte	0x00
    5690:	f8dd a050 	ldr.w	r10, [sp, #80]	; 0x50
    5694:	f8dd b054 	ldr.w	r11, [sp, #84]	; 0x54
    5698:	e010      	b.n	56bc <_strtod_r+0xe4>
    569a:	9b15      	ldr	r3, [sp, #84]	; 0x54
    569c:	f200 4233 	addw	r2, r0, #1075	; 0x433
    56a0:	f423 1480 	bic.w	r4, r3, #1048576	; 0x100000
    56a4:	f8dd a050 	ldr.w	r10, [sp, #80]	; 0x50
    56a8:	ea44 5b02 	orr.w	r11, r4, r2, lsl #20
    56ac:	e006      	b.n	56bc <_strtod_r+0xe4>
    56ae:	f8df b214 	ldr.w	r11, [pc, #532]	; 58c4 <_strtod_r+0x2ec>
    56b2:	e003      	b.n	56bc <_strtod_r+0xe4>
    56b4:	f06f 4b00 	mvn.w	r11, #2147483648	; 0x80000000
    56b8:	f04f 3aff 	mov.w	r10, #4294967295
    56bc:	0729      	lsls	r1, r5, #28
    56be:	f140 84f3 	bpl.w	60a8 <_strtod_r+0xad0>
    56c2:	f04b 4b00 	orr.w	r11, r11, #2147483648	; 0x80000000
    56c6:	f000 bcef 	b.w	60a8 <_strtod_r+0xad0>
    56ca:	9c11      	ldr	r4, [sp, #68]	; 0x44
    56cc:	1c62      	adds	r2, r4, #1
    56ce:	9211      	str	r2, [sp, #68]	; 0x44
    56d0:	7861      	ldrb	r1, [r4, #1]
    56d2:	2930      	cmp	r1, #48	; 0x30
    56d4:	d0f9      	beq.n	56ca <_strtod_r+0xf2>
    56d6:	2900      	cmp	r1, #0
    56d8:	f000 84e6 	beq.w	60a8 <_strtod_r+0xad0>
    56dc:	2601      	movs	r6, #1
    56de:	9604      	str	r6, [sp, #16]
    56e0:	e001      	b.n	56e6 <_strtod_r+0x10e>
    56e2:	2500      	movs	r5, #0
    56e4:	9504      	str	r5, [sp, #16]
    56e6:	9f11      	ldr	r7, [sp, #68]	; 0x44
    56e8:	9706      	str	r7, [sp, #24]
    56ea:	2700      	movs	r7, #0
    56ec:	9703      	str	r7, [sp, #12]
    56ee:	463e      	mov	r6, r7
    56f0:	9d11      	ldr	r5, [sp, #68]	; 0x44
    56f2:	782c      	ldrb	r4, [r5, #0]
    56f4:	2c2f      	cmp	r4, #47	; 0x2f
    56f6:	dc16      	bgt.n	5726 <_strtod_r+0x14e>
    56f8:	9802      	ldr	r0, [sp, #8]
    56fa:	f7ff fa4d 	bl	4b98 <_localeconv_r>
    56fe:	f8d0 9000 	ldr.w	r9, [r0]
    5702:	9802      	ldr	r0, [sp, #8]
    5704:	f7ff fa48 	bl	4b98 <_localeconv_r>
    5708:	6800      	ldr	r0, [r0, #0]
    570a:	f7fd f9db 	bl	2ac4 <strlen>
    570e:	4649      	mov	r1, r9
    5710:	4602      	mov	r2, r0
    5712:	4628      	mov	r0, r5
    5714:	f7fd f9de 	bl	2ad4 <strncmp>
    5718:	4681      	mov	r9, r0
    571a:	b1c8      	cbz	r0, 5750 <_strtod_r+0x178>
    571c:	2300      	movs	r3, #0
    571e:	4635      	mov	r5, r6
    5720:	461a      	mov	r2, r3
    5722:	9307      	str	r3, [sp, #28]
    5724:	e074      	b.n	5810 <_strtod_r+0x238>
    5726:	2c39      	cmp	r4, #57	; 0x39
    5728:	dce6      	bgt.n	56f8 <_strtod_r+0x120>
    572a:	2e0f      	cmp	r6, #15
    572c:	dc0c      	bgt.n	5748 <_strtod_r+0x170>
    572e:	2e08      	cmp	r6, #8
    5730:	bfd8      	it	le
    5732:	9803      	ldrle	r0, [sp, #12]
    5734:	f04f 030a 	mov.w	r3, #10
    5738:	f1a4 0430 	sub.w	r4, r4, #48	; 0x30
    573c:	bfd6      	itet	le
    573e:	fb03 4000 	mlale	r0, r3, r0, r4
    5742:	fb03 4707 	mlagt	r7, r3, r7, r4
    5746:	9003      	strle	r0, [sp, #12]
    5748:	1c6c      	adds	r4, r5, #1
    574a:	3601      	adds	r6, #1
    574c:	9411      	str	r4, [sp, #68]	; 0x44
    574e:	e7cf      	b.n	56f0 <_strtod_r+0x118>
    5750:	9802      	ldr	r0, [sp, #8]
    5752:	9c11      	ldr	r4, [sp, #68]	; 0x44
    5754:	f7ff fa20 	bl	4b98 <_localeconv_r>
    5758:	6800      	ldr	r0, [r0, #0]
    575a:	f7fd f9b3 	bl	2ac4 <strlen>
    575e:	1823      	adds	r3, r4, r0
    5760:	9311      	str	r3, [sp, #68]	; 0x44
    5762:	5c24      	ldrb	r4, [r4, r0]
    5764:	b11e      	cbz	r6, 576e <_strtod_r+0x196>
    5766:	4635      	mov	r5, r6
    5768:	464b      	mov	r3, r9
    576a:	464a      	mov	r2, r9
    576c:	e045      	b.n	57fa <_strtod_r+0x222>
    576e:	4633      	mov	r3, r6
    5770:	2c30      	cmp	r4, #48	; 0x30
    5772:	d105      	bne.n	5780 <_strtod_r+0x1a8>
    5774:	9d11      	ldr	r5, [sp, #68]	; 0x44
    5776:	3301      	adds	r3, #1
    5778:	1c6a      	adds	r2, r5, #1
    577a:	9211      	str	r2, [sp, #68]	; 0x44
    577c:	786c      	ldrb	r4, [r5, #1]
    577e:	e7f7      	b.n	5770 <_strtod_r+0x198>
    5780:	f1a4 0031 	sub.w	r0, r4, #49	; 0x31
    5784:	2808      	cmp	r0, #8
    5786:	d83f      	bhi.n	5808 <_strtod_r+0x230>
    5788:	9a11      	ldr	r2, [sp, #68]	; 0x44
    578a:	9206      	str	r2, [sp, #24]
    578c:	461a      	mov	r2, r3
    578e:	2300      	movs	r3, #0
    5790:	461d      	mov	r5, r3
    5792:	1c59      	adds	r1, r3, #1
    5794:	f1b4 0930 	subs.w	r9, r4, #48	; 0x30
    5798:	d02a      	beq.n	57f0 <_strtod_r+0x218>
    579a:	1852      	adds	r2, r2, r1
    579c:	1c68      	adds	r0, r5, #1
    579e:	ebc5 0c00 	rsb	r12, r5, r0
    57a2:	458c      	cmp	r12, r1
    57a4:	da11      	bge.n	57ca <_strtod_r+0x1f2>
    57a6:	f100 3eff 	add.w	lr, r0, #4294967295
    57aa:	f1be 0f10 	cmp.w	lr, #16
    57ae:	dc0a      	bgt.n	57c6 <_strtod_r+0x1ee>
    57b0:	2809      	cmp	r0, #9
    57b2:	bfd8      	it	le
    57b4:	9c03      	ldrle	r4, [sp, #12]
    57b6:	f04f 0c0a 	mov.w	r12, #10
    57ba:	bfd6      	itet	le
    57bc:	fb0c f404 	mulle.w	r4, r12, r4
    57c0:	fb0c f707 	mulgt.w	r7, r12, r7
    57c4:	9403      	strle	r4, [sp, #12]
    57c6:	3001      	adds	r0, #1
    57c8:	e7e9      	b.n	579e <_strtod_r+0x1c6>
    57ca:	2b00      	cmp	r3, #0
    57cc:	bfac      	ite	ge
    57ce:	18eb      	addge	r3, r5, r3
    57d0:	1c2b      	addlt	r3, r5, #0
    57d2:	1c5d      	adds	r5, r3, #1
    57d4:	2b10      	cmp	r3, #16
    57d6:	dc0a      	bgt.n	57ee <_strtod_r+0x216>
    57d8:	2d09      	cmp	r5, #9
    57da:	bfd8      	it	le
    57dc:	9c03      	ldrle	r4, [sp, #12]
    57de:	f04f 000a 	mov.w	r0, #10
    57e2:	bfd6      	itet	le
    57e4:	fb00 9404 	mlale	r4, r0, r4, r9
    57e8:	fb00 9707 	mlagt	r7, r0, r7, r9
    57ec:	9403      	strle	r4, [sp, #12]
    57ee:	2100      	movs	r1, #0
    57f0:	9c11      	ldr	r4, [sp, #68]	; 0x44
    57f2:	1c63      	adds	r3, r4, #1
    57f4:	9311      	str	r3, [sp, #68]	; 0x44
    57f6:	7864      	ldrb	r4, [r4, #1]
    57f8:	460b      	mov	r3, r1
    57fa:	f1a4 0030 	sub.w	r0, r4, #48	; 0x30
    57fe:	2809      	cmp	r0, #9
    5800:	d9c7      	bls.n	5792 <_strtod_r+0x1ba>
    5802:	2101      	movs	r1, #1
    5804:	9107      	str	r1, [sp, #28]
    5806:	e003      	b.n	5810 <_strtod_r+0x238>
    5808:	2500      	movs	r5, #0
    580a:	2101      	movs	r1, #1
    580c:	462a      	mov	r2, r5
    580e:	9107      	str	r1, [sp, #28]
    5810:	2c65      	cmp	r4, #101	; 0x65
    5812:	d001      	beq.n	5818 <_strtod_r+0x240>
    5814:	2c45      	cmp	r4, #69	; 0x45
    5816:	d159      	bne.n	58cc <_strtod_r+0x2f4>
    5818:	b925      	cbnz	r5, 5824 <_strtod_r+0x24c>
    581a:	b91b      	cbnz	r3, 5824 <_strtod_r+0x24c>
    581c:	9c04      	ldr	r4, [sp, #16]
    581e:	2c00      	cmp	r4, #0
    5820:	f000 809d 	beq.w	595e <_strtod_r+0x386>
    5824:	f8dd 8044 	ldr.w	r8, [sp, #68]	; 0x44
    5828:	f108 0001 	add.w	r0, r8, #1
    582c:	9011      	str	r0, [sp, #68]	; 0x44
    582e:	f898 4001 	ldrb.w	r4, [r8, #1]
    5832:	2c2b      	cmp	r4, #43	; 0x2b
    5834:	d003      	beq.n	583e <_strtod_r+0x266>
    5836:	2c2d      	cmp	r4, #45	; 0x2d
    5838:	d003      	beq.n	5842 <_strtod_r+0x26a>
    583a:	2000      	movs	r0, #0
    583c:	e007      	b.n	584e <_strtod_r+0x276>
    583e:	2000      	movs	r0, #0
    5840:	e000      	b.n	5844 <_strtod_r+0x26c>
    5842:	2001      	movs	r0, #1
    5844:	f108 0102 	add.w	r1, r8, #2
    5848:	9111      	str	r1, [sp, #68]	; 0x44
    584a:	f898 4002 	ldrb.w	r4, [r8, #2]
    584e:	f1a4 0e30 	sub.w	lr, r4, #48	; 0x30
    5852:	f1be 0f09 	cmp.w	lr, #9
    5856:	d837      	bhi.n	58c8 <_strtod_r+0x2f0>
    5858:	2c30      	cmp	r4, #48	; 0x30
    585a:	d106      	bne.n	586a <_strtod_r+0x292>
    585c:	9c11      	ldr	r4, [sp, #68]	; 0x44
    585e:	f104 0901 	add.w	r9, r4, #1
    5862:	f8cd 9044 	str.w	r9, [sp, #68]	; 0x44
    5866:	7864      	ldrb	r4, [r4, #1]
    5868:	e7f6      	b.n	5858 <_strtod_r+0x280>
    586a:	f1a4 0931 	sub.w	r9, r4, #49	; 0x31
    586e:	f1b9 0f08 	cmp.w	r9, #8
    5872:	d82b      	bhi.n	58cc <_strtod_r+0x2f4>
    5874:	f1a4 0c30 	sub.w	r12, r4, #48	; 0x30
    5878:	9c11      	ldr	r4, [sp, #68]	; 0x44
    587a:	9405      	str	r4, [sp, #20]
    587c:	9911      	ldr	r1, [sp, #68]	; 0x44
    587e:	f101 0e01 	add.w	lr, r1, #1
    5882:	f8cd e044 	str.w	lr, [sp, #68]	; 0x44
    5886:	784c      	ldrb	r4, [r1, #1]
    5888:	2c2f      	cmp	r4, #47	; 0x2f
    588a:	dc0b      	bgt.n	58a4 <_strtod_r+0x2cc>
    588c:	9905      	ldr	r1, [sp, #20]
    588e:	ebc1 090e 	rsb	r9, r1, lr
    5892:	f1b9 0f08 	cmp.w	r9, #8
    5896:	f644 691f 	movw	r9, #19999	; 0x4e1f
    589a:	dc0c      	bgt.n	58b6 <_strtod_r+0x2de>
    589c:	45cc      	cmp	r12, r9
    589e:	bfb8      	it	lt
    58a0:	46e1      	movlt	r9, r12
    58a2:	e008      	b.n	58b6 <_strtod_r+0x2de>
    58a4:	2c39      	cmp	r4, #57	; 0x39
    58a6:	dcf1      	bgt.n	588c <_strtod_r+0x2b4>
    58a8:	f04f 0e0a 	mov.w	lr, #10
    58ac:	fb0e 4c0c 	mla	r12, lr, r12, r4
    58b0:	f1ac 0c30 	sub.w	r12, r12, #48	; 0x30
    58b4:	e7e2      	b.n	587c <_strtod_r+0x2a4>
    58b6:	b158      	cbz	r0, 58d0 <_strtod_r+0x2f8>
    58b8:	f1c9 0900 	rsb	r9, r9, #0
    58bc:	e008      	b.n	58d0 <_strtod_r+0x2f8>
    58be:	bf00      	nop
    58c0:	10000518 	.word	0x10000518
    58c4:	7ff00000 	.word	0x7ff00000
    58c8:	f8cd 8044 	str.w	r8, [sp, #68]	; 0x44
    58cc:	f04f 0900 	mov.w	r9, #0
    58d0:	2d00      	cmp	r5, #0
    58d2:	d149      	bne.n	5968 <_strtod_r+0x390>
    58d4:	2b00      	cmp	r3, #0
    58d6:	f040 83e7 	bne.w	60a8 <_strtod_r+0xad0>
    58da:	9a04      	ldr	r2, [sp, #16]
    58dc:	2a00      	cmp	r2, #0
    58de:	f040 83e3 	bne.w	60a8 <_strtod_r+0xad0>
    58e2:	9b07      	ldr	r3, [sp, #28]
    58e4:	2b00      	cmp	r3, #0
    58e6:	d13a      	bne.n	595e <_strtod_r+0x386>
    58e8:	2c4e      	cmp	r4, #78	; 0x4e
    58ea:	d01b      	beq.n	5924 <_strtod_r+0x34c>
    58ec:	dc02      	bgt.n	58f4 <_strtod_r+0x31c>
    58ee:	2c49      	cmp	r4, #73	; 0x49
    58f0:	d135      	bne.n	595e <_strtod_r+0x386>
    58f2:	e004      	b.n	58fe <_strtod_r+0x326>
    58f4:	2c69      	cmp	r4, #105	; 0x69
    58f6:	d002      	beq.n	58fe <_strtod_r+0x326>
    58f8:	2c6e      	cmp	r4, #110	; 0x6e
    58fa:	d130      	bne.n	595e <_strtod_r+0x386>
    58fc:	e012      	b.n	5924 <_strtod_r+0x34c>
    58fe:	a811      	add	r0, sp, #68	; 0x44
    5900:	49a4      	ldr	r1, [pc, #656]	; (5b94 <_strtod_r+0x5bc>)
    5902:	f7ff fe53 	bl	55ac <match>
    5906:	b350      	cbz	r0, 595e <_strtod_r+0x386>
    5908:	9c11      	ldr	r4, [sp, #68]	; 0x44
    590a:	a811      	add	r0, sp, #68	; 0x44
    590c:	1e61      	subs	r1, r4, #1
    590e:	9111      	str	r1, [sp, #68]	; 0x44
    5910:	49a1      	ldr	r1, [pc, #644]	; (5b98 <_strtod_r+0x5c0>)
    5912:	f7ff fe4b 	bl	55ac <match>
    5916:	b910      	cbnz	r0, 591e <_strtod_r+0x346>
    5918:	9811      	ldr	r0, [sp, #68]	; 0x44
    591a:	1c42      	adds	r2, r0, #1
    591c:	9211      	str	r2, [sp, #68]	; 0x44
    591e:	f8df b28c 	ldr.w	r11, [pc, #652]	; 5bac <_strtod_r+0x5d4>
    5922:	e019      	b.n	5958 <_strtod_r+0x380>
    5924:	a811      	add	r0, sp, #68	; 0x44
    5926:	499d      	ldr	r1, [pc, #628]	; (5b9c <_strtod_r+0x5c4>)
    5928:	f7ff fe40 	bl	55ac <match>
    592c:	b1b8      	cbz	r0, 595e <_strtod_r+0x386>
    592e:	9b11      	ldr	r3, [sp, #68]	; 0x44
    5930:	781c      	ldrb	r4, [r3, #0]
    5932:	2c28      	cmp	r4, #40	; 0x28
    5934:	d10e      	bne.n	5954 <_strtod_r+0x37c>
    5936:	a811      	add	r0, sp, #68	; 0x44
    5938:	4999      	ldr	r1, [pc, #612]	; (5ba0 <_strtod_r+0x5c8>)
    593a:	aa14      	add	r2, sp, #80	; 0x50
    593c:	f001 f876 	bl	6a2c <__hexnan>
    5940:	2805      	cmp	r0, #5
    5942:	d107      	bne.n	5954 <_strtod_r+0x37c>
    5944:	9915      	ldr	r1, [sp, #84]	; 0x54
    5946:	f8dd a050 	ldr.w	r10, [sp, #80]	; 0x50
    594a:	f041 40ff 	orr.w	r0, r1, #2139095040	; 0x7f800000
    594e:	f440 0be0 	orr.w	r11, r0, #7340032	; 0x700000
    5952:	e3a9      	b.n	60a8 <_strtod_r+0xad0>
    5954:	f8df b260 	ldr.w	r11, [pc, #608]	; 5bb8 <_strtod_r+0x5e0>
    5958:	f04f 0a00 	mov.w	r10, #0
    595c:	e3a4      	b.n	60a8 <_strtod_r+0xad0>
    595e:	2100      	movs	r1, #0
    5960:	f8cd 8044 	str.w	r8, [sp, #68]	; 0x44
    5964:	910b      	str	r1, [sp, #44]	; 0x2c
    5966:	e39f      	b.n	60a8 <_strtod_r+0xad0>
    5968:	ebc2 0209 	rsb	r2, r2, r9
    596c:	9803      	ldr	r0, [sp, #12]
    596e:	9205      	str	r2, [sp, #20]
    5970:	f7fc f90a 	bl	1b88 <__aeabi_ui2d>
    5974:	2d10      	cmp	r5, #16
    5976:	bfb4      	ite	lt
    5978:	462c      	movlt	r4, r5
    597a:	2410      	movge	r4, #16
    597c:	2e00      	cmp	r6, #0
    597e:	bf08      	it	eq
    5980:	462e      	moveq	r6, r5
    5982:	2c09      	cmp	r4, #9
    5984:	4682      	mov	r10, r0
    5986:	468b      	mov	r11, r1
    5988:	dd15      	ble.n	59b6 <_strtod_r+0x3de>
    598a:	4b86      	ldr	r3, [pc, #536]	; (5ba4 <_strtod_r+0x5cc>)
    598c:	eb03 02c4 	add.w	r2, r3, r4, lsl #3
    5990:	f1a2 0348 	sub.w	r3, r2, #72	; 0x48
    5994:	e9d3 2300 	ldrd	r2, r3, [r3]
    5998:	f7fc f96c 	bl	1c74 <__aeabi_dmul>
    599c:	4680      	mov	r8, r0
    599e:	4638      	mov	r0, r7
    59a0:	4689      	mov	r9, r1
    59a2:	f7fc f8f1 	bl	1b88 <__aeabi_ui2d>
    59a6:	4602      	mov	r2, r0
    59a8:	460b      	mov	r3, r1
    59aa:	4640      	mov	r0, r8
    59ac:	4649      	mov	r1, r9
    59ae:	f7fb ffaf 	bl	1910 <__adddf3>
    59b2:	4682      	mov	r10, r0
    59b4:	468b      	mov	r11, r1
    59b6:	2d0f      	cmp	r5, #15
    59b8:	dc36      	bgt.n	5a28 <_strtod_r+0x450>
    59ba:	9805      	ldr	r0, [sp, #20]
    59bc:	2800      	cmp	r0, #0
    59be:	f000 8373 	beq.w	60a8 <_strtod_r+0xad0>
    59c2:	dd23      	ble.n	5a0c <_strtod_r+0x434>
    59c4:	2816      	cmp	r0, #22
    59c6:	dc06      	bgt.n	59d6 <_strtod_r+0x3fe>
    59c8:	4976      	ldr	r1, [pc, #472]	; (5ba4 <_strtod_r+0x5cc>)
    59ca:	4652      	mov	r2, r10
    59cc:	eb01 00c0 	add.w	r0, r1, r0, lsl #3
    59d0:	c803      	ldmia	r0, {r0, r1}
    59d2:	465b      	mov	r3, r11
    59d4:	e015      	b.n	5a02 <_strtod_r+0x42a>
    59d6:	9805      	ldr	r0, [sp, #20]
    59d8:	f1c5 0225 	rsb	r2, r5, #37	; 0x25
    59dc:	4290      	cmp	r0, r2
    59de:	dc23      	bgt.n	5a28 <_strtod_r+0x450>
    59e0:	4c70      	ldr	r4, [pc, #448]	; (5ba4 <_strtod_r+0x5cc>)
    59e2:	f1c5 050f 	rsb	r5, r5, #15
    59e6:	eb04 02c5 	add.w	r2, r4, r5, lsl #3
    59ea:	e9d2 0100 	ldrd	r0, r1, [r2]
    59ee:	465b      	mov	r3, r11
    59f0:	4652      	mov	r2, r10
    59f2:	f7fc f93f 	bl	1c74 <__aeabi_dmul>
    59f6:	9b05      	ldr	r3, [sp, #20]
    59f8:	1b5d      	subs	r5, r3, r5
    59fa:	eb04 04c5 	add.w	r4, r4, r5, lsl #3
    59fe:	e9d4 2300 	ldrd	r2, r3, [r4]
    5a02:	f7fc f937 	bl	1c74 <__aeabi_dmul>
    5a06:	4682      	mov	r10, r0
    5a08:	468b      	mov	r11, r1
    5a0a:	e34d      	b.n	60a8 <_strtod_r+0xad0>
    5a0c:	9905      	ldr	r1, [sp, #20]
    5a0e:	f111 0f16 	cmn.w	r1, #22
    5a12:	db09      	blt.n	5a28 <_strtod_r+0x450>
    5a14:	4c63      	ldr	r4, [pc, #396]	; (5ba4 <_strtod_r+0x5cc>)
    5a16:	4650      	mov	r0, r10
    5a18:	eba4 03c1 	sub.w	r3, r4, r1, lsl #3
    5a1c:	e9d3 2300 	ldrd	r2, r3, [r3]
    5a20:	4659      	mov	r1, r11
    5a22:	f7fc fa51 	bl	1ec8 <__aeabi_ddiv>
    5a26:	e7ee      	b.n	5a06 <_strtod_r+0x42e>
    5a28:	1b29      	subs	r1, r5, r4
    5a2a:	9c05      	ldr	r4, [sp, #20]
    5a2c:	1864      	adds	r4, r4, r1
    5a2e:	2c00      	cmp	r4, #0
    5a30:	dd54      	ble.n	5adc <_strtod_r+0x504>
    5a32:	f014 000f 	ands.w	r0, r4, #15
    5a36:	d00a      	beq.n	5a4e <_strtod_r+0x476>
    5a38:	4a5a      	ldr	r2, [pc, #360]	; (5ba4 <_strtod_r+0x5cc>)
    5a3a:	465b      	mov	r3, r11
    5a3c:	eb02 01c0 	add.w	r1, r2, r0, lsl #3
    5a40:	e9d1 0100 	ldrd	r0, r1, [r1]
    5a44:	4652      	mov	r2, r10
    5a46:	f7fc f915 	bl	1c74 <__aeabi_dmul>
    5a4a:	4682      	mov	r10, r0
    5a4c:	468b      	mov	r11, r1
    5a4e:	f034 030f 	bics.w	r3, r4, #15
    5a52:	f000 80b5 	beq.w	5bc0 <_strtod_r+0x5e8>
    5a56:	f5b3 7f9a 	cmp.w	r3, #308	; 0x134
    5a5a:	dd0f      	ble.n	5a7c <_strtod_r+0x4a4>
    5a5c:	f04f 0800 	mov.w	r8, #0
    5a60:	f8cd 800c 	str.w	r8, [sp, #12]
    5a64:	f8cd 801c 	str.w	r8, [sp, #28]
    5a68:	f8cd 8018 	str.w	r8, [sp, #24]
    5a6c:	9802      	ldr	r0, [sp, #8]
    5a6e:	2122      	movs	r1, #34	; 0x22
    5a70:	6001      	str	r1, [r0, #0]
    5a72:	f8df b138 	ldr.w	r11, [pc, #312]	; 5bac <_strtod_r+0x5d4>
    5a76:	f04f 0a00 	mov.w	r10, #0
    5a7a:	e172      	b.n	5d62 <_strtod_r+0x78a>
    5a7c:	111f      	asrs	r7, r3, #4
    5a7e:	4650      	mov	r0, r10
    5a80:	4659      	mov	r1, r11
    5a82:	f04f 0800 	mov.w	r8, #0
    5a86:	2f01      	cmp	r7, #1
    5a88:	dd0c      	ble.n	5aa4 <_strtod_r+0x4cc>
    5a8a:	07fa      	lsls	r2, r7, #31
    5a8c:	d506      	bpl.n	5a9c <_strtod_r+0x4c4>
    5a8e:	4a46      	ldr	r2, [pc, #280]	; (5ba8 <_strtod_r+0x5d0>)
    5a90:	eb02 03c8 	add.w	r3, r2, r8, lsl #3
    5a94:	e9d3 2300 	ldrd	r2, r3, [r3]
    5a98:	f7fc f8ec 	bl	1c74 <__aeabi_dmul>
    5a9c:	f108 0801 	add.w	r8, r8, #1
    5aa0:	107f      	asrs	r7, r7, #1
    5aa2:	e7f0      	b.n	5a86 <_strtod_r+0x4ae>
    5aa4:	4602      	mov	r2, r0
    5aa6:	4840      	ldr	r0, [pc, #256]	; (5ba8 <_strtod_r+0x5d0>)
    5aa8:	f1a1 7354 	sub.w	r3, r1, #55574528	; 0x3500000
    5aac:	eb00 01c8 	add.w	r1, r0, r8, lsl #3
    5ab0:	e9d1 0100 	ldrd	r0, r1, [r1]
    5ab4:	f7fc f8de 	bl	1c74 <__aeabi_dmul>
    5ab8:	4b3c      	ldr	r3, [pc, #240]	; (5bac <_strtod_r+0x5d4>)
    5aba:	4c3d      	ldr	r4, [pc, #244]	; (5bb0 <_strtod_r+0x5d8>)
    5abc:	400b      	ands	r3, r1
    5abe:	42a3      	cmp	r3, r4
    5ac0:	4682      	mov	r10, r0
    5ac2:	468b      	mov	r11, r1
    5ac4:	d8ca      	bhi.n	5a5c <_strtod_r+0x484>
    5ac6:	f5a4 1780 	sub.w	r7, r4, #1048576	; 0x100000
    5aca:	42bb      	cmp	r3, r7
    5acc:	bf86      	itte	hi
    5ace:	f8df b0ec 	ldrhi.w	r11, [pc, #236]	; 5bbc <_strtod_r+0x5e4>
    5ad2:	f04f 3aff 	movhi.w	r10, #4294967295
    5ad6:	f101 7b54 	addls.w	r11, r1, #55574528	; 0x3500000
    5ada:	e071      	b.n	5bc0 <_strtod_r+0x5e8>
    5adc:	d070      	beq.n	5bc0 <_strtod_r+0x5e8>
    5ade:	4267      	negs	r7, r4
    5ae0:	f017 030f 	ands.w	r3, r7, #15
    5ae4:	d00a      	beq.n	5afc <_strtod_r+0x524>
    5ae6:	4a2f      	ldr	r2, [pc, #188]	; (5ba4 <_strtod_r+0x5cc>)
    5ae8:	4650      	mov	r0, r10
    5aea:	eb02 04c3 	add.w	r4, r2, r3, lsl #3
    5aee:	4659      	mov	r1, r11
    5af0:	e9d4 2300 	ldrd	r2, r3, [r4]
    5af4:	f7fc f9e8 	bl	1ec8 <__aeabi_ddiv>
    5af8:	4682      	mov	r10, r0
    5afa:	468b      	mov	r11, r1
    5afc:	113f      	asrs	r7, r7, #4
    5afe:	d05f      	beq.n	5bc0 <_strtod_r+0x5e8>
    5b00:	2f1f      	cmp	r7, #31
    5b02:	dd08      	ble.n	5b16 <_strtod_r+0x53e>
    5b04:	f04f 0800 	mov.w	r8, #0
    5b08:	f8cd 800c 	str.w	r8, [sp, #12]
    5b0c:	f8cd 801c 	str.w	r8, [sp, #28]
    5b10:	f8cd 8018 	str.w	r8, [sp, #24]
    5b14:	e11e      	b.n	5d54 <_strtod_r+0x77c>
    5b16:	f017 0f10 	tst.w	r7, #16
    5b1a:	bf14      	ite	ne
    5b1c:	206a      	movne	r0, #106	; 0x6a
    5b1e:	2000      	moveq	r0, #0
    5b20:	4c24      	ldr	r4, [pc, #144]	; (5bb4 <_strtod_r+0x5dc>)
    5b22:	9004      	str	r0, [sp, #16]
    5b24:	4659      	mov	r1, r11
    5b26:	4650      	mov	r0, r10
    5b28:	2f00      	cmp	r7, #0
    5b2a:	dd08      	ble.n	5b3e <_strtod_r+0x566>
    5b2c:	07fb      	lsls	r3, r7, #31
    5b2e:	d503      	bpl.n	5b38 <_strtod_r+0x560>
    5b30:	e9d4 2300 	ldrd	r2, r3, [r4]
    5b34:	f7fc f89e 	bl	1c74 <__aeabi_dmul>
    5b38:	107f      	asrs	r7, r7, #1
    5b3a:	3408      	adds	r4, #8
    5b3c:	e7f4      	b.n	5b28 <_strtod_r+0x550>
    5b3e:	468b      	mov	r11, r1
    5b40:	9904      	ldr	r1, [sp, #16]
    5b42:	4682      	mov	r10, r0
    5b44:	b1e1      	cbz	r1, 5b80 <_strtod_r+0x5a8>
    5b46:	f3cb 530a 	ubfx	r3, r11, #20, #11
    5b4a:	f1c3 046b 	rsb	r4, r3, #107	; 0x6b
    5b4e:	2c00      	cmp	r4, #0
    5b50:	dd16      	ble.n	5b80 <_strtod_r+0x5a8>
    5b52:	2c1f      	cmp	r4, #31
    5b54:	dd0e      	ble.n	5b74 <_strtod_r+0x59c>
    5b56:	2c34      	cmp	r4, #52	; 0x34
    5b58:	f04f 0a00 	mov.w	r10, #0
    5b5c:	dd02      	ble.n	5b64 <_strtod_r+0x58c>
    5b5e:	f04f 7b5c 	mov.w	r11, #57671680	; 0x3700000
    5b62:	e00d      	b.n	5b80 <_strtod_r+0x5a8>
    5b64:	3c20      	subs	r4, #32
    5b66:	f04f 33ff 	mov.w	r3, #4294967295
    5b6a:	fa03 f404 	lsl.w	r4, r3, r4
    5b6e:	ea04 0b0b 	and.w	r11, r4, r11
    5b72:	e005      	b.n	5b80 <_strtod_r+0x5a8>
    5b74:	f04f 30ff 	mov.w	r0, #4294967295
    5b78:	fa00 f104 	lsl.w	r1, r0, r4
    5b7c:	ea01 0a0a 	and.w	r10, r1, r10
    5b80:	4650      	mov	r0, r10
    5b82:	4659      	mov	r1, r11
    5b84:	2200      	movs	r2, #0
    5b86:	2300      	movs	r3, #0
    5b88:	f7fc fadc 	bl	2144 <__aeabi_dcmpeq>
    5b8c:	2800      	cmp	r0, #0
    5b8e:	d1b9      	bne.n	5b04 <_strtod_r+0x52c>
    5b90:	e018      	b.n	5bc4 <_strtod_r+0x5ec>
    5b92:	bf00      	nop
    5b94:	00006fc6 	.word	0x00006fc6
    5b98:	000070fc 	.word	0x000070fc
    5b9c:	00006fce 	.word	0x00006fce
    5ba0:	1000052c 	.word	0x1000052c
    5ba4:	00007170 	.word	0x00007170
    5ba8:	00007248 	.word	0x00007248
    5bac:	7ff00000 	.word	0x7ff00000
    5bb0:	7ca00000 	.word	0x7ca00000
    5bb4:	00007270 	.word	0x00007270
    5bb8:	fff80000 	.word	0xfff80000
    5bbc:	7fefffff 	.word	0x7fefffff
    5bc0:	2000      	movs	r0, #0
    5bc2:	9004      	str	r0, [sp, #16]
    5bc4:	9903      	ldr	r1, [sp, #12]
    5bc6:	4632      	mov	r2, r6
    5bc8:	9100      	str	r1, [sp, #0]
    5bca:	9802      	ldr	r0, [sp, #8]
    5bcc:	9906      	ldr	r1, [sp, #24]
    5bce:	462b      	mov	r3, r5
    5bd0:	f7ff f8e2 	bl	4d98 <__s2b>
    5bd4:	9e05      	ldr	r6, [sp, #20]
    5bd6:	9007      	str	r0, [sp, #28]
    5bd8:	2e00      	cmp	r6, #0
    5bda:	f2c0 80c7 	blt.w	5d6c <_strtod_r+0x794>
    5bde:	2200      	movs	r2, #0
    5be0:	920e      	str	r2, [sp, #56]	; 0x38
    5be2:	9c07      	ldr	r4, [sp, #28]
    5be4:	9802      	ldr	r0, [sp, #8]
    5be6:	6861      	ldr	r1, [r4, #4]
    5be8:	f7ff f84e 	bl	4c88 <_Balloc>
    5bec:	6923      	ldr	r3, [r4, #16]
    5bee:	4621      	mov	r1, r4
    5bf0:	1c9f      	adds	r7, r3, #2
    5bf2:	00ba      	lsls	r2, r7, #2
    5bf4:	310c      	adds	r1, #12
    5bf6:	9006      	str	r0, [sp, #24]
    5bf8:	300c      	adds	r0, #12
    5bfa:	f7fc fed9 	bl	29b0 <memcpy>
    5bfe:	a913      	add	r1, sp, #76	; 0x4c
    5c00:	a810      	add	r0, sp, #64	; 0x40
    5c02:	4652      	mov	r2, r10
    5c04:	9000      	str	r0, [sp, #0]
    5c06:	9101      	str	r1, [sp, #4]
    5c08:	465b      	mov	r3, r11
    5c0a:	9802      	ldr	r0, [sp, #8]
    5c0c:	e9cd ab08 	strd	r10, r11, [sp, #32]
    5c10:	f7ff fb84 	bl	531c <__d2b>
    5c14:	2101      	movs	r1, #1
    5c16:	9012      	str	r0, [sp, #72]	; 0x48
    5c18:	9802      	ldr	r0, [sp, #8]
    5c1a:	f7ff f94b 	bl	4eb4 <__i2b>
    5c1e:	9a10      	ldr	r2, [sp, #64]	; 0x40
    5c20:	9e05      	ldr	r6, [sp, #20]
    5c22:	2a00      	cmp	r2, #0
    5c24:	9003      	str	r0, [sp, #12]
    5c26:	ea26 77e6 	bic.w	r7, r6, r6, asr #31
    5c2a:	f2c0 80a2 	blt.w	5d72 <_strtod_r+0x79a>
    5c2e:	9d0e      	ldr	r5, [sp, #56]	; 0x38
    5c30:	463b      	mov	r3, r7
    5c32:	18ad      	adds	r5, r5, r2
    5c34:	9c04      	ldr	r4, [sp, #16]
    5c36:	9e13      	ldr	r6, [sp, #76]	; 0x4c
    5c38:	1b14      	subs	r4, r2, r4
    5c3a:	19a0      	adds	r0, r4, r6
    5c3c:	f46f 717f 	mvn.w	r1, #1020	; 0x3fc
    5c40:	4288      	cmp	r0, r1
    5c42:	bfb4      	ite	lt
    5c44:	f204 4433 	addwlt	r4, r4, #1075	; 0x433
    5c48:	f1c6 0436 	rsbge	r4, r6, #54	; 0x36
    5c4c:	9a04      	ldr	r2, [sp, #16]
    5c4e:	192e      	adds	r6, r5, r4
    5c50:	191b      	adds	r3, r3, r4
    5c52:	42ae      	cmp	r6, r5
    5c54:	bfb4      	ite	lt
    5c56:	4630      	movlt	r0, r6
    5c58:	4628      	movge	r0, r5
    5c5a:	189c      	adds	r4, r3, r2
    5c5c:	42a0      	cmp	r0, r4
    5c5e:	bfa8      	it	ge
    5c60:	4620      	movge	r0, r4
    5c62:	2800      	cmp	r0, #0
    5c64:	dd02      	ble.n	5c6c <_strtod_r+0x694>
    5c66:	1a36      	subs	r6, r6, r0
    5c68:	1a24      	subs	r4, r4, r0
    5c6a:	1a2d      	subs	r5, r5, r0
    5c6c:	9b0e      	ldr	r3, [sp, #56]	; 0x38
    5c6e:	b18b      	cbz	r3, 5c94 <_strtod_r+0x6bc>
    5c70:	461a      	mov	r2, r3
    5c72:	9903      	ldr	r1, [sp, #12]
    5c74:	9802      	ldr	r0, [sp, #8]
    5c76:	f7ff f9b7 	bl	4fe8 <__pow5mult>
    5c7a:	9003      	str	r0, [sp, #12]
    5c7c:	9903      	ldr	r1, [sp, #12]
    5c7e:	9a12      	ldr	r2, [sp, #72]	; 0x48
    5c80:	9802      	ldr	r0, [sp, #8]
    5c82:	f7ff f920 	bl	4ec6 <__multiply>
    5c86:	9912      	ldr	r1, [sp, #72]	; 0x48
    5c88:	4680      	mov	r8, r0
    5c8a:	9802      	ldr	r0, [sp, #8]
    5c8c:	f7ff f831 	bl	4cf2 <_Bfree>
    5c90:	f8cd 8048 	str.w	r8, [sp, #72]	; 0x48
    5c94:	2e00      	cmp	r6, #0
    5c96:	dd05      	ble.n	5ca4 <_strtod_r+0x6cc>
    5c98:	9802      	ldr	r0, [sp, #8]
    5c9a:	9912      	ldr	r1, [sp, #72]	; 0x48
    5c9c:	4632      	mov	r2, r6
    5c9e:	f7ff f9f5 	bl	508c <__lshift>
    5ca2:	9012      	str	r0, [sp, #72]	; 0x48
    5ca4:	b12f      	cbz	r7, 5cb2 <_strtod_r+0x6da>
    5ca6:	9802      	ldr	r0, [sp, #8]
    5ca8:	9906      	ldr	r1, [sp, #24]
    5caa:	463a      	mov	r2, r7
    5cac:	f7ff f99c 	bl	4fe8 <__pow5mult>
    5cb0:	9006      	str	r0, [sp, #24]
    5cb2:	2c00      	cmp	r4, #0
    5cb4:	dd05      	ble.n	5cc2 <_strtod_r+0x6ea>
    5cb6:	9802      	ldr	r0, [sp, #8]
    5cb8:	9906      	ldr	r1, [sp, #24]
    5cba:	4622      	mov	r2, r4
    5cbc:	f7ff f9e6 	bl	508c <__lshift>
    5cc0:	9006      	str	r0, [sp, #24]
    5cc2:	2d00      	cmp	r5, #0
    5cc4:	dd05      	ble.n	5cd2 <_strtod_r+0x6fa>
    5cc6:	9802      	ldr	r0, [sp, #8]
    5cc8:	9903      	ldr	r1, [sp, #12]
    5cca:	462a      	mov	r2, r5
    5ccc:	f7ff f9de 	bl	508c <__lshift>
    5cd0:	9003      	str	r0, [sp, #12]
    5cd2:	9912      	ldr	r1, [sp, #72]	; 0x48
    5cd4:	9a06      	ldr	r2, [sp, #24]
    5cd6:	9802      	ldr	r0, [sp, #8]
    5cd8:	f7ff fa49 	bl	516e <__mdiff>
    5cdc:	f04f 0900 	mov.w	r9, #0
    5ce0:	68c4      	ldr	r4, [r0, #12]
    5ce2:	9903      	ldr	r1, [sp, #12]
    5ce4:	f8c0 900c 	str.w	r9, [r0, #12]
    5ce8:	4680      	mov	r8, r0
    5cea:	940a      	str	r4, [sp, #40]	; 0x28
    5cec:	f7ff fa22 	bl	5134 <__mcmp>
    5cf0:	4548      	cmp	r0, r9
    5cf2:	da46      	bge.n	5d82 <_strtod_r+0x7aa>
    5cf4:	2c00      	cmp	r4, #0
    5cf6:	f040 81b0 	bne.w	605a <_strtod_r+0xa82>
    5cfa:	f1ba 0f00 	cmp.w	r10, #0
    5cfe:	f040 81ac 	bne.w	605a <_strtod_r+0xa82>
    5d02:	f3cb 0013 	ubfx	r0, r11, #0, #20
    5d06:	465c      	mov	r4, r11
    5d08:	2800      	cmp	r0, #0
    5d0a:	f040 81a6 	bne.w	605a <_strtod_r+0xa82>
    5d0e:	4a9c      	ldr	r2, [pc, #624]	; (5f80 <_strtod_r+0x9a8>)
    5d10:	4022      	ands	r2, r4
    5d12:	f1b2 6fd6 	cmp.w	r2, #112197632	; 0x6b00000
    5d16:	f240 81a0 	bls.w	605a <_strtod_r+0xa82>
    5d1a:	f8d8 3014 	ldr.w	r3, [r8, #20]
    5d1e:	b35b      	cbz	r3, 5d78 <_strtod_r+0x7a0>
    5d20:	4641      	mov	r1, r8
    5d22:	2201      	movs	r2, #1
    5d24:	9802      	ldr	r0, [sp, #8]
    5d26:	f7ff f9b1 	bl	508c <__lshift>
    5d2a:	9903      	ldr	r1, [sp, #12]
    5d2c:	4680      	mov	r8, r0
    5d2e:	f7ff fa01 	bl	5134 <__mcmp>
    5d32:	2800      	cmp	r0, #0
    5d34:	f340 8191 	ble.w	605a <_strtod_r+0xa82>
    5d38:	f02b 4400 	bic.w	r4, r11, #2147483648	; 0x80000000
    5d3c:	9b04      	ldr	r3, [sp, #16]
    5d3e:	0d20      	lsrs	r0, r4, #20
    5d40:	0502      	lsls	r2, r0, #20
    5d42:	2b00      	cmp	r3, #0
    5d44:	d04a      	beq.n	5ddc <_strtod_r+0x804>
    5d46:	f1b2 6fd6 	cmp.w	r2, #112197632	; 0x6b00000
    5d4a:	d847      	bhi.n	5ddc <_strtod_r+0x804>
    5d4c:	f1b2 7f5c 	cmp.w	r2, #57671680	; 0x3700000
    5d50:	f200 8185 	bhi.w	605e <_strtod_r+0xa86>
    5d54:	9c02      	ldr	r4, [sp, #8]
    5d56:	2022      	movs	r0, #34	; 0x22
    5d58:	f04f 0a00 	mov.w	r10, #0
    5d5c:	f04f 0b00 	mov.w	r11, #0
    5d60:	6020      	str	r0, [r4, #0]
    5d62:	9c07      	ldr	r4, [sp, #28]
    5d64:	2c00      	cmp	r4, #0
    5d66:	f040 818b 	bne.w	6080 <_strtod_r+0xaa8>
    5d6a:	e19d      	b.n	60a8 <_strtod_r+0xad0>
    5d6c:	9d05      	ldr	r5, [sp, #20]
    5d6e:	426a      	negs	r2, r5
    5d70:	e736      	b.n	5be0 <_strtod_r+0x608>
    5d72:	1abb      	subs	r3, r7, r2
    5d74:	9d0e      	ldr	r5, [sp, #56]	; 0x38
    5d76:	e75d      	b.n	5c34 <_strtod_r+0x65c>
    5d78:	f8d8 1010 	ldr.w	r1, [r8, #16]
    5d7c:	2901      	cmp	r1, #1
    5d7e:	dccf      	bgt.n	5d20 <_strtod_r+0x748>
    5d80:	e16b      	b.n	605a <_strtod_r+0xa82>
    5d82:	d159      	bne.n	5e38 <_strtod_r+0x860>
    5d84:	9c0a      	ldr	r4, [sp, #40]	; 0x28
    5d86:	b314      	cbz	r4, 5dce <_strtod_r+0x7f6>
    5d88:	f02b 407f 	bic.w	r0, r11, #4278190080	; 0xff000000
    5d8c:	4c7d      	ldr	r4, [pc, #500]	; (5f84 <_strtod_r+0x9ac>)
    5d8e:	f420 0170 	bic.w	r1, r0, #15728640	; 0xf00000
    5d92:	42a1      	cmp	r1, r4
    5d94:	465a      	mov	r2, r11
    5d96:	d12a      	bne.n	5dee <_strtod_r+0x816>
    5d98:	9b04      	ldr	r3, [sp, #16]
    5d9a:	4651      	mov	r1, r10
    5d9c:	b163      	cbz	r3, 5db8 <_strtod_r+0x7e0>
    5d9e:	4878      	ldr	r0, [pc, #480]	; (5f80 <_strtod_r+0x9a8>)
    5da0:	4010      	ands	r0, r2
    5da2:	f1b0 6fd4 	cmp.w	r0, #111149056	; 0x6a00000
    5da6:	d807      	bhi.n	5db8 <_strtod_r+0x7e0>
    5da8:	0d03      	lsrs	r3, r0, #20
    5daa:	f1c3 046b 	rsb	r4, r3, #107	; 0x6b
    5dae:	f04f 30ff 	mov.w	r0, #4294967295
    5db2:	fa00 f404 	lsl.w	r4, r0, r4
    5db6:	e001      	b.n	5dbc <_strtod_r+0x7e4>
    5db8:	f04f 34ff 	mov.w	r4, #4294967295
    5dbc:	42a1      	cmp	r1, r4
    5dbe:	d116      	bne.n	5dee <_strtod_r+0x816>
    5dc0:	496f      	ldr	r1, [pc, #444]	; (5f80 <_strtod_r+0x9a8>)
    5dc2:	f04f 0a00 	mov.w	r10, #0
    5dc6:	4011      	ands	r1, r2
    5dc8:	f501 1b80 	add.w	r11, r1, #1048576	; 0x100000
    5dcc:	e145      	b.n	605a <_strtod_r+0xa82>
    5dce:	f3cb 0313 	ubfx	r3, r11, #0, #20
    5dd2:	b963      	cbnz	r3, 5dee <_strtod_r+0x816>
    5dd4:	f1ba 0f00 	cmp.w	r10, #0
    5dd8:	d109      	bne.n	5dee <_strtod_r+0x816>
    5dda:	e7ad      	b.n	5d38 <_strtod_r+0x760>
    5ddc:	f5a2 1180 	sub.w	r1, r2, #1048576	; 0x100000
    5de0:	ea6f 5a11 	mvn.w	r10, r1, lsr #20
    5de4:	ea6f 5b0a 	mvn.w	r11, r10, lsl #20
    5de8:	f04f 3aff 	mov.w	r10, #4294967295
    5dec:	e135      	b.n	605a <_strtod_r+0xa82>
    5dee:	f00a 0201 	and.w	r2, r10, #1
    5df2:	2a00      	cmp	r2, #0
    5df4:	f000 8131 	beq.w	605a <_strtod_r+0xa82>
    5df8:	9b0a      	ldr	r3, [sp, #40]	; 0x28
    5dfa:	e9dd 0108 	ldrd	r0, r1, [sp, #32]
    5dfe:	b153      	cbz	r3, 5e16 <_strtod_r+0x83e>
    5e00:	f7ff fa18 	bl	5234 <__ulp>
    5e04:	4602      	mov	r2, r0
    5e06:	460b      	mov	r3, r1
    5e08:	e9dd 0108 	ldrd	r0, r1, [sp, #32]
    5e0c:	f7fb fd80 	bl	1910 <__adddf3>
    5e10:	4682      	mov	r10, r0
    5e12:	468b      	mov	r11, r1
    5e14:	e121      	b.n	605a <_strtod_r+0xa82>
    5e16:	f7ff fa0d 	bl	5234 <__ulp>
    5e1a:	4602      	mov	r2, r0
    5e1c:	460b      	mov	r3, r1
    5e1e:	e9dd 0108 	ldrd	r0, r1, [sp, #32]
    5e22:	f7fb fd73 	bl	190c <__aeabi_dsub>
    5e26:	2200      	movs	r2, #0
    5e28:	2300      	movs	r3, #0
    5e2a:	4682      	mov	r10, r0
    5e2c:	468b      	mov	r11, r1
    5e2e:	f7fc f989 	bl	2144 <__aeabi_dcmpeq>
    5e32:	2800      	cmp	r0, #0
    5e34:	d18e      	bne.n	5d54 <_strtod_r+0x77c>
    5e36:	e110      	b.n	605a <_strtod_r+0xa82>
    5e38:	4640      	mov	r0, r8
    5e3a:	9903      	ldr	r1, [sp, #12]
    5e3c:	f7ff fac2 	bl	53c4 <__ratio>
    5e40:	2200      	movs	r2, #0
    5e42:	f04f 4380 	mov.w	r3, #1073741824	; 0x40000000
    5e46:	4604      	mov	r4, r0
    5e48:	460d      	mov	r5, r1
    5e4a:	f7fc f98f 	bl	216c <__aeabi_dcmple>
    5e4e:	b378      	cbz	r0, 5eb0 <_strtod_r+0x8d8>
    5e50:	990a      	ldr	r1, [sp, #40]	; 0x28
    5e52:	b111      	cbz	r1, 5e5a <_strtod_r+0x882>
    5e54:	2600      	movs	r6, #0
    5e56:	4f4c      	ldr	r7, [pc, #304]	; (5f88 <_strtod_r+0x9b0>)
    5e58:	e00f      	b.n	5e7a <_strtod_r+0x8a2>
    5e5a:	4652      	mov	r2, r10
    5e5c:	f1ba 0f00 	cmp.w	r10, #0
    5e60:	d103      	bne.n	5e6a <_strtod_r+0x892>
    5e62:	f3cb 0613 	ubfx	r6, r11, #0, #20
    5e66:	b936      	cbnz	r6, 5e76 <_strtod_r+0x89e>
    5e68:	e00b      	b.n	5e82 <_strtod_r+0x8aa>
    5e6a:	2a01      	cmp	r2, #1
    5e6c:	d103      	bne.n	5e76 <_strtod_r+0x89e>
    5e6e:	f1bb 0f00 	cmp.w	r11, #0
    5e72:	f43f af6f 	beq.w	5d54 <_strtod_r+0x77c>
    5e76:	4f45      	ldr	r7, [pc, #276]	; (5f8c <_strtod_r+0x9b4>)
    5e78:	2600      	movs	r6, #0
    5e7a:	2400      	movs	r4, #0
    5e7c:	f8df 9108 	ldr.w	r9, [pc, #264]	; 5f88 <_strtod_r+0x9b0>
    5e80:	e026      	b.n	5ed0 <_strtod_r+0x8f8>
    5e82:	4620      	mov	r0, r4
    5e84:	4629      	mov	r1, r5
    5e86:	2200      	movs	r2, #0
    5e88:	4b3f      	ldr	r3, [pc, #252]	; (5f88 <_strtod_r+0x9b0>)
    5e8a:	f7fc f965 	bl	2158 <__aeabi_dcmplt>
    5e8e:	b940      	cbnz	r0, 5ea2 <_strtod_r+0x8ca>
    5e90:	4620      	mov	r0, r4
    5e92:	4629      	mov	r1, r5
    5e94:	2200      	movs	r2, #0
    5e96:	4b3e      	ldr	r3, [pc, #248]	; (5f90 <_strtod_r+0x9b8>)
    5e98:	f7fb feec 	bl	1c74 <__aeabi_dmul>
    5e9c:	4604      	mov	r4, r0
    5e9e:	4689      	mov	r9, r1
    5ea0:	e002      	b.n	5ea8 <_strtod_r+0x8d0>
    5ea2:	9c0a      	ldr	r4, [sp, #40]	; 0x28
    5ea4:	f8df 90e8 	ldr.w	r9, [pc, #232]	; 5f90 <_strtod_r+0x9b8>
    5ea8:	4626      	mov	r6, r4
    5eaa:	f109 4700 	add.w	r7, r9, #2147483648	; 0x80000000
    5eae:	e00f      	b.n	5ed0 <_strtod_r+0x8f8>
    5eb0:	4620      	mov	r0, r4
    5eb2:	4629      	mov	r1, r5
    5eb4:	2200      	movs	r2, #0
    5eb6:	4b36      	ldr	r3, [pc, #216]	; (5f90 <_strtod_r+0x9b8>)
    5eb8:	f7fb fedc 	bl	1c74 <__aeabi_dmul>
    5ebc:	9f0a      	ldr	r7, [sp, #40]	; 0x28
    5ebe:	4604      	mov	r4, r0
    5ec0:	4689      	mov	r9, r1
    5ec2:	b917      	cbnz	r7, 5eca <_strtod_r+0x8f2>
    5ec4:	f101 4500 	add.w	r5, r1, #2147483648	; 0x80000000
    5ec8:	e000      	b.n	5ecc <_strtod_r+0x8f4>
    5eca:	460d      	mov	r5, r1
    5ecc:	4626      	mov	r6, r4
    5ece:	462f      	mov	r7, r5
    5ed0:	4d2b      	ldr	r5, [pc, #172]	; (5f80 <_strtod_r+0x9a8>)
    5ed2:	465b      	mov	r3, r11
    5ed4:	482f      	ldr	r0, [pc, #188]	; (5f94 <_strtod_r+0x9bc>)
    5ed6:	401d      	ands	r5, r3
    5ed8:	4285      	cmp	r5, r0
    5eda:	d12c      	bne.n	5f36 <_strtod_r+0x95e>
    5edc:	f1ab 7b54 	sub.w	r11, r11, #55574528	; 0x3500000
    5ee0:	e9dd 0108 	ldrd	r0, r1, [sp, #32]
    5ee4:	e9cd 010c 	strd	r0, r1, [sp, #48]	; 0x30
    5ee8:	4650      	mov	r0, r10
    5eea:	4659      	mov	r1, r11
    5eec:	f7ff f9a2 	bl	5234 <__ulp>
    5ef0:	4602      	mov	r2, r0
    5ef2:	460b      	mov	r3, r1
    5ef4:	4630      	mov	r0, r6
    5ef6:	4639      	mov	r1, r7
    5ef8:	f7fb febc 	bl	1c74 <__aeabi_dmul>
    5efc:	460b      	mov	r3, r1
    5efe:	4602      	mov	r2, r0
    5f00:	4659      	mov	r1, r11
    5f02:	4650      	mov	r0, r10
    5f04:	f7fb fd04 	bl	1910 <__adddf3>
    5f08:	4682      	mov	r10, r0
    5f0a:	481d      	ldr	r0, [pc, #116]	; (5f80 <_strtod_r+0x9a8>)
    5f0c:	460b      	mov	r3, r1
    5f0e:	4008      	ands	r0, r1
    5f10:	4921      	ldr	r1, [pc, #132]	; (5f98 <_strtod_r+0x9c0>)
    5f12:	4288      	cmp	r0, r1
    5f14:	d90c      	bls.n	5f30 <_strtod_r+0x958>
    5f16:	4821      	ldr	r0, [pc, #132]	; (5f9c <_strtod_r+0x9c4>)
    5f18:	990d      	ldr	r1, [sp, #52]	; 0x34
    5f1a:	4281      	cmp	r1, r0
    5f1c:	d103      	bne.n	5f26 <_strtod_r+0x94e>
    5f1e:	9a0c      	ldr	r2, [sp, #48]	; 0x30
    5f20:	3201      	adds	r2, #1
    5f22:	f43f ada3 	beq.w	5a6c <_strtod_r+0x494>
    5f26:	f8df b074 	ldr.w	r11, [pc, #116]	; 5f9c <_strtod_r+0x9c4>
    5f2a:	f04f 3aff 	mov.w	r10, #4294967295
    5f2e:	e083      	b.n	6038 <_strtod_r+0xa60>
    5f30:	f103 7b54 	add.w	r11, r3, #55574528	; 0x3500000
    5f34:	e04b      	b.n	5fce <_strtod_r+0x9f6>
    5f36:	9904      	ldr	r1, [sp, #16]
    5f38:	2900      	cmp	r1, #0
    5f3a:	d036      	beq.n	5faa <_strtod_r+0x9d2>
    5f3c:	f1b5 6fd4 	cmp.w	r5, #111149056	; 0x6a00000
    5f40:	d833      	bhi.n	5faa <_strtod_r+0x9d2>
    5f42:	4620      	mov	r0, r4
    5f44:	4649      	mov	r1, r9
    5f46:	a30c      	add	r3, pc, #48	; (adr r3, 5f78 <_strtod_r+0x9a0>)
    5f48:	e9d3 2300 	ldrd	r2, r3, [r3]
    5f4c:	f7fc f90e 	bl	216c <__aeabi_dcmple>
    5f50:	b340      	cbz	r0, 5fa4 <_strtod_r+0x9cc>
    5f52:	4649      	mov	r1, r9
    5f54:	4620      	mov	r0, r4
    5f56:	f000 fe15 	bl	6b84 <__aeabi_d2uiz>
    5f5a:	2800      	cmp	r0, #0
    5f5c:	bf08      	it	eq
    5f5e:	2001      	moveq	r0, #1
    5f60:	f7fb fe12 	bl	1b88 <__aeabi_ui2d>
    5f64:	4604      	mov	r4, r0
    5f66:	980a      	ldr	r0, [sp, #40]	; 0x28
    5f68:	4689      	mov	r9, r1
    5f6a:	b9c8      	cbnz	r0, 5fa0 <_strtod_r+0x9c8>
    5f6c:	f101 4700 	add.w	r7, r1, #2147483648	; 0x80000000
    5f70:	e017      	b.n	5fa2 <_strtod_r+0x9ca>
    5f72:	bf00      	nop
    5f74:	f3af 8000 	nop.w
    5f78:	ffc00000 	.word	0xffc00000
    5f7c:	41dfffff 	.word	0x41dfffff
    5f80:	7ff00000 	.word	0x7ff00000
    5f84:	000fffff 	.word	0x000fffff
    5f88:	3ff00000 	.word	0x3ff00000
    5f8c:	bff00000 	.word	0xbff00000
    5f90:	3fe00000 	.word	0x3fe00000
    5f94:	7fe00000 	.word	0x7fe00000
    5f98:	7c9fffff 	.word	0x7c9fffff
    5f9c:	7fefffff 	.word	0x7fefffff
    5fa0:	460f      	mov	r7, r1
    5fa2:	4626      	mov	r6, r4
    5fa4:	f107 62d6 	add.w	r2, r7, #112197632	; 0x6b00000
    5fa8:	1b57      	subs	r7, r2, r5
    5faa:	e9dd 0108 	ldrd	r0, r1, [sp, #32]
    5fae:	f7ff f941 	bl	5234 <__ulp>
    5fb2:	4602      	mov	r2, r0
    5fb4:	460b      	mov	r3, r1
    5fb6:	4630      	mov	r0, r6
    5fb8:	4639      	mov	r1, r7
    5fba:	f7fb fe5b 	bl	1c74 <__aeabi_dmul>
    5fbe:	4602      	mov	r2, r0
    5fc0:	460b      	mov	r3, r1
    5fc2:	e9dd 0108 	ldrd	r0, r1, [sp, #32]
    5fc6:	f7fb fca3 	bl	1910 <__adddf3>
    5fca:	4682      	mov	r10, r0
    5fcc:	468b      	mov	r11, r1
    5fce:	9b04      	ldr	r3, [sp, #16]
    5fd0:	465e      	mov	r6, r11
    5fd2:	2b00      	cmp	r3, #0
    5fd4:	d130      	bne.n	6038 <_strtod_r+0xa60>
    5fd6:	4a42      	ldr	r2, [pc, #264]	; (60e0 <_strtod_r+0xb08>)
    5fd8:	4032      	ands	r2, r6
    5fda:	4295      	cmp	r5, r2
    5fdc:	d12c      	bne.n	6038 <_strtod_r+0xa60>
    5fde:	4620      	mov	r0, r4
    5fe0:	4649      	mov	r1, r9
    5fe2:	f7fc f8e1 	bl	21a8 <__aeabi_d2iz>
    5fe6:	f7fb fddf 	bl	1ba8 <__aeabi_i2d>
    5fea:	460b      	mov	r3, r1
    5fec:	4602      	mov	r2, r0
    5fee:	4649      	mov	r1, r9
    5ff0:	4620      	mov	r0, r4
    5ff2:	f7fb fc8b 	bl	190c <__aeabi_dsub>
    5ff6:	9b0a      	ldr	r3, [sp, #40]	; 0x28
    5ff8:	4604      	mov	r4, r0
    5ffa:	460d      	mov	r5, r1
    5ffc:	b92b      	cbnz	r3, 600a <_strtod_r+0xa32>
    5ffe:	f1ba 0f00 	cmp.w	r10, #0
    6002:	d102      	bne.n	600a <_strtod_r+0xa32>
    6004:	f3cb 0613 	ubfx	r6, r11, #0, #20
    6008:	b186      	cbz	r6, 602c <_strtod_r+0xa54>
    600a:	4620      	mov	r0, r4
    600c:	4629      	mov	r1, r5
    600e:	a32e      	add	r3, pc, #184	; (adr r3, 60c8 <_strtod_r+0xaf0>)
    6010:	e9d3 2300 	ldrd	r2, r3, [r3]
    6014:	f7fc f8a0 	bl	2158 <__aeabi_dcmplt>
    6018:	2800      	cmp	r0, #0
    601a:	d131      	bne.n	6080 <_strtod_r+0xaa8>
    601c:	4620      	mov	r0, r4
    601e:	4629      	mov	r1, r5
    6020:	a32b      	add	r3, pc, #172	; (adr r3, 60d0 <_strtod_r+0xaf8>)
    6022:	e9d3 2300 	ldrd	r2, r3, [r3]
    6026:	f7fc f8b5 	bl	2194 <__aeabi_dcmpgt>
    602a:	e004      	b.n	6036 <_strtod_r+0xa5e>
    602c:	a32a      	add	r3, pc, #168	; (adr r3, 60d8 <_strtod_r+0xb00>)
    602e:	e9d3 2300 	ldrd	r2, r3, [r3]
    6032:	f7fc f891 	bl	2158 <__aeabi_dcmplt>
    6036:	bb18      	cbnz	r0, 6080 <_strtod_r+0xaa8>
    6038:	9802      	ldr	r0, [sp, #8]
    603a:	9912      	ldr	r1, [sp, #72]	; 0x48
    603c:	f7fe fe59 	bl	4cf2 <_Bfree>
    6040:	9802      	ldr	r0, [sp, #8]
    6042:	9906      	ldr	r1, [sp, #24]
    6044:	f7fe fe55 	bl	4cf2 <_Bfree>
    6048:	9802      	ldr	r0, [sp, #8]
    604a:	9903      	ldr	r1, [sp, #12]
    604c:	f7fe fe51 	bl	4cf2 <_Bfree>
    6050:	9802      	ldr	r0, [sp, #8]
    6052:	4641      	mov	r1, r8
    6054:	f7fe fe4d 	bl	4cf2 <_Bfree>
    6058:	e5c3      	b.n	5be2 <_strtod_r+0x60a>
    605a:	9a04      	ldr	r2, [sp, #16]
    605c:	b182      	cbz	r2, 6080 <_strtod_r+0xaa8>
    605e:	4b21      	ldr	r3, [pc, #132]	; (60e4 <_strtod_r+0xb0c>)
    6060:	2100      	movs	r1, #0
    6062:	910c      	str	r1, [sp, #48]	; 0x30
    6064:	930d      	str	r3, [sp, #52]	; 0x34
    6066:	4650      	mov	r0, r10
    6068:	4659      	mov	r1, r11
    606a:	e9dd 230c 	ldrd	r2, r3, [sp, #48]	; 0x30
    606e:	f7fb fe01 	bl	1c74 <__aeabi_dmul>
    6072:	4682      	mov	r10, r0
    6074:	468b      	mov	r11, r1
    6076:	b919      	cbnz	r1, 6080 <_strtod_r+0xaa8>
    6078:	b910      	cbnz	r0, 6080 <_strtod_r+0xaa8>
    607a:	9c02      	ldr	r4, [sp, #8]
    607c:	2022      	movs	r0, #34	; 0x22
    607e:	6020      	str	r0, [r4, #0]
    6080:	9802      	ldr	r0, [sp, #8]
    6082:	9912      	ldr	r1, [sp, #72]	; 0x48
    6084:	f7fe fe35 	bl	4cf2 <_Bfree>
    6088:	9802      	ldr	r0, [sp, #8]
    608a:	9906      	ldr	r1, [sp, #24]
    608c:	f7fe fe31 	bl	4cf2 <_Bfree>
    6090:	9802      	ldr	r0, [sp, #8]
    6092:	9903      	ldr	r1, [sp, #12]
    6094:	f7fe fe2d 	bl	4cf2 <_Bfree>
    6098:	9802      	ldr	r0, [sp, #8]
    609a:	9907      	ldr	r1, [sp, #28]
    609c:	f7fe fe29 	bl	4cf2 <_Bfree>
    60a0:	9802      	ldr	r0, [sp, #8]
    60a2:	4641      	mov	r1, r8
    60a4:	f7fe fe25 	bl	4cf2 <_Bfree>
    60a8:	980f      	ldr	r0, [sp, #60]	; 0x3c
    60aa:	b108      	cbz	r0, 60b0 <_strtod_r+0xad8>
    60ac:	9a11      	ldr	r2, [sp, #68]	; 0x44
    60ae:	6002      	str	r2, [r0, #0]
    60b0:	9c0b      	ldr	r4, [sp, #44]	; 0x2c
    60b2:	4651      	mov	r1, r10
    60b4:	b114      	cbz	r4, 60bc <_strtod_r+0xae4>
    60b6:	f10b 4300 	add.w	r3, r11, #2147483648	; 0x80000000
    60ba:	e000      	b.n	60be <_strtod_r+0xae6>
    60bc:	465b      	mov	r3, r11
    60be:	4608      	mov	r0, r1
    60c0:	4619      	mov	r1, r3
    60c2:	b017      	add	sp, #92	; 0x5c
    60c4:	e8bd 8ff0 	ldmia.w	sp!, {r4, r5, r6, r7, r8, r9, r10, r11, pc}
    60c8:	94a03595 	.word	0x94a03595
    60cc:	3fdfffff 	.word	0x3fdfffff
    60d0:	35afe535 	.word	0x35afe535
    60d4:	3fe00000 	.word	0x3fe00000
    60d8:	94a03595 	.word	0x94a03595
    60dc:	3fcfffff 	.word	0x3fcfffff
    60e0:	7ff00000 	.word	0x7ff00000
    60e4:	39500000 	.word	0x39500000

000060e8 <_strtol_r>:
    60e8:	e92d 4ff7 	stmdb	sp!, {r0, r1, r2, r4, r5, r6, r7, r8, r9, r10, r11, lr}
    60ec:	9001      	str	r0, [sp, #4]
    60ee:	4840      	ldr	r0, [pc, #256]	; (61f0 <_strtol_r+0x108>)
    60f0:	f8d0 9000 	ldr.w	r9, [r0]
    60f4:	4608      	mov	r0, r1
    60f6:	4604      	mov	r4, r0
    60f8:	f814 5b01 	ldrb.w	r5, [r4], #1
    60fc:	eb09 0605 	add.w	r6, r9, r5
    6100:	7877      	ldrb	r7, [r6, #1]
    6102:	4620      	mov	r0, r4
    6104:	f007 0608 	and.w	r6, r7, #8
    6108:	b2f7      	uxtb	r7, r6
    610a:	2f00      	cmp	r7, #0
    610c:	d1f3      	bne.n	60f6 <_strtol_r+0xe>
    610e:	2d2d      	cmp	r5, #45	; 0x2d
    6110:	d103      	bne.n	611a <_strtol_r+0x32>
    6112:	f814 5b01 	ldrb.w	r5, [r4], #1
    6116:	2701      	movs	r7, #1
    6118:	e004      	b.n	6124 <_strtol_r+0x3c>
    611a:	2d2b      	cmp	r5, #43	; 0x2b
    611c:	bf04      	itt	eq
    611e:	4624      	moveq	r4, r4
    6120:	f814 5b01 	ldrbeq.w	r5, [r4], #1
    6124:	2b00      	cmp	r3, #0
    6126:	d05c      	beq.n	61e2 <_strtol_r+0xfa>
    6128:	2b10      	cmp	r3, #16
    612a:	d107      	bne.n	613c <_strtol_r+0x54>
    612c:	2d30      	cmp	r5, #48	; 0x30
    612e:	d105      	bne.n	613c <_strtol_r+0x54>
    6130:	7825      	ldrb	r5, [r4, #0]
    6132:	2d78      	cmp	r5, #120	; 0x78
    6134:	d14e      	bne.n	61d4 <_strtol_r+0xec>
    6136:	7865      	ldrb	r5, [r4, #1]
    6138:	2310      	movs	r3, #16
    613a:	3402      	adds	r4, #2
    613c:	2f00      	cmp	r7, #0
    613e:	bf0c      	ite	eq
    6140:	f06f 4000 	mvneq.w	r0, #2147483648	; 0x80000000
    6144:	f04f 4000 	movne.w	r0, #2147483648	; 0x80000000
    6148:	fbb0 faf3 	udiv	r10, r0, r3
    614c:	2600      	movs	r6, #0
    614e:	fb03 081a 	mls	r8, r3, r10, r0
    6152:	4630      	mov	r0, r6
    6154:	eb09 0c05 	add.w	r12, r9, r5
    6158:	f89c c001 	ldrb.w	r12, [r12, #1]
    615c:	f00c 0b04 	and.w	r11, r12, #4
    6160:	fa5f fb8b 	uxtb.w	r11, r11
    6164:	f1bb 0f00 	cmp.w	r11, #0
    6168:	d001      	beq.n	616e <_strtol_r+0x86>
    616a:	3d30      	subs	r5, #48	; 0x30
    616c:	e00b      	b.n	6186 <_strtol_r+0x9e>
    616e:	f01c 0c03 	ands.w	r12, r12, #3
    6172:	d01b      	beq.n	61ac <_strtol_r+0xc4>
    6174:	f1bc 0f01 	cmp.w	r12, #1
    6178:	bf14      	ite	ne
    617a:	f04f 0c57 	movne.w	r12, #87	; 0x57
    617e:	f04f 0c37 	moveq.w	r12, #55	; 0x37
    6182:	ebcc 0505 	rsb	r5, r12, r5
    6186:	429d      	cmp	r5, r3
    6188:	da10      	bge.n	61ac <_strtol_r+0xc4>
    618a:	f1b6 3fff 	cmp.w	r6, #4294967295
    618e:	d00a      	beq.n	61a6 <_strtol_r+0xbe>
    6190:	4550      	cmp	r0, r10
    6192:	d806      	bhi.n	61a2 <_strtol_r+0xba>
    6194:	d101      	bne.n	619a <_strtol_r+0xb2>
    6196:	4545      	cmp	r5, r8
    6198:	dc03      	bgt.n	61a2 <_strtol_r+0xba>
    619a:	fb03 5000 	mla	r0, r3, r0, r5
    619e:	2601      	movs	r6, #1
    61a0:	e001      	b.n	61a6 <_strtol_r+0xbe>
    61a2:	f04f 36ff 	mov.w	r6, #4294967295
    61a6:	f814 5b01 	ldrb.w	r5, [r4], #1
    61aa:	e7d3      	b.n	6154 <_strtol_r+0x6c>
    61ac:	1c73      	adds	r3, r6, #1
    61ae:	d10a      	bne.n	61c6 <_strtol_r+0xde>
    61b0:	2f00      	cmp	r7, #0
    61b2:	9901      	ldr	r1, [sp, #4]
    61b4:	bf0c      	ite	eq
    61b6:	f06f 4000 	mvneq.w	r0, #2147483648	; 0x80000000
    61ba:	f04f 4000 	movne.w	r0, #2147483648	; 0x80000000
    61be:	2322      	movs	r3, #34	; 0x22
    61c0:	600b      	str	r3, [r1, #0]
    61c2:	b922      	cbnz	r2, 61ce <_strtol_r+0xe6>
    61c4:	e011      	b.n	61ea <_strtol_r+0x102>
    61c6:	b107      	cbz	r7, 61ca <_strtol_r+0xe2>
    61c8:	4240      	negs	r0, r0
    61ca:	b172      	cbz	r2, 61ea <_strtol_r+0x102>
    61cc:	b106      	cbz	r6, 61d0 <_strtol_r+0xe8>
    61ce:	1e61      	subs	r1, r4, #1
    61d0:	6011      	str	r1, [r2, #0]
    61d2:	e00a      	b.n	61ea <_strtol_r+0x102>
    61d4:	2d58      	cmp	r5, #88	; 0x58
    61d6:	d0ae      	beq.n	6136 <_strtol_r+0x4e>
    61d8:	2530      	movs	r5, #48	; 0x30
    61da:	2b00      	cmp	r3, #0
    61dc:	d1ae      	bne.n	613c <_strtol_r+0x54>
    61de:	2308      	movs	r3, #8
    61e0:	e7ac      	b.n	613c <_strtol_r+0x54>
    61e2:	2d30      	cmp	r5, #48	; 0x30
    61e4:	d0a4      	beq.n	6130 <_strtol_r+0x48>
    61e6:	230a      	movs	r3, #10
    61e8:	e7a8      	b.n	613c <_strtol_r+0x54>
    61ea:	e8bd 8ffe 	ldmia.w	sp!, {r1, r2, r3, r4, r5, r6, r7, r8, r9, r10, r11, pc}
    61ee:	bf00      	nop
    61f0:	100004dc 	.word	0x100004dc

000061f4 <__ssputc_r>:
    61f4:	e92d 43f8 	stmdb	sp!, {r3, r4, r5, r6, r7, r8, r9, lr}
    61f8:	6893      	ldr	r3, [r2, #8]
    61fa:	4606      	mov	r6, r0
    61fc:	4689      	mov	r9, r1
    61fe:	4614      	mov	r4, r2
    6200:	2b00      	cmp	r3, #0
    6202:	d141      	bne.n	6288 <__ssputc_r+0x94>
    6204:	8992      	ldrh	r2, [r2, #12]
    6206:	f412 6f90 	tst.w	r2, #1152	; 0x480
    620a:	d03d      	beq.n	6288 <__ssputc_r+0x94>
    620c:	6961      	ldr	r1, [r4, #20]
    620e:	2503      	movs	r5, #3
    6210:	434d      	muls	r5, r1
    6212:	6923      	ldr	r3, [r4, #16]
    6214:	6827      	ldr	r7, [r4, #0]
    6216:	2002      	movs	r0, #2
    6218:	1aff      	subs	r7, r7, r3
    621a:	fb95 f5f0 	sdiv	r5, r5, r0
    621e:	1c79      	adds	r1, r7, #1
    6220:	f402 6280 	and.w	r2, r2, #1024	; 0x400
    6224:	42a9      	cmp	r1, r5
    6226:	b211      	sxth	r1, r2
    6228:	bfa8      	it	ge
    622a:	183d      	addge	r5, r7, r0
    622c:	4630      	mov	r0, r6
    622e:	b179      	cbz	r1, 6250 <__ssputc_r+0x5c>
    6230:	4629      	mov	r1, r5
    6232:	f7fc fb73 	bl	291c <_malloc_r>
    6236:	4680      	mov	r8, r0
    6238:	b1a0      	cbz	r0, 6264 <__ssputc_r+0x70>
    623a:	463a      	mov	r2, r7
    623c:	6921      	ldr	r1, [r4, #16]
    623e:	f7fc fbb7 	bl	29b0 <memcpy>
    6242:	89a3      	ldrh	r3, [r4, #12]
    6244:	f423 6090 	bic.w	r0, r3, #1152	; 0x480
    6248:	f040 0280 	orr.w	r2, r0, #128	; 0x80
    624c:	81a2      	strh	r2, [r4, #12]
    624e:	e013      	b.n	6278 <__ssputc_r+0x84>
    6250:	4619      	mov	r1, r3
    6252:	462a      	mov	r2, r5
    6254:	f7ff f92c 	bl	54b0 <_realloc_r>
    6258:	4680      	mov	r8, r0
    625a:	b968      	cbnz	r0, 6278 <__ssputc_r+0x84>
    625c:	4630      	mov	r0, r6
    625e:	6921      	ldr	r1, [r4, #16]
    6260:	f7fe fc56 	bl	4b10 <_free_r>
    6264:	89a0      	ldrh	r0, [r4, #12]
    6266:	230c      	movs	r3, #12
    6268:	f040 0240 	orr.w	r2, r0, #64	; 0x40
    626c:	6033      	str	r3, [r6, #0]
    626e:	f04f 30ff 	mov.w	r0, #4294967295
    6272:	81a2      	strh	r2, [r4, #12]
    6274:	e8bd 83f8 	ldmia.w	sp!, {r3, r4, r5, r6, r7, r8, r9, pc}
    6278:	eb08 0107 	add.w	r1, r8, r7
    627c:	6165      	str	r5, [r4, #20]
    627e:	1bed      	subs	r5, r5, r7
    6280:	f8c4 8010 	str.w	r8, [r4, #16]
    6284:	6021      	str	r1, [r4, #0]
    6286:	60a5      	str	r5, [r4, #8]
    6288:	68a3      	ldr	r3, [r4, #8]
    628a:	2b00      	cmp	r3, #0
    628c:	dd06      	ble.n	629c <__ssputc_r+0xa8>
    628e:	6820      	ldr	r0, [r4, #0]
    6290:	f800 9b01 	strb.w	r9, [r0], #1
    6294:	68a2      	ldr	r2, [r4, #8]
    6296:	6020      	str	r0, [r4, #0]
    6298:	1e51      	subs	r1, r2, #1
    629a:	60a1      	str	r1, [r4, #8]
    629c:	2000      	movs	r0, #0
    629e:	e8bd 83f8 	ldmia.w	sp!, {r3, r4, r5, r6, r7, r8, r9, pc}
	...

000062a4 <_svfiprintf_r>:
    62a4:	e92d 47f0 	stmdb	sp!, {r4, r5, r6, r7, r8, r9, r10, lr}
    62a8:	b09c      	sub	sp, #112	; 0x70
    62aa:	9303      	str	r3, [sp, #12]
    62ac:	898b      	ldrh	r3, [r1, #12]
    62ae:	460d      	mov	r5, r1
    62b0:	f003 0180 	and.w	r1, r3, #128	; 0x80
    62b4:	4614      	mov	r4, r2
    62b6:	b20a      	sxth	r2, r1
    62b8:	4606      	mov	r6, r0
    62ba:	b162      	cbz	r2, 62d6 <_svfiprintf_r+0x32>
    62bc:	692b      	ldr	r3, [r5, #16]
    62be:	b953      	cbnz	r3, 62d6 <_svfiprintf_r+0x32>
    62c0:	2140      	movs	r1, #64	; 0x40
    62c2:	f7fc fb2b 	bl	291c <_malloc_r>
    62c6:	6028      	str	r0, [r5, #0]
    62c8:	6128      	str	r0, [r5, #16]
    62ca:	b910      	cbnz	r0, 62d2 <_svfiprintf_r+0x2e>
    62cc:	210c      	movs	r1, #12
    62ce:	6031      	str	r1, [r6, #0]
    62d0:	e0d3      	b.n	647a <_svfiprintf_r+0x1d6>
    62d2:	2040      	movs	r0, #64	; 0x40
    62d4:	6168      	str	r0, [r5, #20]
    62d6:	2700      	movs	r7, #0
    62d8:	2120      	movs	r1, #32
    62da:	2230      	movs	r2, #48	; 0x30
    62dc:	9709      	str	r7, [sp, #36]	; 0x24
    62de:	f88d 1029 	strb.w	r1, [sp, #41]	; 0x29
    62e2:	f88d 202a 	strb.w	r2, [sp, #42]	; 0x2a
    62e6:	4623      	mov	r3, r4
    62e8:	461f      	mov	r7, r3
    62ea:	f813 0b01 	ldrb.w	r0, [r3], #1
    62ee:	b928      	cbnz	r0, 62fc <_svfiprintf_r+0x58>
    62f0:	ebb7 0a04 	subs.w	r10, r7, r4
    62f4:	d016      	beq.n	6324 <_svfiprintf_r+0x80>
    62f6:	f04f 0900 	mov.w	r9, #0
    62fa:	e00d      	b.n	6318 <_svfiprintf_r+0x74>
    62fc:	2825      	cmp	r0, #37	; 0x25
    62fe:	d1f3      	bne.n	62e8 <_svfiprintf_r+0x44>
    6300:	e7f6      	b.n	62f0 <_svfiprintf_r+0x4c>
    6302:	4630      	mov	r0, r6
    6304:	f814 1009 	ldrb.w	r1, [r4, r9]
    6308:	462a      	mov	r2, r5
    630a:	f7ff ff73 	bl	61f4 <__ssputc_r>
    630e:	3001      	adds	r0, #1
    6310:	f000 80ac 	beq.w	646c <_svfiprintf_r+0x1c8>
    6314:	f109 0901 	add.w	r9, r9, #1
    6318:	45d1      	cmp	r9, r10
    631a:	dbf2      	blt.n	6302 <_svfiprintf_r+0x5e>
    631c:	9909      	ldr	r1, [sp, #36]	; 0x24
    631e:	eb01 020a 	add.w	r2, r1, r10
    6322:	9209      	str	r2, [sp, #36]	; 0x24
    6324:	783b      	ldrb	r3, [r7, #0]
    6326:	2b00      	cmp	r3, #0
    6328:	f000 80a0 	beq.w	646c <_svfiprintf_r+0x1c8>
    632c:	2400      	movs	r4, #0
    632e:	f04f 30ff 	mov.w	r0, #4294967295
    6332:	9404      	str	r4, [sp, #16]
    6334:	9407      	str	r4, [sp, #28]
    6336:	9005      	str	r0, [sp, #20]
    6338:	9406      	str	r4, [sp, #24]
    633a:	f88d 4053 	strb.w	r4, [sp, #83]	; 0x53
    633e:	941a      	str	r4, [sp, #104]	; 0x68
    6340:	f107 0901 	add.w	r9, r7, #1
    6344:	4f4f      	ldr	r7, [pc, #316]	; (6484 <_svfiprintf_r+0x1e0>)
    6346:	464c      	mov	r4, r9
    6348:	4638      	mov	r0, r7
    634a:	7821      	ldrb	r1, [r4, #0]
    634c:	2205      	movs	r2, #5
    634e:	f7fe fc8d 	bl	4c6c <memchr>
    6352:	f109 0901 	add.w	r9, r9, #1
    6356:	9b04      	ldr	r3, [sp, #16]
    6358:	b130      	cbz	r0, 6368 <_svfiprintf_r+0xc4>
    635a:	1bc4      	subs	r4, r0, r7
    635c:	2701      	movs	r7, #1
    635e:	fa07 f704 	lsl.w	r7, r7, r4
    6362:	433b      	orrs	r3, r7
    6364:	9304      	str	r3, [sp, #16]
    6366:	e7ed      	b.n	6344 <_svfiprintf_r+0xa0>
    6368:	06d9      	lsls	r1, r3, #27
    636a:	d502      	bpl.n	6372 <_svfiprintf_r+0xce>
    636c:	2120      	movs	r1, #32
    636e:	f88d 1053 	strb.w	r1, [sp, #83]	; 0x53
    6372:	071a      	lsls	r2, r3, #28
    6374:	d502      	bpl.n	637c <_svfiprintf_r+0xd8>
    6376:	222b      	movs	r2, #43	; 0x2b
    6378:	f88d 2053 	strb.w	r2, [sp, #83]	; 0x53
    637c:	7820      	ldrb	r0, [r4, #0]
    637e:	282a      	cmp	r0, #42	; 0x2a
    6380:	d002      	beq.n	6388 <_svfiprintf_r+0xe4>
    6382:	9b07      	ldr	r3, [sp, #28]
    6384:	4627      	mov	r7, r4
    6386:	e00e      	b.n	63a6 <_svfiprintf_r+0x102>
    6388:	9a03      	ldr	r2, [sp, #12]
    638a:	6817      	ldr	r7, [r2, #0]
    638c:	1d10      	adds	r0, r2, #4
    638e:	2f00      	cmp	r7, #0
    6390:	9003      	str	r0, [sp, #12]
    6392:	db01      	blt.n	6398 <_svfiprintf_r+0xf4>
    6394:	9707      	str	r7, [sp, #28]
    6396:	e004      	b.n	63a2 <_svfiprintf_r+0xfe>
    6398:	4279      	negs	r1, r7
    639a:	f043 0302 	orr.w	r3, r3, #2
    639e:	9107      	str	r1, [sp, #28]
    63a0:	9304      	str	r3, [sp, #16]
    63a2:	3401      	adds	r4, #1
    63a4:	e00a      	b.n	63bc <_svfiprintf_r+0x118>
    63a6:	463c      	mov	r4, r7
    63a8:	7821      	ldrb	r1, [r4, #0]
    63aa:	3701      	adds	r7, #1
    63ac:	3930      	subs	r1, #48	; 0x30
    63ae:	2909      	cmp	r1, #9
    63b0:	d803      	bhi.n	63ba <_svfiprintf_r+0x116>
    63b2:	240a      	movs	r4, #10
    63b4:	fb04 1303 	mla	r3, r4, r3, r1
    63b8:	e7f5      	b.n	63a6 <_svfiprintf_r+0x102>
    63ba:	9307      	str	r3, [sp, #28]
    63bc:	7822      	ldrb	r2, [r4, #0]
    63be:	2a2e      	cmp	r2, #46	; 0x2e
    63c0:	d119      	bne.n	63f6 <_svfiprintf_r+0x152>
    63c2:	7860      	ldrb	r0, [r4, #1]
    63c4:	282a      	cmp	r0, #42	; 0x2a
    63c6:	d109      	bne.n	63dc <_svfiprintf_r+0x138>
    63c8:	9803      	ldr	r0, [sp, #12]
    63ca:	3402      	adds	r4, #2
    63cc:	6803      	ldr	r3, [r0, #0]
    63ce:	1d02      	adds	r2, r0, #4
    63d0:	2b00      	cmp	r3, #0
    63d2:	9203      	str	r2, [sp, #12]
    63d4:	bfb8      	it	lt
    63d6:	f04f 33ff 	movlt.w	r3, #4294967295
    63da:	e00b      	b.n	63f4 <_svfiprintf_r+0x150>
    63dc:	1c67      	adds	r7, r4, #1
    63de:	2300      	movs	r3, #0
    63e0:	463c      	mov	r4, r7
    63e2:	7821      	ldrb	r1, [r4, #0]
    63e4:	3701      	adds	r7, #1
    63e6:	3930      	subs	r1, #48	; 0x30
    63e8:	2909      	cmp	r1, #9
    63ea:	d803      	bhi.n	63f4 <_svfiprintf_r+0x150>
    63ec:	240a      	movs	r4, #10
    63ee:	fb04 1303 	mla	r3, r4, r3, r1
    63f2:	e7f5      	b.n	63e0 <_svfiprintf_r+0x13c>
    63f4:	9305      	str	r3, [sp, #20]
    63f6:	4f24      	ldr	r7, [pc, #144]	; (6488 <_svfiprintf_r+0x1e4>)
    63f8:	7821      	ldrb	r1, [r4, #0]
    63fa:	4638      	mov	r0, r7
    63fc:	2203      	movs	r2, #3
    63fe:	f7fe fc35 	bl	4c6c <memchr>
    6402:	b138      	cbz	r0, 6414 <_svfiprintf_r+0x170>
    6404:	1bc7      	subs	r7, r0, r7
    6406:	2140      	movs	r1, #64	; 0x40
    6408:	fa01 f107 	lsl.w	r1, r1, r7
    640c:	9b04      	ldr	r3, [sp, #16]
    640e:	3401      	adds	r4, #1
    6410:	430b      	orrs	r3, r1
    6412:	9304      	str	r3, [sp, #16]
    6414:	f814 1b01 	ldrb.w	r1, [r4], #1
    6418:	481c      	ldr	r0, [pc, #112]	; (648c <_svfiprintf_r+0x1e8>)
    641a:	2206      	movs	r2, #6
    641c:	f88d 1028 	strb.w	r1, [sp, #40]	; 0x28
    6420:	f7fe fc24 	bl	4c6c <memchr>
    6424:	b188      	cbz	r0, 644a <_svfiprintf_r+0x1a6>
    6426:	4a1a      	ldr	r2, [pc, #104]	; (6490 <_svfiprintf_r+0x1ec>)
    6428:	b932      	cbnz	r2, 6438 <_svfiprintf_r+0x194>
    642a:	9f03      	ldr	r7, [sp, #12]
    642c:	1dfb      	adds	r3, r7, #7
    642e:	f023 0007 	bic.w	r0, r3, #7
    6432:	3008      	adds	r0, #8
    6434:	9003      	str	r0, [sp, #12]
    6436:	e014      	b.n	6462 <_svfiprintf_r+0x1be>
    6438:	a903      	add	r1, sp, #12
    643a:	9100      	str	r1, [sp, #0]
    643c:	4630      	mov	r0, r6
    643e:	a904      	add	r1, sp, #16
    6440:	462a      	mov	r2, r5
    6442:	4b14      	ldr	r3, [pc, #80]	; (6494 <_svfiprintf_r+0x1f0>)
    6444:	f7fc fd22 	bl	2e8c <_printf_float>
    6448:	e007      	b.n	645a <_svfiprintf_r+0x1b6>
    644a:	a803      	add	r0, sp, #12
    644c:	9000      	str	r0, [sp, #0]
    644e:	a904      	add	r1, sp, #16
    6450:	4630      	mov	r0, r6
    6452:	462a      	mov	r2, r5
    6454:	4b0f      	ldr	r3, [pc, #60]	; (6494 <_svfiprintf_r+0x1f0>)
    6456:	f7fc ffdb 	bl	3410 <_printf_i>
    645a:	f1b0 3fff 	cmp.w	r0, #4294967295
    645e:	4680      	mov	r8, r0
    6460:	d004      	beq.n	646c <_svfiprintf_r+0x1c8>
    6462:	9a09      	ldr	r2, [sp, #36]	; 0x24
    6464:	eb02 0108 	add.w	r1, r2, r8
    6468:	9109      	str	r1, [sp, #36]	; 0x24
    646a:	e73c      	b.n	62e6 <_svfiprintf_r+0x42>
    646c:	89ab      	ldrh	r3, [r5, #12]
    646e:	f003 0040 	and.w	r0, r3, #64	; 0x40
    6472:	b202      	sxth	r2, r0
    6474:	b90a      	cbnz	r2, 647a <_svfiprintf_r+0x1d6>
    6476:	9809      	ldr	r0, [sp, #36]	; 0x24
    6478:	e001      	b.n	647e <_svfiprintf_r+0x1da>
    647a:	f04f 30ff 	mov.w	r0, #4294967295
    647e:	b01c      	add	sp, #112	; 0x70
    6480:	e8bd 87f0 	ldmia.w	sp!, {r4, r5, r6, r7, r8, r9, r10, pc}
    6484:	00006fb0 	.word	0x00006fb0
    6488:	00006fb6 	.word	0x00006fb6
    648c:	00006fba 	.word	0x00006fba
    6490:	00002e8d 	.word	0x00002e8d
    6494:	000061f5 	.word	0x000061f5

00006498 <_calloc_r>:
    6498:	b538      	push	{r3, r4, r5, lr}
    649a:	fb01 f402 	mul.w	r4, r1, r2
    649e:	4621      	mov	r1, r4
    64a0:	f7fc fa3c 	bl	291c <_malloc_r>
    64a4:	4605      	mov	r5, r0
    64a6:	b118      	cbz	r0, 64b0 <_calloc_r+0x18>
    64a8:	2100      	movs	r1, #0
    64aa:	4622      	mov	r2, r4
    64ac:	f7fc fa89 	bl	29c2 <memset>
    64b0:	4628      	mov	r0, r5
    64b2:	bd38      	pop	{r3, r4, r5, pc}

000064b4 <_fstat_r>:
    64b4:	b538      	push	{r3, r4, r5, lr}
    64b6:	4c07      	ldr	r4, [pc, #28]	; (64d4 <_fstat_r+0x20>)
    64b8:	2300      	movs	r3, #0
    64ba:	4605      	mov	r5, r0
    64bc:	4608      	mov	r0, r1
    64be:	4611      	mov	r1, r2
    64c0:	6023      	str	r3, [r4, #0]
    64c2:	f7fa fc41 	bl	d48 <_fstat>
    64c6:	1c43      	adds	r3, r0, #1
    64c8:	d102      	bne.n	64d0 <_fstat_r+0x1c>
    64ca:	6821      	ldr	r1, [r4, #0]
    64cc:	b101      	cbz	r1, 64d0 <_fstat_r+0x1c>
    64ce:	6029      	str	r1, [r5, #0]
    64d0:	bd38      	pop	{r3, r4, r5, pc}
    64d2:	bf00      	nop
    64d4:	1000068c 	.word	0x1000068c

000064d8 <rshift>:
    64d8:	b5f0      	push	{r4, r5, r6, r7, lr}
    64da:	6906      	ldr	r6, [r0, #16]
    64dc:	114b      	asrs	r3, r1, #5
    64de:	42b3      	cmp	r3, r6
    64e0:	f100 0214 	add.w	r2, r0, #20
    64e4:	da2a      	bge.n	653c <rshift+0x64>
    64e6:	1d1d      	adds	r5, r3, #4
    64e8:	eb00 0686 	add.w	r6, r0, r6, lsl #2
    64ec:	eb00 0385 	add.w	r3, r0, r5, lsl #2
    64f0:	3614      	adds	r6, #20
    64f2:	1d1d      	adds	r5, r3, #4
    64f4:	f011 011f 	ands.w	r1, r1, #31
    64f8:	d101      	bne.n	64fe <rshift+0x26>
    64fa:	4613      	mov	r3, r2
    64fc:	e017      	b.n	652e <rshift+0x56>
    64fe:	685c      	ldr	r4, [r3, #4]
    6500:	f1c1 0c20 	rsb	r12, r1, #32
    6504:	fa24 f401 	lsr.w	r4, r4, r1
    6508:	3504      	adds	r5, #4
    650a:	4613      	mov	r3, r2
    650c:	42b5      	cmp	r5, r6
    650e:	d20a      	bcs.n	6526 <rshift+0x4e>
    6510:	682f      	ldr	r7, [r5, #0]
    6512:	fa07 f70c 	lsl.w	r7, r7, r12
    6516:	433c      	orrs	r4, r7
    6518:	f843 4b04 	str.w	r4, [r3], #4
    651c:	f855 4b04 	ldr.w	r4, [r5], #4
    6520:	fa24 f401 	lsr.w	r4, r4, r1
    6524:	e7f2      	b.n	650c <rshift+0x34>
    6526:	601c      	str	r4, [r3, #0]
    6528:	b14c      	cbz	r4, 653e <rshift+0x66>
    652a:	3304      	adds	r3, #4
    652c:	e007      	b.n	653e <rshift+0x66>
    652e:	42b5      	cmp	r5, r6
    6530:	d205      	bcs.n	653e <rshift+0x66>
    6532:	f855 1b04 	ldr.w	r1, [r5], #4
    6536:	f843 1b04 	str.w	r1, [r3], #4
    653a:	e7f8      	b.n	652e <rshift+0x56>
    653c:	4613      	mov	r3, r2
    653e:	1a9b      	subs	r3, r3, r2
    6540:	109a      	asrs	r2, r3, #2
    6542:	6102      	str	r2, [r0, #16]
    6544:	b902      	cbnz	r2, 6548 <rshift+0x70>
    6546:	6142      	str	r2, [r0, #20]
    6548:	bdf0      	pop	{r4, r5, r6, r7, pc}
	...

0000654c <htinit.constprop.0>:
    654c:	b530      	push	{r4, r5, lr}
    654e:	2300      	movs	r3, #0
    6550:	5cc2      	ldrb	r2, [r0, r3]
    6552:	b122      	cbz	r2, 655e <htinit.constprop.0+0x12>
    6554:	4c02      	ldr	r4, [pc, #8]	; (6560 <htinit.constprop.0+0x14>)
    6556:	185d      	adds	r5, r3, r1
    6558:	5515      	strb	r5, [r2, r4]
    655a:	3301      	adds	r3, #1
    655c:	e7f8      	b.n	6550 <htinit.constprop.0+0x4>
    655e:	bd30      	pop	{r4, r5, pc}
    6560:	10000690 	.word	0x10000690

00006564 <__hexdig_init>:
    6564:	b508      	push	{r3, lr}
    6566:	2110      	movs	r1, #16
    6568:	4806      	ldr	r0, [pc, #24]	; (6584 <__hexdig_init+0x20>)
    656a:	f7ff ffef 	bl	654c <htinit.constprop.0>
    656e:	211a      	movs	r1, #26
    6570:	4805      	ldr	r0, [pc, #20]	; (6588 <__hexdig_init+0x24>)
    6572:	f7ff ffeb 	bl	654c <htinit.constprop.0>
    6576:	4805      	ldr	r0, [pc, #20]	; (658c <__hexdig_init+0x28>)
    6578:	211a      	movs	r1, #26
    657a:	e8bd 4008 	ldmia.w	sp!, {r3, lr}
    657e:	f7ff bfe5 	b.w	654c <htinit.constprop.0>
    6582:	bf00      	nop
    6584:	00007298 	.word	0x00007298
    6588:	00006fec 	.word	0x00006fec
    658c:	00006fdb 	.word	0x00006fdb

00006590 <__gethex>:
    6590:	e92d 4ff0 	stmdb	sp!, {r4, r5, r6, r7, r8, r9, r10, r11, lr}
    6594:	b089      	sub	sp, #36	; 0x24
    6596:	468a      	mov	r10, r1
    6598:	4616      	mov	r6, r2
    659a:	9306      	str	r3, [sp, #24]
    659c:	9003      	str	r0, [sp, #12]
    659e:	f7fe fafb 	bl	4b98 <_localeconv_r>
    65a2:	6800      	ldr	r0, [r0, #0]
    65a4:	9004      	str	r0, [sp, #16]
    65a6:	f7fc fa8d 	bl	2ac4 <strlen>
    65aa:	9904      	ldr	r1, [sp, #16]
    65ac:	4a9d      	ldr	r2, [pc, #628]	; (6824 <__gethex+0x294>)
    65ae:	180b      	adds	r3, r1, r0
    65b0:	4680      	mov	r8, r0
    65b2:	f892 4030 	ldrb.w	r4, [r2, #48]	; 0x30
    65b6:	f813 0c01 	ldrb.w	r0, [r3, #-1]
    65ba:	9007      	str	r0, [sp, #28]
    65bc:	b90c      	cbnz	r4, 65c2 <__gethex+0x32>
    65be:	f7ff ffd1 	bl	6564 <__hexdig_init>
    65c2:	f8da 5000 	ldr.w	r5, [r10]
    65c6:	f04f 0900 	mov.w	r9, #0
    65ca:	1cac      	adds	r4, r5, #2
    65cc:	46a3      	mov	r11, r4
    65ce:	f814 7b01 	ldrb.w	r7, [r4], #1
    65d2:	2f30      	cmp	r7, #48	; 0x30
    65d4:	d102      	bne.n	65dc <__gethex+0x4c>
    65d6:	f109 0901 	add.w	r9, r9, #1
    65da:	e7f7      	b.n	65cc <__gethex+0x3c>
    65dc:	4c91      	ldr	r4, [pc, #580]	; (6824 <__gethex+0x294>)
    65de:	5de5      	ldrb	r5, [r4, r7]
    65e0:	b9d5      	cbnz	r5, 6618 <__gethex+0x88>
    65e2:	4658      	mov	r0, r11
    65e4:	9904      	ldr	r1, [sp, #16]
    65e6:	4642      	mov	r2, r8
    65e8:	f7fc fa74 	bl	2ad4 <strncmp>
    65ec:	2800      	cmp	r0, #0
    65ee:	d136      	bne.n	665e <__gethex+0xce>
    65f0:	f81b 1008 	ldrb.w	r1, [r11, r8]
    65f4:	eb0b 0708 	add.w	r7, r11, r8
    65f8:	5c65      	ldrb	r5, [r4, r1]
    65fa:	2d00      	cmp	r5, #0
    65fc:	d030      	beq.n	6660 <__gethex+0xd0>
    65fe:	463b      	mov	r3, r7
    6600:	4618      	mov	r0, r3
    6602:	f813 2b01 	ldrb.w	r2, [r3], #1
    6606:	2a30      	cmp	r2, #48	; 0x30
    6608:	d0fa      	beq.n	6600 <__gethex+0x70>
    660a:	4d86      	ldr	r5, [pc, #536]	; (6824 <__gethex+0x294>)
    660c:	4683      	mov	r11, r0
    660e:	5cac      	ldrb	r4, [r5, r2]
    6610:	463d      	mov	r5, r7
    6612:	b924      	cbnz	r4, 661e <__gethex+0x8e>
    6614:	2401      	movs	r4, #1
    6616:	e003      	b.n	6620 <__gethex+0x90>
    6618:	2400      	movs	r4, #0
    661a:	4625      	mov	r5, r4
    661c:	e002      	b.n	6624 <__gethex+0x94>
    661e:	2400      	movs	r4, #0
    6620:	f04f 0901 	mov.w	r9, #1
    6624:	465b      	mov	r3, r11
    6626:	461f      	mov	r7, r3
    6628:	7838      	ldrb	r0, [r7, #0]
    662a:	497e      	ldr	r1, [pc, #504]	; (6824 <__gethex+0x294>)
    662c:	3301      	adds	r3, #1
    662e:	5c0a      	ldrb	r2, [r1, r0]
    6630:	2a00      	cmp	r2, #0
    6632:	d1f8      	bne.n	6626 <__gethex+0x96>
    6634:	4638      	mov	r0, r7
    6636:	9904      	ldr	r1, [sp, #16]
    6638:	4642      	mov	r2, r8
    663a:	f7fc fa4b 	bl	2ad4 <strncmp>
    663e:	b950      	cbnz	r0, 6656 <__gethex+0xc6>
    6640:	b955      	cbnz	r5, 6658 <__gethex+0xc8>
    6642:	eb07 0508 	add.w	r5, r7, r8
    6646:	462b      	mov	r3, r5
    6648:	461f      	mov	r7, r3
    664a:	7838      	ldrb	r0, [r7, #0]
    664c:	4975      	ldr	r1, [pc, #468]	; (6824 <__gethex+0x294>)
    664e:	3301      	adds	r3, #1
    6650:	5c0a      	ldrb	r2, [r1, r0]
    6652:	2a00      	cmp	r2, #0
    6654:	d1f8      	bne.n	6648 <__gethex+0xb8>
    6656:	b125      	cbz	r5, 6662 <__gethex+0xd2>
    6658:	1bed      	subs	r5, r5, r7
    665a:	00ad      	lsls	r5, r5, #2
    665c:	e001      	b.n	6662 <__gethex+0xd2>
    665e:	465f      	mov	r7, r11
    6660:	2401      	movs	r4, #1
    6662:	783b      	ldrb	r3, [r7, #0]
    6664:	2b50      	cmp	r3, #80	; 0x50
    6666:	d001      	beq.n	666c <__gethex+0xdc>
    6668:	2b70      	cmp	r3, #112	; 0x70
    666a:	d12e      	bne.n	66ca <__gethex+0x13a>
    666c:	7878      	ldrb	r0, [r7, #1]
    666e:	282b      	cmp	r0, #43	; 0x2b
    6670:	d005      	beq.n	667e <__gethex+0xee>
    6672:	282d      	cmp	r0, #45	; 0x2d
    6674:	d006      	beq.n	6684 <__gethex+0xf4>
    6676:	2100      	movs	r1, #0
    6678:	1c78      	adds	r0, r7, #1
    667a:	9105      	str	r1, [sp, #20]
    667c:	e005      	b.n	668a <__gethex+0xfa>
    667e:	2300      	movs	r3, #0
    6680:	9305      	str	r3, [sp, #20]
    6682:	e001      	b.n	6688 <__gethex+0xf8>
    6684:	2201      	movs	r2, #1
    6686:	9205      	str	r2, [sp, #20]
    6688:	1cb8      	adds	r0, r7, #2
    668a:	7801      	ldrb	r1, [r0, #0]
    668c:	4a65      	ldr	r2, [pc, #404]	; (6824 <__gethex+0x294>)
    668e:	5c52      	ldrb	r2, [r2, r1]
    6690:	b1da      	cbz	r2, 66ca <__gethex+0x13a>
    6692:	2a19      	cmp	r2, #25
    6694:	dc19      	bgt.n	66ca <__gethex+0x13a>
    6696:	3a10      	subs	r2, #16
    6698:	3001      	adds	r0, #1
    669a:	4603      	mov	r3, r0
    669c:	f893 c000 	ldrb.w	r12, [r3]
    66a0:	4960      	ldr	r1, [pc, #384]	; (6824 <__gethex+0x294>)
    66a2:	3001      	adds	r0, #1
    66a4:	f811 100c 	ldrb.w	r1, [r1, r12]
    66a8:	9102      	str	r1, [sp, #8]
    66aa:	b919      	cbnz	r1, 66b4 <__gethex+0x124>
    66ac:	9805      	ldr	r0, [sp, #20]
    66ae:	b150      	cbz	r0, 66c6 <__gethex+0x136>
    66b0:	4252      	negs	r2, r2
    66b2:	e008      	b.n	66c6 <__gethex+0x136>
    66b4:	9902      	ldr	r1, [sp, #8]
    66b6:	2919      	cmp	r1, #25
    66b8:	dcf8      	bgt.n	66ac <__gethex+0x11c>
    66ba:	9b02      	ldr	r3, [sp, #8]
    66bc:	210a      	movs	r1, #10
    66be:	fb01 3202 	mla	r2, r1, r2, r3
    66c2:	3a10      	subs	r2, #16
    66c4:	e7e9      	b.n	669a <__gethex+0x10a>
    66c6:	18ad      	adds	r5, r5, r2
    66c8:	e000      	b.n	66cc <__gethex+0x13c>
    66ca:	463b      	mov	r3, r7
    66cc:	f8ca 3000 	str.w	r3, [r10]
    66d0:	b13c      	cbz	r4, 66e2 <__gethex+0x152>
    66d2:	f1b9 0f00 	cmp.w	r9, #0
    66d6:	bf0c      	ite	eq
    66d8:	f04f 0906 	moveq.w	r9, #6
    66dc:	f04f 0900 	movne.w	r9, #0
    66e0:	e18b      	b.n	69fa <__gethex+0x46a>
    66e2:	ebcb 0007 	rsb	r0, r11, r7
    66e6:	1e43      	subs	r3, r0, #1
    66e8:	4621      	mov	r1, r4
    66ea:	2b07      	cmp	r3, #7
    66ec:	dd02      	ble.n	66f4 <__gethex+0x164>
    66ee:	3101      	adds	r1, #1
    66f0:	105b      	asrs	r3, r3, #1
    66f2:	e7fa      	b.n	66ea <__gethex+0x15a>
    66f4:	9803      	ldr	r0, [sp, #12]
    66f6:	f7fe fac7 	bl	4c88 <_Balloc>
    66fa:	46b9      	mov	r9, r7
    66fc:	f100 0314 	add.w	r3, r0, #20
    6700:	2700      	movs	r7, #0
    6702:	4604      	mov	r4, r0
    6704:	9302      	str	r3, [sp, #8]
    6706:	46ba      	mov	r10, r7
    6708:	45d9      	cmp	r9, r11
    670a:	d932      	bls.n	6772 <__gethex+0x1e2>
    670c:	f819 1c01 	ldrb.w	r1, [r9, #-1]
    6710:	f8dd c01c 	ldr.w	r12, [sp, #28]
    6714:	f109 3eff 	add.w	lr, r9, #4294967295
    6718:	4561      	cmp	r1, r12
    671a:	f8cd e014 	str.w	lr, [sp, #20]
    671e:	d007      	beq.n	6730 <__gethex+0x1a0>
    6720:	f1ba 0f20 	cmp.w	r10, #32
    6724:	d116      	bne.n	6754 <__gethex+0x1c4>
    6726:	f843 7b04 	str.w	r7, [r3], #4
    672a:	2700      	movs	r7, #0
    672c:	46ba      	mov	r10, r7
    672e:	e011      	b.n	6754 <__gethex+0x1c4>
    6730:	9a05      	ldr	r2, [sp, #20]
    6732:	f1c8 0001 	rsb	r0, r8, #1
    6736:	eb02 0c00 	add.w	r12, r2, r0
    673a:	45dc      	cmp	r12, r11
    673c:	d3f0      	bcc.n	6720 <__gethex+0x190>
    673e:	4660      	mov	r0, r12
    6740:	9904      	ldr	r1, [sp, #16]
    6742:	4642      	mov	r2, r8
    6744:	e88d 1008 	stmia.w	sp, {r3, r12}
    6748:	f7fc f9c4 	bl	2ad4 <strncmp>
    674c:	e89d 1008 	ldmia.w	sp, {r3, r12}
    6750:	b168      	cbz	r0, 676e <__gethex+0x1de>
    6752:	e7e5      	b.n	6720 <__gethex+0x190>
    6754:	f819 0c01 	ldrb.w	r0, [r9, #-1]
    6758:	4932      	ldr	r1, [pc, #200]	; (6824 <__gethex+0x294>)
    675a:	f8dd c014 	ldr.w	r12, [sp, #20]
    675e:	5c0a      	ldrb	r2, [r1, r0]
    6760:	f002 000f 	and.w	r0, r2, #15
    6764:	fa00 f10a 	lsl.w	r1, r0, r10
    6768:	f10a 0a04 	add.w	r10, r10, #4
    676c:	430f      	orrs	r7, r1
    676e:	46e1      	mov	r9, r12
    6770:	e7ca      	b.n	6708 <__gethex+0x178>
    6772:	9a02      	ldr	r2, [sp, #8]
    6774:	f843 7b04 	str.w	r7, [r3], #4
    6778:	1a99      	subs	r1, r3, r2
    677a:	108b      	asrs	r3, r1, #2
    677c:	4638      	mov	r0, r7
    677e:	6123      	str	r3, [r4, #16]
    6780:	ea4f 1a43 	mov.w	r10, r3, lsl #5
    6784:	f7fe fb4a 	bl	4e1c <__hi0bits>
    6788:	6837      	ldr	r7, [r6, #0]
    678a:	ebc0 000a 	rsb	r0, r0, r10
    678e:	42b8      	cmp	r0, r7
    6790:	dd2a      	ble.n	67e8 <__gethex+0x258>
    6792:	ebc7 0900 	rsb	r9, r7, r0
    6796:	4649      	mov	r1, r9
    6798:	4620      	mov	r0, r4
    679a:	f7fe fe51 	bl	5440 <__any_on>
    679e:	b1e0      	cbz	r0, 67da <__gethex+0x24a>
    67a0:	f109 33ff 	add.w	r3, r9, #4294967295
    67a4:	f003 011f 	and.w	r1, r3, #31
    67a8:	f04f 0a01 	mov.w	r10, #1
    67ac:	fa0a f001 	lsl.w	r0, r10, r1
    67b0:	115a      	asrs	r2, r3, #5
    67b2:	eb04 0182 	add.w	r1, r4, r2, lsl #2
    67b6:	694a      	ldr	r2, [r1, #20]
    67b8:	4210      	tst	r0, r2
    67ba:	d00f      	beq.n	67dc <__gethex+0x24c>
    67bc:	4553      	cmp	r3, r10
    67be:	dc02      	bgt.n	67c6 <__gethex+0x236>
    67c0:	f04f 0a02 	mov.w	r10, #2
    67c4:	e00a      	b.n	67dc <__gethex+0x24c>
    67c6:	4620      	mov	r0, r4
    67c8:	f1a9 0102 	sub.w	r1, r9, #2
    67cc:	f7fe fe38 	bl	5440 <__any_on>
    67d0:	2800      	cmp	r0, #0
    67d2:	d0f5      	beq.n	67c0 <__gethex+0x230>
    67d4:	f04f 0a03 	mov.w	r10, #3
    67d8:	e000      	b.n	67dc <__gethex+0x24c>
    67da:	4682      	mov	r10, r0
    67dc:	4620      	mov	r0, r4
    67de:	4649      	mov	r1, r9
    67e0:	f7ff fe7a 	bl	64d8 <rshift>
    67e4:	444d      	add	r5, r9
    67e6:	e00f      	b.n	6808 <__gethex+0x278>
    67e8:	da0c      	bge.n	6804 <__gethex+0x274>
    67ea:	ebc0 0907 	rsb	r9, r0, r7
    67ee:	4621      	mov	r1, r4
    67f0:	464a      	mov	r2, r9
    67f2:	9803      	ldr	r0, [sp, #12]
    67f4:	f7fe fc4a 	bl	508c <__lshift>
    67f8:	f100 0214 	add.w	r2, r0, #20
    67fc:	4604      	mov	r4, r0
    67fe:	ebc9 0505 	rsb	r5, r9, r5
    6802:	9202      	str	r2, [sp, #8]
    6804:	f04f 0a00 	mov.w	r10, #0
    6808:	68b3      	ldr	r3, [r6, #8]
    680a:	429d      	cmp	r5, r3
    680c:	dd0c      	ble.n	6828 <__gethex+0x298>
    680e:	9803      	ldr	r0, [sp, #12]
    6810:	4621      	mov	r1, r4
    6812:	f7fe fa6e 	bl	4cf2 <_Bfree>
    6816:	9a12      	ldr	r2, [sp, #72]	; 0x48
    6818:	2000      	movs	r0, #0
    681a:	6010      	str	r0, [r2, #0]
    681c:	f04f 09a3 	mov.w	r9, #163	; 0xa3
    6820:	e0eb      	b.n	69fa <__gethex+0x46a>
    6822:	bf00      	nop
    6824:	10000690 	.word	0x10000690
    6828:	6870      	ldr	r0, [r6, #4]
    682a:	4285      	cmp	r5, r0
    682c:	da58      	bge.n	68e0 <__gethex+0x350>
    682e:	1b45      	subs	r5, r0, r5
    6830:	42bd      	cmp	r5, r7
    6832:	db2e      	blt.n	6892 <__gethex+0x302>
    6834:	68f2      	ldr	r2, [r6, #12]
    6836:	2a02      	cmp	r2, #2
    6838:	d01a      	beq.n	6870 <__gethex+0x2e0>
    683a:	2a03      	cmp	r2, #3
    683c:	d01c      	beq.n	6878 <__gethex+0x2e8>
    683e:	2a01      	cmp	r2, #1
    6840:	d11d      	bne.n	687e <__gethex+0x2ee>
    6842:	42bd      	cmp	r5, r7
    6844:	d11b      	bne.n	687e <__gethex+0x2ee>
    6846:	2f01      	cmp	r7, #1
    6848:	dc0b      	bgt.n	6862 <__gethex+0x2d2>
    684a:	6873      	ldr	r3, [r6, #4]
    684c:	9806      	ldr	r0, [sp, #24]
    684e:	9902      	ldr	r1, [sp, #8]
    6850:	6003      	str	r3, [r0, #0]
    6852:	9b12      	ldr	r3, [sp, #72]	; 0x48
    6854:	2201      	movs	r2, #1
    6856:	6122      	str	r2, [r4, #16]
    6858:	f04f 0962 	mov.w	r9, #98	; 0x62
    685c:	600a      	str	r2, [r1, #0]
    685e:	601c      	str	r4, [r3, #0]
    6860:	e0cb      	b.n	69fa <__gethex+0x46a>
    6862:	4620      	mov	r0, r4
    6864:	1e79      	subs	r1, r7, #1
    6866:	f7fe fdeb 	bl	5440 <__any_on>
    686a:	2800      	cmp	r0, #0
    686c:	d1ed      	bne.n	684a <__gethex+0x2ba>
    686e:	e006      	b.n	687e <__gethex+0x2ee>
    6870:	9813      	ldr	r0, [sp, #76]	; 0x4c
    6872:	2800      	cmp	r0, #0
    6874:	d0e9      	beq.n	684a <__gethex+0x2ba>
    6876:	e002      	b.n	687e <__gethex+0x2ee>
    6878:	9b13      	ldr	r3, [sp, #76]	; 0x4c
    687a:	2b00      	cmp	r3, #0
    687c:	d1e5      	bne.n	684a <__gethex+0x2ba>
    687e:	4621      	mov	r1, r4
    6880:	9803      	ldr	r0, [sp, #12]
    6882:	f7fe fa36 	bl	4cf2 <_Bfree>
    6886:	9912      	ldr	r1, [sp, #72]	; 0x48
    6888:	2200      	movs	r2, #0
    688a:	600a      	str	r2, [r1, #0]
    688c:	f04f 0950 	mov.w	r9, #80	; 0x50
    6890:	e0b3      	b.n	69fa <__gethex+0x46a>
    6892:	f105 39ff 	add.w	r9, r5, #4294967295
    6896:	f1ba 0f00 	cmp.w	r10, #0
    689a:	d108      	bne.n	68ae <__gethex+0x31e>
    689c:	f1b9 0f00 	cmp.w	r9, #0
    68a0:	dd07      	ble.n	68b2 <__gethex+0x322>
    68a2:	4620      	mov	r0, r4
    68a4:	4649      	mov	r1, r9
    68a6:	f7fe fdcb 	bl	5440 <__any_on>
    68aa:	4682      	mov	r10, r0
    68ac:	e001      	b.n	68b2 <__gethex+0x322>
    68ae:	f04f 0a01 	mov.w	r10, #1
    68b2:	f009 031f 	and.w	r3, r9, #31
    68b6:	2201      	movs	r2, #1
    68b8:	fa02 f003 	lsl.w	r0, r2, r3
    68bc:	9b02      	ldr	r3, [sp, #8]
    68be:	ea4f 1169 	mov.w	r1, r9, asr #5
    68c2:	f853 1021 	ldr.w	r1, [r3, r1, lsl #2]
    68c6:	1b7f      	subs	r7, r7, r5
    68c8:	4208      	tst	r0, r1
    68ca:	4629      	mov	r1, r5
    68cc:	4620      	mov	r0, r4
    68ce:	bf18      	it	ne
    68d0:	f04a 0a02 	orrne.w	r10, r10, #2
    68d4:	f04f 0902 	mov.w	r9, #2
    68d8:	f7ff fdfe 	bl	64d8 <rshift>
    68dc:	6875      	ldr	r5, [r6, #4]
    68de:	e001      	b.n	68e4 <__gethex+0x354>
    68e0:	f04f 0901 	mov.w	r9, #1
    68e4:	f1ba 0f00 	cmp.w	r10, #0
    68e8:	f000 8083 	beq.w	69f2 <__gethex+0x462>
    68ec:	68f2      	ldr	r2, [r6, #12]
    68ee:	2a02      	cmp	r2, #2
    68f0:	d00e      	beq.n	6910 <__gethex+0x380>
    68f2:	2a03      	cmp	r2, #3
    68f4:	d010      	beq.n	6918 <__gethex+0x388>
    68f6:	2a01      	cmp	r2, #1
    68f8:	d179      	bne.n	69ee <__gethex+0x45e>
    68fa:	f01a 0f02 	tst.w	r10, #2
    68fe:	d076      	beq.n	69ee <__gethex+0x45e>
    6900:	9802      	ldr	r0, [sp, #8]
    6902:	6803      	ldr	r3, [r0, #0]
    6904:	ea4a 0a03 	orr.w	r10, r10, r3
    6908:	f01a 0f01 	tst.w	r10, #1
    690c:	d107      	bne.n	691e <__gethex+0x38e>
    690e:	e06e      	b.n	69ee <__gethex+0x45e>
    6910:	9a13      	ldr	r2, [sp, #76]	; 0x4c
    6912:	f1c2 0101 	rsb	r1, r2, #1
    6916:	e000      	b.n	691a <__gethex+0x38a>
    6918:	9913      	ldr	r1, [sp, #76]	; 0x4c
    691a:	2900      	cmp	r1, #0
    691c:	d067      	beq.n	69ee <__gethex+0x45e>
    691e:	f8d4 8010 	ldr.w	r8, [r4, #16]
    6922:	f104 0314 	add.w	r3, r4, #20
    6926:	eb04 0188 	add.w	r1, r4, r8, lsl #2
    692a:	3114      	adds	r1, #20
    692c:	4618      	mov	r0, r3
    692e:	f853 2b04 	ldr.w	r2, [r3], #4
    6932:	f1b2 3fff 	cmp.w	r2, #4294967295
    6936:	d002      	beq.n	693e <__gethex+0x3ae>
    6938:	3201      	adds	r2, #1
    693a:	6002      	str	r2, [r0, #0]
    693c:	e022      	b.n	6984 <__gethex+0x3f4>
    693e:	2000      	movs	r0, #0
    6940:	428b      	cmp	r3, r1
    6942:	f843 0c04 	str.w	r0, [r3, #-4]
    6946:	d3f1      	bcc.n	692c <__gethex+0x39c>
    6948:	68a1      	ldr	r1, [r4, #8]
    694a:	4588      	cmp	r8, r1
    694c:	db13      	blt.n	6976 <__gethex+0x3e6>
    694e:	6863      	ldr	r3, [r4, #4]
    6950:	9803      	ldr	r0, [sp, #12]
    6952:	1c59      	adds	r1, r3, #1
    6954:	f7fe f998 	bl	4c88 <_Balloc>
    6958:	6922      	ldr	r2, [r4, #16]
    695a:	f104 010c 	add.w	r1, r4, #12
    695e:	1c93      	adds	r3, r2, #2
    6960:	4682      	mov	r10, r0
    6962:	009a      	lsls	r2, r3, #2
    6964:	f100 000c 	add.w	r0, r0, #12
    6968:	f7fc f822 	bl	29b0 <memcpy>
    696c:	4621      	mov	r1, r4
    696e:	9803      	ldr	r0, [sp, #12]
    6970:	f7fe f9bf 	bl	4cf2 <_Bfree>
    6974:	4654      	mov	r4, r10
    6976:	6920      	ldr	r0, [r4, #16]
    6978:	2101      	movs	r1, #1
    697a:	eb04 0280 	add.w	r2, r4, r0, lsl #2
    697e:	1843      	adds	r3, r0, r1
    6980:	6151      	str	r1, [r2, #20]
    6982:	6123      	str	r3, [r4, #16]
    6984:	f1b9 0f02 	cmp.w	r9, #2
    6988:	d113      	bne.n	69b2 <__gethex+0x422>
    698a:	6832      	ldr	r2, [r6, #0]
    698c:	1e50      	subs	r0, r2, #1
    698e:	4287      	cmp	r7, r0
    6990:	d12a      	bne.n	69e8 <__gethex+0x458>
    6992:	f007 011f 	and.w	r1, r7, #31
    6996:	2201      	movs	r2, #1
    6998:	fa02 f201 	lsl.w	r2, r2, r1
    699c:	117f      	asrs	r7, r7, #5
    699e:	eb04 0787 	add.w	r7, r4, r7, lsl #2
    69a2:	697b      	ldr	r3, [r7, #20]
    69a4:	421a      	tst	r2, r3
    69a6:	bf0c      	ite	eq
    69a8:	f04f 0902 	moveq.w	r9, #2
    69ac:	f04f 0901 	movne.w	r9, #1
    69b0:	e01a      	b.n	69e8 <__gethex+0x458>
    69b2:	6920      	ldr	r0, [r4, #16]
    69b4:	4540      	cmp	r0, r8
    69b6:	dd09      	ble.n	69cc <__gethex+0x43c>
    69b8:	2101      	movs	r1, #1
    69ba:	4620      	mov	r0, r4
    69bc:	f7ff fd8c 	bl	64d8 <rshift>
    69c0:	68b3      	ldr	r3, [r6, #8]
    69c2:	3501      	adds	r5, #1
    69c4:	429d      	cmp	r5, r3
    69c6:	f73f af22 	bgt.w	680e <__gethex+0x27e>
    69ca:	e00b      	b.n	69e4 <__gethex+0x454>
    69cc:	f017 071f 	ands.w	r7, r7, #31
    69d0:	d008      	beq.n	69e4 <__gethex+0x454>
    69d2:	eb04 0188 	add.w	r1, r4, r8, lsl #2
    69d6:	6908      	ldr	r0, [r1, #16]
    69d8:	f7fe fa20 	bl	4e1c <__hi0bits>
    69dc:	f1c7 0720 	rsb	r7, r7, #32
    69e0:	42b8      	cmp	r0, r7
    69e2:	dbe9      	blt.n	69b8 <__gethex+0x428>
    69e4:	f04f 0901 	mov.w	r9, #1
    69e8:	f049 0920 	orr.w	r9, r9, #32
    69ec:	e001      	b.n	69f2 <__gethex+0x462>
    69ee:	f049 0910 	orr.w	r9, r9, #16
    69f2:	9812      	ldr	r0, [sp, #72]	; 0x48
    69f4:	9906      	ldr	r1, [sp, #24]
    69f6:	6004      	str	r4, [r0, #0]
    69f8:	600d      	str	r5, [r1, #0]
    69fa:	4648      	mov	r0, r9
    69fc:	b009      	add	sp, #36	; 0x24
    69fe:	e8bd 8ff0 	ldmia.w	sp!, {r4, r5, r6, r7, r8, r9, r10, r11, pc}
    6a02:	bf00      	nop

00006a04 <L_shift>:
    6a04:	f1c2 0208 	rsb	r2, r2, #8
    6a08:	0092      	lsls	r2, r2, #2
    6a0a:	b570      	push	{r4, r5, r6, lr}
    6a0c:	f1c2 0420 	rsb	r4, r2, #32
    6a10:	6805      	ldr	r5, [r0, #0]
    6a12:	f850 3f04 	ldr.w	r3, [r0, #4]!
    6a16:	fa03 f604 	lsl.w	r6, r3, r4
    6a1a:	fa23 f302 	lsr.w	r3, r3, r2
    6a1e:	4335      	orrs	r5, r6
    6a20:	4288      	cmp	r0, r1
    6a22:	f840 5c04 	str.w	r5, [r0, #-4]
    6a26:	6003      	str	r3, [r0, #0]
    6a28:	d3f2      	bcc.n	6a10 <L_shift+0xc>
    6a2a:	bd70      	pop	{r4, r5, r6, pc}

00006a2c <__hexnan>:
    6a2c:	e92d 4ff7 	stmdb	sp!, {r0, r1, r2, r4, r5, r6, r7, r8, r9, r10, r11, lr}
    6a30:	4b46      	ldr	r3, [pc, #280]	; (6b4c <__hexnan+0x120>)
    6a32:	4683      	mov	r11, r0
    6a34:	f893 0030 	ldrb.w	r0, [r3, #48]	; 0x30
    6a38:	460c      	mov	r4, r1
    6a3a:	4615      	mov	r5, r2
    6a3c:	b908      	cbnz	r0, 6a42 <__hexnan+0x16>
    6a3e:	f7ff fd91 	bl	6564 <__hexdig_init>
    6a42:	6821      	ldr	r1, [r4, #0]
    6a44:	f8db 3000 	ldr.w	r3, [r11]
    6a48:	114e      	asrs	r6, r1, #5
    6a4a:	eb05 0686 	add.w	r6, r5, r6, lsl #2
    6a4e:	f011 0a1f 	ands.w	r10, r1, #31
    6a52:	bf18      	it	ne
    6a54:	3604      	addne	r6, #4
    6a56:	f1a6 0904 	sub.w	r9, r6, #4
    6a5a:	2200      	movs	r2, #0
    6a5c:	f846 2c04 	str.w	r2, [r6, #-4]
    6a60:	464f      	mov	r7, r9
    6a62:	464c      	mov	r4, r9
    6a64:	4694      	mov	r12, r2
    6a66:	4690      	mov	r8, r2
    6a68:	7859      	ldrb	r1, [r3, #1]
    6a6a:	b3b9      	cbz	r1, 6adc <__hexnan+0xb0>
    6a6c:	4837      	ldr	r0, [pc, #220]	; (6b4c <__hexnan+0x120>)
    6a6e:	5c40      	ldrb	r0, [r0, r1]
    6a70:	b9f0      	cbnz	r0, 6ab0 <__hexnan+0x84>
    6a72:	2920      	cmp	r1, #32
    6a74:	d816      	bhi.n	6aa4 <__hexnan+0x78>
    6a76:	45c4      	cmp	r12, r8
    6a78:	da2e      	bge.n	6ad8 <__hexnan+0xac>
    6a7a:	42bc      	cmp	r4, r7
    6a7c:	d209      	bcs.n	6a92 <__hexnan+0x66>
    6a7e:	2a07      	cmp	r2, #7
    6a80:	dc07      	bgt.n	6a92 <__hexnan+0x66>
    6a82:	4620      	mov	r0, r4
    6a84:	4639      	mov	r1, r7
    6a86:	e88d 1008 	stmia.w	sp, {r3, r12}
    6a8a:	f7ff ffbb 	bl	6a04 <L_shift>
    6a8e:	e89d 1008 	ldmia.w	sp, {r3, r12}
    6a92:	42ac      	cmp	r4, r5
    6a94:	d91f      	bls.n	6ad6 <__hexnan+0xaa>
    6a96:	2200      	movs	r2, #0
    6a98:	f844 2c04 	str.w	r2, [r4, #-4]
    6a9c:	3c04      	subs	r4, #4
    6a9e:	46c4      	mov	r12, r8
    6aa0:	4627      	mov	r7, r4
    6aa2:	e019      	b.n	6ad8 <__hexnan+0xac>
    6aa4:	2929      	cmp	r1, #41	; 0x29
    6aa6:	d14c      	bne.n	6b42 <__hexnan+0x116>
    6aa8:	3302      	adds	r3, #2
    6aaa:	f8cb 3000 	str.w	r3, [r11]
    6aae:	e015      	b.n	6adc <__hexnan+0xb0>
    6ab0:	3201      	adds	r2, #1
    6ab2:	2a08      	cmp	r2, #8
    6ab4:	f108 0801 	add.w	r8, r8, #1
    6ab8:	dd06      	ble.n	6ac8 <__hexnan+0x9c>
    6aba:	42ac      	cmp	r4, r5
    6abc:	d90c      	bls.n	6ad8 <__hexnan+0xac>
    6abe:	2200      	movs	r2, #0
    6ac0:	f844 2c04 	str.w	r2, [r4, #-4]
    6ac4:	3c04      	subs	r4, #4
    6ac6:	2201      	movs	r2, #1
    6ac8:	6821      	ldr	r1, [r4, #0]
    6aca:	f000 000f 	and.w	r0, r0, #15
    6ace:	ea40 1101 	orr.w	r1, r0, r1, lsl #4
    6ad2:	6021      	str	r1, [r4, #0]
    6ad4:	e000      	b.n	6ad8 <__hexnan+0xac>
    6ad6:	2208      	movs	r2, #8
    6ad8:	3301      	adds	r3, #1
    6ada:	e7c5      	b.n	6a68 <__hexnan+0x3c>
    6adc:	f1b8 0f00 	cmp.w	r8, #0
    6ae0:	d02f      	beq.n	6b42 <__hexnan+0x116>
    6ae2:	42bc      	cmp	r4, r7
    6ae4:	d205      	bcs.n	6af2 <__hexnan+0xc6>
    6ae6:	2a07      	cmp	r2, #7
    6ae8:	dc03      	bgt.n	6af2 <__hexnan+0xc6>
    6aea:	4620      	mov	r0, r4
    6aec:	4639      	mov	r1, r7
    6aee:	f7ff ff89 	bl	6a04 <L_shift>
    6af2:	42ac      	cmp	r4, r5
    6af4:	d90d      	bls.n	6b12 <__hexnan+0xe6>
    6af6:	462a      	mov	r2, r5
    6af8:	f854 3b04 	ldr.w	r3, [r4], #4
    6afc:	f842 3b04 	str.w	r3, [r2], #4
    6b00:	45a1      	cmp	r9, r4
    6b02:	4610      	mov	r0, r2
    6b04:	d2f8      	bcs.n	6af8 <__hexnan+0xcc>
    6b06:	2100      	movs	r1, #0
    6b08:	f840 1b04 	str.w	r1, [r0], #4
    6b0c:	4548      	cmp	r0, r9
    6b0e:	d9fa      	bls.n	6b06 <__hexnan+0xda>
    6b10:	e00e      	b.n	6b30 <__hexnan+0x104>
    6b12:	f1ba 0f00 	cmp.w	r10, #0
    6b16:	d00b      	beq.n	6b30 <__hexnan+0x104>
    6b18:	f1ca 0a20 	rsb	r10, r10, #32
    6b1c:	f04f 32ff 	mov.w	r2, #4294967295
    6b20:	fa22 fa0a 	lsr.w	r10, r2, r10
    6b24:	f856 0c04 	ldr.w	r0, [r6, #-4]
    6b28:	ea00 010a 	and.w	r1, r0, r10
    6b2c:	f846 1c04 	str.w	r1, [r6, #-4]
    6b30:	f856 2c04 	ldr.w	r2, [r6, #-4]
    6b34:	3e04      	subs	r6, #4
    6b36:	b932      	cbnz	r2, 6b46 <__hexnan+0x11a>
    6b38:	42b5      	cmp	r5, r6
    6b3a:	d1f9      	bne.n	6b30 <__hexnan+0x104>
    6b3c:	2301      	movs	r3, #1
    6b3e:	602b      	str	r3, [r5, #0]
    6b40:	e001      	b.n	6b46 <__hexnan+0x11a>
    6b42:	2004      	movs	r0, #4
    6b44:	e000      	b.n	6b48 <__hexnan+0x11c>
    6b46:	2005      	movs	r0, #5
    6b48:	e8bd 8ffe 	ldmia.w	sp!, {r1, r2, r3, r4, r5, r6, r7, r8, r9, r10, r11, pc}
    6b4c:	10000690 	.word	0x10000690

00006b50 <_isatty_r>:
    6b50:	b538      	push	{r3, r4, r5, lr}
    6b52:	4c06      	ldr	r4, [pc, #24]	; (6b6c <_isatty_r+0x1c>)
    6b54:	2300      	movs	r3, #0
    6b56:	4605      	mov	r5, r0
    6b58:	4608      	mov	r0, r1
    6b5a:	6023      	str	r3, [r4, #0]
    6b5c:	f7f9 fe5a 	bl	814 <__wrap__isatty>
    6b60:	1c43      	adds	r3, r0, #1
    6b62:	d102      	bne.n	6b6a <_isatty_r+0x1a>
    6b64:	6821      	ldr	r1, [r4, #0]
    6b66:	b101      	cbz	r1, 6b6a <_isatty_r+0x1a>
    6b68:	6029      	str	r1, [r5, #0]
    6b6a:	bd38      	pop	{r3, r4, r5, pc}
    6b6c:	1000068c 	.word	0x1000068c

00006b70 <_malloc_usable_size_r>:
    6b70:	f851 0c04 	ldr.w	r0, [r1, #-4]
    6b74:	2800      	cmp	r0, #0
    6b76:	da02      	bge.n	6b7e <_malloc_usable_size_r+0xe>
    6b78:	3904      	subs	r1, #4
    6b7a:	580b      	ldr	r3, [r1, r0]
    6b7c:	18c0      	adds	r0, r0, r3
    6b7e:	3804      	subs	r0, #4
    6b80:	4770      	bx	lr
	...

00006b84 <__aeabi_d2uiz>:
    6b84:	004a      	lsls	r2, r1, #1
    6b86:	d211      	bcs.n	6bac <__aeabi_d2uiz+0x28>
    6b88:	f512 1200 	adds.w	r2, r2, #2097152	; 0x200000
    6b8c:	d211      	bcs.n	6bb2 <__aeabi_d2uiz+0x2e>
    6b8e:	d50d      	bpl.n	6bac <__aeabi_d2uiz+0x28>
    6b90:	f46f 7378 	mvn.w	r3, #992	; 0x3e0
    6b94:	ebb3 5262 	subs.w	r2, r3, r2, asr #21
    6b98:	d40e      	bmi.n	6bb8 <__aeabi_d2uiz+0x34>
    6b9a:	ea4f 23c1 	mov.w	r3, r1, lsl #11
    6b9e:	f043 4300 	orr.w	r3, r3, #2147483648	; 0x80000000
    6ba2:	ea43 5350 	orr.w	r3, r3, r0, lsr #21
    6ba6:	fa23 f002 	lsr.w	r0, r3, r2
    6baa:	4770      	bx	lr
    6bac:	f04f 0000 	mov.w	r0, #0
    6bb0:	4770      	bx	lr
    6bb2:	ea50 3001 	orrs.w	r0, r0, r1, lsl #12
    6bb6:	d102      	bne.n	6bbe <__aeabi_d2uiz+0x3a>
    6bb8:	f04f 30ff 	mov.w	r0, #4294967295
    6bbc:	4770      	bx	lr
    6bbe:	f04f 0000 	mov.w	r0, #0
    6bc2:	4770      	bx	lr

00006bc4 <_isatty>:
    6bc4:	f240 638c 	movw	r3, #1676	; 0x68c
    6bc8:	f2c1 0300 	movt	r3, #4096	; 0x1000
    6bcc:	2258      	movs	r2, #88	; 0x58
    6bce:	601a      	str	r2, [r3, #0]
    6bd0:	2000      	movs	r0, #0
    6bd2:	4770      	bx	lr

00006bd4 <_sbrk>:
    6bd4:	4a06      	ldr	r2, [pc, #24]	; (6bf0 <_sbrk+0x1c>)
    6bd6:	f240 7390 	movw	r3, #1936	; 0x790
    6bda:	6811      	ldr	r1, [r2, #0]
    6bdc:	f2c1 0300 	movt	r3, #4096	; 0x1000
    6be0:	2900      	cmp	r1, #0
    6be2:	bf18      	it	ne
    6be4:	460b      	movne	r3, r1
    6be6:	1818      	adds	r0, r3, r0
    6be8:	6010      	str	r0, [r2, #0]
    6bea:	4618      	mov	r0, r3
    6bec:	4770      	bx	lr
    6bee:	bf00      	nop
    6bf0:	10000680 	.word	0x10000680

00006bf4 <fabs>:
    6bf4:	f021 4100 	bic.w	r1, r1, #2147483648	; 0x80000000
    6bf8:	4770      	bx	lr
    6bfa:	bf00      	nop

00006bfc <_init>:
    6bfc:	b5f8      	push	{r3, r4, r5, r6, r7, lr}
    6bfe:	bf00      	nop
    6c00:	bcf8      	pop	{r3, r4, r5, r6, r7}
    6c02:	bc08      	pop	{r3}
    6c04:	469e      	mov	lr, r3
    6c06:	4770      	bx	lr

00006c08 <_fini>:
    6c08:	b5f8      	push	{r3, r4, r5, r6, r7, lr}
    6c0a:	bf00      	nop
    6c0c:	bcf8      	pop	{r3, r4, r5, r6, r7}
    6c0e:	bc08      	pop	{r3}
    6c10:	469e      	mov	lr, r3
    6c12:	4770      	bx	lr
    6c14:	75626544 	.word	0x75626544
    6c18:	75642074 	.word	0x75642074
    6c1c:	646f6320 	.word	0x646f6320
    6c20:	00000065 	.word	0x00000065
    6c24:	206e6946 	.word	0x206e6946
    6c28:	63207564 	.word	0x63207564
    6c2c:	0065646f 	.word	0x0065646f
    6c30:	383a3445 	.word	0x383a3445
    6c34:	3445203b 	.word	0x3445203b
    6c38:	203b383a 	.word	0x203b383a
    6c3c:	3b383a52 	.word	0x3b383a52
    6c40:	3a344520 	.word	0x3a344520
    6c44:	52203b38 	.word	0x52203b38
    6c48:	203b383a 	.word	0x203b383a
    6c4c:	383a3443 	.word	0x383a3443
    6c50:	3445203b 	.word	0x3445203b
    6c54:	203b343a 	.word	0x203b343a
    6c58:	343a3447 	.word	0x343a3447
    6c5c:	3a52203b 	.word	0x3a52203b
    6c60:	47203b34 	.word	0x47203b34
    6c64:	3b343a33 	.word	0x3b343a33
    6c68:	343a5220 	.word	0x343a5220
    6c6c:	0000003b 	.word	0x0000003b

00006c70 <_ZTIN4mbed6TickerE>:
    6c70:	00006eb0 00006c7c 00006ca8              .n..|l...l..

00006c7c <_ZTSN4mbed6TickerE>:
    6c7c:	626d344e 54366465 656b6369 00004572     N4mbed6TickerE..
    6c8c:	00000000                                ....

00006c90 <_ZTVN4mbed6TickerE>:
    6c90:	00000000 00006c70 00000d69 00000d99     ....pl..i.......
    6ca0:	00000d7d 00000000                       }.......

00006ca8 <_ZTIN4mbed10TimerEventE>:
    6ca8:	00006f18 00006cc8                       .o...l..

00006cb0 <_ZTVN4mbed10TimerEventE>:
    6cb0:	00000000 00006ca8 00000e21 00000e35     .....l..!...5...
    6cc0:	00000829 00000000                       ).......

00006cc8 <_ZTSN4mbed10TimerEventE>:
    6cc8:	626d344e 30316465 656d6954 65764572     N4mbed10TimerEve
    6cd8:	0045746e                                ntE.

00006cdc <PinMap_UART_RX>:
    6cdc:	2009c001 4009c000 00000002 2009c003     ... ...@....... 
    6cec:	4000c000 00000001 2009c00b 40098000     ...@....... ...@
    6cfc:	00000001 2009c010 40010000 00000001     ....... ...@....
    6d0c:	2009c01a 4009c000 00000003 2009c041     ... ...@....A.. 
    6d1c:	40010000 00000002 2009c049 40098000     ...@....I.. ...@
    6d2c:	00000002 2009c09d 4009c000 00000003     ....... ...@....
    6d3c:	ffffffff ffffffff 00000000 69726573     ............seri
    6d4c:	625f6c61 00647561 61766e49 2064696c     al_baud.Invalid 
    6d5c:	626d756e 6f207265 69622066 28207374     number of bits (
    6d6c:	20296425 73206e69 61697265 6f66206c     %d) in serial fo
    6d7c:	74616d72 6873202c 646c756f 20656220     rmat, should be 
    6d8c:	382e2e35 00000000 61766e49 2064696c     5..8....Invalid 
    6d9c:	69726573 70206c61 74697261 65732079     serial parity se
    6dac:	6e697474 00000067 61766e49 2064696c     tting...Invalid 
    6dbc:	706f7473 74696220 70732073 66696365     stop bits specif
    6dcc:	00646569 69726553 70206c61 756f6e69     ied.Serial pinou
    6ddc:	616d2074 6e697070 61662067 64656c69     t mapping failed
    6dec:	00000000                                ....

00006df0 <PinMap_UART_TX>:
    6df0:	2009c000 4009c000 00000002 2009c002     ... ...@....... 
    6e00:	4000c000 00000001 2009c00a 40098000     ...@....... ...@
    6e10:	00000001 2009c00f 40010000 00000001     ....... ...@....
    6e20:	2009c019 4009c000 00000003 2009c040     ... ...@....@.. 
    6e30:	40010000 00000002 2009c048 40098000     ...@....H.. ...@
    6e40:	00000002 2009c09c 4009c000 00000003     ....... ...@....
    6e50:	ffffffff ffffffff 00000000 6c756f63     ............coul
    6e60:	6f6e2064 69702074 74756f6e 00000000     d not pinout....
    6e70:	6d6e6970 6d207061 6d2d7369 68637461     pinmap mis-match
    6e80:	00000000 6d6e6970 6e207061 6620746f     ....pinmap not f
    6e90:	646e756f 726f6620 72657020 65687069     ound for periphe
    6ea0:	006c6172 00000000                       ral.....

00006ea8 <_ZTVN10__cxxabiv120__si_class_type_infoE>:
    6ea8:	00000000 00006ed8 00001719 0000172d     .....n......-...
    6eb8:	000018b5 000018b9 0000185b 000017a1     ........[.......
    6ec8:	0000173f 0000169d 00001763 00000000     ?.......c.......

00006ed8 <_ZTIN10__cxxabiv120__si_class_type_infoE>:
    6ed8:	00006eb0 00006ee4 00006f40              .n...n..@o..

00006ee4 <_ZTSN10__cxxabiv120__si_class_type_infoE>:
    6ee4:	5f30314e 7878635f 76696261 5f303231     N10__cxxabiv120_
    6ef4:	5f69735f 73616c63 79745f73 695f6570     _si_class_type_i
    6f04:	456f666e 00000000 00000000              nfoE........

00006f10 <_ZTVN10__cxxabiv117__class_type_infoE>:
    6f10:	00000000 00006f40 000017fd 00001811     ....@o..........
    6f20:	000018b5 000018b9 0000185b 000017a1     ........[.......
    6f30:	000017e3 00001823 000017d7 00000000     ....#...........

00006f40 <_ZTIN10__cxxabiv117__class_type_infoE>:
    6f40:	00006eb0 00006f4c 00006f70              .n..Lo..po..

00006f4c <_ZTSN10__cxxabiv117__class_type_infoE>:
    6f4c:	5f30314e 7878635f 76696261 5f373131     N10__cxxabiv117_
    6f5c:	616c635f 745f7373 5f657079 6f666e69     _class_type_info
    6f6c:	00000045                                E...

00006f70 <_ZTISt9type_info>:
    6f70:	00006f18 00006f78                       .o..xo..

00006f78 <_ZTSSt9type_info>:
    6f78:	74397453 5f657079 6f666e69 00000000     St9type_info....

00006f88 <_ZTVSt9type_info>:
    6f88:	00000000 00006f70 000018a9 000018c1     ....po..........
    6f98:	000018b5 000018b9 000018fd 000018bd     ................
    6fa8:	00000043                                C...

00006fac <_global_impure_ptr>:
    6fac:	10000474 2b302d23 6c680020 6665004c     t...#-0+ .hlL.ef
    6fbc:	47464567 464e4900 666e6900 4e414e00     gEFG.INF.inf.NAN
    6fcc:	6e616e00 32313000 36353433 41393837     .nan.0123456789A
    6fdc:	45444342 31300046 35343332 39383736     BCDEF.0123456789
    6fec:	64636261 65006665 00646c25              abcdef.e%ld.

00006ff8 <_ctype_>:
    6ff8:	20202000 20202020 28282020 20282828     .         ((((( 
    7008:	20202020 20202020 20202020 20202020                     
    7018:	10108820 10101010 10101010 10101010      ...............
    7028:	04040410 04040404 10040404 10101010     ................
    7038:	41411010 41414141 01010101 01010101     ..AAAAAA........
    7048:	01010101 01010101 01010101 10101010     ................
    7058:	42421010 42424242 02020202 02020202     ..BBBBBB........
    7068:	02020202 02020202 02020202 10101010     ................
    7078:	00000020 00000000 00000000 00000000      ...............
	...
    70f8:	666e4900 74696e69 614e0079 0030004e     .Infinity.NaN.0.

00007108 <__sf_fake_stdin>:
	...

00007128 <__sf_fake_stdout>:
	...

00007148 <__sf_fake_stderr>:
	...
    7168:	49534f50 002e0058                       POSIX...

00007170 <__mprec_tens>:
    7170:	00000000 3ff00000 00000000 40240000     .......?......$@
    7180:	00000000 40590000 00000000 408f4000     ......Y@.....@.@
    7190:	00000000 40c38800 00000000 40f86a00     .......@.....j.@
    71a0:	00000000 412e8480 00000000 416312d0     .......A......cA
    71b0:	00000000 4197d784 00000000 41cdcd65     .......A....e..A
    71c0:	20000000 4202a05f e8000000 42374876     ... _..B....vH7B
    71d0:	a2000000 426d1a94 e5400000 42a2309c     ......mB..@..0.B
    71e0:	1e900000 42d6bcc4 26340000 430c6bf5     .......B..4&.k.C
    71f0:	37e08000 4341c379 85d8a000 43763457     ...7y.AC....W4vC
    7200:	674ec800 43abc16d 60913d00 43e158e4     ..Ngm..C.=.`.X.C
    7210:	78b58c40 4415af1d d6e2ef50 444b1ae4     @..x...DP.....KD
    7220:	064dd592 4480f0cf c7e14af6 44b52d02     ..M....D.J...-.D
    7230:	79d99db4 44ea7843                       ...yCx.D

00007238 <p05.5252>:
    7238:	00000005 00000019 0000007d 00000000     ........}.......

00007248 <__mprec_bigtens>:
    7248:	37e08000 4341c379 b5056e17 4693b8b5     ...7y.AC.n.....F
    7258:	e93ff9f5 4d384f03 f9301d32 5a827748     ..?..O8M2.0.Hw.Z
    7268:	7f73bf3c 75154fdd                       <.s..O.u

00007270 <tinytens>:
    7270:	97d889bc 3c9cd2b2 d5a8a733 3949f623     .......<3...#.I9
    7280:	44f4a73d 32a50ffd cf8c979d 255bba08     =..D...2......[%
    7290:	64ac6f43 0e180628 33323130 37363534     Co.d(...01234567
    72a0:	00003938                                89..

000072a4 <__EH_FRAME_BEGIN__>:
    72a4:	00000000                                ....
