
test.elf:     file format elf32-littlearm
architecture: arm, flags 0x00000112:
EXEC_P, HAS_SYMS, D_PAGED
start address 0x00000831


Disassembly of section .text:

00000000 <__isr_vector>:
       0:	10008000 	.word	0x10008000
       4:	00000831 	.word	0x00000831
       8:	00000865 	.word	0x00000865
       c:	00000867 	.word	0x00000867
      10:	00000869 	.word	0x00000869
      14:	0000086b 	.word	0x0000086b
      18:	0000086d 	.word	0x0000086d
	...
      2c:	0000086f 	.word	0x0000086f
      30:	00000871 	.word	0x00000871
      34:	00000000 	.word	0x00000000
      38:	00000873 	.word	0x00000873
      3c:	00000875 	.word	0x00000875
      40:	00000879 	.word	0x00000879
      44:	0000087b 	.word	0x0000087b
      48:	0000087d 	.word	0x0000087d
      4c:	0000087f 	.word	0x0000087f
      50:	00000881 	.word	0x00000881
      54:	00000883 	.word	0x00000883
      58:	00000885 	.word	0x00000885
      5c:	00000887 	.word	0x00000887
      60:	00000889 	.word	0x00000889
      64:	0000088b 	.word	0x0000088b
      68:	0000088d 	.word	0x0000088d
      6c:	0000088f 	.word	0x0000088f
      70:	00000891 	.word	0x00000891
      74:	00000893 	.word	0x00000893
      78:	00000895 	.word	0x00000895
      7c:	00000897 	.word	0x00000897
      80:	00000899 	.word	0x00000899
      84:	0000089b 	.word	0x0000089b
      88:	0000089d 	.word	0x0000089d
      8c:	0000089f 	.word	0x0000089f
      90:	000008a1 	.word	0x000008a1
      94:	000008a3 	.word	0x000008a3
      98:	000008a5 	.word	0x000008a5
      9c:	000008a7 	.word	0x000008a7
      a0:	000008a9 	.word	0x000008a9
      a4:	000008ab 	.word	0x000008ab
      a8:	000008ad 	.word	0x000008ad
      ac:	000008af 	.word	0x000008af
      b0:	000008b1 	.word	0x000008b1
      b4:	000008b3 	.word	0x000008b3
      b8:	000008b5 	.word	0x000008b5
      bc:	000008b7 	.word	0x000008b7
      c0:	000008b9 	.word	0x000008b9
      c4:	000008bb 	.word	0x000008bb
      c8:	000008bd 	.word	0x000008bd

000000cc <__do_global_dtors_aux>:
      cc:	b510      	push	{r4, lr}
      ce:	4c05      	ldr	r4, [pc, #20]	; (e4 <__do_global_dtors_aux+0x18>)
      d0:	7823      	ldrb	r3, [r4, #0]
      d2:	b933      	cbnz	r3, e2 <__do_global_dtors_aux+0x16>
      d4:	4804      	ldr	r0, [pc, #16]	; (e8 <__do_global_dtors_aux+0x1c>)
      d6:	b110      	cbz	r0, de <__do_global_dtors_aux+0x12>
      d8:	4804      	ldr	r0, [pc, #16]	; (ec <__do_global_dtors_aux+0x20>)
      da:	f3af 8000 	nop.w
      de:	2101      	movs	r1, #1
      e0:	7021      	strb	r1, [r4, #0]
      e2:	bd10      	pop	{r4, pc}
      e4:	10000548 	.word	0x10000548
      e8:	00000000 	.word	0x00000000
      ec:	000072a4 	.word	0x000072a4

000000f0 <frame_dummy>:
      f0:	b508      	push	{r3, lr}
      f2:	4b06      	ldr	r3, [pc, #24]	; (10c <frame_dummy+0x1c>)
      f4:	b11b      	cbz	r3, fe <frame_dummy+0xe>
      f6:	4806      	ldr	r0, [pc, #24]	; (110 <frame_dummy+0x20>)
      f8:	4906      	ldr	r1, [pc, #24]	; (114 <frame_dummy+0x24>)
      fa:	f3af 8000 	nop.w
      fe:	4806      	ldr	r0, [pc, #24]	; (118 <frame_dummy+0x28>)
     100:	6801      	ldr	r1, [r0, #0]
     102:	b111      	cbz	r1, 10a <frame_dummy+0x1a>
     104:	4a05      	ldr	r2, [pc, #20]	; (11c <frame_dummy+0x2c>)
     106:	b102      	cbz	r2, 10a <frame_dummy+0x1a>
     108:	4790      	blx	r2
     10a:	bd08      	pop	{r3, pc}
     10c:	00000000 	.word	0x00000000
     110:	000072a4 	.word	0x000072a4
     114:	1000054c 	.word	0x1000054c
     118:	10000548 	.word	0x10000548
     11c:	00000000 	.word	0x00000000

00000120 <main>:
     120:	b530      	push	{r4, r5, lr}
     122:	f646 4014 	movw	r0, #27668	; 0x6c14
     126:	b0a7      	sub	sp, #156	; 0x9c
     128:	f646 4530 	movw	r5, #27696	; 0x6c30
     12c:	ac02      	add	r4, sp, #8
     12e:	f2c0 0000 	movt	r0, #0
     132:	f2c0 0500 	movt	r5, #0
     136:	f002 fc4d 	bl	29d4 <iprintf>
     13a:	cd0f      	ldmia	r5!, {r0, r1, r2, r3}
     13c:	c40f      	stmia	r4!, {r0, r1, r2, r3}
     13e:	cd0f      	ldmia	r5!, {r0, r1, r2, r3}
     140:	c40f      	stmia	r4!, {r0, r1, r2, r3}
     142:	cd0f      	ldmia	r5!, {r0, r1, r2, r3}
     144:	c40f      	stmia	r4!, {r0, r1, r2, r3}
     146:	e895 000f 	ldmia.w	r5, {r0, r1, r2, r3}
     14a:	c407      	stmia	r4!, {r0, r1, r2}
     14c:	f24c 0145 	movw	r1, #49221	; 0xc045
     150:	f2c2 0109 	movt	r1, #8201	; 0x2009
     154:	a812      	add	r0, sp, #72	; 0x48
     156:	8023      	strh	r3, [r4, #0]
     158:	f000 f8d4 	bl	304 <_ZN5musicC1E7PinName>
     15c:	243d      	movs	r4, #61	; 0x3d
     15e:	f44f 4300 	mov.w	r3, #32768	; 0x8000
     162:	a902      	add	r1, sp, #8
     164:	2200      	movs	r2, #0
     166:	f2c4 0366 	movt	r3, #16486	; 0x4066
     16a:	a812      	add	r0, sp, #72	; 0x48
     16c:	9400      	str	r4, [sp, #0]
     16e:	f000 fafd 	bl	76c <_ZN5music4playEPcdi>
     172:	f646 4024 	movw	r0, #27684	; 0x6c24
     176:	f2c0 0000 	movt	r0, #0
     17a:	f002 fc2b 	bl	29d4 <iprintf>
     17e:	4b04      	ldr	r3, [pc, #16]	; (190 <main+0x70>)
     180:	a812      	add	r0, sp, #72	; 0x48
     182:	9312      	str	r3, [sp, #72]	; 0x48
     184:	f000 fe4c 	bl	e20 <_ZN4mbed10TimerEventD1Ev>
     188:	2000      	movs	r0, #0
     18a:	b027      	add	sp, #156	; 0x9c
     18c:	bd30      	pop	{r4, r5, pc}
     18e:	bf00      	nop
     190:	00006c98 	.word	0x00006c98

00000194 <_ZN5notes8get_freqEcii>:
     194:	3941      	subs	r1, #65	; 0x41
     196:	2906      	cmp	r1, #6
     198:	d805      	bhi.n	1a6 <_ZN5notes8get_freqEcii+0x12>
     19a:	e8df f001 	tbb	[pc, r1]
     19e:	1b11      	.short	0x1b11
     1a0:	42392f25 	.word	0x42392f25
     1a4:	07          	.byte	0x07
     1a5:	00          	.byte	0x00
     1a6:	2000      	movs	r0, #0
     1a8:	2100      	movs	r1, #0
     1aa:	4770      	bx	lr
     1ac:	2b07      	cmp	r3, #7
     1ae:	d8fa      	bhi.n	1a6 <_ZN5notes8get_freqEcii+0x12>
     1b0:	2a00      	cmp	r2, #0
     1b2:	d063      	beq.n	27c <_ZN5notes8get_freqEcii+0xe8>
     1b4:	4a34      	ldr	r2, [pc, #208]	; (288 <_ZN5notes8get_freqEcii+0xf4>)
     1b6:	eb02 03c3 	add.w	r3, r2, r3, lsl #3
     1ba:	e9d3 0100 	ldrd	r0, r1, [r3]
     1be:	4770      	bx	lr
     1c0:	2b07      	cmp	r3, #7
     1c2:	d8f0      	bhi.n	1a6 <_ZN5notes8get_freqEcii+0x12>
     1c4:	2a00      	cmp	r2, #0
     1c6:	d153      	bne.n	270 <_ZN5notes8get_freqEcii+0xdc>
     1c8:	4830      	ldr	r0, [pc, #192]	; (28c <_ZN5notes8get_freqEcii+0xf8>)
     1ca:	eb00 01c3 	add.w	r1, r0, r3, lsl #3
     1ce:	e9d1 0100 	ldrd	r0, r1, [r1]
     1d2:	4770      	bx	lr
     1d4:	2b07      	cmp	r3, #7
     1d6:	d8e6      	bhi.n	1a6 <_ZN5notes8get_freqEcii+0x12>
     1d8:	2a00      	cmp	r2, #0
     1da:	d143      	bne.n	264 <_ZN5notes8get_freqEcii+0xd0>
     1dc:	482c      	ldr	r0, [pc, #176]	; (290 <_ZN5notes8get_freqEcii+0xfc>)
     1de:	eb00 01c3 	add.w	r1, r0, r3, lsl #3
     1e2:	e9d1 0100 	ldrd	r0, r1, [r1]
     1e6:	4770      	bx	lr
     1e8:	2b08      	cmp	r3, #8
     1ea:	d8dc      	bhi.n	1a6 <_ZN5notes8get_freqEcii+0x12>
     1ec:	2a00      	cmp	r2, #0
     1ee:	d133      	bne.n	258 <_ZN5notes8get_freqEcii+0xc4>
     1f0:	4828      	ldr	r0, [pc, #160]	; (294 <_ZN5notes8get_freqEcii+0x100>)
     1f2:	eb00 01c3 	add.w	r1, r0, r3, lsl #3
     1f6:	e9d1 0100 	ldrd	r0, r1, [r1]
     1fa:	4770      	bx	lr
     1fc:	2b08      	cmp	r3, #8
     1fe:	d8d2      	bhi.n	1a6 <_ZN5notes8get_freqEcii+0x12>
     200:	2a00      	cmp	r2, #0
     202:	d123      	bne.n	24c <_ZN5notes8get_freqEcii+0xb8>
     204:	4824      	ldr	r0, [pc, #144]	; (298 <_ZN5notes8get_freqEcii+0x104>)
     206:	eb00 01c3 	add.w	r1, r0, r3, lsl #3
     20a:	e9d1 0100 	ldrd	r0, r1, [r1]
     20e:	4770      	bx	lr
     210:	2b07      	cmp	r3, #7
     212:	d8c8      	bhi.n	1a6 <_ZN5notes8get_freqEcii+0x12>
     214:	b9a2      	cbnz	r2, 240 <_ZN5notes8get_freqEcii+0xac>
     216:	4821      	ldr	r0, [pc, #132]	; (29c <_ZN5notes8get_freqEcii+0x108>)
     218:	eb00 01c3 	add.w	r1, r0, r3, lsl #3
     21c:	e9d1 0100 	ldrd	r0, r1, [r1]
     220:	4770      	bx	lr
     222:	2b07      	cmp	r3, #7
     224:	d8bf      	bhi.n	1a6 <_ZN5notes8get_freqEcii+0x12>
     226:	b92a      	cbnz	r2, 234 <_ZN5notes8get_freqEcii+0xa0>
     228:	481d      	ldr	r0, [pc, #116]	; (2a0 <_ZN5notes8get_freqEcii+0x10c>)
     22a:	eb00 01c3 	add.w	r1, r0, r3, lsl #3
     22e:	e9d1 0100 	ldrd	r0, r1, [r1]
     232:	4770      	bx	lr
     234:	4a1b      	ldr	r2, [pc, #108]	; (2a4 <_ZN5notes8get_freqEcii+0x110>)
     236:	eb02 03c3 	add.w	r3, r2, r3, lsl #3
     23a:	e9d3 0100 	ldrd	r0, r1, [r3]
     23e:	4770      	bx	lr
     240:	4a19      	ldr	r2, [pc, #100]	; (2a8 <_ZN5notes8get_freqEcii+0x114>)
     242:	eb02 03c3 	add.w	r3, r2, r3, lsl #3
     246:	e9d3 0100 	ldrd	r0, r1, [r3]
     24a:	4770      	bx	lr
     24c:	4a17      	ldr	r2, [pc, #92]	; (2ac <_ZN5notes8get_freqEcii+0x118>)
     24e:	eb02 03c3 	add.w	r3, r2, r3, lsl #3
     252:	e9d3 0100 	ldrd	r0, r1, [r3]
     256:	4770      	bx	lr
     258:	4a15      	ldr	r2, [pc, #84]	; (2b0 <_ZN5notes8get_freqEcii+0x11c>)
     25a:	eb02 03c3 	add.w	r3, r2, r3, lsl #3
     25e:	e9d3 0100 	ldrd	r0, r1, [r3]
     262:	4770      	bx	lr
     264:	4a13      	ldr	r2, [pc, #76]	; (2b4 <_ZN5notes8get_freqEcii+0x120>)
     266:	eb02 03c3 	add.w	r3, r2, r3, lsl #3
     26a:	e9d3 0100 	ldrd	r0, r1, [r3]
     26e:	4770      	bx	lr
     270:	4a11      	ldr	r2, [pc, #68]	; (2b8 <_ZN5notes8get_freqEcii+0x124>)
     272:	eb02 03c3 	add.w	r3, r2, r3, lsl #3
     276:	e9d3 0100 	ldrd	r0, r1, [r3]
     27a:	4770      	bx	lr
     27c:	480f      	ldr	r0, [pc, #60]	; (2bc <_ZN5notes8get_freqEcii+0x128>)
     27e:	eb00 01c3 	add.w	r1, r0, r3, lsl #3
     282:	e9d1 0100 	ldrd	r0, r1, [r1]
     286:	4770      	bx	lr
     288:	100000c8 	.word	0x100000c8
     28c:	100002a0 	.word	0x100002a0
     290:	100002e0 	.word	0x100002e0
     294:	10000320 	.word	0x10000320
     298:	10000368 	.word	0x10000368
     29c:	100003b0 	.word	0x100003b0
     2a0:	100003f0 	.word	0x100003f0
     2a4:	10000220 	.word	0x10000220
     2a8:	10000260 	.word	0x10000260
     2ac:	100001d8 	.word	0x100001d8
     2b0:	10000190 	.word	0x10000190
     2b4:	10000148 	.word	0x10000148
     2b8:	10000108 	.word	0x10000108
     2bc:	10000430 	.word	0x10000430

000002c0 <_ZN5music4flipEv>:
     2c0:	6c42      	ldr	r2, [r0, #68]	; 0x44
     2c2:	6b43      	ldr	r3, [r0, #52]	; 0x34
     2c4:	6811      	ldr	r1, [r2, #0]
     2c6:	4219      	tst	r1, r3
     2c8:	bf0c      	ite	eq
     2ca:	6bc1      	ldreq	r1, [r0, #60]	; 0x3c
     2cc:	6c01      	ldrne	r1, [r0, #64]	; 0x40
     2ce:	600b      	str	r3, [r1, #0]
     2d0:	4770      	bx	lr
     2d2:	bf00      	nop

000002d4 <_ZN4mbed15FunctionPointer12membercallerI5musicEEvPvPc>:
     2d4:	b500      	push	{lr}
     2d6:	460b      	mov	r3, r1
     2d8:	b083      	sub	sp, #12
     2da:	6849      	ldr	r1, [r1, #4]
     2dc:	4602      	mov	r2, r0
     2de:	6818      	ldr	r0, [r3, #0]
     2e0:	466b      	mov	r3, sp
     2e2:	c303      	stmia	r3!, {r0, r1}
     2e4:	460b      	mov	r3, r1
     2e6:	07d9      	lsls	r1, r3, #31
     2e8:	d507      	bpl.n	2fa <_ZN4mbed15FunctionPointer12membercallerI5musicEEvPvPc+0x26>
     2ea:	1058      	asrs	r0, r3, #1
     2ec:	5811      	ldr	r1, [r2, r0]
     2ee:	1810      	adds	r0, r2, r0
     2f0:	9a00      	ldr	r2, [sp, #0]
     2f2:	5889      	ldr	r1, [r1, r2]
     2f4:	4788      	blx	r1
     2f6:	b003      	add	sp, #12
     2f8:	bd00      	pop	{pc}
     2fa:	4601      	mov	r1, r0
     2fc:	eb02 0063 	add.w	r0, r2, r3, asr #1
     300:	e7f8      	b.n	2f4 <_ZN4mbed15FunctionPointer12membercallerI5musicEEvPvPc+0x20>
     302:	bf00      	nop

00000304 <_ZN5musicC1E7PinName>:
     304:	b538      	push	{r3, r4, r5, lr}
     306:	4604      	mov	r4, r0
     308:	460d      	mov	r5, r1
     30a:	f000 fd73 	bl	df4 <_ZN4mbed10TimerEventC1Ev>
     30e:	4b10      	ldr	r3, [pc, #64]	; (350 <_ZN5musicC1E7PinName+0x4c>)
     310:	4620      	mov	r0, r4
     312:	f840 3b14 	str.w	r3, [r0], #20
     316:	2100      	movs	r1, #0
     318:	f000 fc52 	bl	bc0 <_ZN4mbed15FunctionPointerC1EPFvvE>
     31c:	f104 0030 	add.w	r0, r4, #48	; 0x30
     320:	4629      	mov	r1, r5
     322:	2201      	movs	r2, #1
     324:	f000 fb84 	bl	a30 <gpio_init>
     328:	f240 20c1 	movw	r0, #705	; 0x2c1
     32c:	f240 22d5 	movw	r2, #725	; 0x2d5
     330:	2100      	movs	r1, #0
     332:	f2c0 0200 	movt	r2, #0
     336:	f2c0 0000 	movt	r0, #0
     33a:	61e0      	str	r0, [r4, #28]
     33c:	61a4      	str	r4, [r4, #24]
     33e:	4620      	mov	r0, r4
     340:	6221      	str	r1, [r4, #32]
     342:	62e2      	str	r2, [r4, #44]	; 0x2c
     344:	6161      	str	r1, [r4, #20]
     346:	f000 fd41 	bl	dcc <_ZN4mbed6Ticker5setupEj>
     34a:	4620      	mov	r0, r4
     34c:	bd38      	pop	{r3, r4, r5, pc}
     34e:	bf00      	nop
     350:	00006c98 	.word	0x00006c98

00000354 <_ZN5music4freqEd>:
     354:	b510      	push	{r4, lr}
     356:	4604      	mov	r4, r0
     358:	e9c0 2312 	strd	r2, r3, [r0, #72]	; 0x48
     35c:	f000 fd2a 	bl	db4 <_ZN4mbed6Ticker6detachEv>
     360:	e9d4 0112 	ldrd	r0, r1, [r4, #72]	; 0x48
     364:	4602      	mov	r2, r0
     366:	460b      	mov	r3, r1
     368:	f001 fad2 	bl	1910 <__adddf3>
     36c:	460b      	mov	r3, r1
     36e:	2100      	movs	r1, #0
     370:	4602      	mov	r2, r0
     372:	f6c3 71f0 	movt	r1, #16368	; 0x3ff0
     376:	2000      	movs	r0, #0
     378:	f001 fda6 	bl	1ec8 <__aeabi_ddiv>
     37c:	f001 ff3c 	bl	21f8 <__aeabi_d2f>
     380:	f44f 5110 	mov.w	r1, #9216	; 0x2400
     384:	f6c4 1174 	movt	r1, #18804	; 0x4974
     388:	f002 f894 	bl	24b4 <__aeabi_fmul>
     38c:	f002 fa58 	bl	2840 <__aeabi_f2uiz>
     390:	4601      	mov	r1, r0
     392:	f240 20d5 	movw	r0, #725	; 0x2d5
     396:	f2c0 0000 	movt	r0, #0
     39a:	f240 22c1 	movw	r2, #705	; 0x2c1
     39e:	2300      	movs	r3, #0
     3a0:	f2c0 0200 	movt	r2, #0
     3a4:	62e0      	str	r0, [r4, #44]	; 0x2c
     3a6:	4620      	mov	r0, r4
     3a8:	61a4      	str	r4, [r4, #24]
     3aa:	61e2      	str	r2, [r4, #28]
     3ac:	6223      	str	r3, [r4, #32]
     3ae:	6163      	str	r3, [r4, #20]
     3b0:	e8bd 4010 	ldmia.w	sp!, {r4, lr}
     3b4:	f000 bd0a 	b.w	dcc <_ZN4mbed6Ticker5setupEj>

000003b8 <_ZN5music9init_songEP6m_songi>:
     3b8:	f246 6367 	movw	r3, #26215	; 0x6667
     3bc:	f2c6 6366 	movt	r3, #26214	; 0x6666
     3c0:	fb83 0302 	smull	r0, r3, r3, r2
     3c4:	17d2      	asrs	r2, r2, #31
     3c6:	b510      	push	{r4, lr}
     3c8:	ebc2 0063 	rsb	r0, r2, r3, asr #1
     3cc:	460c      	mov	r4, r1
     3ce:	2100      	movs	r1, #0
     3d0:	6061      	str	r1, [r4, #4]
     3d2:	0100      	lsls	r0, r0, #4
     3d4:	f001 f9de 	bl	1794 <_Znaj>
     3d8:	6020      	str	r0, [r4, #0]
     3da:	bd10      	pop	{r4, pc}

000003dc <_ZN5music8dal_songEP6m_song>:
     3dc:	6808      	ldr	r0, [r1, #0]
     3de:	2300      	movs	r3, #0
     3e0:	604b      	str	r3, [r1, #4]
     3e2:	b108      	cbz	r0, 3e8 <_ZN5music8dal_songEP6m_song+0xc>
     3e4:	f001 ba8c 	b.w	1900 <_ZdaPv>
     3e8:	4770      	bx	lr
     3ea:	bf00      	nop

000003ec <_ZN5music5parseEPci>:
     3ec:	e92d 4ff0 	stmdb	sp!, {r4, r5, r6, r7, r8, r9, r10, r11, lr}
     3f0:	4681      	mov	r9, r0
     3f2:	461e      	mov	r6, r3
     3f4:	4608      	mov	r0, r1
     3f6:	b083      	sub	sp, #12
     3f8:	4614      	mov	r4, r2
     3fa:	4649      	mov	r1, r9
     3fc:	461a      	mov	r2, r3
     3fe:	f7ff ffdb 	bl	3b8 <_ZN5music9init_songEP6m_songi>
     402:	2e00      	cmp	r6, #0
     404:	dd49      	ble.n	49a <_ZN5music5parseEPci+0xae>
     406:	f04f 0a00 	mov.w	r10, #0
     40a:	19a6      	adds	r6, r4, r6
     40c:	46d4      	mov	r12, r10
     40e:	2001      	movs	r0, #1
     410:	4652      	mov	r2, r10
     412:	46d3      	mov	r11, r10
     414:	4653      	mov	r3, r10
     416:	2120      	movs	r1, #32
     418:	f814 5b01 	ldrb.w	r5, [r4], #1
     41c:	3d23      	subs	r5, #35	; 0x23
     41e:	2d2f      	cmp	r5, #47	; 0x2f
     420:	d839      	bhi.n	496 <_ZN5music5parseEPci+0xaa>
     422:	e8df f015 	tbh	[pc, r5, lsl #1]
     426:	00f1      	.short	0x00f1
     428:	00380038 	.word	0x00380038
     42c:	00380038 	.word	0x00380038
     430:	00380038 	.word	0x00380038
     434:	00380038 	.word	0x00380038
     438:	00380038 	.word	0x00380038
     43c:	00380038 	.word	0x00380038
     440:	00d700bc 	.word	0x00d700bc
     444:	00e4009e 	.word	0x00e4009e
     448:	00c900ad 	.word	0x00c900ad
     44c:	0080008f 	.word	0x0080008f
     450:	0076003e 	.word	0x0076003e
     454:	006d0048 	.word	0x006d0048
     458:	00380038 	.word	0x00380038
     45c:	00380038 	.word	0x00380038
     460:	00690038 	.word	0x00690038
     464:	00610065 	.word	0x00610065
     468:	0059005d 	.word	0x0059005d
     46c:	00510055 	.word	0x00510055
     470:	00380038 	.word	0x00380038
     474:	00380038 	.word	0x00380038
     478:	00380038 	.word	0x00380038
     47c:	00380038 	.word	0x00380038
     480:	00380038 	.word	0x00380038
     484:	004d      	.short	0x004d
     486:	f04f 0c00 	mov.w	r12, #0
     48a:	4658      	mov	r0, r11
     48c:	46e2      	mov	r10, r12
     48e:	4662      	mov	r2, r12
     490:	46e3      	mov	r11, r12
     492:	4663      	mov	r3, r12
     494:	2120      	movs	r1, #32
     496:	42b4      	cmp	r4, r6
     498:	d1be      	bne.n	418 <_ZN5music5parseEPci+0x2c>
     49a:	4648      	mov	r0, r9
     49c:	b003      	add	sp, #12
     49e:	e8bd 8ff0 	ldmia.w	sp!, {r4, r5, r6, r7, r8, r9, r10, r11, pc}
     4a2:	f1bb 0f00 	cmp.w	r11, #0
     4a6:	f000 80b4 	beq.w	612 <_ZN5music5parseEPci+0x226>
     4aa:	2800      	cmp	r0, #0
     4ac:	f000 8125 	beq.w	6fa <_ZN5music5parseEPci+0x30e>
     4b0:	f04f 0c08 	mov.w	r12, #8
     4b4:	2000      	movs	r0, #0
     4b6:	42b4      	cmp	r4, r6
     4b8:	f04f 0b01 	mov.w	r11, #1
     4bc:	d1ac      	bne.n	418 <_ZN5music5parseEPci+0x2c>
     4be:	e7ec      	b.n	49a <_ZN5music5parseEPci+0xae>
     4c0:	2152      	movs	r1, #82	; 0x52
     4c2:	42b4      	cmp	r4, r6
     4c4:	d1a8      	bne.n	418 <_ZN5music5parseEPci+0x2c>
     4c6:	e7e8      	b.n	49a <_ZN5music5parseEPci+0xae>
     4c8:	2147      	movs	r1, #71	; 0x47
     4ca:	42b4      	cmp	r4, r6
     4cc:	d1a4      	bne.n	418 <_ZN5music5parseEPci+0x2c>
     4ce:	e7e4      	b.n	49a <_ZN5music5parseEPci+0xae>
     4d0:	2146      	movs	r1, #70	; 0x46
     4d2:	42b4      	cmp	r4, r6
     4d4:	d1a0      	bne.n	418 <_ZN5music5parseEPci+0x2c>
     4d6:	e7e0      	b.n	49a <_ZN5music5parseEPci+0xae>
     4d8:	2145      	movs	r1, #69	; 0x45
     4da:	42b4      	cmp	r4, r6
     4dc:	d19c      	bne.n	418 <_ZN5music5parseEPci+0x2c>
     4de:	e7dc      	b.n	49a <_ZN5music5parseEPci+0xae>
     4e0:	2144      	movs	r1, #68	; 0x44
     4e2:	42b4      	cmp	r4, r6
     4e4:	d198      	bne.n	418 <_ZN5music5parseEPci+0x2c>
     4e6:	e7d8      	b.n	49a <_ZN5music5parseEPci+0xae>
     4e8:	2143      	movs	r1, #67	; 0x43
     4ea:	42b4      	cmp	r4, r6
     4ec:	d194      	bne.n	418 <_ZN5music5parseEPci+0x2c>
     4ee:	e7d4      	b.n	49a <_ZN5music5parseEPci+0xae>
     4f0:	2142      	movs	r1, #66	; 0x42
     4f2:	42b4      	cmp	r4, r6
     4f4:	d190      	bne.n	418 <_ZN5music5parseEPci+0x2c>
     4f6:	e7d0      	b.n	49a <_ZN5music5parseEPci+0xae>
     4f8:	2141      	movs	r1, #65	; 0x41
     4fa:	42b4      	cmp	r4, r6
     4fc:	d18c      	bne.n	418 <_ZN5music5parseEPci+0x2c>
     4fe:	e7cc      	b.n	49a <_ZN5music5parseEPci+0xae>
     500:	f1bb 0f00 	cmp.w	r11, #0
     504:	f040 8102 	bne.w	70c <_ZN5music5parseEPci+0x320>
     508:	42b4      	cmp	r4, r6
     50a:	f04f 0b00 	mov.w	r11, #0
     50e:	d183      	bne.n	418 <_ZN5music5parseEPci+0x2c>
     510:	e7c3      	b.n	49a <_ZN5music5parseEPci+0xae>
     512:	f1bb 0f00 	cmp.w	r11, #0
     516:	d0f7      	beq.n	508 <_ZN5music5parseEPci+0x11c>
     518:	2800      	cmp	r0, #0
     51a:	f040 811a 	bne.w	752 <_ZN5music5parseEPci+0x366>
     51e:	46e2      	mov	r10, r12
     520:	f04f 0c09 	mov.w	r12, #9
     524:	e7b7      	b.n	496 <_ZN5music5parseEPci+0xaa>
     526:	f1bb 0f00 	cmp.w	r11, #0
     52a:	d077      	beq.n	61c <_ZN5music5parseEPci+0x230>
     52c:	2800      	cmp	r0, #0
     52e:	f040 80db 	bne.w	6e8 <_ZN5music5parseEPci+0x2fc>
     532:	42b4      	cmp	r4, r6
     534:	46e2      	mov	r10, r12
     536:	f04f 0b01 	mov.w	r11, #1
     53a:	f04f 0c07 	mov.w	r12, #7
     53e:	f47f af6b 	bne.w	418 <_ZN5music5parseEPci+0x2c>
     542:	e7aa      	b.n	49a <_ZN5music5parseEPci+0xae>
     544:	f1bb 0f00 	cmp.w	r11, #0
     548:	d07c      	beq.n	644 <_ZN5music5parseEPci+0x258>
     54a:	2800      	cmp	r0, #0
     54c:	f040 80c3 	bne.w	6d6 <_ZN5music5parseEPci+0x2ea>
     550:	42b4      	cmp	r4, r6
     552:	46e2      	mov	r10, r12
     554:	f04f 0b01 	mov.w	r11, #1
     558:	f04f 0c06 	mov.w	r12, #6
     55c:	f47f af5c 	bne.w	418 <_ZN5music5parseEPci+0x2c>
     560:	e79b      	b.n	49a <_ZN5music5parseEPci+0xae>
     562:	f1bb 0f00 	cmp.w	r11, #0
     566:	d063      	beq.n	630 <_ZN5music5parseEPci+0x244>
     568:	2800      	cmp	r0, #0
     56a:	f040 80ab 	bne.w	6c4 <_ZN5music5parseEPci+0x2d8>
     56e:	42b4      	cmp	r4, r6
     570:	46e2      	mov	r10, r12
     572:	f04f 0b01 	mov.w	r11, #1
     576:	f04f 0c02 	mov.w	r12, #2
     57a:	f47f af4d 	bne.w	418 <_ZN5music5parseEPci+0x2c>
     57e:	e78c      	b.n	49a <_ZN5music5parseEPci+0xae>
     580:	f1bb 0f00 	cmp.w	r11, #0
     584:	d068      	beq.n	658 <_ZN5music5parseEPci+0x26c>
     586:	2800      	cmp	r0, #0
     588:	f040 8093 	bne.w	6b2 <_ZN5music5parseEPci+0x2c6>
     58c:	42b4      	cmp	r4, r6
     58e:	46e2      	mov	r10, r12
     590:	f04f 0b01 	mov.w	r11, #1
     594:	f04f 0c04 	mov.w	r12, #4
     598:	f47f af3e 	bne.w	418 <_ZN5music5parseEPci+0x2c>
     59c:	e77d      	b.n	49a <_ZN5music5parseEPci+0xae>
     59e:	f1bb 0f00 	cmp.w	r11, #0
     5a2:	d040      	beq.n	626 <_ZN5music5parseEPci+0x23a>
     5a4:	2800      	cmp	r0, #0
     5a6:	d17b      	bne.n	6a0 <_ZN5music5parseEPci+0x2b4>
     5a8:	42b4      	cmp	r4, r6
     5aa:	46e2      	mov	r10, r12
     5ac:	f04f 0b01 	mov.w	r11, #1
     5b0:	4684      	mov	r12, r0
     5b2:	f47f af31 	bne.w	418 <_ZN5music5parseEPci+0x2c>
     5b6:	e770      	b.n	49a <_ZN5music5parseEPci+0xae>
     5b8:	f1bb 0f00 	cmp.w	r11, #0
     5bc:	d047      	beq.n	64e <_ZN5music5parseEPci+0x262>
     5be:	2800      	cmp	r0, #0
     5c0:	d165      	bne.n	68e <_ZN5music5parseEPci+0x2a2>
     5c2:	42b4      	cmp	r4, r6
     5c4:	46e2      	mov	r10, r12
     5c6:	f04f 0b01 	mov.w	r11, #1
     5ca:	f04f 0c05 	mov.w	r12, #5
     5ce:	f47f af23 	bne.w	418 <_ZN5music5parseEPci+0x2c>
     5d2:	e762      	b.n	49a <_ZN5music5parseEPci+0xae>
     5d4:	f1bb 0f00 	cmp.w	r11, #0
     5d8:	d02f      	beq.n	63a <_ZN5music5parseEPci+0x24e>
     5da:	2800      	cmp	r0, #0
     5dc:	d14f      	bne.n	67e <_ZN5music5parseEPci+0x292>
     5de:	46e2      	mov	r10, r12
     5e0:	42b4      	cmp	r4, r6
     5e2:	f04f 0c01 	mov.w	r12, #1
     5e6:	46e3      	mov	r11, r12
     5e8:	f47f af16 	bne.w	418 <_ZN5music5parseEPci+0x2c>
     5ec:	e755      	b.n	49a <_ZN5music5parseEPci+0xae>
     5ee:	f1bb 0f00 	cmp.w	r11, #0
     5f2:	d036      	beq.n	662 <_ZN5music5parseEPci+0x276>
     5f4:	bbd0      	cbnz	r0, 66c <_ZN5music5parseEPci+0x280>
     5f6:	42b4      	cmp	r4, r6
     5f8:	46e2      	mov	r10, r12
     5fa:	f04f 0b01 	mov.w	r11, #1
     5fe:	f04f 0c03 	mov.w	r12, #3
     602:	f47f af09 	bne.w	418 <_ZN5music5parseEPci+0x2c>
     606:	e748      	b.n	49a <_ZN5music5parseEPci+0xae>
     608:	2201      	movs	r2, #1
     60a:	42b4      	cmp	r4, r6
     60c:	f47f af04 	bne.w	418 <_ZN5music5parseEPci+0x2c>
     610:	e743      	b.n	49a <_ZN5music5parseEPci+0xae>
     612:	2308      	movs	r3, #8
     614:	42b4      	cmp	r4, r6
     616:	f47f aeff 	bne.w	418 <_ZN5music5parseEPci+0x2c>
     61a:	e73e      	b.n	49a <_ZN5music5parseEPci+0xae>
     61c:	2307      	movs	r3, #7
     61e:	42b4      	cmp	r4, r6
     620:	f47f aefa 	bne.w	418 <_ZN5music5parseEPci+0x2c>
     624:	e739      	b.n	49a <_ZN5music5parseEPci+0xae>
     626:	42b4      	cmp	r4, r6
     628:	465b      	mov	r3, r11
     62a:	f47f aef5 	bne.w	418 <_ZN5music5parseEPci+0x2c>
     62e:	e734      	b.n	49a <_ZN5music5parseEPci+0xae>
     630:	2302      	movs	r3, #2
     632:	42b4      	cmp	r4, r6
     634:	f47f aef0 	bne.w	418 <_ZN5music5parseEPci+0x2c>
     638:	e72f      	b.n	49a <_ZN5music5parseEPci+0xae>
     63a:	2301      	movs	r3, #1
     63c:	42b4      	cmp	r4, r6
     63e:	f47f aeeb 	bne.w	418 <_ZN5music5parseEPci+0x2c>
     642:	e72a      	b.n	49a <_ZN5music5parseEPci+0xae>
     644:	2306      	movs	r3, #6
     646:	42b4      	cmp	r4, r6
     648:	f47f aee6 	bne.w	418 <_ZN5music5parseEPci+0x2c>
     64c:	e725      	b.n	49a <_ZN5music5parseEPci+0xae>
     64e:	2305      	movs	r3, #5
     650:	42b4      	cmp	r4, r6
     652:	f47f aee1 	bne.w	418 <_ZN5music5parseEPci+0x2c>
     656:	e720      	b.n	49a <_ZN5music5parseEPci+0xae>
     658:	2304      	movs	r3, #4
     65a:	42b4      	cmp	r4, r6
     65c:	f47f aedc 	bne.w	418 <_ZN5music5parseEPci+0x2c>
     660:	e71b      	b.n	49a <_ZN5music5parseEPci+0xae>
     662:	2303      	movs	r3, #3
     664:	42b4      	cmp	r4, r6
     666:	f47f aed7 	bne.w	418 <_ZN5music5parseEPci+0x2c>
     66a:	e716      	b.n	49a <_ZN5music5parseEPci+0xae>
     66c:	2000      	movs	r0, #0
     66e:	42b4      	cmp	r4, r6
     670:	f04f 0c03 	mov.w	r12, #3
     674:	f04f 0b01 	mov.w	r11, #1
     678:	f47f aece 	bne.w	418 <_ZN5music5parseEPci+0x2c>
     67c:	e70d      	b.n	49a <_ZN5music5parseEPci+0xae>
     67e:	f04f 0c01 	mov.w	r12, #1
     682:	2000      	movs	r0, #0
     684:	42b4      	cmp	r4, r6
     686:	46e3      	mov	r11, r12
     688:	f47f aec6 	bne.w	418 <_ZN5music5parseEPci+0x2c>
     68c:	e705      	b.n	49a <_ZN5music5parseEPci+0xae>
     68e:	2000      	movs	r0, #0
     690:	42b4      	cmp	r4, r6
     692:	f04f 0c05 	mov.w	r12, #5
     696:	f04f 0b01 	mov.w	r11, #1
     69a:	f47f aebd 	bne.w	418 <_ZN5music5parseEPci+0x2c>
     69e:	e6fc      	b.n	49a <_ZN5music5parseEPci+0xae>
     6a0:	f04f 0c00 	mov.w	r12, #0
     6a4:	42b4      	cmp	r4, r6
     6a6:	4660      	mov	r0, r12
     6a8:	f04f 0b01 	mov.w	r11, #1
     6ac:	f47f aeb4 	bne.w	418 <_ZN5music5parseEPci+0x2c>
     6b0:	e6f3      	b.n	49a <_ZN5music5parseEPci+0xae>
     6b2:	2000      	movs	r0, #0
     6b4:	42b4      	cmp	r4, r6
     6b6:	f04f 0c04 	mov.w	r12, #4
     6ba:	f04f 0b01 	mov.w	r11, #1
     6be:	f47f aeab 	bne.w	418 <_ZN5music5parseEPci+0x2c>
     6c2:	e6ea      	b.n	49a <_ZN5music5parseEPci+0xae>
     6c4:	2000      	movs	r0, #0
     6c6:	42b4      	cmp	r4, r6
     6c8:	f04f 0c02 	mov.w	r12, #2
     6cc:	f04f 0b01 	mov.w	r11, #1
     6d0:	f47f aea2 	bne.w	418 <_ZN5music5parseEPci+0x2c>
     6d4:	e6e1      	b.n	49a <_ZN5music5parseEPci+0xae>
     6d6:	2000      	movs	r0, #0
     6d8:	42b4      	cmp	r4, r6
     6da:	f04f 0c06 	mov.w	r12, #6
     6de:	f04f 0b01 	mov.w	r11, #1
     6e2:	f47f ae99 	bne.w	418 <_ZN5music5parseEPci+0x2c>
     6e6:	e6d8      	b.n	49a <_ZN5music5parseEPci+0xae>
     6e8:	2000      	movs	r0, #0
     6ea:	42b4      	cmp	r4, r6
     6ec:	f04f 0c07 	mov.w	r12, #7
     6f0:	f04f 0b01 	mov.w	r11, #1
     6f4:	f47f ae90 	bne.w	418 <_ZN5music5parseEPci+0x2c>
     6f8:	e6cf      	b.n	49a <_ZN5music5parseEPci+0xae>
     6fa:	42b4      	cmp	r4, r6
     6fc:	46e2      	mov	r10, r12
     6fe:	f04f 0b01 	mov.w	r11, #1
     702:	f04f 0c08 	mov.w	r12, #8
     706:	f47f ae87 	bne.w	418 <_ZN5music5parseEPci+0x2c>
     70a:	e6c6      	b.n	49a <_ZN5music5parseEPci+0xae>
     70c:	eb0a 0a8a 	add.w	r10, r10, r10, lsl #2
     710:	eb0c 0a4a 	add.w	r10, r12, r10, lsl #1
     714:	f10a 30ff 	add.w	r0, r10, #4294967295
     718:	283f      	cmp	r0, #63	; 0x3f
     71a:	f63f aeb4 	bhi.w	486 <_ZN5music5parseEPci+0x9a>
     71e:	2920      	cmp	r1, #32
     720:	d01b      	beq.n	75a <_ZN5music5parseEPci+0x36e>
     722:	a801      	add	r0, sp, #4
     724:	e899 00a0 	ldmia.w	r9, {r5, r7}
     728:	f7ff fd34 	bl	194 <_ZN5notes8get_freqEcii>
     72c:	f8d9 2004 	ldr.w	r2, [r9, #4]
     730:	f8d9 3000 	ldr.w	r3, [r9]
     734:	eb05 1807 	add.w	r8, r5, r7, lsl #4
     738:	eb03 1302 	add.w	r3, r3, r2, lsl #4
     73c:	3201      	adds	r2, #1
     73e:	e9c8 0100 	strd	r0, r1, [r8]
     742:	f04f 0c00 	mov.w	r12, #0
     746:	4658      	mov	r0, r11
     748:	f8c3 a008 	str.w	r10, [r3, #8]
     74c:	f8c9 2004 	str.w	r2, [r9, #4]
     750:	e69c      	b.n	48c <_ZN5music5parseEPci+0xa0>
     752:	f04f 0c09 	mov.w	r12, #9
     756:	2000      	movs	r0, #0
     758:	e69d      	b.n	496 <_ZN5music5parseEPci+0xaa>
     75a:	f04f 0c00 	mov.w	r12, #0
     75e:	4658      	mov	r0, r11
     760:	46e2      	mov	r10, r12
     762:	4662      	mov	r2, r12
     764:	46e3      	mov	r11, r12
     766:	4663      	mov	r3, r12
     768:	e695      	b.n	496 <_ZN5music5parseEPci+0xaa>
     76a:	bf00      	nop

0000076c <_ZN5music4playEPcdi>:
     76c:	e92d 41f0 	stmdb	sp!, {r4, r5, r6, r7, r8, lr}
     770:	4680      	mov	r8, r0
     772:	b082      	sub	sp, #8
     774:	460e      	mov	r6, r1
     776:	4614      	mov	r4, r2
     778:	461d      	mov	r5, r3
     77a:	4668      	mov	r0, sp
     77c:	9b08      	ldr	r3, [sp, #32]
     77e:	4641      	mov	r1, r8
     780:	4632      	mov	r2, r6
     782:	f7ff fe33 	bl	3ec <_ZN5music5parseEPci>
     786:	9b01      	ldr	r3, [sp, #4]
     788:	2b00      	cmp	r3, #0
     78a:	dd21      	ble.n	7d0 <_ZN5music4playEPcdi+0x64>
     78c:	2600      	movs	r6, #0
     78e:	9800      	ldr	r0, [sp, #0]
     790:	0137      	lsls	r7, r6, #4
     792:	19c1      	adds	r1, r0, r7
     794:	e9d1 2300 	ldrd	r2, r3, [r1]
     798:	4640      	mov	r0, r8
     79a:	f7ff fddb 	bl	354 <_ZN5music4freqEd>
     79e:	9a00      	ldr	r2, [sp, #0]
     7a0:	3601      	adds	r6, #1
     7a2:	19d7      	adds	r7, r2, r7
     7a4:	68b8      	ldr	r0, [r7, #8]
     7a6:	f001 f9ff 	bl	1ba8 <__aeabi_i2d>
     7aa:	4622      	mov	r2, r4
     7ac:	462b      	mov	r3, r5
     7ae:	f001 fa61 	bl	1c74 <__aeabi_dmul>
     7b2:	460b      	mov	r3, r1
     7b4:	2100      	movs	r1, #0
     7b6:	4602      	mov	r2, r0
     7b8:	f2c4 016e 	movt	r1, #16494	; 0x406e
     7bc:	2000      	movs	r0, #0
     7be:	f001 fb83 	bl	1ec8 <__aeabi_ddiv>
     7c2:	f001 fd19 	bl	21f8 <__aeabi_d2f>
     7c6:	f000 f9e7 	bl	b98 <wait>
     7ca:	9b01      	ldr	r3, [sp, #4]
     7cc:	42b3      	cmp	r3, r6
     7ce:	dcde      	bgt.n	78e <_ZN5music4playEPcdi+0x22>
     7d0:	4640      	mov	r0, r8
     7d2:	2200      	movs	r2, #0
     7d4:	2300      	movs	r3, #0
     7d6:	f7ff fdbd 	bl	354 <_ZN5music4freqEd>
     7da:	4640      	mov	r0, r8
     7dc:	4669      	mov	r1, sp
     7de:	f7ff fdfd 	bl	3dc <_ZN5music8dal_songEP6m_song>
     7e2:	b002      	add	sp, #8
     7e4:	e8bd 81f0 	ldmia.w	sp!, {r4, r5, r6, r7, r8, pc}

000007e8 <_start>:
     7e8:	f240 5048 	movw	r0, #1352	; 0x548
     7ec:	f240 7290 	movw	r2, #1936	; 0x790
     7f0:	f2c1 0000 	movt	r0, #4096	; 0x1000
     7f4:	f2c1 0200 	movt	r2, #4096	; 0x1000
     7f8:	b508      	push	{r3, lr}
     7fa:	2100      	movs	r1, #0
     7fc:	1a12      	subs	r2, r2, r0
     7fe:	f002 f8e0 	bl	29c2 <memset>
     802:	f3af 8000 	nop.w
     806:	f002 f853 	bl	28b0 <__libc_init_array>
     80a:	f7ff fc89 	bl	120 <main>
     80e:	f000 f995 	bl	b3c <exit>
     812:	bf00      	nop

00000814 <__wrap__isatty>:
     814:	2802      	cmp	r0, #2
     816:	dc01      	bgt.n	81c <__wrap__isatty+0x8>
     818:	2001      	movs	r0, #1
     81a:	4770      	bx	lr
     81c:	f006 b9d2 	b.w	6bc4 <_isatty>

00000820 <abort>:
     820:	b508      	push	{r3, lr}
     822:	2001      	movs	r0, #1
     824:	f000 f98a 	bl	b3c <exit>

00000828 <__cxa_pure_virtual>:
     828:	b508      	push	{r3, lr}
     82a:	f7ff fff9 	bl	820 <abort>
     82e:	bf00      	nop

00000830 <Reset_Handler>:
     830:	4907      	ldr	r1, [pc, #28]	; (850 <.flash_to_ram_loop+0x1a>)
     832:	4a08      	ldr	r2, [pc, #32]	; (854 <.flash_to_ram_loop+0x1e>)
     834:	4b08      	ldr	r3, [pc, #32]	; (858 <.flash_to_ram_loop+0x22>)

00000836 <.flash_to_ram_loop>:
     836:	429a      	cmp	r2, r3
     838:	bfbe      	ittt	lt
     83a:	f851 0b04 	ldrlt.w	r0, [r1], #4
     83e:	f842 0b04 	strlt.w	r0, [r2], #4
     842:	f7ff bff8 	blt.w	836 <.flash_to_ram_loop>
     846:	4805      	ldr	r0, [pc, #20]	; (85c <.flash_to_ram_loop+0x26>)
     848:	4780      	blx	r0
     84a:	4805      	ldr	r0, [pc, #20]	; (860 <.flash_to_ram_loop+0x2a>)
     84c:	4700      	bx	r0
     84e:	0000      	.short	0x0000
     850:	000072a8 	.word	0x000072a8
     854:	100000c8 	.word	0x100000c8
     858:	10000548 	.word	0x10000548
     85c:	00000919 	.word	0x00000919
     860:	000007e9 	.word	0x000007e9

00000864 <NMI_Handler>:
     864:	e7fe      	b.n	864 <NMI_Handler>

00000866 <HardFault_Handler>:
     866:	e7fe      	b.n	866 <HardFault_Handler>

00000868 <MemManage_Handler>:
     868:	e7fe      	b.n	868 <MemManage_Handler>

0000086a <BusFault_Handler>:
     86a:	e7fe      	b.n	86a <BusFault_Handler>

0000086c <UsageFault_Handler>:
     86c:	e7fe      	b.n	86c <UsageFault_Handler>

0000086e <SVC_Handler>:
     86e:	e7fe      	b.n	86e <SVC_Handler>

00000870 <DebugMon_Handler>:
     870:	e7fe      	b.n	870 <DebugMon_Handler>

00000872 <PendSV_Handler>:
     872:	e7fe      	b.n	872 <PendSV_Handler>

00000874 <SysTick_Handler>:
     874:	e7fe      	b.n	874 <SysTick_Handler>

00000876 <DEF_IRQHandler>:
     876:	e7fe      	b.n	876 <DEF_IRQHandler>

00000878 <WDT_IRQHandler>:
     878:	e7fe      	b.n	878 <WDT_IRQHandler>

0000087a <TIMER0_IRQHandler>:
     87a:	e7fe      	b.n	87a <TIMER0_IRQHandler>

0000087c <TIMER1_IRQHandler>:
     87c:	e7fe      	b.n	87c <TIMER1_IRQHandler>

0000087e <TIMER2_IRQHandler>:
     87e:	e7fe      	b.n	87e <TIMER2_IRQHandler>

00000880 <TIMER3_IRQHandler>:
     880:	e7fe      	b.n	880 <TIMER3_IRQHandler>

00000882 <UART0_IRQHandler>:
     882:	e7fe      	b.n	882 <UART0_IRQHandler>

00000884 <UART1_IRQHandler>:
     884:	e7fe      	b.n	884 <UART1_IRQHandler>

00000886 <UART2_IRQHandler>:
     886:	e7fe      	b.n	886 <UART2_IRQHandler>

00000888 <UART3_IRQHandler>:
     888:	e7fe      	b.n	888 <UART3_IRQHandler>

0000088a <PWM1_IRQHandler>:
     88a:	e7fe      	b.n	88a <PWM1_IRQHandler>

0000088c <I2C0_IRQHandler>:
     88c:	e7fe      	b.n	88c <I2C0_IRQHandler>

0000088e <I2C1_IRQHandler>:
     88e:	e7fe      	b.n	88e <I2C1_IRQHandler>

00000890 <I2C2_IRQHandler>:
     890:	e7fe      	b.n	890 <I2C2_IRQHandler>

00000892 <SPI_IRQHandler>:
     892:	e7fe      	b.n	892 <SPI_IRQHandler>

00000894 <SSP0_IRQHandler>:
     894:	e7fe      	b.n	894 <SSP0_IRQHandler>

00000896 <SSP1_IRQHandler>:
     896:	e7fe      	b.n	896 <SSP1_IRQHandler>

00000898 <PLL0_IRQHandler>:
     898:	e7fe      	b.n	898 <PLL0_IRQHandler>

0000089a <RTC_IRQHandler>:
     89a:	e7fe      	b.n	89a <RTC_IRQHandler>

0000089c <EINT0_IRQHandler>:
     89c:	e7fe      	b.n	89c <EINT0_IRQHandler>

0000089e <EINT1_IRQHandler>:
     89e:	e7fe      	b.n	89e <EINT1_IRQHandler>

000008a0 <EINT2_IRQHandler>:
     8a0:	e7fe      	b.n	8a0 <EINT2_IRQHandler>

000008a2 <EINT3_IRQHandler>:
     8a2:	e7fe      	b.n	8a2 <EINT3_IRQHandler>

000008a4 <ADC_IRQHandler>:
     8a4:	e7fe      	b.n	8a4 <ADC_IRQHandler>

000008a6 <BOD_IRQHandler>:
     8a6:	e7fe      	b.n	8a6 <BOD_IRQHandler>

000008a8 <USB_IRQHandler>:
     8a8:	e7fe      	b.n	8a8 <USB_IRQHandler>

000008aa <CAN_IRQHandler>:
     8aa:	e7fe      	b.n	8aa <CAN_IRQHandler>

000008ac <DMA_IRQHandler>:
     8ac:	e7fe      	b.n	8ac <DMA_IRQHandler>

000008ae <I2S_IRQHandler>:
     8ae:	e7fe      	b.n	8ae <I2S_IRQHandler>

000008b0 <ENET_IRQHandler>:
     8b0:	e7fe      	b.n	8b0 <ENET_IRQHandler>

000008b2 <RIT_IRQHandler>:
     8b2:	e7fe      	b.n	8b2 <RIT_IRQHandler>

000008b4 <MCPWM_IRQHandler>:
     8b4:	e7fe      	b.n	8b4 <MCPWM_IRQHandler>

000008b6 <QEI_IRQHandler>:
     8b6:	e7fe      	b.n	8b6 <QEI_IRQHandler>

000008b8 <PLL1_IRQHandler>:
     8b8:	e7fe      	b.n	8b8 <PLL1_IRQHandler>

000008ba <USBActivity_IRQHandler>:
     8ba:	e7fe      	b.n	8ba <USBActivity_IRQHandler>

000008bc <CANActivity_IRQHandler>:
     8bc:	e7fe      	b.n	8bc <CANActivity_IRQHandler>
     8be:	bf00      	nop

000008c0 <NVIC_SetVector>:
     8c0:	f44f 436d 	mov.w	r3, #60672	; 0xed00
     8c4:	f2ce 0300 	movt	r3, #57344	; 0xe000
     8c8:	689a      	ldr	r2, [r3, #8]
     8ca:	b470      	push	{r4, r5, r6}
     8cc:	f1b2 5f80 	cmp.w	r2, #268435456	; 0x10000000
     8d0:	d019      	beq.n	906 <NVIC_SetVector+0x46>
     8d2:	689e      	ldr	r6, [r3, #8]
     8d4:	f04f 5580 	mov.w	r5, #268435456	; 0x10000000
     8d8:	6832      	ldr	r2, [r6, #0]
     8da:	f1c6 5480 	rsb	r4, r6, #268435456	; 0x10000000
     8de:	4633      	mov	r3, r6
     8e0:	3404      	adds	r4, #4
     8e2:	36c0      	adds	r6, #192	; 0xc0
     8e4:	602a      	str	r2, [r5, #0]
     8e6:	685d      	ldr	r5, [r3, #4]
     8e8:	1d1a      	adds	r2, r3, #4
     8ea:	50e5      	str	r5, [r4, r3]
     8ec:	689d      	ldr	r5, [r3, #8]
     8ee:	3308      	adds	r3, #8
     8f0:	42b3      	cmp	r3, r6
     8f2:	50a5      	str	r5, [r4, r2]
     8f4:	d1f7      	bne.n	8e6 <NVIC_SetVector+0x26>
     8f6:	f44f 4c6d 	mov.w	r12, #60672	; 0xed00
     8fa:	f2ce 0c00 	movt	r12, #57344	; 0xe000
     8fe:	f04f 5380 	mov.w	r3, #268435456	; 0x10000000
     902:	f8cc 3008 	str.w	r3, [r12, #8]
     906:	f100 0010 	add.w	r0, r0, #16
     90a:	0082      	lsls	r2, r0, #2
     90c:	f102 5c80 	add.w	r12, r2, #268435456	; 0x10000000
     910:	f8cc 1000 	str.w	r1, [r12]
     914:	bc70      	pop	{r4, r5, r6}
     916:	4770      	bx	lr

00000918 <SystemInit>:
     918:	f44f 4240 	mov.w	r2, #49152	; 0xc000
     91c:	f2c4 020f 	movt	r2, #16399	; 0x400f
     920:	2320      	movs	r3, #32
     922:	b430      	push	{r4, r5}
     924:	f8c2 31a0 	str.w	r3, [r2, #416]	; 0x1a0
     928:	f8d2 01a0 	ldr.w	r0, [r2, #416]	; 0x1a0
     92c:	0680      	lsls	r0, r0, #26
     92e:	d456      	bmi.n	9de <SystemInit+0xc6>
     930:	f44f 4c40 	mov.w	r12, #49152	; 0xc000
     934:	f2c4 0c0f 	movt	r12, #16399	; 0x400f
     938:	2500      	movs	r5, #0
     93a:	2002      	movs	r0, #2
     93c:	f8cc 0104 	str.w	r0, [r12, #260]	; 0x104
     940:	2401      	movs	r4, #1
     942:	f8cc 51a8 	str.w	r5, [r12, #424]	; 0x1a8
     946:	23aa      	movs	r3, #170	; 0xaa
     948:	f8cc 51ac 	str.w	r5, [r12, #428]	; 0x1ac
     94c:	2255      	movs	r2, #85	; 0x55
     94e:	250b      	movs	r5, #11
     950:	f8cc 410c 	str.w	r4, [r12, #268]	; 0x10c
     954:	4661      	mov	r1, r12
     956:	f8cc 5084 	str.w	r5, [r12, #132]	; 0x84
     95a:	f8cc 308c 	str.w	r3, [r12, #140]	; 0x8c
     95e:	f8cc 208c 	str.w	r2, [r12, #140]	; 0x8c
     962:	f8cc 4080 	str.w	r4, [r12, #128]	; 0x80
     966:	f8cc 308c 	str.w	r3, [r12, #140]	; 0x8c
     96a:	f8cc 208c 	str.w	r2, [r12, #140]	; 0x8c
     96e:	f8d1 2088 	ldr.w	r2, [r1, #136]	; 0x88
     972:	f44f 4c40 	mov.w	r12, #49152	; 0xc000
     976:	0152      	lsls	r2, r2, #5
     978:	f2c4 0c0f 	movt	r12, #16399	; 0x400f
     97c:	d5f7      	bpl.n	96e <SystemInit+0x56>
     97e:	2303      	movs	r3, #3
     980:	21aa      	movs	r1, #170	; 0xaa
     982:	2255      	movs	r2, #85	; 0x55
     984:	f8cc 3080 	str.w	r3, [r12, #128]	; 0x80
     988:	4660      	mov	r0, r12
     98a:	f8cc 108c 	str.w	r1, [r12, #140]	; 0x8c
     98e:	f8cc 208c 	str.w	r2, [r12, #140]	; 0x8c
     992:	f8d0 1088 	ldr.w	r1, [r0, #136]	; 0x88
     996:	f44f 4c40 	mov.w	r12, #49152	; 0xc000
     99a:	f011 7f40 	tst.w	r1, #50331648	; 0x3000000
     99e:	f2c4 0c0f 	movt	r12, #16399	; 0x400f
     9a2:	d0f6      	beq.n	992 <SystemInit+0x7a>
     9a4:	f248 73de 	movw	r3, #34782	; 0x87de
     9a8:	f2c0 4328 	movt	r3, #1064	; 0x428
     9ac:	2005      	movs	r0, #5
     9ae:	2200      	movs	r2, #0
     9b0:	f8cc 0108 	str.w	r0, [r12, #264]	; 0x108
     9b4:	f8cc 30c4 	str.w	r3, [r12, #196]	; 0xc4
     9b8:	f8cc 21c8 	str.w	r2, [r12, #456]	; 0x1c8
     9bc:	f8dc 1000 	ldr.w	r1, [r12]
     9c0:	f421 4370 	bic.w	r3, r1, #61440	; 0xf000
     9c4:	f023 003a 	bic.w	r0, r3, #58	; 0x3a
     9c8:	f440 5240 	orr.w	r2, r0, #12288	; 0x3000
     9cc:	4b08      	ldr	r3, [pc, #32]	; (9f0 <SystemInit+0xd8>)
     9ce:	f042 013a 	orr.w	r1, r2, #58	; 0x3a
     9d2:	2001      	movs	r0, #1
     9d4:	f8cc 1000 	str.w	r1, [r12]
     9d8:	6018      	str	r0, [r3, #0]
     9da:	bc30      	pop	{r4, r5}
     9dc:	4770      	bx	lr
     9de:	f8d2 11a0 	ldr.w	r1, [r2, #416]	; 0x1a0
     9e2:	0649      	lsls	r1, r1, #25
     9e4:	d4a4      	bmi.n	930 <SystemInit+0x18>
     9e6:	f8d2 11a0 	ldr.w	r1, [r2, #416]	; 0x1a0
     9ea:	0649      	lsls	r1, r1, #25
     9ec:	d5f7      	bpl.n	9de <SystemInit+0xc6>
     9ee:	e79f      	b.n	930 <SystemInit+0x18>
     9f0:	10000564 	.word	0x10000564

000009f4 <gpio_set>:
     9f4:	b510      	push	{r4, lr}
     9f6:	2100      	movs	r1, #0
     9f8:	4604      	mov	r4, r0
     9fa:	f004 041f 	and.w	r4, r4, #31
     9fe:	f000 f843 	bl	a88 <pin_function>
     a02:	2001      	movs	r0, #1
     a04:	fa00 f004 	lsl.w	r0, r0, r4
     a08:	bd10      	pop	{r4, pc}
     a0a:	bf00      	nop

00000a0c <gpio_dir>:
     a0c:	b931      	cbnz	r1, a1c <gpio_dir+0x10>
     a0e:	6883      	ldr	r3, [r0, #8]
     a10:	6841      	ldr	r1, [r0, #4]
     a12:	681a      	ldr	r2, [r3, #0]
     a14:	ea22 0001 	bic.w	r0, r2, r1
     a18:	6018      	str	r0, [r3, #0]
     a1a:	4770      	bx	lr
     a1c:	2901      	cmp	r1, #1
     a1e:	d000      	beq.n	a22 <gpio_dir+0x16>
     a20:	4770      	bx	lr
     a22:	6883      	ldr	r3, [r0, #8]
     a24:	6842      	ldr	r2, [r0, #4]
     a26:	6819      	ldr	r1, [r3, #0]
     a28:	ea41 0002 	orr.w	r0, r1, r2
     a2c:	6018      	str	r0, [r3, #0]
     a2e:	4770      	bx	lr

00000a30 <gpio_init>:
     a30:	b5f8      	push	{r3, r4, r5, r6, r7, lr}
     a32:	1c4b      	adds	r3, r1, #1
     a34:	460d      	mov	r5, r1
     a36:	4604      	mov	r4, r0
     a38:	4616      	mov	r6, r2
     a3a:	d01d      	beq.n	a78 <gpio_init+0x48>
     a3c:	6021      	str	r1, [r4, #0]
     a3e:	4608      	mov	r0, r1
     a40:	f7ff ffd8 	bl	9f4 <gpio_set>
     a44:	f025 031f 	bic.w	r3, r5, #31
     a48:	f103 011c 	add.w	r1, r3, #28
     a4c:	f103 0718 	add.w	r7, r3, #24
     a50:	f103 0214 	add.w	r2, r3, #20
     a54:	6060      	str	r0, [r4, #4]
     a56:	6121      	str	r1, [r4, #16]
     a58:	60e7      	str	r7, [r4, #12]
     a5a:	6162      	str	r2, [r4, #20]
     a5c:	60a3      	str	r3, [r4, #8]
     a5e:	4620      	mov	r0, r4
     a60:	4631      	mov	r1, r6
     a62:	f7ff ffd3 	bl	a0c <gpio_dir>
     a66:	b92e      	cbnz	r6, a74 <gpio_init+0x44>
     a68:	4628      	mov	r0, r5
     a6a:	2103      	movs	r1, #3
     a6c:	e8bd 40f8 	ldmia.w	sp!, {r3, r4, r5, r6, r7, lr}
     a70:	f000 b82c 	b.w	acc <pin_mode>
     a74:	2e01      	cmp	r6, #1
     a76:	d000      	beq.n	a7a <gpio_init+0x4a>
     a78:	bdf8      	pop	{r3, r4, r5, r6, r7, pc}
     a7a:	4628      	mov	r0, r5
     a7c:	2102      	movs	r1, #2
     a7e:	e8bd 40f8 	ldmia.w	sp!, {r3, r4, r5, r6, r7, lr}
     a82:	f000 b823 	b.w	acc <pin_mode>
     a86:	bf00      	nop

00000a88 <pin_function>:
     a88:	1c43      	adds	r3, r0, #1
     a8a:	b410      	push	{r4}
     a8c:	d01b      	beq.n	ac6 <pin_function+0x3e>
     a8e:	f100 4060 	add.w	r0, r0, #3758096384	; 0xe0000000
     a92:	f5a0 241c 	sub.w	r4, r0, #638976	; 0x9c000
     a96:	f004 030f 	and.w	r3, r4, #15
     a9a:	0058      	lsls	r0, r3, #1
     a9c:	2203      	movs	r2, #3
     a9e:	fa02 fc00 	lsl.w	r12, r2, r0
     aa2:	fa01 f100 	lsl.w	r1, r1, r0
     aa6:	f44f 4340 	mov.w	r3, #49152	; 0xc000
     aaa:	0920      	lsrs	r0, r4, #4
     aac:	f2c4 0302 	movt	r3, #16386	; 0x4002
     ab0:	f853 4020 	ldr.w	r4, [r3, r0, lsl #2]
     ab4:	ea24 020c 	bic.w	r2, r4, r12
     ab8:	f843 2020 	str.w	r2, [r3, r0, lsl #2]
     abc:	f853 2020 	ldr.w	r2, [r3, r0, lsl #2]
     ac0:	4311      	orrs	r1, r2
     ac2:	f843 1020 	str.w	r1, [r3, r0, lsl #2]
     ac6:	bc10      	pop	{r4}
     ac8:	4770      	bx	lr
     aca:	bf00      	nop

00000acc <pin_mode>:
     acc:	1c42      	adds	r2, r0, #1
     ace:	b470      	push	{r4, r5, r6}
     ad0:	d032      	beq.n	b38 <pin_mode+0x6c>
     ad2:	f100 4060 	add.w	r0, r0, #3758096384	; 0xe0000000
     ad6:	f5a0 201c 	sub.w	r0, r0, #638976	; 0x9c000
     ada:	f000 051f 	and.w	r5, r0, #31
     ade:	f3c1 0480 	ubfx	r4, r1, #2, #1
     ae2:	fa04 fc05 	lsl.w	r12, r4, r5
     ae6:	0942      	lsrs	r2, r0, #5
     ae8:	f44f 4340 	mov.w	r3, #49152	; 0xc000
     aec:	f2c4 0302 	movt	r3, #16386	; 0x4002
     af0:	321a      	adds	r2, #26
     af2:	f853 6022 	ldr.w	r6, [r3, r2, lsl #2]
     af6:	ea26 050c 	bic.w	r5, r6, r12
     afa:	f843 5022 	str.w	r5, [r3, r2, lsl #2]
     afe:	f853 6022 	ldr.w	r6, [r3, r2, lsl #2]
     b02:	ea46 050c 	orr.w	r5, r6, r12
     b06:	f843 5022 	str.w	r5, [r3, r2, lsl #2]
     b0a:	b9ac      	cbnz	r4, b38 <pin_mode+0x6c>
     b0c:	f000 040f 	and.w	r4, r0, #15
     b10:	0062      	lsls	r2, r4, #1
     b12:	2503      	movs	r5, #3
     b14:	fa05 f502 	lsl.w	r5, r5, r2
     b18:	fa01 fc02 	lsl.w	r12, r1, r2
     b1c:	0900      	lsrs	r0, r0, #4
     b1e:	3010      	adds	r0, #16
     b20:	f853 1020 	ldr.w	r1, [r3, r0, lsl #2]
     b24:	ea21 0405 	bic.w	r4, r1, r5
     b28:	f843 4020 	str.w	r4, [r3, r0, lsl #2]
     b2c:	f853 4020 	ldr.w	r4, [r3, r0, lsl #2]
     b30:	ea4c 0204 	orr.w	r2, r12, r4
     b34:	f843 2020 	str.w	r2, [r3, r0, lsl #2]
     b38:	bc70      	pop	{r4, r5, r6}
     b3a:	4770      	bx	lr

00000b3c <exit>:
     b3c:	b510      	push	{r4, lr}
     b3e:	4604      	mov	r4, r0
     b40:	f000 f80a 	bl	b58 <mbed_interface_connected>
     b44:	b920      	cbnz	r0, b50 <exit+0x14>
     b46:	b904      	cbnz	r4, b4a <exit+0xe>
     b48:	e7fe      	b.n	b48 <exit+0xc>
     b4a:	f000 f97d 	bl	e48 <mbed_die>
     b4e:	e7fb      	b.n	b48 <exit+0xc>
     b50:	f000 f804 	bl	b5c <semihost_exit>
     b54:	e7f7      	b.n	b46 <exit+0xa>
     b56:	bf00      	nop

00000b58 <mbed_interface_connected>:
     b58:	f000 b9b8 	b.w	ecc <semihost_connected>

00000b5c <semihost_exit>:
     b5c:	b530      	push	{r4, r5, lr}
     b5e:	b085      	sub	sp, #20
     b60:	466d      	mov	r5, sp
     b62:	2418      	movs	r4, #24
     b64:	4620      	mov	r0, r4
     b66:	4629      	mov	r1, r5
     b68:	beab      	bkpt	0x00ab
     b6a:	4604      	mov	r4, r0
     b6c:	4620      	mov	r0, r4
     b6e:	b005      	add	sp, #20
     b70:	bd30      	pop	{r4, r5, pc}
     b72:	bf00      	nop

00000b74 <wait_us>:
     b74:	b538      	push	{r3, r4, r5, lr}
     b76:	4605      	mov	r5, r0
     b78:	f000 fc66 	bl	1448 <us_ticker_read>
     b7c:	4604      	mov	r4, r0
     b7e:	f000 fc63 	bl	1448 <us_ticker_read>
     b82:	1b00      	subs	r0, r0, r4
     b84:	42a8      	cmp	r0, r5
     b86:	d3fa      	bcc.n	b7e <wait_us+0xa>
     b88:	bd38      	pop	{r3, r4, r5, pc}
     b8a:	bf00      	nop

00000b8c <wait_ms>:
     b8c:	f44f 737a 	mov.w	r3, #1000	; 0x3e8
     b90:	fb03 f000 	mul.w	r0, r3, r0
     b94:	f7ff bfee 	b.w	b74 <wait_us>

00000b98 <wait>:
     b98:	b508      	push	{r3, lr}
     b9a:	f001 f817 	bl	1bcc <__aeabi_f2d>
     b9e:	a306      	add	r3, pc, #24	; (adr r3, bb8 <wait+0x20>)
     ba0:	e9d3 2300 	ldrd	r2, r3, [r3]
     ba4:	f001 f866 	bl	1c74 <__aeabi_dmul>
     ba8:	f001 fafe 	bl	21a8 <__aeabi_d2iz>
     bac:	e8bd 4008 	ldmia.w	sp!, {r3, lr}
     bb0:	f7ff bfe0 	b.w	b74 <wait_us>
     bb4:	f3af 8000 	nop.w
     bb8:	00000000 	.word	0x00000000
     bbc:	412e8480 	.word	0x412e8480

00000bc0 <_ZN4mbed15FunctionPointerC1EPFvvE>:
     bc0:	2200      	movs	r2, #0
     bc2:	6001      	str	r1, [r0, #0]
     bc4:	6042      	str	r2, [r0, #4]
     bc6:	4770      	bx	lr

00000bc8 <_ZN4mbed15FunctionPointer6attachEPFvvE>:
     bc8:	2300      	movs	r3, #0
     bca:	6001      	str	r1, [r0, #0]
     bcc:	6043      	str	r3, [r0, #4]
     bce:	4770      	bx	lr

00000bd0 <_ZN4mbed15FunctionPointer4callEv>:
     bd0:	b508      	push	{r3, lr}
     bd2:	6803      	ldr	r3, [r0, #0]
     bd4:	4601      	mov	r1, r0
     bd6:	b10b      	cbz	r3, bdc <_ZN4mbed15FunctionPointer4callEv+0xc>
     bd8:	4798      	blx	r3
     bda:	bd08      	pop	{r3, pc}
     bdc:	6840      	ldr	r0, [r0, #4]
     bde:	b110      	cbz	r0, be6 <_ZN4mbed15FunctionPointer4callEv+0x16>
     be0:	698a      	ldr	r2, [r1, #24]
     be2:	3108      	adds	r1, #8
     be4:	4790      	blx	r2
     be6:	bd08      	pop	{r3, pc}

00000be8 <_ZL11init_serialv>:
     be8:	4b0e      	ldr	r3, [pc, #56]	; (c24 <Stack_Size+0x24>)
     bea:	b510      	push	{r4, lr}
     bec:	681c      	ldr	r4, [r3, #0]
     bee:	b104      	cbz	r4, bf2 <_ZL11init_serialv+0xa>
     bf0:	bd10      	pop	{r4, pc}
     bf2:	f24c 0102 	movw	r1, #49154	; 0xc002
     bf6:	f24c 0203 	movw	r2, #49155	; 0xc003
     bfa:	480b      	ldr	r0, [pc, #44]	; (c28 <Stack_Size+0x28>)
     bfc:	f2c2 0109 	movt	r1, #8201	; 0x2009
     c00:	f2c2 0209 	movt	r2, #8201	; 0x2009
     c04:	f000 fae4 	bl	11d0 <serial_init>
     c08:	2108      	movs	r1, #8
     c0a:	4807      	ldr	r0, [pc, #28]	; (c28 <Stack_Size+0x28>)
     c0c:	4622      	mov	r2, r4
     c0e:	2301      	movs	r3, #1
     c10:	f000 fa9a 	bl	1148 <serial_format>
     c14:	4804      	ldr	r0, [pc, #16]	; (c28 <Stack_Size+0x28>)
     c16:	f44f 5116 	mov.w	r1, #9600	; 0x2580
     c1a:	e8bd 4010 	ldmia.w	sp!, {r4, lr}
     c1e:	f000 b95f 	b.w	ee0 <serial_baud>
     c22:	bf00      	nop
     c24:	10000668 	.word	0x10000668
     c28:	10000684 	.word	0x10000684

00000c2c <_close>:
     c2c:	2802      	cmp	r0, #2
     c2e:	b508      	push	{r3, lr}
     c30:	dd0b      	ble.n	c4a <_close+0x1e>
     c32:	4b08      	ldr	r3, [pc, #32]	; (c54 <_close+0x28>)
     c34:	1ec2      	subs	r2, r0, #3
     c36:	f853 0022 	ldr.w	r0, [r3, r2, lsl #2]
     c3a:	2100      	movs	r1, #0
     c3c:	f843 1022 	str.w	r1, [r3, r2, lsl #2]
     c40:	b128      	cbz	r0, c4e <_close+0x22>
     c42:	6803      	ldr	r3, [r0, #0]
     c44:	685a      	ldr	r2, [r3, #4]
     c46:	4790      	blx	r2
     c48:	bd08      	pop	{r3, pc}
     c4a:	2000      	movs	r0, #0
     c4c:	bd08      	pop	{r3, pc}
     c4e:	f04f 30ff 	mov.w	r0, #4294967295
     c52:	bd08      	pop	{r3, pc}
     c54:	10000568 	.word	0x10000568

00000c58 <_write>:
     c58:	2802      	cmp	r0, #2
     c5a:	b5f8      	push	{r3, r4, r5, r6, r7, lr}
     c5c:	460d      	mov	r5, r1
     c5e:	4617      	mov	r7, r2
     c60:	dc28      	bgt.n	cb4 <_write+0x5c>
     c62:	491d      	ldr	r1, [pc, #116]	; (cd8 <_write+0x80>)
     c64:	680a      	ldr	r2, [r1, #0]
     c66:	2a00      	cmp	r2, #0
     c68:	d02d      	beq.n	cc6 <_write+0x6e>
     c6a:	b30f      	cbz	r7, cb0 <_write+0x58>
     c6c:	462c      	mov	r4, r5
     c6e:	19ee      	adds	r6, r5, r7
     c70:	f814 1b01 	ldrb.w	r1, [r4], #1
     c74:	43ed      	mvns	r5, r5
     c76:	19ab      	adds	r3, r5, r6
     c78:	4818      	ldr	r0, [pc, #96]	; (cdc <_write+0x84>)
     c7a:	f003 0501 	and.w	r5, r3, #1
     c7e:	f000 fbd9 	bl	1434 <serial_putc>
     c82:	42b4      	cmp	r4, r6
     c84:	d014      	beq.n	cb0 <_write+0x58>
     c86:	b135      	cbz	r5, c96 <_write+0x3e>
     c88:	f814 1b01 	ldrb.w	r1, [r4], #1
     c8c:	4813      	ldr	r0, [pc, #76]	; (cdc <_write+0x84>)
     c8e:	f000 fbd1 	bl	1434 <serial_putc>
     c92:	42b4      	cmp	r4, r6
     c94:	d00c      	beq.n	cb0 <_write+0x58>
     c96:	4625      	mov	r5, r4
     c98:	f815 1b01 	ldrb.w	r1, [r5], #1
     c9c:	480f      	ldr	r0, [pc, #60]	; (cdc <_write+0x84>)
     c9e:	f000 fbc9 	bl	1434 <serial_putc>
     ca2:	7861      	ldrb	r1, [r4, #1]
     ca4:	480d      	ldr	r0, [pc, #52]	; (cdc <_write+0x84>)
     ca6:	1c6c      	adds	r4, r5, #1
     ca8:	f000 fbc4 	bl	1434 <serial_putc>
     cac:	42b4      	cmp	r4, r6
     cae:	d1f2      	bne.n	c96 <_write+0x3e>
     cb0:	4638      	mov	r0, r7
     cb2:	bdf8      	pop	{r3, r4, r5, r6, r7, pc}
     cb4:	4b0a      	ldr	r3, [pc, #40]	; (ce0 <_write+0x88>)
     cb6:	3803      	subs	r0, #3
     cb8:	f853 0020 	ldr.w	r0, [r3, r0, lsl #2]
     cbc:	b140      	cbz	r0, cd0 <_write+0x78>
     cbe:	6803      	ldr	r3, [r0, #0]
     cc0:	681b      	ldr	r3, [r3, #0]
     cc2:	4798      	blx	r3
     cc4:	bdf8      	pop	{r3, r4, r5, r6, r7, pc}
     cc6:	f7ff ff8f 	bl	be8 <_ZL11init_serialv>
     cca:	2f00      	cmp	r7, #0
     ccc:	d1ce      	bne.n	c6c <_write+0x14>
     cce:	e7ef      	b.n	cb0 <_write+0x58>
     cd0:	f04f 30ff 	mov.w	r0, #4294967295
     cd4:	bdf8      	pop	{r3, r4, r5, r6, r7, pc}
     cd6:	bf00      	nop
     cd8:	10000668 	.word	0x10000668
     cdc:	10000684 	.word	0x10000684
     ce0:	10000568 	.word	0x10000568

00000ce4 <_read>:
     ce4:	2802      	cmp	r0, #2
     ce6:	b510      	push	{r4, lr}
     ce8:	460c      	mov	r4, r1
     cea:	dd0a      	ble.n	d02 <_read+0x1e>
     cec:	4b0a      	ldr	r3, [pc, #40]	; (d18 <_read+0x34>)
     cee:	3803      	subs	r0, #3
     cf0:	f853 0020 	ldr.w	r0, [r3, r0, lsl #2]
     cf4:	b160      	cbz	r0, d10 <_read+0x2c>
     cf6:	6803      	ldr	r3, [r0, #0]
     cf8:	689b      	ldr	r3, [r3, #8]
     cfa:	4798      	blx	r3
     cfc:	4601      	mov	r1, r0
     cfe:	4608      	mov	r0, r1
     d00:	bd10      	pop	{r4, pc}
     d02:	4806      	ldr	r0, [pc, #24]	; (d1c <_read+0x38>)
     d04:	f000 fb90 	bl	1428 <serial_getc>
     d08:	2101      	movs	r1, #1
     d0a:	7020      	strb	r0, [r4, #0]
     d0c:	4608      	mov	r0, r1
     d0e:	bd10      	pop	{r4, pc}
     d10:	f04f 31ff 	mov.w	r1, #4294967295
     d14:	e7f3      	b.n	cfe <_read+0x1a>
     d16:	bf00      	nop
     d18:	10000568 	.word	0x10000568
     d1c:	10000684 	.word	0x10000684

00000d20 <_lseek>:
     d20:	2802      	cmp	r0, #2
     d22:	b508      	push	{r3, lr}
     d24:	dd08      	ble.n	d38 <_lseek+0x18>
     d26:	4b07      	ldr	r3, [pc, #28]	; (d44 <_lseek+0x24>)
     d28:	3803      	subs	r0, #3
     d2a:	f853 0020 	ldr.w	r0, [r3, r0, lsl #2]
     d2e:	b128      	cbz	r0, d3c <_lseek+0x1c>
     d30:	6803      	ldr	r3, [r0, #0]
     d32:	691b      	ldr	r3, [r3, #16]
     d34:	4798      	blx	r3
     d36:	bd08      	pop	{r3, pc}
     d38:	2000      	movs	r0, #0
     d3a:	bd08      	pop	{r3, pc}
     d3c:	f04f 30ff 	mov.w	r0, #4294967295
     d40:	bd08      	pop	{r3, pc}
     d42:	bf00      	nop
     d44:	10000568 	.word	0x10000568

00000d48 <_fstat>:
     d48:	2802      	cmp	r0, #2
     d4a:	b508      	push	{r3, lr}
     d4c:	d804      	bhi.n	d58 <_fstat+0x10>
     d4e:	f44f 5000 	mov.w	r0, #8192	; 0x2000
     d52:	6048      	str	r0, [r1, #4]
     d54:	2000      	movs	r0, #0
     d56:	bd08      	pop	{r3, pc}
     d58:	f001 fd92 	bl	2880 <__errno>
     d5c:	2309      	movs	r3, #9
     d5e:	6003      	str	r3, [r0, #0]
     d60:	f04f 30ff 	mov.w	r0, #4294967295
     d64:	bd08      	pop	{r3, pc}
     d66:	bf00      	nop

00000d68 <_ZN4mbed6TickerD1Ev>:
     d68:	4b03      	ldr	r3, [pc, #12]	; (d78 <_ZN4mbed6TickerD1Ev+0x10>)
     d6a:	b510      	push	{r4, lr}
     d6c:	4604      	mov	r4, r0
     d6e:	6003      	str	r3, [r0, #0]
     d70:	f000 f856 	bl	e20 <_ZN4mbed10TimerEventD1Ev>
     d74:	4620      	mov	r0, r4
     d76:	bd10      	pop	{r4, pc}
     d78:	00006c98 	.word	0x00006c98

00000d7c <_ZN4mbed6Ticker7handlerEv>:
     d7c:	6843      	ldr	r3, [r0, #4]
     d7e:	6901      	ldr	r1, [r0, #16]
     d80:	b510      	push	{r4, lr}
     d82:	18c9      	adds	r1, r1, r3
     d84:	4604      	mov	r4, r0
     d86:	f000 f843 	bl	e10 <_ZN4mbed10TimerEvent6insertEj>
     d8a:	f104 0014 	add.w	r0, r4, #20
     d8e:	e8bd 4010 	ldmia.w	sp!, {r4, lr}
     d92:	f7ff bf1d 	b.w	bd0 <_ZN4mbed15FunctionPointer4callEv>
     d96:	bf00      	nop

00000d98 <_ZN4mbed6TickerD0Ev>:
     d98:	4b05      	ldr	r3, [pc, #20]	; (db0 <_ZN4mbed6TickerD0Ev+0x18>)
     d9a:	b510      	push	{r4, lr}
     d9c:	4604      	mov	r4, r0
     d9e:	6003      	str	r3, [r0, #0]
     da0:	f000 f83e 	bl	e20 <_ZN4mbed10TimerEventD1Ev>
     da4:	4620      	mov	r0, r4
     da6:	f000 fcf7 	bl	1798 <_ZdlPv>
     daa:	4620      	mov	r0, r4
     dac:	bd10      	pop	{r4, pc}
     dae:	bf00      	nop
     db0:	00006c98 	.word	0x00006c98

00000db4 <_ZN4mbed6Ticker6detachEv>:
     db4:	b510      	push	{r4, lr}
     db6:	4604      	mov	r4, r0
     db8:	f000 f82e 	bl	e18 <_ZN4mbed10TimerEvent6removeEv>
     dbc:	f104 0014 	add.w	r0, r4, #20
     dc0:	2100      	movs	r1, #0
     dc2:	e8bd 4010 	ldmia.w	sp!, {r4, lr}
     dc6:	f7ff beff 	b.w	bc8 <_ZN4mbed15FunctionPointer6attachEPFvvE>
     dca:	bf00      	nop

00000dcc <_ZN4mbed6Ticker5setupEj>:
     dcc:	b538      	push	{r3, r4, r5, lr}
     dce:	460d      	mov	r5, r1
     dd0:	4604      	mov	r4, r0
     dd2:	f000 f821 	bl	e18 <_ZN4mbed10TimerEvent6removeEv>
     dd6:	6125      	str	r5, [r4, #16]
     dd8:	f000 fb36 	bl	1448 <us_ticker_read>
     ddc:	1941      	adds	r1, r0, r5
     dde:	4620      	mov	r0, r4
     de0:	e8bd 4038 	ldmia.w	sp!, {r3, r4, r5, lr}
     de4:	f000 b814 	b.w	e10 <_ZN4mbed10TimerEvent6insertEj>

00000de8 <_ZN4mbed10TimerEvent3irqEm>:
     de8:	b508      	push	{r3, lr}
     dea:	6803      	ldr	r3, [r0, #0]
     dec:	6899      	ldr	r1, [r3, #8]
     dee:	4788      	blx	r1
     df0:	bd08      	pop	{r3, pc}
     df2:	bf00      	nop

00000df4 <_ZN4mbed10TimerEventC1Ev>:
     df4:	4b05      	ldr	r3, [pc, #20]	; (e0c <_ZN4mbed10TimerEventC1Ev+0x18>)
     df6:	b510      	push	{r4, lr}
     df8:	4604      	mov	r4, r0
     dfa:	6003      	str	r3, [r0, #0]
     dfc:	f640 50e9 	movw	r0, #3561	; 0xde9
     e00:	f2c0 0000 	movt	r0, #0
     e04:	f000 fb84 	bl	1510 <us_ticker_set_handler>
     e08:	4620      	mov	r0, r4
     e0a:	bd10      	pop	{r4, pc}
     e0c:	00006cb8 	.word	0x00006cb8

00000e10 <_ZN4mbed10TimerEvent6insertEj>:
     e10:	4602      	mov	r2, r0
     e12:	3004      	adds	r0, #4
     e14:	f000 bb90 	b.w	1538 <us_ticker_insert_event>

00000e18 <_ZN4mbed10TimerEvent6removeEv>:
     e18:	3004      	adds	r0, #4
     e1a:	f000 bbb7 	b.w	158c <us_ticker_remove_event>
     e1e:	bf00      	nop

00000e20 <_ZN4mbed10TimerEventD1Ev>:
     e20:	4b03      	ldr	r3, [pc, #12]	; (e30 <_ZN4mbed10TimerEventD1Ev+0x10>)
     e22:	b510      	push	{r4, lr}
     e24:	4604      	mov	r4, r0
     e26:	6003      	str	r3, [r0, #0]
     e28:	f7ff fff6 	bl	e18 <_ZN4mbed10TimerEvent6removeEv>
     e2c:	4620      	mov	r0, r4
     e2e:	bd10      	pop	{r4, pc}
     e30:	00006cb8 	.word	0x00006cb8

00000e34 <_ZN4mbed10TimerEventD0Ev>:
     e34:	b510      	push	{r4, lr}
     e36:	4604      	mov	r4, r0
     e38:	f7ff fff2 	bl	e20 <_ZN4mbed10TimerEventD1Ev>
     e3c:	4620      	mov	r0, r4
     e3e:	f000 fcab 	bl	1798 <_ZdlPv>
     e42:	4620      	mov	r0, r4
     e44:	bd10      	pop	{r4, pc}
     e46:	bf00      	nop

00000e48 <mbed_die>:
     e48:	b500      	push	{lr}
     e4a:	f24c 0132 	movw	r1, #49202	; 0xc032
     e4e:	b099      	sub	sp, #100	; 0x64
     e50:	4668      	mov	r0, sp
     e52:	f2c2 0109 	movt	r1, #8201	; 0x2009
     e56:	2201      	movs	r2, #1
     e58:	f7ff fdea 	bl	a30 <gpio_init>
     e5c:	f24c 0134 	movw	r1, #49204	; 0xc034
     e60:	a806      	add	r0, sp, #24
     e62:	f2c2 0109 	movt	r1, #8201	; 0x2009
     e66:	2201      	movs	r2, #1
     e68:	f7ff fde2 	bl	a30 <gpio_init>
     e6c:	f24c 0135 	movw	r1, #49205	; 0xc035
     e70:	a80c      	add	r0, sp, #48	; 0x30
     e72:	f2c2 0109 	movt	r1, #8201	; 0x2009
     e76:	2201      	movs	r2, #1
     e78:	f7ff fdda 	bl	a30 <gpio_init>
     e7c:	f24c 0137 	movw	r1, #49207	; 0xc037
     e80:	a812      	add	r0, sp, #72	; 0x48
     e82:	f2c2 0109 	movt	r1, #8201	; 0x2009
     e86:	2201      	movs	r2, #1
     e88:	f7ff fdd2 	bl	a30 <gpio_init>
     e8c:	9a01      	ldr	r2, [sp, #4]
     e8e:	9b03      	ldr	r3, [sp, #12]
     e90:	990a      	ldr	r1, [sp, #40]	; 0x28
     e92:	601a      	str	r2, [r3, #0]
     e94:	9807      	ldr	r0, [sp, #28]
     e96:	9b10      	ldr	r3, [sp, #64]	; 0x40
     e98:	6008      	str	r0, [r1, #0]
     e9a:	9a0d      	ldr	r2, [sp, #52]	; 0x34
     e9c:	2096      	movs	r0, #150	; 0x96
     e9e:	601a      	str	r2, [r3, #0]
     ea0:	9913      	ldr	r1, [sp, #76]	; 0x4c
     ea2:	9a15      	ldr	r2, [sp, #84]	; 0x54
     ea4:	6011      	str	r1, [r2, #0]
     ea6:	f7ff fe71 	bl	b8c <wait_ms>
     eaa:	9801      	ldr	r0, [sp, #4]
     eac:	9b04      	ldr	r3, [sp, #16]
     eae:	9a09      	ldr	r2, [sp, #36]	; 0x24
     eb0:	6018      	str	r0, [r3, #0]
     eb2:	9907      	ldr	r1, [sp, #28]
     eb4:	9b0f      	ldr	r3, [sp, #60]	; 0x3c
     eb6:	6011      	str	r1, [r2, #0]
     eb8:	980d      	ldr	r0, [sp, #52]	; 0x34
     eba:	9a16      	ldr	r2, [sp, #88]	; 0x58
     ebc:	6018      	str	r0, [r3, #0]
     ebe:	9913      	ldr	r1, [sp, #76]	; 0x4c
     ec0:	2096      	movs	r0, #150	; 0x96
     ec2:	6011      	str	r1, [r2, #0]
     ec4:	f7ff fe62 	bl	b8c <wait_ms>
     ec8:	e7e0      	b.n	e8c <mbed_die+0x44>
     eca:	bf00      	nop

00000ecc <semihost_connected>:
     ecc:	f64e 53f0 	movw	r3, #60912	; 0xedf0
     ed0:	f2ce 0300 	movt	r3, #57344	; 0xe000
     ed4:	6818      	ldr	r0, [r3, #0]
     ed6:	f000 0001 	and.w	r0, r0, #1
     eda:	4770      	bx	lr
     edc:	0000      	movs	r0, r0
	...

00000ee0 <serial_baud>:
     ee0:	e92d 4ff0 	stmdb	sp!, {r4, r5, r6, r7, r8, r9, r10, r11, lr}
     ee4:	2300      	movs	r3, #0
     ee6:	6804      	ldr	r4, [r0, #0]
     ee8:	f2c4 0301 	movt	r3, #16385	; 0x4001
     eec:	b08b      	sub	sp, #44	; 0x2c
     eee:	429c      	cmp	r4, r3
     ef0:	9009      	str	r0, [sp, #36]	; 0x24
     ef2:	f000 80fb 	beq.w	10ec <serial_baud+0x20c>
     ef6:	f340 80d9 	ble.w	10ac <serial_baud+0x1cc>
     efa:	f44f 4c00 	mov.w	r12, #32768	; 0x8000
     efe:	f2c4 0c09 	movt	r12, #16393	; 0x4009
     f02:	4564      	cmp	r4, r12
     f04:	f44f 4340 	mov.w	r3, #49152	; 0xc000
     f08:	f000 80e1 	beq.w	10ce <serial_baud+0x1ee>
     f0c:	f2c4 0309 	movt	r3, #16393	; 0x4009
     f10:	429c      	cmp	r4, r3
     f12:	f040 80d1 	bne.w	10b8 <serial_baud+0x1d8>
     f16:	f44f 4040 	mov.w	r0, #49152	; 0xc000
     f1a:	f2c4 000f 	movt	r0, #16399	; 0x400f
     f1e:	f8d0 21ac 	ldr.w	r2, [r0, #428]	; 0x1ac
     f22:	f422 2340 	bic.w	r3, r2, #786432	; 0xc0000
     f26:	f8c0 31ac 	str.w	r3, [r0, #428]	; 0x1ac
     f2a:	f8d0 21ac 	ldr.w	r2, [r0, #428]	; 0x1ac
     f2e:	f442 2380 	orr.w	r3, r2, #262144	; 0x40000
     f32:	f8c0 31ac 	str.w	r3, [r0, #428]	; 0x1ac
     f36:	4880      	ldr	r0, [pc, #512]	; (1138 <serial_baud+0x258>)
     f38:	010a      	lsls	r2, r1, #4
     f3a:	6803      	ldr	r3, [r0, #0]
     f3c:	9308      	str	r3, [sp, #32]
     f3e:	9808      	ldr	r0, [sp, #32]
     f40:	fbb3 fcf2 	udiv	r12, r3, r2
     f44:	fb02 021c 	mls	r2, r2, r12, r0
     f48:	fa1f f38c 	uxth.w	r3, r12
     f4c:	9307      	str	r3, [sp, #28]
     f4e:	2a00      	cmp	r2, #0
     f50:	f000 80bb 	beq.w	10ca <serial_baud+0x1ea>
     f54:	4608      	mov	r0, r1
     f56:	0859      	lsrs	r1, r3, #1
     f58:	9102      	str	r1, [sp, #8]
     f5a:	f001 fa57 	bl	240c <__aeabi_i2f>
     f5e:	9a02      	ldr	r2, [sp, #8]
     f60:	4683      	mov	r11, r0
     f62:	9807      	ldr	r0, [sp, #28]
     f64:	4290      	cmp	r0, r2
     f66:	f0c0 80b0 	bcc.w	10ca <serial_baud+0x1ea>
     f6a:	9f07      	ldr	r7, [sp, #28]
     f6c:	2401      	movs	r4, #1
     f6e:	2100      	movs	r1, #0
     f70:	46da      	mov	r10, r11
     f72:	9703      	str	r7, [sp, #12]
     f74:	9405      	str	r4, [sp, #20]
     f76:	9104      	str	r1, [sp, #16]
     f78:	f04f 0901 	mov.w	r9, #1
     f7c:	f109 0201 	add.w	r2, r9, #1
     f80:	fa5f f982 	uxtb.w	r9, r2
     f84:	2000      	movs	r0, #0
     f86:	f1b9 0f10 	cmp.w	r9, #16
     f8a:	9006      	str	r0, [sp, #24]
     f8c:	9f08      	ldr	r7, [sp, #32]
     f8e:	d061      	beq.n	1054 <serial_baud+0x174>
     f90:	9802      	ldr	r0, [sp, #8]
     f92:	f001 fa37 	bl	2404 <__aeabi_ui2f>
     f96:	f000 fe19 	bl	1bcc <__aeabi_f2d>
     f9a:	2300      	movs	r3, #0
     f9c:	2200      	movs	r2, #0
     f9e:	f2c4 0330 	movt	r3, #16432	; 0x4030
     fa2:	f000 fe67 	bl	1c74 <__aeabi_dmul>
     fa6:	e9cd 0100 	strd	r0, r1, [sp]
     faa:	2601      	movs	r6, #1
     fac:	4638      	mov	r0, r7
     fae:	f001 fa29 	bl	2404 <__aeabi_ui2f>
     fb2:	f000 fe0b 	bl	1bcc <__aeabi_f2d>
     fb6:	4604      	mov	r4, r0
     fb8:	4630      	mov	r0, r6
     fba:	460d      	mov	r5, r1
     fbc:	f001 fa22 	bl	2404 <__aeabi_ui2f>
     fc0:	4680      	mov	r8, r0
     fc2:	4648      	mov	r0, r9
     fc4:	f001 fa1e 	bl	2404 <__aeabi_ui2f>
     fc8:	4601      	mov	r1, r0
     fca:	4640      	mov	r0, r8
     fcc:	f001 fb26 	bl	261c <__aeabi_fdiv>
     fd0:	f04f 517e 	mov.w	r1, #1065353216	; 0x3f800000
     fd4:	f001 f966 	bl	22a4 <__addsf3>
     fd8:	f000 fdf8 	bl	1bcc <__aeabi_f2d>
     fdc:	4602      	mov	r2, r0
     fde:	460b      	mov	r3, r1
     fe0:	e9dd 0100 	ldrd	r0, r1, [sp]
     fe4:	f000 fe46 	bl	1c74 <__aeabi_dmul>
     fe8:	4602      	mov	r2, r0
     fea:	460b      	mov	r3, r1
     fec:	4620      	mov	r0, r4
     fee:	4629      	mov	r1, r5
     ff0:	f000 ff6a 	bl	1ec8 <__aeabi_ddiv>
     ff4:	f001 f900 	bl	21f8 <__aeabi_d2f>
     ff8:	4601      	mov	r1, r0
     ffa:	4658      	mov	r0, r11
     ffc:	f001 f950 	bl	22a0 <__aeabi_fsub>
    1000:	4659      	mov	r1, r11
    1002:	f001 fb0b 	bl	261c <__aeabi_fdiv>
    1006:	f000 fde1 	bl	1bcc <__aeabi_f2d>
    100a:	f005 fdf3 	bl	6bf4 <fabs>
    100e:	f001 f8f3 	bl	21f8 <__aeabi_d2f>
    1012:	4651      	mov	r1, r10
    1014:	4604      	mov	r4, r0
    1016:	f001 fbeb 	bl	27f0 <__aeabi_fcmplt>
    101a:	b180      	cbz	r0, 103e <serial_baud+0x15e>
    101c:	4620      	mov	r0, r4
    101e:	f000 fdd5 	bl	1bcc <__aeabi_f2d>
    1022:	a343      	add	r3, pc, #268	; (adr r3, 1130 <serial_baud+0x250>)
    1024:	e9d3 2300 	ldrd	r2, r3, [r3]
    1028:	f001 f896 	bl	2158 <__aeabi_dcmplt>
    102c:	9a02      	ldr	r2, [sp, #8]
    102e:	46a2      	mov	r10, r4
    1030:	f8cd 9014 	str.w	r9, [sp, #20]
    1034:	9604      	str	r6, [sp, #16]
    1036:	9203      	str	r2, [sp, #12]
    1038:	b108      	cbz	r0, 103e <serial_baud+0x15e>
    103a:	2301      	movs	r3, #1
    103c:	9306      	str	r3, [sp, #24]
    103e:	3601      	adds	r6, #1
    1040:	b2f6      	uxtb	r6, r6
    1042:	454e      	cmp	r6, r9
    1044:	d1b2      	bne.n	fac <serial_baud+0xcc>
    1046:	f109 0201 	add.w	r2, r9, #1
    104a:	fa5f f982 	uxtb.w	r9, r2
    104e:	f1b9 0f10 	cmp.w	r9, #16
    1052:	d19d      	bne.n	f90 <serial_baud+0xb0>
    1054:	9b02      	ldr	r3, [sp, #8]
    1056:	9807      	ldr	r0, [sp, #28]
    1058:	1c5c      	adds	r4, r3, #1
    105a:	b2a1      	uxth	r1, r4
    105c:	4288      	cmp	r0, r1
    105e:	9102      	str	r1, [sp, #8]
    1060:	d302      	bcc.n	1068 <serial_baud+0x188>
    1062:	9a06      	ldr	r2, [sp, #24]
    1064:	2a00      	cmp	r2, #0
    1066:	d087      	beq.n	f78 <serial_baud+0x98>
    1068:	9b04      	ldr	r3, [sp, #16]
    106a:	9c05      	ldr	r4, [sp, #20]
    106c:	9a09      	ldr	r2, [sp, #36]	; 0x24
    106e:	9803      	ldr	r0, [sp, #12]
    1070:	ea43 1104 	orr.w	r1, r3, r4, lsl #4
    1074:	6814      	ldr	r4, [r2, #0]
    1076:	b2cb      	uxtb	r3, r1
    1078:	9007      	str	r0, [sp, #28]
    107a:	f894 c00c 	ldrb.w	r12, [r4, #12]
    107e:	9907      	ldr	r1, [sp, #28]
    1080:	f04c 0280 	orr.w	r2, r12, #128	; 0x80
    1084:	7322      	strb	r2, [r4, #12]
    1086:	9c09      	ldr	r4, [sp, #36]	; 0x24
    1088:	0a08      	lsrs	r0, r1, #8
    108a:	6822      	ldr	r2, [r4, #0]
    108c:	9c09      	ldr	r4, [sp, #36]	; 0x24
    108e:	7110      	strb	r0, [r2, #4]
    1090:	6820      	ldr	r0, [r4, #0]
    1092:	b2c9      	uxtb	r1, r1
    1094:	7001      	strb	r1, [r0, #0]
    1096:	6822      	ldr	r2, [r4, #0]
    1098:	f882 3028 	strb.w	r3, [r2, #40]	; 0x28
    109c:	6823      	ldr	r3, [r4, #0]
    109e:	7b19      	ldrb	r1, [r3, #12]
    10a0:	f001 007f 	and.w	r0, r1, #127	; 0x7f
    10a4:	7318      	strb	r0, [r3, #12]
    10a6:	b00b      	add	sp, #44	; 0x2c
    10a8:	e8bd 8ff0 	ldmia.w	sp!, {r4, r5, r6, r7, r8, r9, r10, r11, pc}
    10ac:	f44f 4040 	mov.w	r0, #49152	; 0xc000
    10b0:	f2c4 0000 	movt	r0, #16384	; 0x4000
    10b4:	4284      	cmp	r4, r0
    10b6:	d02a      	beq.n	110e <serial_baud+0x22e>
    10b8:	4d20      	ldr	r5, [pc, #128]	; (113c <serial_baud+0x25c>)
    10ba:	4921      	ldr	r1, [pc, #132]	; (1140 <serial_baud+0x260>)
    10bc:	682e      	ldr	r6, [r5, #0]
    10be:	68f0      	ldr	r0, [r6, #12]
    10c0:	f001 fbe4 	bl	288c <fiprintf>
    10c4:	2001      	movs	r0, #1
    10c6:	f7ff fd39 	bl	b3c <exit>
    10ca:	2310      	movs	r3, #16
    10cc:	e7d5      	b.n	107a <serial_baud+0x19a>
    10ce:	f2c4 030f 	movt	r3, #16399	; 0x400f
    10d2:	f8d3 01ac 	ldr.w	r0, [r3, #428]	; 0x1ac
    10d6:	f420 3240 	bic.w	r2, r0, #196608	; 0x30000
    10da:	f8c3 21ac 	str.w	r2, [r3, #428]	; 0x1ac
    10de:	f8d3 01ac 	ldr.w	r0, [r3, #428]	; 0x1ac
    10e2:	f440 3280 	orr.w	r2, r0, #65536	; 0x10000
    10e6:	f8c3 21ac 	str.w	r2, [r3, #428]	; 0x1ac
    10ea:	e724      	b.n	f36 <serial_baud+0x56>
    10ec:	f44f 4c40 	mov.w	r12, #49152	; 0xc000
    10f0:	f2c4 0c0f 	movt	r12, #16399	; 0x400f
    10f4:	f8dc 31a8 	ldr.w	r3, [r12, #424]	; 0x1a8
    10f8:	f423 7040 	bic.w	r0, r3, #768	; 0x300
    10fc:	f8cc 01a8 	str.w	r0, [r12, #424]	; 0x1a8
    1100:	f8dc 21a8 	ldr.w	r2, [r12, #424]	; 0x1a8
    1104:	f442 7380 	orr.w	r3, r2, #256	; 0x100
    1108:	f8cc 31a8 	str.w	r3, [r12, #424]	; 0x1a8
    110c:	e713      	b.n	f36 <serial_baud+0x56>
    110e:	f44f 4c40 	mov.w	r12, #49152	; 0xc000
    1112:	f2c4 0c0f 	movt	r12, #16399	; 0x400f
    1116:	f8dc 21a8 	ldr.w	r2, [r12, #424]	; 0x1a8
    111a:	f022 03c0 	bic.w	r3, r2, #192	; 0xc0
    111e:	f8cc 31a8 	str.w	r3, [r12, #424]	; 0x1a8
    1122:	f8dc 01a8 	ldr.w	r0, [r12, #424]	; 0x1a8
    1126:	f040 0240 	orr.w	r2, r0, #64	; 0x40
    112a:	f8cc 21a8 	str.w	r2, [r12, #424]	; 0x1a8
    112e:	e702      	b.n	f36 <serial_baud+0x56>
    1130:	d2f1a9fc 	.word	0xd2f1a9fc
    1134:	3f50624d 	.word	0x3f50624d
    1138:	10000470 	.word	0x10000470
    113c:	100004d8 	.word	0x100004d8
    1140:	00006d48 	.word	0x00006d48
    1144:	f3af 8000 	nop.w

00001148 <serial_format>:
    1148:	b538      	push	{r3, r4, r5, lr}
    114a:	1f4c      	subs	r4, r1, #5
    114c:	2c03      	cmp	r4, #3
    114e:	460d      	mov	r5, r1
    1150:	d82a      	bhi.n	11a8 <serial_format+0x60>
    1152:	2a04      	cmp	r2, #4
    1154:	d813      	bhi.n	117e <serial_format+0x36>
    1156:	e8df f002 	tbb	[pc, r2]
    115a:	1e1b      	.short	0x1e1b
    115c:	2421      	.short	0x2421
    115e:	03          	.byte	0x03
    115f:	00          	.byte	0x00
    1160:	2203      	movs	r2, #3
    1162:	2101      	movs	r1, #1
    1164:	3b01      	subs	r3, #1
    1166:	2b01      	cmp	r3, #1
    1168:	d828      	bhi.n	11bc <serial_format+0x74>
    116a:	ea44 0483 	orr.w	r4, r4, r3, lsl #2
    116e:	ea44 0cc1 	orr.w	r12, r4, r1, lsl #3
    1172:	6800      	ldr	r0, [r0, #0]
    1174:	ea4c 1202 	orr.w	r2, r12, r2, lsl #4
    1178:	b2d1      	uxtb	r1, r2
    117a:	7301      	strb	r1, [r0, #12]
    117c:	bd38      	pop	{r3, r4, r5, pc}
    117e:	4910      	ldr	r1, [pc, #64]	; (11c0 <serial_format+0x78>)
    1180:	4d10      	ldr	r5, [pc, #64]	; (11c4 <serial_format+0x7c>)
    1182:	682c      	ldr	r4, [r5, #0]
    1184:	68e0      	ldr	r0, [r4, #12]
    1186:	f001 fb81 	bl	288c <fiprintf>
    118a:	2001      	movs	r0, #1
    118c:	f7ff fcd6 	bl	b3c <exit>
    1190:	2200      	movs	r2, #0
    1192:	4611      	mov	r1, r2
    1194:	e7e6      	b.n	1164 <serial_format+0x1c>
    1196:	2200      	movs	r2, #0
    1198:	2101      	movs	r1, #1
    119a:	e7e3      	b.n	1164 <serial_format+0x1c>
    119c:	2201      	movs	r2, #1
    119e:	4611      	mov	r1, r2
    11a0:	e7e0      	b.n	1164 <serial_format+0x1c>
    11a2:	2202      	movs	r2, #2
    11a4:	2101      	movs	r1, #1
    11a6:	e7dd      	b.n	1164 <serial_format+0x1c>
    11a8:	4b06      	ldr	r3, [pc, #24]	; (11c4 <serial_format+0x7c>)
    11aa:	4907      	ldr	r1, [pc, #28]	; (11c8 <serial_format+0x80>)
    11ac:	6818      	ldr	r0, [r3, #0]
    11ae:	462a      	mov	r2, r5
    11b0:	68c0      	ldr	r0, [r0, #12]
    11b2:	f001 fb6b 	bl	288c <fiprintf>
    11b6:	2001      	movs	r0, #1
    11b8:	f7ff fcc0 	bl	b3c <exit>
    11bc:	4903      	ldr	r1, [pc, #12]	; (11cc <serial_format+0x84>)
    11be:	e7df      	b.n	1180 <serial_format+0x38>
    11c0:	00006d94 	.word	0x00006d94
    11c4:	100004d8 	.word	0x100004d8
    11c8:	00006d54 	.word	0x00006d54
    11cc:	00006db4 	.word	0x00006db4

000011d0 <serial_init>:
    11d0:	e92d 43f8 	stmdb	sp!, {r3, r4, r5, r6, r7, r8, r9, lr}
    11d4:	460f      	mov	r7, r1
    11d6:	4605      	mov	r5, r0
    11d8:	498d      	ldr	r1, [pc, #564]	; (1410 <serial_init+0x240>)
    11da:	4638      	mov	r0, r7
    11dc:	4616      	mov	r6, r2
    11de:	f000 fa3f 	bl	1660 <pinmap_peripheral>
    11e2:	498c      	ldr	r1, [pc, #560]	; (1414 <serial_init+0x244>)
    11e4:	4604      	mov	r4, r0
    11e6:	4630      	mov	r0, r6
    11e8:	f000 fa3a 	bl	1660 <pinmap_peripheral>
    11ec:	4601      	mov	r1, r0
    11ee:	4620      	mov	r0, r4
    11f0:	f000 fa1e 	bl	1630 <pinmap_merge>
    11f4:	1c43      	adds	r3, r0, #1
    11f6:	4604      	mov	r4, r0
    11f8:	f000 8101 	beq.w	13fe <serial_init+0x22e>
    11fc:	2300      	movs	r3, #0
    11fe:	f2c4 0301 	movt	r3, #16385	; 0x4001
    1202:	4298      	cmp	r0, r3
    1204:	6028      	str	r0, [r5, #0]
    1206:	d06c      	beq.n	12e2 <serial_init+0x112>
    1208:	d934      	bls.n	1274 <serial_init+0xa4>
    120a:	f44f 4200 	mov.w	r2, #32768	; 0x8000
    120e:	f2c4 0209 	movt	r2, #16393	; 0x4009
    1212:	4290      	cmp	r0, r2
    1214:	f000 80bd 	beq.w	1392 <serial_init+0x1c2>
    1218:	f44f 4140 	mov.w	r1, #49152	; 0xc000
    121c:	f2c4 0109 	movt	r1, #16393	; 0x4009
    1220:	4288      	cmp	r0, r1
    1222:	d12d      	bne.n	1280 <serial_init+0xb0>
    1224:	f44f 4c40 	mov.w	r12, #49152	; 0xc000
    1228:	f2c4 0c0f 	movt	r12, #16399	; 0x400f
    122c:	f8dc 00c4 	ldr.w	r0, [r12, #196]	; 0xc4
    1230:	f04f 0801 	mov.w	r8, #1
    1234:	f040 7200 	orr.w	r2, r0, #33554432	; 0x2000000
    1238:	f8cc 20c4 	str.w	r2, [r12, #196]	; 0xc4
    123c:	f884 8008 	strb.w	r8, [r4, #8]
    1240:	6829      	ldr	r1, [r5, #0]
    1242:	2400      	movs	r4, #0
    1244:	604c      	str	r4, [r1, #4]
    1246:	4628      	mov	r0, r5
    1248:	f44f 5116 	mov.w	r1, #9600	; 0x2580
    124c:	f7ff fe48 	bl	ee0 <serial_baud>
    1250:	4628      	mov	r0, r5
    1252:	4622      	mov	r2, r4
    1254:	4643      	mov	r3, r8
    1256:	2108      	movs	r1, #8
    1258:	f7ff ff76 	bl	1148 <serial_format>
    125c:	4638      	mov	r0, r7
    125e:	496c      	ldr	r1, [pc, #432]	; (1410 <serial_init+0x240>)
    1260:	f000 f9c0 	bl	15e4 <pinmap_pinout>
    1264:	4630      	mov	r0, r6
    1266:	496b      	ldr	r1, [pc, #428]	; (1414 <serial_init+0x244>)
    1268:	f000 f9bc 	bl	15e4 <pinmap_pinout>
    126c:	2303      	movs	r3, #3
    126e:	606b      	str	r3, [r5, #4]
    1270:	e8bd 83f8 	ldmia.w	sp!, {r3, r4, r5, r6, r7, r8, r9, pc}
    1274:	f44f 4040 	mov.w	r0, #49152	; 0xc000
    1278:	f2c4 0000 	movt	r0, #16384	; 0x4000
    127c:	4284      	cmp	r4, r0
    127e:	d058      	beq.n	1332 <serial_init+0x162>
    1280:	f04f 0801 	mov.w	r8, #1
    1284:	f884 8008 	strb.w	r8, [r4, #8]
    1288:	682b      	ldr	r3, [r5, #0]
    128a:	f04f 0900 	mov.w	r9, #0
    128e:	f44f 5116 	mov.w	r1, #9600	; 0x2580
    1292:	f8c3 9004 	str.w	r9, [r3, #4]
    1296:	4628      	mov	r0, r5
    1298:	f7ff fe22 	bl	ee0 <serial_baud>
    129c:	464a      	mov	r2, r9
    129e:	4643      	mov	r3, r8
    12a0:	2108      	movs	r1, #8
    12a2:	4628      	mov	r0, r5
    12a4:	f7ff ff50 	bl	1148 <serial_format>
    12a8:	4638      	mov	r0, r7
    12aa:	4959      	ldr	r1, [pc, #356]	; (1410 <serial_init+0x240>)
    12ac:	f000 f99a 	bl	15e4 <pinmap_pinout>
    12b0:	4630      	mov	r0, r6
    12b2:	4958      	ldr	r1, [pc, #352]	; (1414 <serial_init+0x244>)
    12b4:	f000 f996 	bl	15e4 <pinmap_pinout>
    12b8:	46cc      	mov	r12, r9
    12ba:	f2c4 0c01 	movt	r12, #16385	; 0x4001
    12be:	4564      	cmp	r4, r12
    12c0:	d033      	beq.n	132a <serial_init+0x15a>
    12c2:	f200 808e 	bhi.w	13e2 <serial_init+0x212>
    12c6:	f44f 4040 	mov.w	r0, #49152	; 0xc000
    12ca:	f2c4 0000 	movt	r0, #16384	; 0x4000
    12ce:	4284      	cmp	r4, r0
    12d0:	d053      	beq.n	137a <serial_init+0x1aa>
    12d2:	f44f 4e40 	mov.w	lr, #49152	; 0xc000
    12d6:	f2c4 0e00 	movt	lr, #16384	; 0x4000
    12da:	4574      	cmp	r4, lr
    12dc:	d04f      	beq.n	137e <serial_init+0x1ae>
    12de:	e8bd 83f8 	ldmia.w	sp!, {r3, r4, r5, r6, r7, r8, r9, pc}
    12e2:	f44f 4c40 	mov.w	r12, #49152	; 0xc000
    12e6:	f2c4 0c0f 	movt	r12, #16399	; 0x400f
    12ea:	f8dc 00c4 	ldr.w	r0, [r12, #196]	; 0xc4
    12ee:	f04f 0801 	mov.w	r8, #1
    12f2:	f040 0210 	orr.w	r2, r0, #16
    12f6:	f8cc 20c4 	str.w	r2, [r12, #196]	; 0xc4
    12fa:	f884 8008 	strb.w	r8, [r4, #8]
    12fe:	6829      	ldr	r1, [r5, #0]
    1300:	2400      	movs	r4, #0
    1302:	604c      	str	r4, [r1, #4]
    1304:	4628      	mov	r0, r5
    1306:	f44f 5116 	mov.w	r1, #9600	; 0x2580
    130a:	f7ff fde9 	bl	ee0 <serial_baud>
    130e:	4628      	mov	r0, r5
    1310:	4622      	mov	r2, r4
    1312:	4643      	mov	r3, r8
    1314:	2108      	movs	r1, #8
    1316:	f7ff ff17 	bl	1148 <serial_format>
    131a:	4638      	mov	r0, r7
    131c:	493c      	ldr	r1, [pc, #240]	; (1410 <serial_init+0x240>)
    131e:	f000 f961 	bl	15e4 <pinmap_pinout>
    1322:	4630      	mov	r0, r6
    1324:	493b      	ldr	r1, [pc, #236]	; (1414 <serial_init+0x244>)
    1326:	f000 f95d 	bl	15e4 <pinmap_pinout>
    132a:	2301      	movs	r3, #1
    132c:	606b      	str	r3, [r5, #4]
    132e:	e8bd 83f8 	ldmia.w	sp!, {r3, r4, r5, r6, r7, r8, r9, pc}
    1332:	f44f 4240 	mov.w	r2, #49152	; 0xc000
    1336:	f2c4 020f 	movt	r2, #16399	; 0x400f
    133a:	f8d2 10c4 	ldr.w	r1, [r2, #196]	; 0xc4
    133e:	f04f 0801 	mov.w	r8, #1
    1342:	f041 0308 	orr.w	r3, r1, #8
    1346:	f8c2 30c4 	str.w	r3, [r2, #196]	; 0xc4
    134a:	f884 8008 	strb.w	r8, [r4, #8]
    134e:	6828      	ldr	r0, [r5, #0]
    1350:	2400      	movs	r4, #0
    1352:	6044      	str	r4, [r0, #4]
    1354:	f44f 5116 	mov.w	r1, #9600	; 0x2580
    1358:	4628      	mov	r0, r5
    135a:	f7ff fdc1 	bl	ee0 <serial_baud>
    135e:	4628      	mov	r0, r5
    1360:	4622      	mov	r2, r4
    1362:	4643      	mov	r3, r8
    1364:	2108      	movs	r1, #8
    1366:	f7ff feef 	bl	1148 <serial_format>
    136a:	4638      	mov	r0, r7
    136c:	4928      	ldr	r1, [pc, #160]	; (1410 <serial_init+0x240>)
    136e:	f000 f939 	bl	15e4 <pinmap_pinout>
    1372:	4630      	mov	r0, r6
    1374:	4927      	ldr	r1, [pc, #156]	; (1414 <serial_init+0x244>)
    1376:	f000 f935 	bl	15e4 <pinmap_pinout>
    137a:	2400      	movs	r4, #0
    137c:	606c      	str	r4, [r5, #4]
    137e:	4b26      	ldr	r3, [pc, #152]	; (1418 <serial_init+0x248>)
    1380:	4826      	ldr	r0, [pc, #152]	; (141c <serial_init+0x24c>)
    1382:	2401      	movs	r4, #1
    1384:	4629      	mov	r1, r5
    1386:	2208      	movs	r2, #8
    1388:	601c      	str	r4, [r3, #0]
    138a:	e8bd 43f8 	ldmia.w	sp!, {r3, r4, r5, r6, r7, r8, r9, lr}
    138e:	f001 bb0f 	b.w	29b0 <memcpy>
    1392:	f44f 4e40 	mov.w	lr, #49152	; 0xc000
    1396:	f2c4 0e0f 	movt	lr, #16399	; 0x400f
    139a:	f8de 00c4 	ldr.w	r0, [lr, #196]	; 0xc4
    139e:	f04f 0801 	mov.w	r8, #1
    13a2:	f040 7280 	orr.w	r2, r0, #16777216	; 0x1000000
    13a6:	f8ce 20c4 	str.w	r2, [lr, #196]	; 0xc4
    13aa:	f884 8008 	strb.w	r8, [r4, #8]
    13ae:	6829      	ldr	r1, [r5, #0]
    13b0:	2400      	movs	r4, #0
    13b2:	604c      	str	r4, [r1, #4]
    13b4:	4628      	mov	r0, r5
    13b6:	f44f 5116 	mov.w	r1, #9600	; 0x2580
    13ba:	f7ff fd91 	bl	ee0 <serial_baud>
    13be:	4628      	mov	r0, r5
    13c0:	4622      	mov	r2, r4
    13c2:	4643      	mov	r3, r8
    13c4:	2108      	movs	r1, #8
    13c6:	f7ff febf 	bl	1148 <serial_format>
    13ca:	4638      	mov	r0, r7
    13cc:	4910      	ldr	r1, [pc, #64]	; (1410 <serial_init+0x240>)
    13ce:	f000 f909 	bl	15e4 <pinmap_pinout>
    13d2:	4630      	mov	r0, r6
    13d4:	490f      	ldr	r1, [pc, #60]	; (1414 <serial_init+0x244>)
    13d6:	f000 f905 	bl	15e4 <pinmap_pinout>
    13da:	2302      	movs	r3, #2
    13dc:	606b      	str	r3, [r5, #4]
    13de:	e8bd 83f8 	ldmia.w	sp!, {r3, r4, r5, r6, r7, r8, r9, pc}
    13e2:	f44f 4200 	mov.w	r2, #32768	; 0x8000
    13e6:	f2c4 0209 	movt	r2, #16393	; 0x4009
    13ea:	4294      	cmp	r4, r2
    13ec:	d0f5      	beq.n	13da <serial_init+0x20a>
    13ee:	f44f 4140 	mov.w	r1, #49152	; 0xc000
    13f2:	f2c4 0109 	movt	r1, #16393	; 0x4009
    13f6:	428c      	cmp	r4, r1
    13f8:	f47f af6b 	bne.w	12d2 <serial_init+0x102>
    13fc:	e736      	b.n	126c <serial_init+0x9c>
    13fe:	4d08      	ldr	r5, [pc, #32]	; (1420 <serial_init+0x250>)
    1400:	4908      	ldr	r1, [pc, #32]	; (1424 <serial_init+0x254>)
    1402:	682e      	ldr	r6, [r5, #0]
    1404:	68f0      	ldr	r0, [r6, #12]
    1406:	f001 fa41 	bl	288c <fiprintf>
    140a:	2001      	movs	r0, #1
    140c:	f7ff fb96 	bl	b3c <exit>
    1410:	00006df0 	.word	0x00006df0
    1414:	00006cdc 	.word	0x00006cdc
    1418:	10000668 	.word	0x10000668
    141c:	10000684 	.word	0x10000684
    1420:	100004d8 	.word	0x100004d8
    1424:	00006dd0 	.word	0x00006dd0

00001428 <serial_getc>:
    1428:	6802      	ldr	r2, [r0, #0]
    142a:	7d13      	ldrb	r3, [r2, #20]
    142c:	07d9      	lsls	r1, r3, #31
    142e:	d5fc      	bpl.n	142a <serial_getc+0x2>
    1430:	7810      	ldrb	r0, [r2, #0]
    1432:	4770      	bx	lr

00001434 <serial_putc>:
    1434:	6802      	ldr	r2, [r0, #0]
    1436:	7d13      	ldrb	r3, [r2, #20]
    1438:	f003 0020 	and.w	r0, r3, #32
    143c:	b2c3      	uxtb	r3, r0
    143e:	2b00      	cmp	r3, #0
    1440:	d0f9      	beq.n	1436 <serial_putc+0x2>
    1442:	b2c9      	uxtb	r1, r1
    1444:	7011      	strb	r1, [r2, #0]
    1446:	4770      	bx	lr

00001448 <us_ticker_read>:
    1448:	4915      	ldr	r1, [pc, #84]	; (14a0 <us_ticker_read+0x58>)
    144a:	b430      	push	{r4, r5}
    144c:	680a      	ldr	r2, [r1, #0]
    144e:	b9fa      	cbnz	r2, 1490 <us_ticker_read+0x48>
    1450:	f44f 4040 	mov.w	r0, #49152	; 0xc000
    1454:	f2c4 000f 	movt	r0, #16399	; 0x400f
    1458:	f8d0 50c4 	ldr.w	r5, [r0, #196]	; 0xc4
    145c:	2401      	movs	r4, #1
    145e:	f44f 4380 	mov.w	r3, #16384	; 0x4000
    1462:	600c      	str	r4, [r1, #0]
    1464:	f2c4 0309 	movt	r3, #16393	; 0x4009
    1468:	490e      	ldr	r1, [pc, #56]	; (14a4 <us_ticker_read+0x5c>)
    146a:	f445 0500 	orr.w	r5, r5, #8388608	; 0x800000
    146e:	f8c0 50c4 	str.w	r5, [r0, #196]	; 0xc4
    1472:	671a      	str	r2, [r3, #112]	; 0x70
    1474:	6808      	ldr	r0, [r1, #0]
    1476:	f64d 6c83 	movw	r12, #56963	; 0xde83
    147a:	0882      	lsrs	r2, r0, #2
    147c:	f2c4 3c1b 	movt	r12, #17179	; 0x431b
    1480:	fbac 0102 	umull	r0, r1, r12, r2
    1484:	0c88      	lsrs	r0, r1, #18
    1486:	1e42      	subs	r2, r0, #1
    1488:	2102      	movs	r1, #2
    148a:	6059      	str	r1, [r3, #4]
    148c:	60da      	str	r2, [r3, #12]
    148e:	605c      	str	r4, [r3, #4]
    1490:	f44f 4380 	mov.w	r3, #16384	; 0x4000
    1494:	f2c4 0309 	movt	r3, #16393	; 0x4009
    1498:	6898      	ldr	r0, [r3, #8]
    149a:	bc30      	pop	{r4, r5}
    149c:	4770      	bx	lr
    149e:	bf00      	nop
    14a0:	1000066c 	.word	0x1000066c
    14a4:	10000470 	.word	0x10000470

000014a8 <irq_handler>:
    14a8:	b5f8      	push	{r3, r4, r5, r6, r7, lr}
    14aa:	4d17      	ldr	r5, [pc, #92]	; (1508 <irq_handler+0x60>)
    14ac:	f44f 4380 	mov.w	r3, #16384	; 0x4000
    14b0:	682c      	ldr	r4, [r5, #0]
    14b2:	f2c4 0309 	movt	r3, #16393	; 0x4009
    14b6:	2201      	movs	r2, #1
    14b8:	601a      	str	r2, [r3, #0]
    14ba:	b1e4      	cbz	r4, 14f6 <irq_handler+0x4e>
    14bc:	4f13      	ldr	r7, [pc, #76]	; (150c <irq_handler+0x64>)
    14be:	e006      	b.n	14ce <irq_handler+0x26>
    14c0:	68a1      	ldr	r1, [r4, #8]
    14c2:	6860      	ldr	r0, [r4, #4]
    14c4:	683c      	ldr	r4, [r7, #0]
    14c6:	6029      	str	r1, [r5, #0]
    14c8:	47a0      	blx	r4
    14ca:	682c      	ldr	r4, [r5, #0]
    14cc:	b19c      	cbz	r4, 14f6 <irq_handler+0x4e>
    14ce:	6826      	ldr	r6, [r4, #0]
    14d0:	f7ff ffba 	bl	1448 <us_ticker_read>
    14d4:	1a30      	subs	r0, r6, r0
    14d6:	2800      	cmp	r0, #0
    14d8:	ddf2      	ble.n	14c0 <irq_handler+0x18>
    14da:	6821      	ldr	r1, [r4, #0]
    14dc:	f44f 4c80 	mov.w	r12, #16384	; 0x4000
    14e0:	f2c4 0c09 	movt	r12, #16393	; 0x4009
    14e4:	f8cc 1018 	str.w	r1, [r12, #24]
    14e8:	f8dc 3014 	ldr.w	r3, [r12, #20]
    14ec:	f043 0201 	orr.w	r2, r3, #1
    14f0:	f8cc 2014 	str.w	r2, [r12, #20]
    14f4:	bdf8      	pop	{r3, r4, r5, r6, r7, pc}
    14f6:	f44f 4080 	mov.w	r0, #16384	; 0x4000
    14fa:	f2c4 0009 	movt	r0, #16393	; 0x4009
    14fe:	6943      	ldr	r3, [r0, #20]
    1500:	f023 0201 	bic.w	r2, r3, #1
    1504:	6142      	str	r2, [r0, #20]
    1506:	bdf8      	pop	{r3, r4, r5, r6, r7, pc}
    1508:	10000670 	.word	0x10000670
    150c:	10000674 	.word	0x10000674

00001510 <us_ticker_set_handler>:
    1510:	b508      	push	{r3, lr}
    1512:	f240 6374 	movw	r3, #1652	; 0x674
    1516:	f2c1 0300 	movt	r3, #4096	; 0x1000
    151a:	f241 41a9 	movw	r1, #5289	; 0x14a9
    151e:	6018      	str	r0, [r3, #0]
    1520:	f2c0 0100 	movt	r1, #0
    1524:	2004      	movs	r0, #4
    1526:	f7ff f9cb 	bl	8c0 <NVIC_SetVector>
    152a:	f44f 4061 	mov.w	r0, #57600	; 0xe100
    152e:	f2ce 0000 	movt	r0, #57344	; 0xe000
    1532:	2210      	movs	r2, #16
    1534:	6002      	str	r2, [r0, #0]
    1536:	bd08      	pop	{r3, pc}

00001538 <us_ticker_insert_event>:
    1538:	b410      	push	{r4}
    153a:	b672      	cpsid	i
    153c:	4b12      	ldr	r3, [pc, #72]	; (1588 <us_ticker_insert_event+0x50>)
    153e:	6001      	str	r1, [r0, #0]
    1540:	681c      	ldr	r4, [r3, #0]
    1542:	6042      	str	r2, [r0, #4]
    1544:	b18c      	cbz	r4, 156a <us_ticker_insert_event+0x32>
    1546:	6822      	ldr	r2, [r4, #0]
    1548:	1a8a      	subs	r2, r1, r2
    154a:	2a00      	cmp	r2, #0
    154c:	dc05      	bgt.n	155a <us_ticker_insert_event+0x22>
    154e:	e00c      	b.n	156a <us_ticker_insert_event+0x32>
    1550:	681a      	ldr	r2, [r3, #0]
    1552:	1a8a      	subs	r2, r1, r2
    1554:	2a00      	cmp	r2, #0
    1556:	dd03      	ble.n	1560 <us_ticker_insert_event+0x28>
    1558:	461c      	mov	r4, r3
    155a:	68a3      	ldr	r3, [r4, #8]
    155c:	2b00      	cmp	r3, #0
    155e:	d1f7      	bne.n	1550 <us_ticker_insert_event+0x18>
    1560:	60a0      	str	r0, [r4, #8]
    1562:	6083      	str	r3, [r0, #8]
    1564:	b662      	cpsie	i
    1566:	bc10      	pop	{r4}
    1568:	4770      	bx	lr
    156a:	f44f 4c80 	mov.w	r12, #16384	; 0x4000
    156e:	f2c4 0c09 	movt	r12, #16393	; 0x4009
    1572:	6018      	str	r0, [r3, #0]
    1574:	f8cc 1018 	str.w	r1, [r12, #24]
    1578:	f8dc 1014 	ldr.w	r1, [r12, #20]
    157c:	4623      	mov	r3, r4
    157e:	f041 0201 	orr.w	r2, r1, #1
    1582:	f8cc 2014 	str.w	r2, [r12, #20]
    1586:	e7ec      	b.n	1562 <us_ticker_insert_event+0x2a>
    1588:	10000670 	.word	0x10000670

0000158c <us_ticker_remove_event>:
    158c:	b672      	cpsid	i
    158e:	4b14      	ldr	r3, [pc, #80]	; (15e0 <us_ticker_remove_event+0x54>)
    1590:	681a      	ldr	r2, [r3, #0]
    1592:	4282      	cmp	r2, r0
    1594:	d011      	beq.n	15ba <us_ticker_remove_event+0x2e>
    1596:	b14a      	cbz	r2, 15ac <us_ticker_remove_event+0x20>
    1598:	6891      	ldr	r1, [r2, #8]
    159a:	4281      	cmp	r1, r0
    159c:	d008      	beq.n	15b0 <us_ticker_remove_event+0x24>
    159e:	b129      	cbz	r1, 15ac <us_ticker_remove_event+0x20>
    15a0:	688b      	ldr	r3, [r1, #8]
    15a2:	4283      	cmp	r3, r0
    15a4:	d005      	beq.n	15b2 <us_ticker_remove_event+0x26>
    15a6:	4619      	mov	r1, r3
    15a8:	2900      	cmp	r1, #0
    15aa:	d1f9      	bne.n	15a0 <us_ticker_remove_event+0x14>
    15ac:	b662      	cpsie	i
    15ae:	4770      	bx	lr
    15b0:	4611      	mov	r1, r2
    15b2:	6880      	ldr	r0, [r0, #8]
    15b4:	6088      	str	r0, [r1, #8]
    15b6:	b662      	cpsie	i
    15b8:	4770      	bx	lr
    15ba:	6892      	ldr	r2, [r2, #8]
    15bc:	601a      	str	r2, [r3, #0]
    15be:	2a00      	cmp	r2, #0
    15c0:	d0f4      	beq.n	15ac <us_ticker_remove_event+0x20>
    15c2:	6811      	ldr	r1, [r2, #0]
    15c4:	f44f 4c80 	mov.w	r12, #16384	; 0x4000
    15c8:	f2c4 0c09 	movt	r12, #16393	; 0x4009
    15cc:	f8cc 1018 	str.w	r1, [r12, #24]
    15d0:	f8dc 3014 	ldr.w	r3, [r12, #20]
    15d4:	f043 0001 	orr.w	r0, r3, #1
    15d8:	f8cc 0014 	str.w	r0, [r12, #20]
    15dc:	b662      	cpsie	i
    15de:	4770      	bx	lr
    15e0:	10000670 	.word	0x10000670

000015e4 <pinmap_pinout>:
    15e4:	1c43      	adds	r3, r0, #1
    15e6:	b510      	push	{r4, lr}
    15e8:	4604      	mov	r4, r0
    15ea:	d013      	beq.n	1614 <pinmap_pinout+0x30>
    15ec:	680b      	ldr	r3, [r1, #0]
    15ee:	1c58      	adds	r0, r3, #1
    15f0:	d104      	bne.n	15fc <pinmap_pinout+0x18>
    15f2:	e010      	b.n	1616 <pinmap_pinout+0x32>
    15f4:	f851 3f0c 	ldr.w	r3, [r1, #12]!
    15f8:	1c5a      	adds	r2, r3, #1
    15fa:	d00c      	beq.n	1616 <pinmap_pinout+0x32>
    15fc:	429c      	cmp	r4, r3
    15fe:	d1f9      	bne.n	15f4 <pinmap_pinout+0x10>
    1600:	4620      	mov	r0, r4
    1602:	6889      	ldr	r1, [r1, #8]
    1604:	f7ff fa40 	bl	a88 <pin_function>
    1608:	4620      	mov	r0, r4
    160a:	2102      	movs	r1, #2
    160c:	e8bd 4010 	ldmia.w	sp!, {r4, lr}
    1610:	f7ff ba5c 	b.w	acc <pin_mode>
    1614:	bd10      	pop	{r4, pc}
    1616:	4804      	ldr	r0, [pc, #16]	; (1628 <pinmap_pinout+0x44>)
    1618:	4904      	ldr	r1, [pc, #16]	; (162c <pinmap_pinout+0x48>)
    161a:	6802      	ldr	r2, [r0, #0]
    161c:	68d0      	ldr	r0, [r2, #12]
    161e:	f001 f935 	bl	288c <fiprintf>
    1622:	2001      	movs	r0, #1
    1624:	f7ff fa8a 	bl	b3c <exit>
    1628:	100004d8 	.word	0x100004d8
    162c:	00006e5c 	.word	0x00006e5c

00001630 <pinmap_merge>:
    1630:	4288      	cmp	r0, r1
    1632:	b508      	push	{r3, lr}
    1634:	d003      	beq.n	163e <pinmap_merge+0xe>
    1636:	1c42      	adds	r2, r0, #1
    1638:	d002      	beq.n	1640 <pinmap_merge+0x10>
    163a:	3101      	adds	r1, #1
    163c:	d102      	bne.n	1644 <pinmap_merge+0x14>
    163e:	bd08      	pop	{r3, pc}
    1640:	4608      	mov	r0, r1
    1642:	bd08      	pop	{r3, pc}
    1644:	4b04      	ldr	r3, [pc, #16]	; (1658 <pinmap_merge+0x28>)
    1646:	4905      	ldr	r1, [pc, #20]	; (165c <pinmap_merge+0x2c>)
    1648:	6818      	ldr	r0, [r3, #0]
    164a:	68c0      	ldr	r0, [r0, #12]
    164c:	f001 f91e 	bl	288c <fiprintf>
    1650:	2001      	movs	r0, #1
    1652:	f7ff fa73 	bl	b3c <exit>
    1656:	bf00      	nop
    1658:	100004d8 	.word	0x100004d8
    165c:	00006e70 	.word	0x00006e70

00001660 <pinmap_peripheral>:
    1660:	b508      	push	{r3, lr}
    1662:	1c43      	adds	r3, r0, #1
    1664:	d00b      	beq.n	167e <pinmap_peripheral+0x1e>
    1666:	680b      	ldr	r3, [r1, #0]
    1668:	1c5a      	adds	r2, r3, #1
    166a:	d104      	bne.n	1676 <pinmap_peripheral+0x16>
    166c:	e008      	b.n	1680 <pinmap_peripheral+0x20>
    166e:	f851 3f0c 	ldr.w	r3, [r1, #12]!
    1672:	1c5a      	adds	r2, r3, #1
    1674:	d004      	beq.n	1680 <pinmap_peripheral+0x20>
    1676:	4298      	cmp	r0, r3
    1678:	d1f9      	bne.n	166e <pinmap_peripheral+0xe>
    167a:	6848      	ldr	r0, [r1, #4]
    167c:	bd08      	pop	{r3, pc}
    167e:	bd08      	pop	{r3, pc}
    1680:	4804      	ldr	r0, [pc, #16]	; (1694 <pinmap_peripheral+0x34>)
    1682:	4905      	ldr	r1, [pc, #20]	; (1698 <pinmap_peripheral+0x38>)
    1684:	6802      	ldr	r2, [r0, #0]
    1686:	68d0      	ldr	r0, [r2, #12]
    1688:	f001 f900 	bl	288c <fiprintf>
    168c:	2001      	movs	r0, #1
    168e:	f7ff fa55 	bl	b3c <exit>
    1692:	bf00      	nop
    1694:	100004d8 	.word	0x100004d8
    1698:	00006e84 	.word	0x00006e84

0000169c <_ZNK10__cxxabiv120__si_class_type_info12__do_dyncastEiNS_17__class_type_info10__sub_kindEPKS1_PKvS4_S6_RNS1_16__dyncast_resultE>:
    169c:	e92d 4ff0 	stmdb	sp!, {r4, r5, r6, r7, r8, r9, r10, r11, lr}
    16a0:	460e      	mov	r6, r1
    16a2:	b085      	sub	sp, #20
    16a4:	4619      	mov	r1, r3
    16a6:	4683      	mov	r11, r0
    16a8:	4690      	mov	r8, r2
    16aa:	4699      	mov	r9, r3
    16ac:	9d0e      	ldr	r5, [sp, #56]	; 0x38
    16ae:	9f10      	ldr	r7, [sp, #64]	; 0x40
    16b0:	9c11      	ldr	r4, [sp, #68]	; 0x44
    16b2:	f000 f90f 	bl	18d4 <_ZNKSt9type_infoeqERKS_>
    16b6:	4682      	mov	r10, r0
    16b8:	b180      	cbz	r0, 16dc <_ZNK10__cxxabiv120__si_class_type_info12__do_dyncastEiNS_17__class_type_info10__sub_kindEPKS1_PKvS4_S6_RNS1_16__dyncast_resultE+0x40>
    16ba:	2e00      	cmp	r6, #0
    16bc:	6025      	str	r5, [r4, #0]
    16be:	f884 8004 	strb.w	r8, [r4, #4]
    16c2:	db06      	blt.n	16d2 <_ZNK10__cxxabiv120__si_class_type_info12__do_dyncastEiNS_17__class_type_info10__sub_kindEPKS1_PKvS4_S6_RNS1_16__dyncast_resultE+0x36>
    16c4:	19ad      	adds	r5, r5, r6
    16c6:	42af      	cmp	r7, r5
    16c8:	bf14      	ite	ne
    16ca:	2701      	movne	r7, #1
    16cc:	2706      	moveq	r7, #6
    16ce:	71a7      	strb	r7, [r4, #6]
    16d0:	e00c      	b.n	16ec <_ZNK10__cxxabiv120__si_class_type_info12__do_dyncastEiNS_17__class_type_info10__sub_kindEPKS1_PKvS4_S6_RNS1_16__dyncast_resultE+0x50>
    16d2:	1cb3      	adds	r3, r6, #2
    16d4:	d10a      	bne.n	16ec <_ZNK10__cxxabiv120__si_class_type_info12__do_dyncastEiNS_17__class_type_info10__sub_kindEPKS1_PKvS4_S6_RNS1_16__dyncast_resultE+0x50>
    16d6:	2001      	movs	r0, #1
    16d8:	71a0      	strb	r0, [r4, #6]
    16da:	e007      	b.n	16ec <_ZNK10__cxxabiv120__si_class_type_info12__do_dyncastEiNS_17__class_type_info10__sub_kindEPKS1_PKvS4_S6_RNS1_16__dyncast_resultE+0x50>
    16dc:	42bd      	cmp	r5, r7
    16de:	d107      	bne.n	16f0 <_ZNK10__cxxabiv120__si_class_type_info12__do_dyncastEiNS_17__class_type_info10__sub_kindEPKS1_PKvS4_S6_RNS1_16__dyncast_resultE+0x54>
    16e0:	4658      	mov	r0, r11
    16e2:	990f      	ldr	r1, [sp, #60]	; 0x3c
    16e4:	f000 f8f6 	bl	18d4 <_ZNKSt9type_infoeqERKS_>
    16e8:	b980      	cbnz	r0, 170c <_ZNK10__cxxabiv120__si_class_type_info12__do_dyncastEiNS_17__class_type_info10__sub_kindEPKS1_PKvS4_S6_RNS1_16__dyncast_resultE+0x70>
    16ea:	e001      	b.n	16f0 <_ZNK10__cxxabiv120__si_class_type_info12__do_dyncastEiNS_17__class_type_info10__sub_kindEPKS1_PKvS4_S6_RNS1_16__dyncast_resultE+0x54>
    16ec:	2000      	movs	r0, #0
    16ee:	e010      	b.n	1712 <_ZNK10__cxxabiv120__si_class_type_info12__do_dyncastEiNS_17__class_type_info10__sub_kindEPKS1_PKvS4_S6_RNS1_16__dyncast_resultE+0x76>
    16f0:	f8db 0008 	ldr.w	r0, [r11, #8]
    16f4:	9a0f      	ldr	r2, [sp, #60]	; 0x3c
    16f6:	6803      	ldr	r3, [r0, #0]
    16f8:	9201      	str	r2, [sp, #4]
    16fa:	9500      	str	r5, [sp, #0]
    16fc:	9702      	str	r7, [sp, #8]
    16fe:	9403      	str	r4, [sp, #12]
    1700:	69dc      	ldr	r4, [r3, #28]
    1702:	4631      	mov	r1, r6
    1704:	4642      	mov	r2, r8
    1706:	464b      	mov	r3, r9
    1708:	47a0      	blx	r4
    170a:	e002      	b.n	1712 <_ZNK10__cxxabiv120__si_class_type_info12__do_dyncastEiNS_17__class_type_info10__sub_kindEPKS1_PKvS4_S6_RNS1_16__dyncast_resultE+0x76>
    170c:	f884 8005 	strb.w	r8, [r4, #5]
    1710:	4650      	mov	r0, r10
    1712:	b005      	add	sp, #20
    1714:	e8bd 8ff0 	ldmia.w	sp!, {r4, r5, r6, r7, r8, r9, r10, r11, pc}

00001718 <_ZN10__cxxabiv120__si_class_type_infoD1Ev>:
    1718:	4b03      	ldr	r3, [pc, #12]	; (1728 <_ZN10__cxxabiv120__si_class_type_infoD1Ev+0x10>)
    171a:	b510      	push	{r4, lr}
    171c:	4604      	mov	r4, r0
    171e:	6003      	str	r3, [r0, #0]
    1720:	f000 f86c 	bl	17fc <_ZN10__cxxabiv117__class_type_infoD1Ev>
    1724:	4620      	mov	r0, r4
    1726:	bd10      	pop	{r4, pc}
    1728:	00006eb0 	.word	0x00006eb0

0000172c <_ZN10__cxxabiv120__si_class_type_infoD0Ev>:
    172c:	b510      	push	{r4, lr}
    172e:	4604      	mov	r4, r0
    1730:	f7ff fff2 	bl	1718 <_ZN10__cxxabiv120__si_class_type_infoD1Ev>
    1734:	4620      	mov	r0, r4
    1736:	f000 f82f 	bl	1798 <_ZdlPv>
    173a:	4620      	mov	r0, r4
    173c:	bd10      	pop	{r4, pc}

0000173e <_ZNK10__cxxabiv120__si_class_type_info11__do_upcastEPKNS_17__class_type_infoEPKvRNS1_15__upcast_resultE>:
    173e:	b5f8      	push	{r3, r4, r5, r6, r7, lr}
    1740:	4604      	mov	r4, r0
    1742:	460f      	mov	r7, r1
    1744:	4616      	mov	r6, r2
    1746:	461d      	mov	r5, r3
    1748:	f000 f84b 	bl	17e2 <_ZNK10__cxxabiv117__class_type_info11__do_upcastEPKS0_PKvRNS0_15__upcast_resultE>
    174c:	b938      	cbnz	r0, 175e <_ZNK10__cxxabiv120__si_class_type_info11__do_upcastEPKNS_17__class_type_infoEPKvRNS1_15__upcast_resultE+0x20>
    174e:	68a0      	ldr	r0, [r4, #8]
    1750:	4639      	mov	r1, r7
    1752:	6804      	ldr	r4, [r0, #0]
    1754:	4632      	mov	r2, r6
    1756:	69a4      	ldr	r4, [r4, #24]
    1758:	462b      	mov	r3, r5
    175a:	47a0      	blx	r4
    175c:	bdf8      	pop	{r3, r4, r5, r6, r7, pc}
    175e:	2001      	movs	r0, #1
    1760:	bdf8      	pop	{r3, r4, r5, r6, r7, pc}

00001762 <_ZNK10__cxxabiv120__si_class_type_info20__do_find_public_srcEiPKvPKNS_17__class_type_infoES2_>:
    1762:	e92d 41f3 	stmdb	sp!, {r0, r1, r4, r5, r6, r7, r8, lr}
    1766:	9c08      	ldr	r4, [sp, #32]
    1768:	4607      	mov	r7, r0
    176a:	4294      	cmp	r4, r2
    176c:	4688      	mov	r8, r1
    176e:	4616      	mov	r6, r2
    1770:	461d      	mov	r5, r3
    1772:	d105      	bne.n	1780 <_ZNK10__cxxabiv120__si_class_type_info20__do_find_public_srcEiPKvPKNS_17__class_type_infoES2_+0x1e>
    1774:	4619      	mov	r1, r3
    1776:	f000 f8ad 	bl	18d4 <_ZNKSt9type_infoeqERKS_>
    177a:	b108      	cbz	r0, 1780 <_ZNK10__cxxabiv120__si_class_type_info20__do_find_public_srcEiPKvPKNS_17__class_type_infoES2_+0x1e>
    177c:	2006      	movs	r0, #6
    177e:	e007      	b.n	1790 <_ZNK10__cxxabiv120__si_class_type_info20__do_find_public_srcEiPKvPKNS_17__class_type_infoES2_+0x2e>
    1780:	68b8      	ldr	r0, [r7, #8]
    1782:	4641      	mov	r1, r8
    1784:	6803      	ldr	r3, [r0, #0]
    1786:	9400      	str	r4, [sp, #0]
    1788:	6a1c      	ldr	r4, [r3, #32]
    178a:	4632      	mov	r2, r6
    178c:	462b      	mov	r3, r5
    178e:	47a0      	blx	r4
    1790:	e8bd 81fc 	ldmia.w	sp!, {r2, r3, r4, r5, r6, r7, r8, pc}

00001794 <_Znaj>:
    1794:	f000 b874 	b.w	1880 <_Znwj>

00001798 <_ZdlPv>:
    1798:	b108      	cbz	r0, 179e <_ZdlPv+0x6>
    179a:	f001 b8b7 	b.w	290c <free>
    179e:	4770      	bx	lr

000017a0 <_ZNK10__cxxabiv117__class_type_info11__do_upcastEPKS0_PPv>:
    17a0:	b57f      	push	{r0, r1, r2, r3, r4, r5, r6, lr}
    17a2:	4615      	mov	r5, r2
    17a4:	6802      	ldr	r2, [r0, #0]
    17a6:	2400      	movs	r4, #0
    17a8:	2310      	movs	r3, #16
    17aa:	9302      	str	r3, [sp, #8]
    17ac:	6996      	ldr	r6, [r2, #24]
    17ae:	9400      	str	r4, [sp, #0]
    17b0:	f88d 4004 	strb.w	r4, [sp, #4]
    17b4:	9403      	str	r4, [sp, #12]
    17b6:	682a      	ldr	r2, [r5, #0]
    17b8:	466b      	mov	r3, sp
    17ba:	47b0      	blx	r6
    17bc:	f89d 0004 	ldrb.w	r0, [sp, #4]
    17c0:	f000 0106 	and.w	r1, r0, #6
    17c4:	2906      	cmp	r1, #6
    17c6:	d103      	bne.n	17d0 <_ZNK10__cxxabiv117__class_type_info11__do_upcastEPKS0_PPv+0x30>
    17c8:	9b00      	ldr	r3, [sp, #0]
    17ca:	2001      	movs	r0, #1
    17cc:	602b      	str	r3, [r5, #0]
    17ce:	e000      	b.n	17d2 <_ZNK10__cxxabiv117__class_type_info11__do_upcastEPKS0_PPv+0x32>
    17d0:	4620      	mov	r0, r4
    17d2:	b004      	add	sp, #16
    17d4:	bd70      	pop	{r4, r5, r6, pc}

000017d6 <_ZNK10__cxxabiv117__class_type_info20__do_find_public_srcEiPKvPKS0_S2_>:
    17d6:	9800      	ldr	r0, [sp, #0]
    17d8:	4290      	cmp	r0, r2
    17da:	bf14      	ite	ne
    17dc:	2001      	movne	r0, #1
    17de:	2006      	moveq	r0, #6
    17e0:	4770      	bx	lr

000017e2 <_ZNK10__cxxabiv117__class_type_info11__do_upcastEPKS0_PKvRNS0_15__upcast_resultE>:
    17e2:	b538      	push	{r3, r4, r5, lr}
    17e4:	4615      	mov	r5, r2
    17e6:	461c      	mov	r4, r3
    17e8:	f000 f874 	bl	18d4 <_ZNKSt9type_infoeqERKS_>
    17ec:	b128      	cbz	r0, 17fa <_ZNK10__cxxabiv117__class_type_info11__do_upcastEPKS0_PKvRNS0_15__upcast_resultE+0x18>
    17ee:	2006      	movs	r0, #6
    17f0:	2308      	movs	r3, #8
    17f2:	7120      	strb	r0, [r4, #4]
    17f4:	6025      	str	r5, [r4, #0]
    17f6:	60e3      	str	r3, [r4, #12]
    17f8:	2001      	movs	r0, #1
    17fa:	bd38      	pop	{r3, r4, r5, pc}

000017fc <_ZN10__cxxabiv117__class_type_infoD1Ev>:
    17fc:	4b03      	ldr	r3, [pc, #12]	; (180c <_ZN10__cxxabiv117__class_type_infoD1Ev+0x10>)
    17fe:	b510      	push	{r4, lr}
    1800:	4604      	mov	r4, r0
    1802:	6003      	str	r3, [r0, #0]
    1804:	f000 f850 	bl	18a8 <_ZNSt9type_infoD1Ev>
    1808:	4620      	mov	r0, r4
    180a:	bd10      	pop	{r4, pc}
    180c:	00006f18 	.word	0x00006f18

00001810 <_ZN10__cxxabiv117__class_type_infoD0Ev>:
    1810:	b510      	push	{r4, lr}
    1812:	4604      	mov	r4, r0
    1814:	f7ff fff2 	bl	17fc <_ZN10__cxxabiv117__class_type_infoD1Ev>
    1818:	4620      	mov	r0, r4
    181a:	f7ff ffbd 	bl	1798 <_ZdlPv>
    181e:	4620      	mov	r0, r4
    1820:	bd10      	pop	{r4, pc}

00001822 <_ZNK10__cxxabiv117__class_type_info12__do_dyncastEiNS0_10__sub_kindEPKS0_PKvS3_S5_RNS0_16__dyncast_resultE>:
    1822:	e92d 41f0 	stmdb	sp!, {r4, r5, r6, r7, r8, lr}
    1826:	9e06      	ldr	r6, [sp, #24]
    1828:	4615      	mov	r5, r2
    182a:	9a08      	ldr	r2, [sp, #32]
    182c:	4607      	mov	r7, r0
    182e:	4296      	cmp	r6, r2
    1830:	4698      	mov	r8, r3
    1832:	9c09      	ldr	r4, [sp, #36]	; 0x24
    1834:	d103      	bne.n	183e <_ZNK10__cxxabiv117__class_type_info12__do_dyncastEiNS0_10__sub_kindEPKS0_PKvS3_S5_RNS0_16__dyncast_resultE+0x1c>
    1836:	9907      	ldr	r1, [sp, #28]
    1838:	f000 f84c 	bl	18d4 <_ZNKSt9type_infoeqERKS_>
    183c:	b948      	cbnz	r0, 1852 <_ZNK10__cxxabiv117__class_type_info12__do_dyncastEiNS0_10__sub_kindEPKS0_PKvS3_S5_RNS0_16__dyncast_resultE+0x30>
    183e:	4638      	mov	r0, r7
    1840:	4641      	mov	r1, r8
    1842:	f000 f847 	bl	18d4 <_ZNKSt9type_infoeqERKS_>
    1846:	b128      	cbz	r0, 1854 <_ZNK10__cxxabiv117__class_type_info12__do_dyncastEiNS0_10__sub_kindEPKS0_PKvS3_S5_RNS0_16__dyncast_resultE+0x32>
    1848:	2301      	movs	r3, #1
    184a:	6026      	str	r6, [r4, #0]
    184c:	7125      	strb	r5, [r4, #4]
    184e:	71a3      	strb	r3, [r4, #6]
    1850:	e000      	b.n	1854 <_ZNK10__cxxabiv117__class_type_info12__do_dyncastEiNS0_10__sub_kindEPKS0_PKvS3_S5_RNS0_16__dyncast_resultE+0x32>
    1852:	7165      	strb	r5, [r4, #5]
    1854:	2000      	movs	r0, #0
    1856:	e8bd 81f0 	ldmia.w	sp!, {r4, r5, r6, r7, r8, pc}

0000185a <_ZNK10__cxxabiv117__class_type_info10__do_catchEPKSt9type_infoPPvj>:
    185a:	b5f8      	push	{r3, r4, r5, r6, r7, lr}
    185c:	4605      	mov	r5, r0
    185e:	460c      	mov	r4, r1
    1860:	4616      	mov	r6, r2
    1862:	461f      	mov	r7, r3
    1864:	f000 f836 	bl	18d4 <_ZNKSt9type_infoeqERKS_>
    1868:	b940      	cbnz	r0, 187c <_ZNK10__cxxabiv117__class_type_info10__do_catchEPKSt9type_infoPPvj+0x22>
    186a:	2f03      	cmp	r7, #3
    186c:	d807      	bhi.n	187e <_ZNK10__cxxabiv117__class_type_info10__do_catchEPKSt9type_infoPPvj+0x24>
    186e:	6823      	ldr	r3, [r4, #0]
    1870:	4620      	mov	r0, r4
    1872:	695b      	ldr	r3, [r3, #20]
    1874:	4629      	mov	r1, r5
    1876:	4632      	mov	r2, r6
    1878:	4798      	blx	r3
    187a:	bdf8      	pop	{r3, r4, r5, r6, r7, pc}
    187c:	2001      	movs	r0, #1
    187e:	bdf8      	pop	{r3, r4, r5, r6, r7, pc}

00001880 <_Znwj>:
    1880:	b510      	push	{r4, lr}
    1882:	2800      	cmp	r0, #0
    1884:	bf14      	ite	ne
    1886:	4604      	movne	r4, r0
    1888:	2401      	moveq	r4, #1
    188a:	4620      	mov	r0, r4
    188c:	f001 f836 	bl	28fc <malloc>
    1890:	b930      	cbnz	r0, 18a0 <_Znwj+0x20>
    1892:	4b04      	ldr	r3, [pc, #16]	; (18a4 <_Znwj+0x24>)
    1894:	6818      	ldr	r0, [r3, #0]
    1896:	b908      	cbnz	r0, 189c <_Znwj+0x1c>
    1898:	f7fe ffc2 	bl	820 <abort>
    189c:	4780      	blx	r0
    189e:	e7f4      	b.n	188a <_Znwj+0xa>
    18a0:	bd10      	pop	{r4, pc}
    18a2:	bf00      	nop
    18a4:	10000678 	.word	0x10000678

000018a8 <_ZNSt9type_infoD1Ev>:
    18a8:	4b01      	ldr	r3, [pc, #4]	; (18b0 <_ZNSt9type_infoD1Ev+0x8>)
    18aa:	6003      	str	r3, [r0, #0]
    18ac:	4770      	bx	lr
    18ae:	bf00      	nop
    18b0:	00006f90 	.word	0x00006f90

000018b4 <_ZNKSt9type_info14__is_pointer_pEv>:
    18b4:	2000      	movs	r0, #0
    18b6:	4770      	bx	lr

000018b8 <_ZNKSt9type_info15__is_function_pEv>:
    18b8:	2000      	movs	r0, #0
    18ba:	4770      	bx	lr

000018bc <_ZNKSt9type_info11__do_upcastEPKN10__cxxabiv117__class_type_infoEPPv>:
    18bc:	2000      	movs	r0, #0
    18be:	4770      	bx	lr

000018c0 <_ZNSt9type_infoD0Ev>:
    18c0:	4b03      	ldr	r3, [pc, #12]	; (18d0 <_ZNSt9type_infoD0Ev+0x10>)
    18c2:	b510      	push	{r4, lr}
    18c4:	4604      	mov	r4, r0
    18c6:	6003      	str	r3, [r0, #0]
    18c8:	f7ff ff66 	bl	1798 <_ZdlPv>
    18cc:	4620      	mov	r0, r4
    18ce:	bd10      	pop	{r4, pc}
    18d0:	00006f90 	.word	0x00006f90

000018d4 <_ZNKSt9type_infoeqERKS_>:
    18d4:	4281      	cmp	r1, r0
    18d6:	b508      	push	{r3, lr}
    18d8:	d00e      	beq.n	18f8 <_ZNKSt9type_infoeqERKS_+0x24>
    18da:	6840      	ldr	r0, [r0, #4]
    18dc:	7803      	ldrb	r3, [r0, #0]
    18de:	2b2a      	cmp	r3, #42	; 0x2a
    18e0:	d101      	bne.n	18e6 <_ZNKSt9type_infoeqERKS_+0x12>
    18e2:	2000      	movs	r0, #0
    18e4:	bd08      	pop	{r3, pc}
    18e6:	6849      	ldr	r1, [r1, #4]
    18e8:	780a      	ldrb	r2, [r1, #0]
    18ea:	2a2a      	cmp	r2, #42	; 0x2a
    18ec:	bf08      	it	eq
    18ee:	3101      	addeq	r1, #1
    18f0:	f001 f8dd 	bl	2aae <strcmp>
    18f4:	2800      	cmp	r0, #0
    18f6:	d1f4      	bne.n	18e2 <_ZNKSt9type_infoeqERKS_+0xe>
    18f8:	2001      	movs	r0, #1
    18fa:	bd08      	pop	{r3, pc}

000018fc <_ZNKSt9type_info10__do_catchEPKS_PPvj>:
    18fc:	f7ff bfea 	b.w	18d4 <_ZNKSt9type_infoeqERKS_>

00001900 <_ZdaPv>:
    1900:	f7ff bf4a 	b.w	1798 <_ZdlPv>

00001904 <__aeabi_drsub>:
    1904:	f081 4100 	eor.w	r1, r1, #2147483648	; 0x80000000
    1908:	e002      	b.n	1910 <__adddf3>
    190a:	bf00      	nop

0000190c <__aeabi_dsub>:
    190c:	f083 4300 	eor.w	r3, r3, #2147483648	; 0x80000000

00001910 <__adddf3>:
    1910:	b530      	push	{r4, r5, lr}
    1912:	ea4f 0441 	mov.w	r4, r1, lsl #1
    1916:	ea4f 0543 	mov.w	r5, r3, lsl #1
    191a:	ea94 0f05 	teq	r4, r5
    191e:	bf08      	it	eq
    1920:	ea90 0f02 	teqeq	r0, r2
    1924:	bf1f      	itttt	ne
    1926:	ea54 0c00 	orrsne.w	r12, r4, r0
    192a:	ea55 0c02 	orrsne.w	r12, r5, r2
    192e:	ea7f 5c64 	mvnsne.w	r12, r4, asr #21
    1932:	ea7f 5c65 	mvnsne.w	r12, r5, asr #21
    1936:	f000 80e2 	beq.w	1afe <__adddf3+0x1ee>
    193a:	ea4f 5454 	mov.w	r4, r4, lsr #21
    193e:	ebd4 5555 	rsbs	r5, r4, r5, lsr #21
    1942:	bfb8      	it	lt
    1944:	426d      	neglt	r5, r5
    1946:	dd0c      	ble.n	1962 <__adddf3+0x52>
    1948:	442c      	add	r4, r5
    194a:	ea80 0202 	eor.w	r2, r0, r2
    194e:	ea81 0303 	eor.w	r3, r1, r3
    1952:	ea82 0000 	eor.w	r0, r2, r0
    1956:	ea83 0101 	eor.w	r1, r3, r1
    195a:	ea80 0202 	eor.w	r2, r0, r2
    195e:	ea81 0303 	eor.w	r3, r1, r3
    1962:	2d36      	cmp	r5, #54	; 0x36
    1964:	bf88      	it	hi
    1966:	bd30      	pophi	{r4, r5, pc}
    1968:	f011 4f00 	tst.w	r1, #2147483648	; 0x80000000
    196c:	ea4f 3101 	mov.w	r1, r1, lsl #12
    1970:	f44f 1c80 	mov.w	r12, #1048576	; 0x100000
    1974:	ea4c 3111 	orr.w	r1, r12, r1, lsr #12
    1978:	d002      	beq.n	1980 <__adddf3+0x70>
    197a:	4240      	negs	r0, r0
    197c:	eb61 0141 	sbc.w	r1, r1, r1, lsl #1
    1980:	f013 4f00 	tst.w	r3, #2147483648	; 0x80000000
    1984:	ea4f 3303 	mov.w	r3, r3, lsl #12
    1988:	ea4c 3313 	orr.w	r3, r12, r3, lsr #12
    198c:	d002      	beq.n	1994 <__adddf3+0x84>
    198e:	4252      	negs	r2, r2
    1990:	eb63 0343 	sbc.w	r3, r3, r3, lsl #1
    1994:	ea94 0f05 	teq	r4, r5
    1998:	f000 80a7 	beq.w	1aea <__adddf3+0x1da>
    199c:	f1a4 0401 	sub.w	r4, r4, #1
    19a0:	f1d5 0e20 	rsbs	lr, r5, #32
    19a4:	db0d      	blt.n	19c2 <__adddf3+0xb2>
    19a6:	fa02 fc0e 	lsl.w	r12, r2, lr
    19aa:	fa22 f205 	lsr.w	r2, r2, r5
    19ae:	1880      	adds	r0, r0, r2
    19b0:	f141 0100 	adc.w	r1, r1, #0
    19b4:	fa03 f20e 	lsl.w	r2, r3, lr
    19b8:	1880      	adds	r0, r0, r2
    19ba:	fa43 f305 	asr.w	r3, r3, r5
    19be:	4159      	adcs	r1, r3
    19c0:	e00e      	b.n	19e0 <__adddf3+0xd0>
    19c2:	f1a5 0520 	sub.w	r5, r5, #32
    19c6:	f10e 0e20 	add.w	lr, lr, #32
    19ca:	2a01      	cmp	r2, #1
    19cc:	fa03 fc0e 	lsl.w	r12, r3, lr
    19d0:	bf28      	it	cs
    19d2:	f04c 0c02 	orrcs.w	r12, r12, #2
    19d6:	fa43 f305 	asr.w	r3, r3, r5
    19da:	18c0      	adds	r0, r0, r3
    19dc:	eb51 71e3 	adcs.w	r1, r1, r3, asr #31
    19e0:	f001 4500 	and.w	r5, r1, #2147483648	; 0x80000000
    19e4:	d507      	bpl.n	19f6 <__adddf3+0xe6>
    19e6:	f04f 0e00 	mov.w	lr, #0
    19ea:	f1dc 0c00 	rsbs	r12, r12, #0
    19ee:	eb7e 0000 	sbcs.w	r0, lr, r0
    19f2:	eb6e 0101 	sbc.w	r1, lr, r1
    19f6:	f5b1 1f80 	cmp.w	r1, #1048576	; 0x100000
    19fa:	d31b      	bcc.n	1a34 <__adddf3+0x124>
    19fc:	f5b1 1f00 	cmp.w	r1, #2097152	; 0x200000
    1a00:	d30c      	bcc.n	1a1c <__adddf3+0x10c>
    1a02:	0849      	lsrs	r1, r1, #1
    1a04:	ea5f 0030 	movs.w	r0, r0, rrx
    1a08:	ea4f 0c3c 	mov.w	r12, r12, rrx
    1a0c:	f104 0401 	add.w	r4, r4, #1
    1a10:	ea4f 5244 	mov.w	r2, r4, lsl #21
    1a14:	f512 0f80 	cmn.w	r2, #4194304	; 0x400000
    1a18:	f080 809a 	bcs.w	1b50 <__adddf3+0x240>
    1a1c:	f1bc 4f00 	cmp.w	r12, #2147483648	; 0x80000000
    1a20:	bf08      	it	eq
    1a22:	ea5f 0c50 	movseq.w	r12, r0, lsr #1
    1a26:	f150 0000 	adcs.w	r0, r0, #0
    1a2a:	eb41 5104 	adc.w	r1, r1, r4, lsl #20
    1a2e:	ea41 0105 	orr.w	r1, r1, r5
    1a32:	bd30      	pop	{r4, r5, pc}
    1a34:	ea5f 0c4c 	movs.w	r12, r12, lsl #1
    1a38:	4140      	adcs	r0, r0
    1a3a:	eb41 0101 	adc.w	r1, r1, r1
    1a3e:	f411 1f80 	tst.w	r1, #1048576	; 0x100000
    1a42:	f1a4 0401 	sub.w	r4, r4, #1
    1a46:	d1e9      	bne.n	1a1c <__adddf3+0x10c>
    1a48:	f091 0f00 	teq	r1, #0
    1a4c:	bf04      	itt	eq
    1a4e:	4601      	moveq	r1, r0
    1a50:	2000      	moveq	r0, #0
    1a52:	fab1 f381 	clz	r3, r1
    1a56:	bf08      	it	eq
    1a58:	3320      	addeq	r3, #32
    1a5a:	f1a3 030b 	sub.w	r3, r3, #11
    1a5e:	f1b3 0220 	subs.w	r2, r3, #32
    1a62:	da0c      	bge.n	1a7e <__adddf3+0x16e>
    1a64:	320c      	adds	r2, #12
    1a66:	dd08      	ble.n	1a7a <__adddf3+0x16a>
    1a68:	f102 0c14 	add.w	r12, r2, #20
    1a6c:	f1c2 020c 	rsb	r2, r2, #12
    1a70:	fa01 f00c 	lsl.w	r0, r1, r12
    1a74:	fa21 f102 	lsr.w	r1, r1, r2
    1a78:	e00c      	b.n	1a94 <__adddf3+0x184>
    1a7a:	f102 0214 	add.w	r2, r2, #20
    1a7e:	bfd8      	it	le
    1a80:	f1c2 0c20 	rsble	r12, r2, #32
    1a84:	fa01 f102 	lsl.w	r1, r1, r2
    1a88:	fa20 fc0c 	lsr.w	r12, r0, r12
    1a8c:	bfdc      	itt	le
    1a8e:	ea41 010c 	orrle.w	r1, r1, r12
    1a92:	4090      	lslle	r0, r2
    1a94:	1ae4      	subs	r4, r4, r3
    1a96:	bfa2      	ittt	ge
    1a98:	eb01 5104 	addge.w	r1, r1, r4, lsl #20
    1a9c:	4329      	orrge	r1, r5
    1a9e:	bd30      	popge	{r4, r5, pc}
    1aa0:	ea6f 0404 	mvn.w	r4, r4
    1aa4:	3c1f      	subs	r4, #31
    1aa6:	da1c      	bge.n	1ae2 <__adddf3+0x1d2>
    1aa8:	340c      	adds	r4, #12
    1aaa:	dc0e      	bgt.n	1aca <__adddf3+0x1ba>
    1aac:	f104 0414 	add.w	r4, r4, #20
    1ab0:	f1c4 0220 	rsb	r2, r4, #32
    1ab4:	fa20 f004 	lsr.w	r0, r0, r4
    1ab8:	fa01 f302 	lsl.w	r3, r1, r2
    1abc:	ea40 0003 	orr.w	r0, r0, r3
    1ac0:	fa21 f304 	lsr.w	r3, r1, r4
    1ac4:	ea45 0103 	orr.w	r1, r5, r3
    1ac8:	bd30      	pop	{r4, r5, pc}
    1aca:	f1c4 040c 	rsb	r4, r4, #12
    1ace:	f1c4 0220 	rsb	r2, r4, #32
    1ad2:	fa20 f002 	lsr.w	r0, r0, r2
    1ad6:	fa01 f304 	lsl.w	r3, r1, r4
    1ada:	ea40 0003 	orr.w	r0, r0, r3
    1ade:	4629      	mov	r1, r5
    1ae0:	bd30      	pop	{r4, r5, pc}
    1ae2:	fa21 f004 	lsr.w	r0, r1, r4
    1ae6:	4629      	mov	r1, r5
    1ae8:	bd30      	pop	{r4, r5, pc}
    1aea:	f094 0f00 	teq	r4, #0
    1aee:	f483 1380 	eor.w	r3, r3, #1048576	; 0x100000
    1af2:	bf06      	itte	eq
    1af4:	f481 1180 	eoreq.w	r1, r1, #1048576	; 0x100000
    1af8:	3401      	addeq	r4, #1
    1afa:	3d01      	subne	r5, #1
    1afc:	e74e      	b.n	199c <__adddf3+0x8c>
    1afe:	ea7f 5c64 	mvns.w	r12, r4, asr #21
    1b02:	bf18      	it	ne
    1b04:	ea7f 5c65 	mvnsne.w	r12, r5, asr #21
    1b08:	d029      	beq.n	1b5e <__adddf3+0x24e>
    1b0a:	ea94 0f05 	teq	r4, r5
    1b0e:	bf08      	it	eq
    1b10:	ea90 0f02 	teqeq	r0, r2
    1b14:	d005      	beq.n	1b22 <__adddf3+0x212>
    1b16:	ea54 0c00 	orrs.w	r12, r4, r0
    1b1a:	bf04      	itt	eq
    1b1c:	4619      	moveq	r1, r3
    1b1e:	4610      	moveq	r0, r2
    1b20:	bd30      	pop	{r4, r5, pc}
    1b22:	ea91 0f03 	teq	r1, r3
    1b26:	bf1e      	ittt	ne
    1b28:	2100      	movne	r1, #0
    1b2a:	2000      	movne	r0, #0
    1b2c:	bd30      	popne	{r4, r5, pc}
    1b2e:	ea5f 5c54 	movs.w	r12, r4, lsr #21
    1b32:	d105      	bne.n	1b40 <__adddf3+0x230>
    1b34:	0040      	lsls	r0, r0, #1
    1b36:	4149      	adcs	r1, r1
    1b38:	bf28      	it	cs
    1b3a:	f041 4100 	orrcs.w	r1, r1, #2147483648	; 0x80000000
    1b3e:	bd30      	pop	{r4, r5, pc}
    1b40:	f514 0480 	adds.w	r4, r4, #4194304	; 0x400000
    1b44:	bf3c      	itt	cc
    1b46:	f501 1180 	addcc.w	r1, r1, #1048576	; 0x100000
    1b4a:	bd30      	popcc	{r4, r5, pc}
    1b4c:	f001 4500 	and.w	r5, r1, #2147483648	; 0x80000000
    1b50:	f045 41fe 	orr.w	r1, r5, #2130706432	; 0x7f000000
    1b54:	f441 0170 	orr.w	r1, r1, #15728640	; 0xf00000
    1b58:	f04f 0000 	mov.w	r0, #0
    1b5c:	bd30      	pop	{r4, r5, pc}
    1b5e:	ea7f 5c64 	mvns.w	r12, r4, asr #21
    1b62:	bf1a      	itte	ne
    1b64:	4619      	movne	r1, r3
    1b66:	4610      	movne	r0, r2
    1b68:	ea7f 5c65 	mvnseq.w	r12, r5, asr #21
    1b6c:	bf1c      	itt	ne
    1b6e:	460b      	movne	r3, r1
    1b70:	4602      	movne	r2, r0
    1b72:	ea50 3401 	orrs.w	r4, r0, r1, lsl #12
    1b76:	bf06      	itte	eq
    1b78:	ea52 3503 	orrseq.w	r5, r2, r3, lsl #12
    1b7c:	ea91 0f03 	teqeq	r1, r3
    1b80:	f441 2100 	orrne.w	r1, r1, #524288	; 0x80000
    1b84:	bd30      	pop	{r4, r5, pc}
    1b86:	bf00      	nop

00001b88 <__aeabi_ui2d>:
    1b88:	f090 0f00 	teq	r0, #0
    1b8c:	bf04      	itt	eq
    1b8e:	2100      	moveq	r1, #0
    1b90:	4770      	bxeq	lr
    1b92:	b530      	push	{r4, r5, lr}
    1b94:	f44f 6480 	mov.w	r4, #1024	; 0x400
    1b98:	f104 0432 	add.w	r4, r4, #50	; 0x32
    1b9c:	f04f 0500 	mov.w	r5, #0
    1ba0:	f04f 0100 	mov.w	r1, #0
    1ba4:	e750      	b.n	1a48 <__adddf3+0x138>
    1ba6:	bf00      	nop

00001ba8 <__aeabi_i2d>:
    1ba8:	f090 0f00 	teq	r0, #0
    1bac:	bf04      	itt	eq
    1bae:	2100      	moveq	r1, #0
    1bb0:	4770      	bxeq	lr
    1bb2:	b530      	push	{r4, r5, lr}
    1bb4:	f44f 6480 	mov.w	r4, #1024	; 0x400
    1bb8:	f104 0432 	add.w	r4, r4, #50	; 0x32
    1bbc:	f010 4500 	ands.w	r5, r0, #2147483648	; 0x80000000
    1bc0:	bf48      	it	mi
    1bc2:	4240      	negmi	r0, r0
    1bc4:	f04f 0100 	mov.w	r1, #0
    1bc8:	e73e      	b.n	1a48 <__adddf3+0x138>
    1bca:	bf00      	nop

00001bcc <__aeabi_f2d>:
    1bcc:	0042      	lsls	r2, r0, #1
    1bce:	ea4f 01e2 	mov.w	r1, r2, asr #3
    1bd2:	ea4f 0131 	mov.w	r1, r1, rrx
    1bd6:	ea4f 7002 	mov.w	r0, r2, lsl #28
    1bda:	bf1f      	itttt	ne
    1bdc:	f012 437f 	andsne.w	r3, r2, #4278190080	; 0xff000000
    1be0:	f093 4f7f 	teqne	r3, #4278190080	; 0xff000000
    1be4:	f081 5160 	eorne.w	r1, r1, #939524096	; 0x38000000
    1be8:	4770      	bxne	lr
    1bea:	f092 0f00 	teq	r2, #0
    1bee:	bf14      	ite	ne
    1bf0:	f093 4f7f 	teqne	r3, #4278190080	; 0xff000000
    1bf4:	4770      	bxeq	lr
    1bf6:	b530      	push	{r4, r5, lr}
    1bf8:	f44f 7460 	mov.w	r4, #896	; 0x380
    1bfc:	f001 4500 	and.w	r5, r1, #2147483648	; 0x80000000
    1c00:	f021 4100 	bic.w	r1, r1, #2147483648	; 0x80000000
    1c04:	e720      	b.n	1a48 <__adddf3+0x138>
    1c06:	bf00      	nop

00001c08 <__aeabi_ul2d>:
    1c08:	ea50 0201 	orrs.w	r2, r0, r1
    1c0c:	bf08      	it	eq
    1c0e:	4770      	bxeq	lr
    1c10:	b530      	push	{r4, r5, lr}
    1c12:	f04f 0500 	mov.w	r5, #0
    1c16:	e00a      	b.n	1c2e <__aeabi_l2d+0x16>

00001c18 <__aeabi_l2d>:
    1c18:	ea50 0201 	orrs.w	r2, r0, r1
    1c1c:	bf08      	it	eq
    1c1e:	4770      	bxeq	lr
    1c20:	b530      	push	{r4, r5, lr}
    1c22:	f011 4500 	ands.w	r5, r1, #2147483648	; 0x80000000
    1c26:	d502      	bpl.n	1c2e <__aeabi_l2d+0x16>
    1c28:	4240      	negs	r0, r0
    1c2a:	eb61 0141 	sbc.w	r1, r1, r1, lsl #1
    1c2e:	f44f 6480 	mov.w	r4, #1024	; 0x400
    1c32:	f104 0432 	add.w	r4, r4, #50	; 0x32
    1c36:	ea5f 5c91 	movs.w	r12, r1, lsr #22
    1c3a:	f43f aedc 	beq.w	19f6 <__adddf3+0xe6>
    1c3e:	f04f 0203 	mov.w	r2, #3
    1c42:	ea5f 0cdc 	movs.w	r12, r12, lsr #3
    1c46:	bf18      	it	ne
    1c48:	3203      	addne	r2, #3
    1c4a:	ea5f 0cdc 	movs.w	r12, r12, lsr #3
    1c4e:	bf18      	it	ne
    1c50:	3203      	addne	r2, #3
    1c52:	eb02 02dc 	add.w	r2, r2, r12, lsr #3
    1c56:	f1c2 0320 	rsb	r3, r2, #32
    1c5a:	fa00 fc03 	lsl.w	r12, r0, r3
    1c5e:	fa20 f002 	lsr.w	r0, r0, r2
    1c62:	fa01 fe03 	lsl.w	lr, r1, r3
    1c66:	ea40 000e 	orr.w	r0, r0, lr
    1c6a:	fa21 f102 	lsr.w	r1, r1, r2
    1c6e:	4414      	add	r4, r2
    1c70:	e6c1      	b.n	19f6 <__adddf3+0xe6>
    1c72:	bf00      	nop

00001c74 <__aeabi_dmul>:
    1c74:	b570      	push	{r4, r5, r6, lr}
    1c76:	f04f 0cff 	mov.w	r12, #255	; 0xff
    1c7a:	f44c 6ce0 	orr.w	r12, r12, #1792	; 0x700
    1c7e:	ea1c 5411 	ands.w	r4, r12, r1, lsr #20
    1c82:	bf1d      	ittte	ne
    1c84:	ea1c 5513 	andsne.w	r5, r12, r3, lsr #20
    1c88:	ea94 0f0c 	teqne	r4, r12
    1c8c:	ea95 0f0c 	teqne	r5, r12
    1c90:	f000 f8de 	bleq	1e50 <__aeabi_dmul+0x1dc>
    1c94:	442c      	add	r4, r5
    1c96:	ea81 0603 	eor.w	r6, r1, r3
    1c9a:	ea21 514c 	bic.w	r1, r1, r12, lsl #21
    1c9e:	ea23 534c 	bic.w	r3, r3, r12, lsl #21
    1ca2:	ea50 3501 	orrs.w	r5, r0, r1, lsl #12
    1ca6:	bf18      	it	ne
    1ca8:	ea52 3503 	orrsne.w	r5, r2, r3, lsl #12
    1cac:	f441 1180 	orr.w	r1, r1, #1048576	; 0x100000
    1cb0:	f443 1380 	orr.w	r3, r3, #1048576	; 0x100000
    1cb4:	d038      	beq.n	1d28 <__aeabi_dmul+0xb4>
    1cb6:	fba0 ce02 	umull	r12, lr, r0, r2
    1cba:	f04f 0500 	mov.w	r5, #0
    1cbe:	fbe1 e502 	umlal	lr, r5, r1, r2
    1cc2:	f006 4200 	and.w	r2, r6, #2147483648	; 0x80000000
    1cc6:	fbe0 e503 	umlal	lr, r5, r0, r3
    1cca:	f04f 0600 	mov.w	r6, #0
    1cce:	fbe1 5603 	umlal	r5, r6, r1, r3
    1cd2:	f09c 0f00 	teq	r12, #0
    1cd6:	bf18      	it	ne
    1cd8:	f04e 0e01 	orrne.w	lr, lr, #1
    1cdc:	f1a4 04ff 	sub.w	r4, r4, #255	; 0xff
    1ce0:	f5b6 7f00 	cmp.w	r6, #512	; 0x200
    1ce4:	f564 7440 	sbc.w	r4, r4, #768	; 0x300
    1ce8:	d204      	bcs.n	1cf4 <__aeabi_dmul+0x80>
    1cea:	ea5f 0e4e 	movs.w	lr, lr, lsl #1
    1cee:	416d      	adcs	r5, r5
    1cf0:	eb46 0606 	adc.w	r6, r6, r6
    1cf4:	ea42 21c6 	orr.w	r1, r2, r6, lsl #11
    1cf8:	ea41 5155 	orr.w	r1, r1, r5, lsr #21
    1cfc:	ea4f 20c5 	mov.w	r0, r5, lsl #11
    1d00:	ea40 505e 	orr.w	r0, r0, lr, lsr #21
    1d04:	ea4f 2ece 	mov.w	lr, lr, lsl #11
    1d08:	f1b4 0cfd 	subs.w	r12, r4, #253	; 0xfd
    1d0c:	bf88      	it	hi
    1d0e:	f5bc 6fe0 	cmphi.w	r12, #1792	; 0x700
    1d12:	d81e      	bhi.n	1d52 <__aeabi_dmul+0xde>
    1d14:	f1be 4f00 	cmp.w	lr, #2147483648	; 0x80000000
    1d18:	bf08      	it	eq
    1d1a:	ea5f 0e50 	movseq.w	lr, r0, lsr #1
    1d1e:	f150 0000 	adcs.w	r0, r0, #0
    1d22:	eb41 5104 	adc.w	r1, r1, r4, lsl #20
    1d26:	bd70      	pop	{r4, r5, r6, pc}
    1d28:	f006 4600 	and.w	r6, r6, #2147483648	; 0x80000000
    1d2c:	ea46 0101 	orr.w	r1, r6, r1
    1d30:	ea40 0002 	orr.w	r0, r0, r2
    1d34:	ea81 0103 	eor.w	r1, r1, r3
    1d38:	ebb4 045c 	subs.w	r4, r4, r12, lsr #1
    1d3c:	bfc2      	ittt	gt
    1d3e:	ebd4 050c 	rsbsgt	r5, r4, r12
    1d42:	ea41 5104 	orrgt.w	r1, r1, r4, lsl #20
    1d46:	bd70      	popgt	{r4, r5, r6, pc}
    1d48:	f441 1180 	orr.w	r1, r1, #1048576	; 0x100000
    1d4c:	f04f 0e00 	mov.w	lr, #0
    1d50:	3c01      	subs	r4, #1
    1d52:	f300 80ab 	bgt.w	1eac <__aeabi_dmul+0x238>
    1d56:	f114 0f36 	cmn.w	r4, #54	; 0x36
    1d5a:	bfde      	ittt	le
    1d5c:	2000      	movle	r0, #0
    1d5e:	f001 4100 	andle.w	r1, r1, #2147483648	; 0x80000000
    1d62:	bd70      	pople	{r4, r5, r6, pc}
    1d64:	f1c4 0400 	rsb	r4, r4, #0
    1d68:	3c20      	subs	r4, #32
    1d6a:	da35      	bge.n	1dd8 <__aeabi_dmul+0x164>
    1d6c:	340c      	adds	r4, #12
    1d6e:	dc1b      	bgt.n	1da8 <__aeabi_dmul+0x134>
    1d70:	f104 0414 	add.w	r4, r4, #20
    1d74:	f1c4 0520 	rsb	r5, r4, #32
    1d78:	fa00 f305 	lsl.w	r3, r0, r5
    1d7c:	fa20 f004 	lsr.w	r0, r0, r4
    1d80:	fa01 f205 	lsl.w	r2, r1, r5
    1d84:	ea40 0002 	orr.w	r0, r0, r2
    1d88:	f001 4200 	and.w	r2, r1, #2147483648	; 0x80000000
    1d8c:	f021 4100 	bic.w	r1, r1, #2147483648	; 0x80000000
    1d90:	eb10 70d3 	adds.w	r0, r0, r3, lsr #31
    1d94:	fa21 f604 	lsr.w	r6, r1, r4
    1d98:	eb42 0106 	adc.w	r1, r2, r6
    1d9c:	ea5e 0e43 	orrs.w	lr, lr, r3, lsl #1
    1da0:	bf08      	it	eq
    1da2:	ea20 70d3 	biceq.w	r0, r0, r3, lsr #31
    1da6:	bd70      	pop	{r4, r5, r6, pc}
    1da8:	f1c4 040c 	rsb	r4, r4, #12
    1dac:	f1c4 0520 	rsb	r5, r4, #32
    1db0:	fa00 f304 	lsl.w	r3, r0, r4
    1db4:	fa20 f005 	lsr.w	r0, r0, r5
    1db8:	fa01 f204 	lsl.w	r2, r1, r4
    1dbc:	ea40 0002 	orr.w	r0, r0, r2
    1dc0:	f001 4100 	and.w	r1, r1, #2147483648	; 0x80000000
    1dc4:	eb10 70d3 	adds.w	r0, r0, r3, lsr #31
    1dc8:	f141 0100 	adc.w	r1, r1, #0
    1dcc:	ea5e 0e43 	orrs.w	lr, lr, r3, lsl #1
    1dd0:	bf08      	it	eq
    1dd2:	ea20 70d3 	biceq.w	r0, r0, r3, lsr #31
    1dd6:	bd70      	pop	{r4, r5, r6, pc}
    1dd8:	f1c4 0520 	rsb	r5, r4, #32
    1ddc:	fa00 f205 	lsl.w	r2, r0, r5
    1de0:	ea4e 0e02 	orr.w	lr, lr, r2
    1de4:	fa20 f304 	lsr.w	r3, r0, r4
    1de8:	fa01 f205 	lsl.w	r2, r1, r5
    1dec:	ea43 0302 	orr.w	r3, r3, r2
    1df0:	fa21 f004 	lsr.w	r0, r1, r4
    1df4:	f001 4100 	and.w	r1, r1, #2147483648	; 0x80000000
    1df8:	fa21 f204 	lsr.w	r2, r1, r4
    1dfc:	ea20 0002 	bic.w	r0, r0, r2
    1e00:	eb00 70d3 	add.w	r0, r0, r3, lsr #31
    1e04:	ea5e 0e43 	orrs.w	lr, lr, r3, lsl #1
    1e08:	bf08      	it	eq
    1e0a:	ea20 70d3 	biceq.w	r0, r0, r3, lsr #31
    1e0e:	bd70      	pop	{r4, r5, r6, pc}
    1e10:	f094 0f00 	teq	r4, #0
    1e14:	d10f      	bne.n	1e36 <__aeabi_dmul+0x1c2>
    1e16:	f001 4600 	and.w	r6, r1, #2147483648	; 0x80000000
    1e1a:	0040      	lsls	r0, r0, #1
    1e1c:	eb41 0101 	adc.w	r1, r1, r1
    1e20:	f411 1f80 	tst.w	r1, #1048576	; 0x100000
    1e24:	bf08      	it	eq
    1e26:	3c01      	subeq	r4, #1
    1e28:	d0f7      	beq.n	1e1a <__aeabi_dmul+0x1a6>
    1e2a:	ea41 0106 	orr.w	r1, r1, r6
    1e2e:	f095 0f00 	teq	r5, #0
    1e32:	bf18      	it	ne
    1e34:	4770      	bxne	lr
    1e36:	f003 4600 	and.w	r6, r3, #2147483648	; 0x80000000
    1e3a:	0052      	lsls	r2, r2, #1
    1e3c:	eb43 0303 	adc.w	r3, r3, r3
    1e40:	f413 1f80 	tst.w	r3, #1048576	; 0x100000
    1e44:	bf08      	it	eq
    1e46:	3d01      	subeq	r5, #1
    1e48:	d0f7      	beq.n	1e3a <__aeabi_dmul+0x1c6>
    1e4a:	ea43 0306 	orr.w	r3, r3, r6
    1e4e:	4770      	bx	lr
    1e50:	ea94 0f0c 	teq	r4, r12
    1e54:	ea0c 5513 	and.w	r5, r12, r3, lsr #20
    1e58:	bf18      	it	ne
    1e5a:	ea95 0f0c 	teqne	r5, r12
    1e5e:	d00c      	beq.n	1e7a <__aeabi_dmul+0x206>
    1e60:	ea50 0641 	orrs.w	r6, r0, r1, lsl #1
    1e64:	bf18      	it	ne
    1e66:	ea52 0643 	orrsne.w	r6, r2, r3, lsl #1
    1e6a:	d1d1      	bne.n	1e10 <__aeabi_dmul+0x19c>
    1e6c:	ea81 0103 	eor.w	r1, r1, r3
    1e70:	f001 4100 	and.w	r1, r1, #2147483648	; 0x80000000
    1e74:	f04f 0000 	mov.w	r0, #0
    1e78:	bd70      	pop	{r4, r5, r6, pc}
    1e7a:	ea50 0641 	orrs.w	r6, r0, r1, lsl #1
    1e7e:	bf06      	itte	eq
    1e80:	4610      	moveq	r0, r2
    1e82:	4619      	moveq	r1, r3
    1e84:	ea52 0643 	orrsne.w	r6, r2, r3, lsl #1
    1e88:	d019      	beq.n	1ebe <__aeabi_dmul+0x24a>
    1e8a:	ea94 0f0c 	teq	r4, r12
    1e8e:	d102      	bne.n	1e96 <__aeabi_dmul+0x222>
    1e90:	ea50 3601 	orrs.w	r6, r0, r1, lsl #12
    1e94:	d113      	bne.n	1ebe <__aeabi_dmul+0x24a>
    1e96:	ea95 0f0c 	teq	r5, r12
    1e9a:	d105      	bne.n	1ea8 <__aeabi_dmul+0x234>
    1e9c:	ea52 3603 	orrs.w	r6, r2, r3, lsl #12
    1ea0:	bf1c      	itt	ne
    1ea2:	4610      	movne	r0, r2
    1ea4:	4619      	movne	r1, r3
    1ea6:	d10a      	bne.n	1ebe <__aeabi_dmul+0x24a>
    1ea8:	ea81 0103 	eor.w	r1, r1, r3
    1eac:	f001 4100 	and.w	r1, r1, #2147483648	; 0x80000000
    1eb0:	f041 41fe 	orr.w	r1, r1, #2130706432	; 0x7f000000
    1eb4:	f441 0170 	orr.w	r1, r1, #15728640	; 0xf00000
    1eb8:	f04f 0000 	mov.w	r0, #0
    1ebc:	bd70      	pop	{r4, r5, r6, pc}
    1ebe:	f041 41fe 	orr.w	r1, r1, #2130706432	; 0x7f000000
    1ec2:	f441 0178 	orr.w	r1, r1, #16252928	; 0xf80000
    1ec6:	bd70      	pop	{r4, r5, r6, pc}

00001ec8 <__aeabi_ddiv>:
    1ec8:	b570      	push	{r4, r5, r6, lr}
    1eca:	f04f 0cff 	mov.w	r12, #255	; 0xff
    1ece:	f44c 6ce0 	orr.w	r12, r12, #1792	; 0x700
    1ed2:	ea1c 5411 	ands.w	r4, r12, r1, lsr #20
    1ed6:	bf1d      	ittte	ne
    1ed8:	ea1c 5513 	andsne.w	r5, r12, r3, lsr #20
    1edc:	ea94 0f0c 	teqne	r4, r12
    1ee0:	ea95 0f0c 	teqne	r5, r12
    1ee4:	f000 f8a7 	bleq	2036 <__aeabi_ddiv+0x16e>
    1ee8:	eba4 0405 	sub.w	r4, r4, r5
    1eec:	ea81 0e03 	eor.w	lr, r1, r3
    1ef0:	ea52 3503 	orrs.w	r5, r2, r3, lsl #12
    1ef4:	ea4f 3101 	mov.w	r1, r1, lsl #12
    1ef8:	f000 8088 	beq.w	200c <__aeabi_ddiv+0x144>
    1efc:	ea4f 3303 	mov.w	r3, r3, lsl #12
    1f00:	f04f 5580 	mov.w	r5, #268435456	; 0x10000000
    1f04:	ea45 1313 	orr.w	r3, r5, r3, lsr #4
    1f08:	ea43 6312 	orr.w	r3, r3, r2, lsr #24
    1f0c:	ea4f 2202 	mov.w	r2, r2, lsl #8
    1f10:	ea45 1511 	orr.w	r5, r5, r1, lsr #4
    1f14:	ea45 6510 	orr.w	r5, r5, r0, lsr #24
    1f18:	ea4f 2600 	mov.w	r6, r0, lsl #8
    1f1c:	f00e 4100 	and.w	r1, lr, #2147483648	; 0x80000000
    1f20:	429d      	cmp	r5, r3
    1f22:	bf08      	it	eq
    1f24:	4296      	cmpeq	r6, r2
    1f26:	f144 04fd 	adc.w	r4, r4, #253	; 0xfd
    1f2a:	f504 7440 	add.w	r4, r4, #768	; 0x300
    1f2e:	d202      	bcs.n	1f36 <__aeabi_ddiv+0x6e>
    1f30:	085b      	lsrs	r3, r3, #1
    1f32:	ea4f 0232 	mov.w	r2, r2, rrx
    1f36:	1ab6      	subs	r6, r6, r2
    1f38:	eb65 0503 	sbc.w	r5, r5, r3
    1f3c:	085b      	lsrs	r3, r3, #1
    1f3e:	ea4f 0232 	mov.w	r2, r2, rrx
    1f42:	f44f 1080 	mov.w	r0, #1048576	; 0x100000
    1f46:	f44f 2c00 	mov.w	r12, #524288	; 0x80000
    1f4a:	ebb6 0e02 	subs.w	lr, r6, r2
    1f4e:	eb75 0e03 	sbcs.w	lr, r5, r3
    1f52:	bf22      	ittt	cs
    1f54:	1ab6      	subcs	r6, r6, r2
    1f56:	4675      	movcs	r5, lr
    1f58:	ea40 000c 	orrcs.w	r0, r0, r12
    1f5c:	085b      	lsrs	r3, r3, #1
    1f5e:	ea4f 0232 	mov.w	r2, r2, rrx
    1f62:	ebb6 0e02 	subs.w	lr, r6, r2
    1f66:	eb75 0e03 	sbcs.w	lr, r5, r3
    1f6a:	bf22      	ittt	cs
    1f6c:	1ab6      	subcs	r6, r6, r2
    1f6e:	4675      	movcs	r5, lr
    1f70:	ea40 005c 	orrcs.w	r0, r0, r12, lsr #1
    1f74:	085b      	lsrs	r3, r3, #1
    1f76:	ea4f 0232 	mov.w	r2, r2, rrx
    1f7a:	ebb6 0e02 	subs.w	lr, r6, r2
    1f7e:	eb75 0e03 	sbcs.w	lr, r5, r3
    1f82:	bf22      	ittt	cs
    1f84:	1ab6      	subcs	r6, r6, r2
    1f86:	4675      	movcs	r5, lr
    1f88:	ea40 009c 	orrcs.w	r0, r0, r12, lsr #2
    1f8c:	085b      	lsrs	r3, r3, #1
    1f8e:	ea4f 0232 	mov.w	r2, r2, rrx
    1f92:	ebb6 0e02 	subs.w	lr, r6, r2
    1f96:	eb75 0e03 	sbcs.w	lr, r5, r3
    1f9a:	bf22      	ittt	cs
    1f9c:	1ab6      	subcs	r6, r6, r2
    1f9e:	4675      	movcs	r5, lr
    1fa0:	ea40 00dc 	orrcs.w	r0, r0, r12, lsr #3
    1fa4:	ea55 0e06 	orrs.w	lr, r5, r6
    1fa8:	d018      	beq.n	1fdc <__aeabi_ddiv+0x114>
    1faa:	ea4f 1505 	mov.w	r5, r5, lsl #4
    1fae:	ea45 7516 	orr.w	r5, r5, r6, lsr #28
    1fb2:	ea4f 1606 	mov.w	r6, r6, lsl #4
    1fb6:	ea4f 03c3 	mov.w	r3, r3, lsl #3
    1fba:	ea43 7352 	orr.w	r3, r3, r2, lsr #29
    1fbe:	ea4f 02c2 	mov.w	r2, r2, lsl #3
    1fc2:	ea5f 1c1c 	movs.w	r12, r12, lsr #4
    1fc6:	d1c0      	bne.n	1f4a <__aeabi_ddiv+0x82>
    1fc8:	f411 1f80 	tst.w	r1, #1048576	; 0x100000
    1fcc:	d10b      	bne.n	1fe6 <__aeabi_ddiv+0x11e>
    1fce:	ea41 0100 	orr.w	r1, r1, r0
    1fd2:	f04f 0000 	mov.w	r0, #0
    1fd6:	f04f 4c00 	mov.w	r12, #2147483648	; 0x80000000
    1fda:	e7b6      	b.n	1f4a <__aeabi_ddiv+0x82>
    1fdc:	f411 1f80 	tst.w	r1, #1048576	; 0x100000
    1fe0:	bf04      	itt	eq
    1fe2:	4301      	orreq	r1, r0
    1fe4:	2000      	moveq	r0, #0
    1fe6:	f1b4 0cfd 	subs.w	r12, r4, #253	; 0xfd
    1fea:	bf88      	it	hi
    1fec:	f5bc 6fe0 	cmphi.w	r12, #1792	; 0x700
    1ff0:	f63f aeaf 	bhi.w	1d52 <__aeabi_dmul+0xde>
    1ff4:	ebb5 0c03 	subs.w	r12, r5, r3
    1ff8:	bf04      	itt	eq
    1ffa:	ebb6 0c02 	subseq.w	r12, r6, r2
    1ffe:	ea5f 0c50 	movseq.w	r12, r0, lsr #1
    2002:	f150 0000 	adcs.w	r0, r0, #0
    2006:	eb41 5104 	adc.w	r1, r1, r4, lsl #20
    200a:	bd70      	pop	{r4, r5, r6, pc}
    200c:	f00e 4e00 	and.w	lr, lr, #2147483648	; 0x80000000
    2010:	ea4e 3111 	orr.w	r1, lr, r1, lsr #12
    2014:	eb14 045c 	adds.w	r4, r4, r12, lsr #1
    2018:	bfc2      	ittt	gt
    201a:	ebd4 050c 	rsbsgt	r5, r4, r12
    201e:	ea41 5104 	orrgt.w	r1, r1, r4, lsl #20
    2022:	bd70      	popgt	{r4, r5, r6, pc}
    2024:	f441 1180 	orr.w	r1, r1, #1048576	; 0x100000
    2028:	f04f 0e00 	mov.w	lr, #0
    202c:	3c01      	subs	r4, #1
    202e:	e690      	b.n	1d52 <__aeabi_dmul+0xde>
    2030:	ea45 0e06 	orr.w	lr, r5, r6
    2034:	e68d      	b.n	1d52 <__aeabi_dmul+0xde>
    2036:	ea0c 5513 	and.w	r5, r12, r3, lsr #20
    203a:	ea94 0f0c 	teq	r4, r12
    203e:	bf08      	it	eq
    2040:	ea95 0f0c 	teqeq	r5, r12
    2044:	f43f af3b 	beq.w	1ebe <__aeabi_dmul+0x24a>
    2048:	ea94 0f0c 	teq	r4, r12
    204c:	d10a      	bne.n	2064 <__aeabi_ddiv+0x19c>
    204e:	ea50 3401 	orrs.w	r4, r0, r1, lsl #12
    2052:	f47f af34 	bne.w	1ebe <__aeabi_dmul+0x24a>
    2056:	ea95 0f0c 	teq	r5, r12
    205a:	f47f af25 	bne.w	1ea8 <__aeabi_dmul+0x234>
    205e:	4610      	mov	r0, r2
    2060:	4619      	mov	r1, r3
    2062:	e72c      	b.n	1ebe <__aeabi_dmul+0x24a>
    2064:	ea95 0f0c 	teq	r5, r12
    2068:	d106      	bne.n	2078 <__aeabi_ddiv+0x1b0>
    206a:	ea52 3503 	orrs.w	r5, r2, r3, lsl #12
    206e:	f43f aefd 	beq.w	1e6c <__aeabi_dmul+0x1f8>
    2072:	4610      	mov	r0, r2
    2074:	4619      	mov	r1, r3
    2076:	e722      	b.n	1ebe <__aeabi_dmul+0x24a>
    2078:	ea50 0641 	orrs.w	r6, r0, r1, lsl #1
    207c:	bf18      	it	ne
    207e:	ea52 0643 	orrsne.w	r6, r2, r3, lsl #1
    2082:	f47f aec5 	bne.w	1e10 <__aeabi_dmul+0x19c>
    2086:	ea50 0441 	orrs.w	r4, r0, r1, lsl #1
    208a:	f47f af0d 	bne.w	1ea8 <__aeabi_dmul+0x234>
    208e:	ea52 0543 	orrs.w	r5, r2, r3, lsl #1
    2092:	f47f aeeb 	bne.w	1e6c <__aeabi_dmul+0x1f8>
    2096:	e712      	b.n	1ebe <__aeabi_dmul+0x24a>

00002098 <__gedf2>:
    2098:	f04f 3cff 	mov.w	r12, #4294967295
    209c:	e006      	b.n	20ac <__cmpdf2+0x4>
    209e:	bf00      	nop

000020a0 <__ledf2>:
    20a0:	f04f 0c01 	mov.w	r12, #1
    20a4:	e002      	b.n	20ac <__cmpdf2+0x4>
    20a6:	bf00      	nop

000020a8 <__cmpdf2>:
    20a8:	f04f 0c01 	mov.w	r12, #1
    20ac:	f84d cd04 	str.w	r12, [sp, #-4]!
    20b0:	ea4f 0c41 	mov.w	r12, r1, lsl #1
    20b4:	ea7f 5c6c 	mvns.w	r12, r12, asr #21
    20b8:	ea4f 0c43 	mov.w	r12, r3, lsl #1
    20bc:	bf18      	it	ne
    20be:	ea7f 5c6c 	mvnsne.w	r12, r12, asr #21
    20c2:	d01b      	beq.n	20fc <__cmpdf2+0x54>
    20c4:	b001      	add	sp, #4
    20c6:	ea50 0c41 	orrs.w	r12, r0, r1, lsl #1
    20ca:	bf0c      	ite	eq
    20cc:	ea52 0c43 	orrseq.w	r12, r2, r3, lsl #1
    20d0:	ea91 0f03 	teqne	r1, r3
    20d4:	bf02      	ittt	eq
    20d6:	ea90 0f02 	teqeq	r0, r2
    20da:	2000      	moveq	r0, #0
    20dc:	4770      	bxeq	lr
    20de:	f110 0f00 	cmn.w	r0, #0
    20e2:	ea91 0f03 	teq	r1, r3
    20e6:	bf58      	it	pl
    20e8:	4299      	cmppl	r1, r3
    20ea:	bf08      	it	eq
    20ec:	4290      	cmpeq	r0, r2
    20ee:	bf2c      	ite	cs
    20f0:	17d8      	asrcs	r0, r3, #31
    20f2:	ea6f 70e3 	mvncc.w	r0, r3, asr #31
    20f6:	f040 0001 	orr.w	r0, r0, #1
    20fa:	4770      	bx	lr
    20fc:	ea4f 0c41 	mov.w	r12, r1, lsl #1
    2100:	ea7f 5c6c 	mvns.w	r12, r12, asr #21
    2104:	d102      	bne.n	210c <__cmpdf2+0x64>
    2106:	ea50 3c01 	orrs.w	r12, r0, r1, lsl #12
    210a:	d107      	bne.n	211c <__cmpdf2+0x74>
    210c:	ea4f 0c43 	mov.w	r12, r3, lsl #1
    2110:	ea7f 5c6c 	mvns.w	r12, r12, asr #21
    2114:	d1d6      	bne.n	20c4 <__cmpdf2+0x1c>
    2116:	ea52 3c03 	orrs.w	r12, r2, r3, lsl #12
    211a:	d0d3      	beq.n	20c4 <__cmpdf2+0x1c>
    211c:	f85d 0b04 	ldr.w	r0, [sp], #4
    2120:	4770      	bx	lr
    2122:	bf00      	nop

00002124 <__aeabi_cdrcmple>:
    2124:	4684      	mov	r12, r0
    2126:	4610      	mov	r0, r2
    2128:	4662      	mov	r2, r12
    212a:	468c      	mov	r12, r1
    212c:	4619      	mov	r1, r3
    212e:	4663      	mov	r3, r12
    2130:	e000      	b.n	2134 <__aeabi_cdcmpeq>
    2132:	bf00      	nop

00002134 <__aeabi_cdcmpeq>:
    2134:	b501      	push	{r0, lr}
    2136:	f7ff ffb7 	bl	20a8 <__cmpdf2>
    213a:	2800      	cmp	r0, #0
    213c:	bf48      	it	mi
    213e:	f110 0f00 	cmnmi.w	r0, #0
    2142:	bd01      	pop	{r0, pc}

00002144 <__aeabi_dcmpeq>:
    2144:	f84d ed08 	str.w	lr, [sp, #-8]!
    2148:	f7ff fff4 	bl	2134 <__aeabi_cdcmpeq>
    214c:	bf0c      	ite	eq
    214e:	2001      	moveq	r0, #1
    2150:	2000      	movne	r0, #0
    2152:	f85d fb08 	ldr.w	pc, [sp], #8
    2156:	bf00      	nop

00002158 <__aeabi_dcmplt>:
    2158:	f84d ed08 	str.w	lr, [sp, #-8]!
    215c:	f7ff ffea 	bl	2134 <__aeabi_cdcmpeq>
    2160:	bf34      	ite	cc
    2162:	2001      	movcc	r0, #1
    2164:	2000      	movcs	r0, #0
    2166:	f85d fb08 	ldr.w	pc, [sp], #8
    216a:	bf00      	nop

0000216c <__aeabi_dcmple>:
    216c:	f84d ed08 	str.w	lr, [sp, #-8]!
    2170:	f7ff ffe0 	bl	2134 <__aeabi_cdcmpeq>
    2174:	bf94      	ite	ls
    2176:	2001      	movls	r0, #1
    2178:	2000      	movhi	r0, #0
    217a:	f85d fb08 	ldr.w	pc, [sp], #8
    217e:	bf00      	nop

00002180 <__aeabi_dcmpge>:
    2180:	f84d ed08 	str.w	lr, [sp, #-8]!
    2184:	f7ff ffce 	bl	2124 <__aeabi_cdrcmple>
    2188:	bf94      	ite	ls
    218a:	2001      	movls	r0, #1
    218c:	2000      	movhi	r0, #0
    218e:	f85d fb08 	ldr.w	pc, [sp], #8
    2192:	bf00      	nop

00002194 <__aeabi_dcmpgt>:
    2194:	f84d ed08 	str.w	lr, [sp, #-8]!
    2198:	f7ff ffc4 	bl	2124 <__aeabi_cdrcmple>
    219c:	bf34      	ite	cc
    219e:	2001      	movcc	r0, #1
    21a0:	2000      	movcs	r0, #0
    21a2:	f85d fb08 	ldr.w	pc, [sp], #8
    21a6:	bf00      	nop

000021a8 <__aeabi_d2iz>:
    21a8:	ea4f 0241 	mov.w	r2, r1, lsl #1
    21ac:	f512 1200 	adds.w	r2, r2, #2097152	; 0x200000
    21b0:	d215      	bcs.n	21de <__aeabi_d2iz+0x36>
    21b2:	d511      	bpl.n	21d8 <__aeabi_d2iz+0x30>
    21b4:	f46f 7378 	mvn.w	r3, #992	; 0x3e0
    21b8:	ebb3 5262 	subs.w	r2, r3, r2, asr #21
    21bc:	d912      	bls.n	21e4 <__aeabi_d2iz+0x3c>
    21be:	ea4f 23c1 	mov.w	r3, r1, lsl #11
    21c2:	f043 4300 	orr.w	r3, r3, #2147483648	; 0x80000000
    21c6:	ea43 5350 	orr.w	r3, r3, r0, lsr #21
    21ca:	f011 4f00 	tst.w	r1, #2147483648	; 0x80000000
    21ce:	fa23 f002 	lsr.w	r0, r3, r2
    21d2:	bf18      	it	ne
    21d4:	4240      	negne	r0, r0
    21d6:	4770      	bx	lr
    21d8:	f04f 0000 	mov.w	r0, #0
    21dc:	4770      	bx	lr
    21de:	ea50 3001 	orrs.w	r0, r0, r1, lsl #12
    21e2:	d105      	bne.n	21f0 <__aeabi_d2iz+0x48>
    21e4:	f011 4000 	ands.w	r0, r1, #2147483648	; 0x80000000
    21e8:	bf08      	it	eq
    21ea:	f06f 4000 	mvneq.w	r0, #2147483648	; 0x80000000
    21ee:	4770      	bx	lr
    21f0:	f04f 0000 	mov.w	r0, #0
    21f4:	4770      	bx	lr
    21f6:	bf00      	nop

000021f8 <__aeabi_d2f>:
    21f8:	ea4f 0241 	mov.w	r2, r1, lsl #1
    21fc:	f1b2 43e0 	subs.w	r3, r2, #1879048192	; 0x70000000
    2200:	bf24      	itt	cs
    2202:	f5b3 1c00 	subscs.w	r12, r3, #2097152	; 0x200000
    2206:	f1dc 5cfe 	rsbscs	r12, r12, #532676608	; 0x1fc00000
    220a:	d90d      	bls.n	2228 <__aeabi_d2f+0x30>
    220c:	f001 4c00 	and.w	r12, r1, #2147483648	; 0x80000000
    2210:	ea4f 02c0 	mov.w	r2, r0, lsl #3
    2214:	ea4c 7050 	orr.w	r0, r12, r0, lsr #29
    2218:	f1b2 4f00 	cmp.w	r2, #2147483648	; 0x80000000
    221c:	eb40 0083 	adc.w	r0, r0, r3, lsl #2
    2220:	bf08      	it	eq
    2222:	f020 0001 	biceq.w	r0, r0, #1
    2226:	4770      	bx	lr
    2228:	f011 4f80 	tst.w	r1, #1073741824	; 0x40000000
    222c:	d121      	bne.n	2272 <__aeabi_d2f+0x7a>
    222e:	f113 7238 	adds.w	r2, r3, #48234496	; 0x2e00000
    2232:	bfbc      	itt	lt
    2234:	f001 4000 	andlt.w	r0, r1, #2147483648	; 0x80000000
    2238:	4770      	bxlt	lr
    223a:	f441 1180 	orr.w	r1, r1, #1048576	; 0x100000
    223e:	ea4f 5252 	mov.w	r2, r2, lsr #21
    2242:	f1c2 0218 	rsb	r2, r2, #24
    2246:	f1c2 0c20 	rsb	r12, r2, #32
    224a:	fa10 f30c 	lsls.w	r3, r0, r12
    224e:	fa20 f002 	lsr.w	r0, r0, r2
    2252:	bf18      	it	ne
    2254:	f040 0001 	orrne.w	r0, r0, #1
    2258:	ea4f 23c1 	mov.w	r3, r1, lsl #11
    225c:	ea4f 23d3 	mov.w	r3, r3, lsr #11
    2260:	fa03 fc0c 	lsl.w	r12, r3, r12
    2264:	ea40 000c 	orr.w	r0, r0, r12
    2268:	fa23 f302 	lsr.w	r3, r3, r2
    226c:	ea4f 0343 	mov.w	r3, r3, lsl #1
    2270:	e7cc      	b.n	220c <__aeabi_d2f+0x14>
    2272:	ea7f 5362 	mvns.w	r3, r2, asr #21
    2276:	d107      	bne.n	2288 <__aeabi_d2f+0x90>
    2278:	ea50 3301 	orrs.w	r3, r0, r1, lsl #12
    227c:	bf1e      	ittt	ne
    227e:	f04f 40fe 	movne.w	r0, #2130706432	; 0x7f000000
    2282:	f440 0040 	orrne.w	r0, r0, #12582912	; 0xc00000
    2286:	4770      	bxne	lr
    2288:	f001 4000 	and.w	r0, r1, #2147483648	; 0x80000000
    228c:	f040 40fe 	orr.w	r0, r0, #2130706432	; 0x7f000000
    2290:	f440 0000 	orr.w	r0, r0, #8388608	; 0x800000
    2294:	4770      	bx	lr
    2296:	bf00      	nop

00002298 <__aeabi_frsub>:
    2298:	f080 4000 	eor.w	r0, r0, #2147483648	; 0x80000000
    229c:	e002      	b.n	22a4 <__addsf3>
    229e:	bf00      	nop

000022a0 <__aeabi_fsub>:
    22a0:	f081 4100 	eor.w	r1, r1, #2147483648	; 0x80000000

000022a4 <__addsf3>:
    22a4:	0042      	lsls	r2, r0, #1
    22a6:	bf1f      	itttt	ne
    22a8:	ea5f 0341 	movsne.w	r3, r1, lsl #1
    22ac:	ea92 0f03 	teqne	r2, r3
    22b0:	ea7f 6c22 	mvnsne.w	r12, r2, asr #24
    22b4:	ea7f 6c23 	mvnsne.w	r12, r3, asr #24
    22b8:	d06a      	beq.n	2390 <__addsf3+0xec>
    22ba:	ea4f 6212 	mov.w	r2, r2, lsr #24
    22be:	ebd2 6313 	rsbs	r3, r2, r3, lsr #24
    22c2:	bfc1      	itttt	gt
    22c4:	18d2      	addgt	r2, r2, r3
    22c6:	4041      	eorgt	r1, r0
    22c8:	4048      	eorgt	r0, r1
    22ca:	4041      	eorgt	r1, r0
    22cc:	bfb8      	it	lt
    22ce:	425b      	neglt	r3, r3
    22d0:	2b19      	cmp	r3, #25
    22d2:	bf88      	it	hi
    22d4:	4770      	bxhi	lr
    22d6:	f010 4f00 	tst.w	r0, #2147483648	; 0x80000000
    22da:	f440 0000 	orr.w	r0, r0, #8388608	; 0x800000
    22de:	f020 407f 	bic.w	r0, r0, #4278190080	; 0xff000000
    22e2:	bf18      	it	ne
    22e4:	4240      	negne	r0, r0
    22e6:	f011 4f00 	tst.w	r1, #2147483648	; 0x80000000
    22ea:	f441 0100 	orr.w	r1, r1, #8388608	; 0x800000
    22ee:	f021 417f 	bic.w	r1, r1, #4278190080	; 0xff000000
    22f2:	bf18      	it	ne
    22f4:	4249      	negne	r1, r1
    22f6:	ea92 0f03 	teq	r2, r3
    22fa:	d03f      	beq.n	237c <__addsf3+0xd8>
    22fc:	f1a2 0201 	sub.w	r2, r2, #1
    2300:	fa41 fc03 	asr.w	r12, r1, r3
    2304:	eb10 000c 	adds.w	r0, r0, r12
    2308:	f1c3 0320 	rsb	r3, r3, #32
    230c:	fa01 f103 	lsl.w	r1, r1, r3
    2310:	f000 4300 	and.w	r3, r0, #2147483648	; 0x80000000
    2314:	d502      	bpl.n	231c <__addsf3+0x78>
    2316:	4249      	negs	r1, r1
    2318:	eb60 0040 	sbc.w	r0, r0, r0, lsl #1
    231c:	f5b0 0f00 	cmp.w	r0, #8388608	; 0x800000
    2320:	d313      	bcc.n	234a <__addsf3+0xa6>
    2322:	f1b0 7f80 	cmp.w	r0, #16777216	; 0x1000000
    2326:	d306      	bcc.n	2336 <__addsf3+0x92>
    2328:	0840      	lsrs	r0, r0, #1
    232a:	ea4f 0131 	mov.w	r1, r1, rrx
    232e:	f102 0201 	add.w	r2, r2, #1
    2332:	2afe      	cmp	r2, #254	; 0xfe
    2334:	d251      	bcs.n	23da <__addsf3+0x136>
    2336:	f1b1 4f00 	cmp.w	r1, #2147483648	; 0x80000000
    233a:	eb40 50c2 	adc.w	r0, r0, r2, lsl #23
    233e:	bf08      	it	eq
    2340:	f020 0001 	biceq.w	r0, r0, #1
    2344:	ea40 0003 	orr.w	r0, r0, r3
    2348:	4770      	bx	lr
    234a:	0049      	lsls	r1, r1, #1
    234c:	eb40 0000 	adc.w	r0, r0, r0
    2350:	f410 0f00 	tst.w	r0, #8388608	; 0x800000
    2354:	f1a2 0201 	sub.w	r2, r2, #1
    2358:	d1ed      	bne.n	2336 <__addsf3+0x92>
    235a:	fab0 fc80 	clz	r12, r0
    235e:	f1ac 0c08 	sub.w	r12, r12, #8
    2362:	ebb2 020c 	subs.w	r2, r2, r12
    2366:	fa00 f00c 	lsl.w	r0, r0, r12
    236a:	bfaa      	itet	ge
    236c:	eb00 50c2 	addge.w	r0, r0, r2, lsl #23
    2370:	4252      	neglt	r2, r2
    2372:	4318      	orrge	r0, r3
    2374:	bfbc      	itt	lt
    2376:	40d0      	lsrlt	r0, r2
    2378:	4318      	orrlt	r0, r3
    237a:	4770      	bx	lr
    237c:	f092 0f00 	teq	r2, #0
    2380:	f481 0100 	eor.w	r1, r1, #8388608	; 0x800000
    2384:	bf06      	itte	eq
    2386:	f480 0000 	eoreq.w	r0, r0, #8388608	; 0x800000
    238a:	3201      	addeq	r2, #1
    238c:	3b01      	subne	r3, #1
    238e:	e7b5      	b.n	22fc <__addsf3+0x58>
    2390:	ea4f 0341 	mov.w	r3, r1, lsl #1
    2394:	ea7f 6c22 	mvns.w	r12, r2, asr #24
    2398:	bf18      	it	ne
    239a:	ea7f 6c23 	mvnsne.w	r12, r3, asr #24
    239e:	d021      	beq.n	23e4 <__addsf3+0x140>
    23a0:	ea92 0f03 	teq	r2, r3
    23a4:	d004      	beq.n	23b0 <__addsf3+0x10c>
    23a6:	f092 0f00 	teq	r2, #0
    23aa:	bf08      	it	eq
    23ac:	4608      	moveq	r0, r1
    23ae:	4770      	bx	lr
    23b0:	ea90 0f01 	teq	r0, r1
    23b4:	bf1c      	itt	ne
    23b6:	2000      	movne	r0, #0
    23b8:	4770      	bxne	lr
    23ba:	f012 4f7f 	tst.w	r2, #4278190080	; 0xff000000
    23be:	d104      	bne.n	23ca <__addsf3+0x126>
    23c0:	0040      	lsls	r0, r0, #1
    23c2:	bf28      	it	cs
    23c4:	f040 4000 	orrcs.w	r0, r0, #2147483648	; 0x80000000
    23c8:	4770      	bx	lr
    23ca:	f112 7200 	adds.w	r2, r2, #33554432	; 0x2000000
    23ce:	bf3c      	itt	cc
    23d0:	f500 0000 	addcc.w	r0, r0, #8388608	; 0x800000
    23d4:	4770      	bxcc	lr
    23d6:	f000 4300 	and.w	r3, r0, #2147483648	; 0x80000000
    23da:	f043 40fe 	orr.w	r0, r3, #2130706432	; 0x7f000000
    23de:	f440 0000 	orr.w	r0, r0, #8388608	; 0x800000
    23e2:	4770      	bx	lr
    23e4:	ea7f 6222 	mvns.w	r2, r2, asr #24
    23e8:	bf16      	itet	ne
    23ea:	4608      	movne	r0, r1
    23ec:	ea7f 6323 	mvnseq.w	r3, r3, asr #24
    23f0:	4601      	movne	r1, r0
    23f2:	0242      	lsls	r2, r0, #9
    23f4:	bf06      	itte	eq
    23f6:	ea5f 2341 	movseq.w	r3, r1, lsl #9
    23fa:	ea90 0f01 	teqeq	r0, r1
    23fe:	f440 0080 	orrne.w	r0, r0, #4194304	; 0x400000
    2402:	4770      	bx	lr

00002404 <__aeabi_ui2f>:
    2404:	f04f 0300 	mov.w	r3, #0
    2408:	e004      	b.n	2414 <__aeabi_i2f+0x8>
    240a:	bf00      	nop

0000240c <__aeabi_i2f>:
    240c:	f010 4300 	ands.w	r3, r0, #2147483648	; 0x80000000
    2410:	bf48      	it	mi
    2412:	4240      	negmi	r0, r0
    2414:	ea5f 0c00 	movs.w	r12, r0
    2418:	bf08      	it	eq
    241a:	4770      	bxeq	lr
    241c:	f043 4396 	orr.w	r3, r3, #1258291200	; 0x4b000000
    2420:	4601      	mov	r1, r0
    2422:	f04f 0000 	mov.w	r0, #0
    2426:	e01c      	b.n	2462 <__aeabi_l2f+0x2a>

00002428 <__aeabi_ul2f>:
    2428:	ea50 0201 	orrs.w	r2, r0, r1
    242c:	bf08      	it	eq
    242e:	4770      	bxeq	lr
    2430:	f04f 0300 	mov.w	r3, #0
    2434:	e00a      	b.n	244c <__aeabi_l2f+0x14>
    2436:	bf00      	nop

00002438 <__aeabi_l2f>:
    2438:	ea50 0201 	orrs.w	r2, r0, r1
    243c:	bf08      	it	eq
    243e:	4770      	bxeq	lr
    2440:	f011 4300 	ands.w	r3, r1, #2147483648	; 0x80000000
    2444:	d502      	bpl.n	244c <__aeabi_l2f+0x14>
    2446:	4240      	negs	r0, r0
    2448:	eb61 0141 	sbc.w	r1, r1, r1, lsl #1
    244c:	ea5f 0c01 	movs.w	r12, r1
    2450:	bf02      	ittt	eq
    2452:	4684      	moveq	r12, r0
    2454:	4601      	moveq	r1, r0
    2456:	2000      	moveq	r0, #0
    2458:	f043 43b6 	orr.w	r3, r3, #1526726656	; 0x5b000000
    245c:	bf08      	it	eq
    245e:	f1a3 5380 	subeq.w	r3, r3, #268435456	; 0x10000000
    2462:	f5a3 0300 	sub.w	r3, r3, #8388608	; 0x800000
    2466:	fabc f28c 	clz	r2, r12
    246a:	3a08      	subs	r2, #8
    246c:	eba3 53c2 	sub.w	r3, r3, r2, lsl #23
    2470:	db10      	blt.n	2494 <__aeabi_l2f+0x5c>
    2472:	fa01 fc02 	lsl.w	r12, r1, r2
    2476:	4463      	add	r3, r12
    2478:	fa00 fc02 	lsl.w	r12, r0, r2
    247c:	f1c2 0220 	rsb	r2, r2, #32
    2480:	f1bc 4f00 	cmp.w	r12, #2147483648	; 0x80000000
    2484:	fa20 f202 	lsr.w	r2, r0, r2
    2488:	eb43 0002 	adc.w	r0, r3, r2
    248c:	bf08      	it	eq
    248e:	f020 0001 	biceq.w	r0, r0, #1
    2492:	4770      	bx	lr
    2494:	f102 0220 	add.w	r2, r2, #32
    2498:	fa01 fc02 	lsl.w	r12, r1, r2
    249c:	f1c2 0220 	rsb	r2, r2, #32
    24a0:	ea50 004c 	orrs.w	r0, r0, r12, lsl #1
    24a4:	fa21 f202 	lsr.w	r2, r1, r2
    24a8:	eb43 0002 	adc.w	r0, r3, r2
    24ac:	bf08      	it	eq
    24ae:	ea20 70dc 	biceq.w	r0, r0, r12, lsr #31
    24b2:	4770      	bx	lr

000024b4 <__aeabi_fmul>:
    24b4:	f04f 0cff 	mov.w	r12, #255	; 0xff
    24b8:	ea1c 52d0 	ands.w	r2, r12, r0, lsr #23
    24bc:	bf1e      	ittt	ne
    24be:	ea1c 53d1 	andsne.w	r3, r12, r1, lsr #23
    24c2:	ea92 0f0c 	teqne	r2, r12
    24c6:	ea93 0f0c 	teqne	r3, r12
    24ca:	d06f      	beq.n	25ac <__aeabi_fmul+0xf8>
    24cc:	441a      	add	r2, r3
    24ce:	ea80 0c01 	eor.w	r12, r0, r1
    24d2:	0240      	lsls	r0, r0, #9
    24d4:	bf18      	it	ne
    24d6:	ea5f 2141 	movsne.w	r1, r1, lsl #9
    24da:	d01e      	beq.n	251a <__aeabi_fmul+0x66>
    24dc:	f04f 6300 	mov.w	r3, #134217728	; 0x8000000
    24e0:	ea43 1050 	orr.w	r0, r3, r0, lsr #5
    24e4:	ea43 1151 	orr.w	r1, r3, r1, lsr #5
    24e8:	fba0 3101 	umull	r3, r1, r0, r1
    24ec:	f00c 4000 	and.w	r0, r12, #2147483648	; 0x80000000
    24f0:	f5b1 0f00 	cmp.w	r1, #8388608	; 0x800000
    24f4:	bf3e      	ittt	cc
    24f6:	0049      	lslcc	r1, r1, #1
    24f8:	ea41 71d3 	orrcc.w	r1, r1, r3, lsr #31
    24fc:	005b      	lslcc	r3, r3, #1
    24fe:	ea40 0001 	orr.w	r0, r0, r1
    2502:	f162 027f 	sbc.w	r2, r2, #127	; 0x7f
    2506:	2afd      	cmp	r2, #253	; 0xfd
    2508:	d81d      	bhi.n	2546 <__aeabi_fmul+0x92>
    250a:	f1b3 4f00 	cmp.w	r3, #2147483648	; 0x80000000
    250e:	eb40 50c2 	adc.w	r0, r0, r2, lsl #23
    2512:	bf08      	it	eq
    2514:	f020 0001 	biceq.w	r0, r0, #1
    2518:	4770      	bx	lr
    251a:	f090 0f00 	teq	r0, #0
    251e:	f00c 4c00 	and.w	r12, r12, #2147483648	; 0x80000000
    2522:	bf08      	it	eq
    2524:	0249      	lsleq	r1, r1, #9
    2526:	ea4c 2050 	orr.w	r0, r12, r0, lsr #9
    252a:	ea40 2051 	orr.w	r0, r0, r1, lsr #9
    252e:	3a7f      	subs	r2, #127	; 0x7f
    2530:	bfc2      	ittt	gt
    2532:	f1d2 03ff 	rsbsgt	r3, r2, #255	; 0xff
    2536:	ea40 50c2 	orrgt.w	r0, r0, r2, lsl #23
    253a:	4770      	bxgt	lr
    253c:	f440 0000 	orr.w	r0, r0, #8388608	; 0x800000
    2540:	f04f 0300 	mov.w	r3, #0
    2544:	3a01      	subs	r2, #1
    2546:	dc5d      	bgt.n	2604 <__aeabi_fmul+0x150>
    2548:	f112 0f19 	cmn.w	r2, #25
    254c:	bfdc      	itt	le
    254e:	f000 4000 	andle.w	r0, r0, #2147483648	; 0x80000000
    2552:	4770      	bxle	lr
    2554:	f1c2 0200 	rsb	r2, r2, #0
    2558:	0041      	lsls	r1, r0, #1
    255a:	fa21 f102 	lsr.w	r1, r1, r2
    255e:	f1c2 0220 	rsb	r2, r2, #32
    2562:	fa00 fc02 	lsl.w	r12, r0, r2
    2566:	ea5f 0031 	movs.w	r0, r1, rrx
    256a:	f140 0000 	adc.w	r0, r0, #0
    256e:	ea53 034c 	orrs.w	r3, r3, r12, lsl #1
    2572:	bf08      	it	eq
    2574:	ea20 70dc 	biceq.w	r0, r0, r12, lsr #31
    2578:	4770      	bx	lr
    257a:	f092 0f00 	teq	r2, #0
    257e:	f000 4c00 	and.w	r12, r0, #2147483648	; 0x80000000
    2582:	bf02      	ittt	eq
    2584:	0040      	lsleq	r0, r0, #1
    2586:	f410 0f00 	tsteq.w	r0, #8388608	; 0x800000
    258a:	3a01      	subeq	r2, #1
    258c:	d0f9      	beq.n	2582 <__aeabi_fmul+0xce>
    258e:	ea40 000c 	orr.w	r0, r0, r12
    2592:	f093 0f00 	teq	r3, #0
    2596:	f001 4c00 	and.w	r12, r1, #2147483648	; 0x80000000
    259a:	bf02      	ittt	eq
    259c:	0049      	lsleq	r1, r1, #1
    259e:	f411 0f00 	tsteq.w	r1, #8388608	; 0x800000
    25a2:	3b01      	subeq	r3, #1
    25a4:	d0f9      	beq.n	259a <__aeabi_fmul+0xe6>
    25a6:	ea41 010c 	orr.w	r1, r1, r12
    25aa:	e78f      	b.n	24cc <__aeabi_fmul+0x18>
    25ac:	ea0c 53d1 	and.w	r3, r12, r1, lsr #23
    25b0:	ea92 0f0c 	teq	r2, r12
    25b4:	bf18      	it	ne
    25b6:	ea93 0f0c 	teqne	r3, r12
    25ba:	d00a      	beq.n	25d2 <__aeabi_fmul+0x11e>
    25bc:	f030 4c00 	bics.w	r12, r0, #2147483648	; 0x80000000
    25c0:	bf18      	it	ne
    25c2:	f031 4c00 	bicsne.w	r12, r1, #2147483648	; 0x80000000
    25c6:	d1d8      	bne.n	257a <__aeabi_fmul+0xc6>
    25c8:	ea80 0001 	eor.w	r0, r0, r1
    25cc:	f000 4000 	and.w	r0, r0, #2147483648	; 0x80000000
    25d0:	4770      	bx	lr
    25d2:	f090 0f00 	teq	r0, #0
    25d6:	bf17      	itett	ne
    25d8:	f090 4f00 	teqne	r0, #2147483648	; 0x80000000
    25dc:	4608      	moveq	r0, r1
    25de:	f091 0f00 	teqne	r1, #0
    25e2:	f091 4f00 	teqne	r1, #2147483648	; 0x80000000
    25e6:	d014      	beq.n	2612 <__aeabi_fmul+0x15e>
    25e8:	ea92 0f0c 	teq	r2, r12
    25ec:	d101      	bne.n	25f2 <__aeabi_fmul+0x13e>
    25ee:	0242      	lsls	r2, r0, #9
    25f0:	d10f      	bne.n	2612 <__aeabi_fmul+0x15e>
    25f2:	ea93 0f0c 	teq	r3, r12
    25f6:	d103      	bne.n	2600 <__aeabi_fmul+0x14c>
    25f8:	024b      	lsls	r3, r1, #9
    25fa:	bf18      	it	ne
    25fc:	4608      	movne	r0, r1
    25fe:	d108      	bne.n	2612 <__aeabi_fmul+0x15e>
    2600:	ea80 0001 	eor.w	r0, r0, r1
    2604:	f000 4000 	and.w	r0, r0, #2147483648	; 0x80000000
    2608:	f040 40fe 	orr.w	r0, r0, #2130706432	; 0x7f000000
    260c:	f440 0000 	orr.w	r0, r0, #8388608	; 0x800000
    2610:	4770      	bx	lr
    2612:	f040 40fe 	orr.w	r0, r0, #2130706432	; 0x7f000000
    2616:	f440 0040 	orr.w	r0, r0, #12582912	; 0xc00000
    261a:	4770      	bx	lr

0000261c <__aeabi_fdiv>:
    261c:	f04f 0cff 	mov.w	r12, #255	; 0xff
    2620:	ea1c 52d0 	ands.w	r2, r12, r0, lsr #23
    2624:	bf1e      	ittt	ne
    2626:	ea1c 53d1 	andsne.w	r3, r12, r1, lsr #23
    262a:	ea92 0f0c 	teqne	r2, r12
    262e:	ea93 0f0c 	teqne	r3, r12
    2632:	d069      	beq.n	2708 <__aeabi_fdiv+0xec>
    2634:	eba2 0203 	sub.w	r2, r2, r3
    2638:	ea80 0c01 	eor.w	r12, r0, r1
    263c:	0249      	lsls	r1, r1, #9
    263e:	ea4f 2040 	mov.w	r0, r0, lsl #9
    2642:	d037      	beq.n	26b4 <__aeabi_fdiv+0x98>
    2644:	f04f 5380 	mov.w	r3, #268435456	; 0x10000000
    2648:	ea43 1111 	orr.w	r1, r3, r1, lsr #4
    264c:	ea43 1310 	orr.w	r3, r3, r0, lsr #4
    2650:	f00c 4000 	and.w	r0, r12, #2147483648	; 0x80000000
    2654:	428b      	cmp	r3, r1
    2656:	bf38      	it	cc
    2658:	005b      	lslcc	r3, r3, #1
    265a:	f142 027d 	adc.w	r2, r2, #125	; 0x7d
    265e:	f44f 0c00 	mov.w	r12, #8388608	; 0x800000
    2662:	428b      	cmp	r3, r1
    2664:	bf24      	itt	cs
    2666:	1a5b      	subcs	r3, r3, r1
    2668:	ea40 000c 	orrcs.w	r0, r0, r12
    266c:	ebb3 0f51 	cmp.w	r3, r1, lsr #1
    2670:	bf24      	itt	cs
    2672:	eba3 0351 	subcs.w	r3, r3, r1, lsr #1
    2676:	ea40 005c 	orrcs.w	r0, r0, r12, lsr #1
    267a:	ebb3 0f91 	cmp.w	r3, r1, lsr #2
    267e:	bf24      	itt	cs
    2680:	eba3 0391 	subcs.w	r3, r3, r1, lsr #2
    2684:	ea40 009c 	orrcs.w	r0, r0, r12, lsr #2
    2688:	ebb3 0fd1 	cmp.w	r3, r1, lsr #3
    268c:	bf24      	itt	cs
    268e:	eba3 03d1 	subcs.w	r3, r3, r1, lsr #3
    2692:	ea40 00dc 	orrcs.w	r0, r0, r12, lsr #3
    2696:	011b      	lsls	r3, r3, #4
    2698:	bf18      	it	ne
    269a:	ea5f 1c1c 	movsne.w	r12, r12, lsr #4
    269e:	d1e0      	bne.n	2662 <__aeabi_fdiv+0x46>
    26a0:	2afd      	cmp	r2, #253	; 0xfd
    26a2:	f63f af50 	bhi.w	2546 <__aeabi_fmul+0x92>
    26a6:	428b      	cmp	r3, r1
    26a8:	eb40 50c2 	adc.w	r0, r0, r2, lsl #23
    26ac:	bf08      	it	eq
    26ae:	f020 0001 	biceq.w	r0, r0, #1
    26b2:	4770      	bx	lr
    26b4:	f00c 4c00 	and.w	r12, r12, #2147483648	; 0x80000000
    26b8:	ea4c 2050 	orr.w	r0, r12, r0, lsr #9
    26bc:	327f      	adds	r2, #127	; 0x7f
    26be:	bfc2      	ittt	gt
    26c0:	f1d2 03ff 	rsbsgt	r3, r2, #255	; 0xff
    26c4:	ea40 50c2 	orrgt.w	r0, r0, r2, lsl #23
    26c8:	4770      	bxgt	lr
    26ca:	f440 0000 	orr.w	r0, r0, #8388608	; 0x800000
    26ce:	f04f 0300 	mov.w	r3, #0
    26d2:	3a01      	subs	r2, #1
    26d4:	e737      	b.n	2546 <__aeabi_fmul+0x92>
    26d6:	f092 0f00 	teq	r2, #0
    26da:	f000 4c00 	and.w	r12, r0, #2147483648	; 0x80000000
    26de:	bf02      	ittt	eq
    26e0:	0040      	lsleq	r0, r0, #1
    26e2:	f410 0f00 	tsteq.w	r0, #8388608	; 0x800000
    26e6:	3a01      	subeq	r2, #1
    26e8:	d0f9      	beq.n	26de <__aeabi_fdiv+0xc2>
    26ea:	ea40 000c 	orr.w	r0, r0, r12
    26ee:	f093 0f00 	teq	r3, #0
    26f2:	f001 4c00 	and.w	r12, r1, #2147483648	; 0x80000000
    26f6:	bf02      	ittt	eq
    26f8:	0049      	lsleq	r1, r1, #1
    26fa:	f411 0f00 	tsteq.w	r1, #8388608	; 0x800000
    26fe:	3b01      	subeq	r3, #1
    2700:	d0f9      	beq.n	26f6 <__aeabi_fdiv+0xda>
    2702:	ea41 010c 	orr.w	r1, r1, r12
    2706:	e795      	b.n	2634 <__aeabi_fdiv+0x18>
    2708:	ea0c 53d1 	and.w	r3, r12, r1, lsr #23
    270c:	ea92 0f0c 	teq	r2, r12
    2710:	d108      	bne.n	2724 <__aeabi_fdiv+0x108>
    2712:	0242      	lsls	r2, r0, #9
    2714:	f47f af7d 	bne.w	2612 <__aeabi_fmul+0x15e>
    2718:	ea93 0f0c 	teq	r3, r12
    271c:	f47f af70 	bne.w	2600 <__aeabi_fmul+0x14c>
    2720:	4608      	mov	r0, r1
    2722:	e776      	b.n	2612 <__aeabi_fmul+0x15e>
    2724:	ea93 0f0c 	teq	r3, r12
    2728:	d104      	bne.n	2734 <__aeabi_fdiv+0x118>
    272a:	024b      	lsls	r3, r1, #9
    272c:	f43f af4c 	beq.w	25c8 <__aeabi_fmul+0x114>
    2730:	4608      	mov	r0, r1
    2732:	e76e      	b.n	2612 <__aeabi_fmul+0x15e>
    2734:	f030 4c00 	bics.w	r12, r0, #2147483648	; 0x80000000
    2738:	bf18      	it	ne
    273a:	f031 4c00 	bicsne.w	r12, r1, #2147483648	; 0x80000000
    273e:	d1ca      	bne.n	26d6 <__aeabi_fdiv+0xba>
    2740:	f030 4200 	bics.w	r2, r0, #2147483648	; 0x80000000
    2744:	f47f af5c 	bne.w	2600 <__aeabi_fmul+0x14c>
    2748:	f031 4300 	bics.w	r3, r1, #2147483648	; 0x80000000
    274c:	f47f af3c 	bne.w	25c8 <__aeabi_fmul+0x114>
    2750:	e75f      	b.n	2612 <__aeabi_fmul+0x15e>
    2752:	bf00      	nop

00002754 <__gesf2>:
    2754:	f04f 3cff 	mov.w	r12, #4294967295
    2758:	e006      	b.n	2768 <__cmpsf2+0x4>
    275a:	bf00      	nop

0000275c <__lesf2>:
    275c:	f04f 0c01 	mov.w	r12, #1
    2760:	e002      	b.n	2768 <__cmpsf2+0x4>
    2762:	bf00      	nop

00002764 <__cmpsf2>:
    2764:	f04f 0c01 	mov.w	r12, #1
    2768:	f84d cd04 	str.w	r12, [sp, #-4]!
    276c:	ea4f 0240 	mov.w	r2, r0, lsl #1
    2770:	ea4f 0341 	mov.w	r3, r1, lsl #1
    2774:	ea7f 6c22 	mvns.w	r12, r2, asr #24
    2778:	bf18      	it	ne
    277a:	ea7f 6c23 	mvnsne.w	r12, r3, asr #24
    277e:	d011      	beq.n	27a4 <__cmpsf2+0x40>
    2780:	b001      	add	sp, #4
    2782:	ea52 0c53 	orrs.w	r12, r2, r3, lsr #1
    2786:	bf18      	it	ne
    2788:	ea90 0f01 	teqne	r0, r1
    278c:	bf58      	it	pl
    278e:	ebb2 0003 	subspl.w	r0, r2, r3
    2792:	bf88      	it	hi
    2794:	17c8      	asrhi	r0, r1, #31
    2796:	bf38      	it	cc
    2798:	ea6f 70e1 	mvncc.w	r0, r1, asr #31
    279c:	bf18      	it	ne
    279e:	f040 0001 	orrne.w	r0, r0, #1
    27a2:	4770      	bx	lr
    27a4:	ea7f 6c22 	mvns.w	r12, r2, asr #24
    27a8:	d102      	bne.n	27b0 <__cmpsf2+0x4c>
    27aa:	ea5f 2c40 	movs.w	r12, r0, lsl #9
    27ae:	d105      	bne.n	27bc <__cmpsf2+0x58>
    27b0:	ea7f 6c23 	mvns.w	r12, r3, asr #24
    27b4:	d1e4      	bne.n	2780 <__cmpsf2+0x1c>
    27b6:	ea5f 2c41 	movs.w	r12, r1, lsl #9
    27ba:	d0e1      	beq.n	2780 <__cmpsf2+0x1c>
    27bc:	f85d 0b04 	ldr.w	r0, [sp], #4
    27c0:	4770      	bx	lr
    27c2:	bf00      	nop

000027c4 <__aeabi_cfrcmple>:
    27c4:	4684      	mov	r12, r0
    27c6:	4608      	mov	r0, r1
    27c8:	4661      	mov	r1, r12
    27ca:	e7ff      	b.n	27cc <__aeabi_cfcmpeq>

000027cc <__aeabi_cfcmpeq>:
    27cc:	b50f      	push	{r0, r1, r2, r3, lr}
    27ce:	f7ff ffc9 	bl	2764 <__cmpsf2>
    27d2:	2800      	cmp	r0, #0
    27d4:	bf48      	it	mi
    27d6:	f110 0f00 	cmnmi.w	r0, #0
    27da:	bd0f      	pop	{r0, r1, r2, r3, pc}

000027dc <__aeabi_fcmpeq>:
    27dc:	f84d ed08 	str.w	lr, [sp, #-8]!
    27e0:	f7ff fff4 	bl	27cc <__aeabi_cfcmpeq>
    27e4:	bf0c      	ite	eq
    27e6:	2001      	moveq	r0, #1
    27e8:	2000      	movne	r0, #0
    27ea:	f85d fb08 	ldr.w	pc, [sp], #8
    27ee:	bf00      	nop

000027f0 <__aeabi_fcmplt>:
    27f0:	f84d ed08 	str.w	lr, [sp, #-8]!
    27f4:	f7ff ffea 	bl	27cc <__aeabi_cfcmpeq>
    27f8:	bf34      	ite	cc
    27fa:	2001      	movcc	r0, #1
    27fc:	2000      	movcs	r0, #0
    27fe:	f85d fb08 	ldr.w	pc, [sp], #8
    2802:	bf00      	nop

00002804 <__aeabi_fcmple>:
    2804:	f84d ed08 	str.w	lr, [sp, #-8]!
    2808:	f7ff ffe0 	bl	27cc <__aeabi_cfcmpeq>
    280c:	bf94      	ite	ls
    280e:	2001      	movls	r0, #1
    2810:	2000      	movhi	r0, #0
    2812:	f85d fb08 	ldr.w	pc, [sp], #8
    2816:	bf00      	nop

00002818 <__aeabi_fcmpge>:
    2818:	f84d ed08 	str.w	lr, [sp, #-8]!
    281c:	f7ff ffd2 	bl	27c4 <__aeabi_cfrcmple>
    2820:	bf94      	ite	ls
    2822:	2001      	movls	r0, #1
    2824:	2000      	movhi	r0, #0
    2826:	f85d fb08 	ldr.w	pc, [sp], #8
    282a:	bf00      	nop

0000282c <__aeabi_fcmpgt>:
    282c:	f84d ed08 	str.w	lr, [sp, #-8]!
    2830:	f7ff ffc8 	bl	27c4 <__aeabi_cfrcmple>
    2834:	bf34      	ite	cc
    2836:	2001      	movcc	r0, #1
    2838:	2000      	movcs	r0, #0
    283a:	f85d fb08 	ldr.w	pc, [sp], #8
    283e:	bf00      	nop

00002840 <__aeabi_f2uiz>:
    2840:	0042      	lsls	r2, r0, #1
    2842:	d20e      	bcs.n	2862 <__aeabi_f2uiz+0x22>
    2844:	f1b2 4ffe 	cmp.w	r2, #2130706432	; 0x7f000000
    2848:	d30b      	bcc.n	2862 <__aeabi_f2uiz+0x22>
    284a:	f04f 039e 	mov.w	r3, #158	; 0x9e
    284e:	ebb3 6212 	subs.w	r2, r3, r2, lsr #24
    2852:	d409      	bmi.n	2868 <__aeabi_f2uiz+0x28>
    2854:	ea4f 2300 	mov.w	r3, r0, lsl #8
    2858:	f043 4300 	orr.w	r3, r3, #2147483648	; 0x80000000
    285c:	fa23 f002 	lsr.w	r0, r3, r2
    2860:	4770      	bx	lr
    2862:	f04f 0000 	mov.w	r0, #0
    2866:	4770      	bx	lr
    2868:	f112 0f61 	cmn.w	r2, #97	; 0x61
    286c:	d101      	bne.n	2872 <__aeabi_f2uiz+0x32>
    286e:	0242      	lsls	r2, r0, #9
    2870:	d102      	bne.n	2878 <__aeabi_f2uiz+0x38>
    2872:	f04f 30ff 	mov.w	r0, #4294967295
    2876:	4770      	bx	lr
    2878:	f04f 0000 	mov.w	r0, #0
    287c:	4770      	bx	lr
    287e:	bf00      	nop

00002880 <__errno>:
    2880:	4b01      	ldr	r3, [pc, #4]	; (2888 <__errno+0x8>)
    2882:	6818      	ldr	r0, [r3, #0]
    2884:	4770      	bx	lr
    2886:	bf00      	nop
    2888:	100004d8 	.word	0x100004d8

0000288c <fiprintf>:
    288c:	b40e      	push	{r1, r2, r3}
    288e:	b503      	push	{r0, r1, lr}
    2890:	4601      	mov	r1, r0
    2892:	ab03      	add	r3, sp, #12
    2894:	4805      	ldr	r0, [pc, #20]	; (28ac <fiprintf+0x20>)
    2896:	f853 2b04 	ldr.w	r2, [r3], #4
    289a:	6800      	ldr	r0, [r0, #0]
    289c:	9301      	str	r3, [sp, #4]
    289e:	f000 f947 	bl	2b30 <_vfiprintf_r>
    28a2:	e8bd 400c 	ldmia.w	sp!, {r2, r3, lr}
    28a6:	b003      	add	sp, #12
    28a8:	4770      	bx	lr
    28aa:	bf00      	nop
    28ac:	100004d8 	.word	0x100004d8

000028b0 <__libc_init_array>:
    28b0:	b538      	push	{r3, r4, r5, lr}
    28b2:	4d0e      	ldr	r5, [pc, #56]	; (28ec <__libc_init_array+0x3c>)
    28b4:	4b0e      	ldr	r3, [pc, #56]	; (28f0 <__libc_init_array+0x40>)
    28b6:	2400      	movs	r4, #0
    28b8:	1ae8      	subs	r0, r5, r3
    28ba:	1085      	asrs	r5, r0, #2
    28bc:	42ac      	cmp	r4, r5
    28be:	d005      	beq.n	28cc <__libc_init_array+0x1c>
    28c0:	490b      	ldr	r1, [pc, #44]	; (28f0 <__libc_init_array+0x40>)
    28c2:	f851 2024 	ldr.w	r2, [r1, r4, lsl #2]
    28c6:	4790      	blx	r2
    28c8:	3401      	adds	r4, #1
    28ca:	e7f7      	b.n	28bc <__libc_init_array+0xc>
    28cc:	f004 f996 	bl	6bfc <_init>
    28d0:	4908      	ldr	r1, [pc, #32]	; (28f4 <__libc_init_array+0x44>)
    28d2:	4a09      	ldr	r2, [pc, #36]	; (28f8 <__libc_init_array+0x48>)
    28d4:	1a54      	subs	r4, r2, r1
    28d6:	10a5      	asrs	r5, r4, #2
    28d8:	2400      	movs	r4, #0
    28da:	42ac      	cmp	r4, r5
    28dc:	d005      	beq.n	28ea <__libc_init_array+0x3a>
    28de:	4b05      	ldr	r3, [pc, #20]	; (28f4 <__libc_init_array+0x44>)
    28e0:	f853 0024 	ldr.w	r0, [r3, r4, lsl #2]
    28e4:	4780      	blx	r0
    28e6:	3401      	adds	r4, #1
    28e8:	e7f7      	b.n	28da <__libc_init_array+0x2a>
    28ea:	bd38      	pop	{r3, r4, r5, pc}
    28ec:	10000540 	.word	0x10000540
    28f0:	10000540 	.word	0x10000540
    28f4:	10000540 	.word	0x10000540
    28f8:	10000544 	.word	0x10000544

000028fc <malloc>:
    28fc:	4b02      	ldr	r3, [pc, #8]	; (2908 <malloc+0xc>)
    28fe:	4601      	mov	r1, r0
    2900:	6818      	ldr	r0, [r3, #0]
    2902:	f000 b80b 	b.w	291c <_malloc_r>
    2906:	bf00      	nop
    2908:	100004d8 	.word	0x100004d8

0000290c <free>:
    290c:	4b02      	ldr	r3, [pc, #8]	; (2918 <free+0xc>)
    290e:	4601      	mov	r1, r0
    2910:	6818      	ldr	r0, [r3, #0]
    2912:	f002 b8fd 	b.w	4b10 <_free_r>
    2916:	bf00      	nop
    2918:	100004d8 	.word	0x100004d8

0000291c <_malloc_r>:
    291c:	b570      	push	{r4, r5, r6, lr}
    291e:	1ccd      	adds	r5, r1, #3
    2920:	f025 0503 	bic.w	r5, r5, #3
    2924:	3508      	adds	r5, #8
    2926:	2d0c      	cmp	r5, #12
    2928:	bf38      	it	cc
    292a:	250c      	movcc	r5, #12
    292c:	2d00      	cmp	r5, #0
    292e:	4606      	mov	r6, r0
    2930:	db2d      	blt.n	298e <_malloc_r+0x72>
    2932:	428d      	cmp	r5, r1
    2934:	d32b      	bcc.n	298e <_malloc_r+0x72>
    2936:	4b1d      	ldr	r3, [pc, #116]	; (29ac <_malloc_r+0x90>)
    2938:	681b      	ldr	r3, [r3, #0]
    293a:	461c      	mov	r4, r3
    293c:	b19c      	cbz	r4, 2966 <_malloc_r+0x4a>
    293e:	6822      	ldr	r2, [r4, #0]
    2940:	1b50      	subs	r0, r2, r5
    2942:	d40d      	bmi.n	2960 <_malloc_r+0x44>
    2944:	280b      	cmp	r0, #11
    2946:	d902      	bls.n	294e <_malloc_r+0x32>
    2948:	6020      	str	r0, [r4, #0]
    294a:	1824      	adds	r4, r4, r0
    294c:	e017      	b.n	297e <_malloc_r+0x62>
    294e:	42a3      	cmp	r3, r4
    2950:	d103      	bne.n	295a <_malloc_r+0x3e>
    2952:	6860      	ldr	r0, [r4, #4]
    2954:	4a15      	ldr	r2, [pc, #84]	; (29ac <_malloc_r+0x90>)
    2956:	6010      	str	r0, [r2, #0]
    2958:	e01d      	b.n	2996 <_malloc_r+0x7a>
    295a:	6861      	ldr	r1, [r4, #4]
    295c:	6059      	str	r1, [r3, #4]
    295e:	e01a      	b.n	2996 <_malloc_r+0x7a>
    2960:	4623      	mov	r3, r4
    2962:	6864      	ldr	r4, [r4, #4]
    2964:	e7ea      	b.n	293c <_malloc_r+0x20>
    2966:	4629      	mov	r1, r5
    2968:	4630      	mov	r0, r6
    296a:	f000 f84b 	bl	2a04 <_sbrk_r>
    296e:	1c43      	adds	r3, r0, #1
    2970:	4601      	mov	r1, r0
    2972:	d00c      	beq.n	298e <_malloc_r+0x72>
    2974:	1ccc      	adds	r4, r1, #3
    2976:	f024 0403 	bic.w	r4, r4, #3
    297a:	428c      	cmp	r4, r1
    297c:	d101      	bne.n	2982 <_malloc_r+0x66>
    297e:	6025      	str	r5, [r4, #0]
    2980:	e009      	b.n	2996 <_malloc_r+0x7a>
    2982:	4630      	mov	r0, r6
    2984:	1a61      	subs	r1, r4, r1
    2986:	f000 f83d 	bl	2a04 <_sbrk_r>
    298a:	3001      	adds	r0, #1
    298c:	d1f7      	bne.n	297e <_malloc_r+0x62>
    298e:	200c      	movs	r0, #12
    2990:	6030      	str	r0, [r6, #0]
    2992:	2000      	movs	r0, #0
    2994:	bd70      	pop	{r4, r5, r6, pc}
    2996:	f104 010b 	add.w	r1, r4, #11
    299a:	1d23      	adds	r3, r4, #4
    299c:	f021 0007 	bic.w	r0, r1, #7
    29a0:	1ac3      	subs	r3, r0, r3
    29a2:	d002      	beq.n	29aa <_malloc_r+0x8e>
    29a4:	425a      	negs	r2, r3
    29a6:	50e2      	str	r2, [r4, r3]
    29a8:	bd70      	pop	{r4, r5, r6, pc}
    29aa:	bd70      	pop	{r4, r5, r6, pc}
    29ac:	1000067c 	.word	0x1000067c

000029b0 <memcpy>:
    29b0:	b510      	push	{r4, lr}
    29b2:	2300      	movs	r3, #0
    29b4:	4293      	cmp	r3, r2
    29b6:	d003      	beq.n	29c0 <memcpy+0x10>
    29b8:	5ccc      	ldrb	r4, [r1, r3]
    29ba:	54c4      	strb	r4, [r0, r3]
    29bc:	3301      	adds	r3, #1
    29be:	e7f9      	b.n	29b4 <memcpy+0x4>
    29c0:	bd10      	pop	{r4, pc}

000029c2 <memset>:
    29c2:	1882      	adds	r2, r0, r2
    29c4:	4603      	mov	r3, r0
    29c6:	4293      	cmp	r3, r2
    29c8:	d002      	beq.n	29d0 <memset+0xe>
    29ca:	f803 1b01 	strb.w	r1, [r3], #1
    29ce:	e7fa      	b.n	29c6 <memset+0x4>
    29d0:	4770      	bx	lr
	...

000029d4 <iprintf>:
    29d4:	b40f      	push	{r0, r1, r2, r3}
    29d6:	4b0a      	ldr	r3, [pc, #40]	; (2a00 <iprintf+0x2c>)
    29d8:	b513      	push	{r0, r1, r4, lr}
    29da:	681c      	ldr	r4, [r3, #0]
    29dc:	b124      	cbz	r4, 29e8 <iprintf+0x14>
    29de:	69a0      	ldr	r0, [r4, #24]
    29e0:	b910      	cbnz	r0, 29e8 <iprintf+0x14>
    29e2:	4620      	mov	r0, r4
    29e4:	f002 f82c 	bl	4a40 <__sinit>
    29e8:	ab05      	add	r3, sp, #20
    29ea:	4620      	mov	r0, r4
    29ec:	68a1      	ldr	r1, [r4, #8]
    29ee:	9a04      	ldr	r2, [sp, #16]
    29f0:	9301      	str	r3, [sp, #4]
    29f2:	f000 f89d 	bl	2b30 <_vfiprintf_r>
    29f6:	e8bd 401c 	ldmia.w	sp!, {r2, r3, r4, lr}
    29fa:	b004      	add	sp, #16
    29fc:	4770      	bx	lr
    29fe:	bf00      	nop
    2a00:	100004d8 	.word	0x100004d8

00002a04 <_sbrk_r>:
    2a04:	b538      	push	{r3, r4, r5, lr}
    2a06:	4c06      	ldr	r4, [pc, #24]	; (2a20 <_sbrk_r+0x1c>)
    2a08:	2300      	movs	r3, #0
    2a0a:	4605      	mov	r5, r0
    2a0c:	4608      	mov	r0, r1
    2a0e:	6023      	str	r3, [r4, #0]
    2a10:	f004 f8e0 	bl	6bd4 <_sbrk>
    2a14:	1c43      	adds	r3, r0, #1
    2a16:	d102      	bne.n	2a1e <_sbrk_r+0x1a>
    2a18:	6821      	ldr	r1, [r4, #0]
    2a1a:	b101      	cbz	r1, 2a1e <_sbrk_r+0x1a>
    2a1c:	6029      	str	r1, [r5, #0]
    2a1e:	bd38      	pop	{r3, r4, r5, pc}
    2a20:	1000068c 	.word	0x1000068c

00002a24 <__sread>:
    2a24:	b510      	push	{r4, lr}
    2a26:	460c      	mov	r4, r1
    2a28:	f9b1 100e 	ldrsh.w	r1, [r1, #14]
    2a2c:	f002 fd2e 	bl	548c <_read_r>
    2a30:	2800      	cmp	r0, #0
    2a32:	db03      	blt.n	2a3c <__sread+0x18>
    2a34:	6d62      	ldr	r2, [r4, #84]	; 0x54
    2a36:	1813      	adds	r3, r2, r0
    2a38:	6563      	str	r3, [r4, #84]	; 0x54
    2a3a:	bd10      	pop	{r4, pc}
    2a3c:	89a3      	ldrh	r3, [r4, #12]
    2a3e:	f423 5180 	bic.w	r1, r3, #4096	; 0x1000
    2a42:	81a1      	strh	r1, [r4, #12]
    2a44:	bd10      	pop	{r4, pc}

00002a46 <__swrite>:
    2a46:	e92d 41f0 	stmdb	sp!, {r4, r5, r6, r7, r8, lr}
    2a4a:	461d      	mov	r5, r3
    2a4c:	898b      	ldrh	r3, [r1, #12]
    2a4e:	460c      	mov	r4, r1
    2a50:	f403 7180 	and.w	r1, r3, #256	; 0x100
    2a54:	4616      	mov	r6, r2
    2a56:	b20a      	sxth	r2, r1
    2a58:	4607      	mov	r7, r0
    2a5a:	b12a      	cbz	r2, 2a68 <__swrite+0x22>
    2a5c:	f9b4 100e 	ldrsh.w	r1, [r4, #14]
    2a60:	2200      	movs	r2, #0
    2a62:	2302      	movs	r3, #2
    2a64:	f002 f89c 	bl	4ba0 <_lseek_r>
    2a68:	89a0      	ldrh	r0, [r4, #12]
    2a6a:	f9b4 100e 	ldrsh.w	r1, [r4, #14]
    2a6e:	f420 5380 	bic.w	r3, r0, #4096	; 0x1000
    2a72:	81a3      	strh	r3, [r4, #12]
    2a74:	4638      	mov	r0, r7
    2a76:	4632      	mov	r2, r6
    2a78:	462b      	mov	r3, r5
    2a7a:	e8bd 41f0 	ldmia.w	sp!, {r4, r5, r6, r7, r8, lr}
    2a7e:	f001 b821 	b.w	3ac4 <_write_r>

00002a82 <__sseek>:
    2a82:	b510      	push	{r4, lr}
    2a84:	460c      	mov	r4, r1
    2a86:	f9b1 100e 	ldrsh.w	r1, [r1, #14]
    2a8a:	f002 f889 	bl	4ba0 <_lseek_r>
    2a8e:	1c43      	adds	r3, r0, #1
    2a90:	89a3      	ldrh	r3, [r4, #12]
    2a92:	d103      	bne.n	2a9c <__sseek+0x1a>
    2a94:	f423 5280 	bic.w	r2, r3, #4096	; 0x1000
    2a98:	81a2      	strh	r2, [r4, #12]
    2a9a:	bd10      	pop	{r4, pc}
    2a9c:	f443 5180 	orr.w	r1, r3, #4096	; 0x1000
    2aa0:	81a1      	strh	r1, [r4, #12]
    2aa2:	6560      	str	r0, [r4, #84]	; 0x54
    2aa4:	bd10      	pop	{r4, pc}

00002aa6 <__sclose>:
    2aa6:	f9b1 100e 	ldrsh.w	r1, [r1, #14]
    2aaa:	f001 b893 	b.w	3bd4 <_close_r>

00002aae <strcmp>:
    2aae:	f810 2b01 	ldrb.w	r2, [r0], #1
    2ab2:	f811 3b01 	ldrb.w	r3, [r1], #1
    2ab6:	2a01      	cmp	r2, #1
    2ab8:	bf28      	it	cs
    2aba:	429a      	cmpcs	r2, r3
    2abc:	d0f7      	beq.n	2aae <strcmp>
    2abe:	eba2 0003 	sub.w	r0, r2, r3
    2ac2:	4770      	bx	lr

00002ac4 <strlen>:
    2ac4:	4603      	mov	r3, r0
    2ac6:	f813 2b01 	ldrb.w	r2, [r3], #1
    2aca:	2a00      	cmp	r2, #0
    2acc:	d1fb      	bne.n	2ac6 <strlen+0x2>
    2ace:	1a18      	subs	r0, r3, r0
    2ad0:	3801      	subs	r0, #1
    2ad2:	4770      	bx	lr

00002ad4 <strncmp>:
    2ad4:	b570      	push	{r4, r5, r6, lr}
    2ad6:	b192      	cbz	r2, 2afe <strncmp+0x2a>
    2ad8:	460b      	mov	r3, r1
    2ada:	4605      	mov	r5, r0
    2adc:	b91a      	cbnz	r2, 2ae6 <strncmp+0x12>
    2ade:	7828      	ldrb	r0, [r5, #0]
    2ae0:	7819      	ldrb	r1, [r3, #0]
    2ae2:	1a40      	subs	r0, r0, r1
    2ae4:	bd70      	pop	{r4, r5, r6, pc}
    2ae6:	f810 6b01 	ldrb.w	r6, [r0], #1
    2aea:	781c      	ldrb	r4, [r3, #0]
    2aec:	3101      	adds	r1, #1
    2aee:	42b4      	cmp	r4, r6
    2af0:	d1f5      	bne.n	2ade <strncmp+0xa>
    2af2:	2a01      	cmp	r2, #1
    2af4:	d0f3      	beq.n	2ade <strncmp+0xa>
    2af6:	3a01      	subs	r2, #1
    2af8:	2c00      	cmp	r4, #0
    2afa:	d1ed      	bne.n	2ad8 <strncmp+0x4>
    2afc:	e7ef      	b.n	2ade <strncmp+0xa>
    2afe:	4610      	mov	r0, r2
    2b00:	bd70      	pop	{r4, r5, r6, pc}

00002b02 <__sfputc_r>:
    2b02:	6893      	ldr	r3, [r2, #8]
    2b04:	b510      	push	{r4, lr}
    2b06:	3b01      	subs	r3, #1
    2b08:	2b00      	cmp	r3, #0
    2b0a:	6093      	str	r3, [r2, #8]
    2b0c:	da05      	bge.n	2b1a <__sfputc_r+0x18>
    2b0e:	6994      	ldr	r4, [r2, #24]
    2b10:	42a3      	cmp	r3, r4
    2b12:	db08      	blt.n	2b26 <__sfputc_r+0x24>
    2b14:	b2cb      	uxtb	r3, r1
    2b16:	2b0a      	cmp	r3, #10
    2b18:	d005      	beq.n	2b26 <__sfputc_r+0x24>
    2b1a:	6813      	ldr	r3, [r2, #0]
    2b1c:	b2c8      	uxtb	r0, r1
    2b1e:	f803 1b01 	strb.w	r1, [r3], #1
    2b22:	6013      	str	r3, [r2, #0]
    2b24:	bd10      	pop	{r4, pc}
    2b26:	e8bd 4010 	ldmia.w	sp!, {r4, lr}
    2b2a:	f000 bf71 	b.w	3a10 <__swbuf_r>
	...

00002b30 <_vfiprintf_r>:
    2b30:	e92d 47f0 	stmdb	sp!, {r4, r5, r6, r7, r8, r9, r10, lr}
    2b34:	b09c      	sub	sp, #112	; 0x70
    2b36:	460d      	mov	r5, r1
    2b38:	4614      	mov	r4, r2
    2b3a:	9303      	str	r3, [sp, #12]
    2b3c:	4606      	mov	r6, r0
    2b3e:	b118      	cbz	r0, 2b48 <_vfiprintf_r+0x18>
    2b40:	6983      	ldr	r3, [r0, #24]
    2b42:	b90b      	cbnz	r3, 2b48 <_vfiprintf_r+0x18>
    2b44:	f001 ff7c 	bl	4a40 <__sinit>
    2b48:	487c      	ldr	r0, [pc, #496]	; (2d3c <_vfiprintf_r+0x20c>)
    2b4a:	4285      	cmp	r5, r0
    2b4c:	d101      	bne.n	2b52 <_vfiprintf_r+0x22>
    2b4e:	6875      	ldr	r5, [r6, #4]
    2b50:	e008      	b.n	2b64 <_vfiprintf_r+0x34>
    2b52:	497b      	ldr	r1, [pc, #492]	; (2d40 <_vfiprintf_r+0x210>)
    2b54:	428d      	cmp	r5, r1
    2b56:	d101      	bne.n	2b5c <_vfiprintf_r+0x2c>
    2b58:	68b5      	ldr	r5, [r6, #8]
    2b5a:	e003      	b.n	2b64 <_vfiprintf_r+0x34>
    2b5c:	4a79      	ldr	r2, [pc, #484]	; (2d44 <_vfiprintf_r+0x214>)
    2b5e:	4295      	cmp	r5, r2
    2b60:	bf08      	it	eq
    2b62:	68f5      	ldreq	r5, [r6, #12]
    2b64:	89ab      	ldrh	r3, [r5, #12]
    2b66:	f003 0008 	and.w	r0, r3, #8
    2b6a:	b201      	sxth	r1, r0
    2b6c:	b151      	cbz	r1, 2b84 <_vfiprintf_r+0x54>
    2b6e:	692a      	ldr	r2, [r5, #16]
    2b70:	b142      	cbz	r2, 2b84 <_vfiprintf_r+0x54>
    2b72:	2700      	movs	r7, #0
    2b74:	2320      	movs	r3, #32
    2b76:	2030      	movs	r0, #48	; 0x30
    2b78:	9709      	str	r7, [sp, #36]	; 0x24
    2b7a:	f88d 3029 	strb.w	r3, [sp, #41]	; 0x29
    2b7e:	f88d 002a 	strb.w	r0, [sp, #42]	; 0x2a
    2b82:	e03c      	b.n	2bfe <_vfiprintf_r+0xce>
    2b84:	4630      	mov	r0, r6
    2b86:	4629      	mov	r1, r5
    2b88:	f000 ffae 	bl	3ae8 <__swsetup_r>
    2b8c:	2800      	cmp	r0, #0
    2b8e:	d0f0      	beq.n	2b72 <_vfiprintf_r+0x42>
    2b90:	f04f 30ff 	mov.w	r0, #4294967295
    2b94:	e0ce      	b.n	2d34 <_vfiprintf_r+0x204>
    2b96:	9803      	ldr	r0, [sp, #12]
    2b98:	6807      	ldr	r7, [r0, #0]
    2b9a:	1d02      	adds	r2, r0, #4
    2b9c:	2f00      	cmp	r7, #0
    2b9e:	9203      	str	r2, [sp, #12]
    2ba0:	db7d      	blt.n	2c9e <_vfiprintf_r+0x16e>
    2ba2:	9707      	str	r7, [sp, #28]
    2ba4:	3401      	adds	r4, #1
    2ba6:	7820      	ldrb	r0, [r4, #0]
    2ba8:	282e      	cmp	r0, #46	; 0x2e
    2baa:	f000 808a 	beq.w	2cc2 <_vfiprintf_r+0x192>
    2bae:	4f66      	ldr	r7, [pc, #408]	; (2d48 <_vfiprintf_r+0x218>)
    2bb0:	7821      	ldrb	r1, [r4, #0]
    2bb2:	4638      	mov	r0, r7
    2bb4:	2203      	movs	r2, #3
    2bb6:	f002 f859 	bl	4c6c <memchr>
    2bba:	b138      	cbz	r0, 2bcc <_vfiprintf_r+0x9c>
    2bbc:	1bc7      	subs	r7, r0, r7
    2bbe:	2140      	movs	r1, #64	; 0x40
    2bc0:	fa01 f107 	lsl.w	r1, r1, r7
    2bc4:	9b04      	ldr	r3, [sp, #16]
    2bc6:	3401      	adds	r4, #1
    2bc8:	430b      	orrs	r3, r1
    2bca:	9304      	str	r3, [sp, #16]
    2bcc:	f814 1b01 	ldrb.w	r1, [r4], #1
    2bd0:	485e      	ldr	r0, [pc, #376]	; (2d4c <_vfiprintf_r+0x21c>)
    2bd2:	2206      	movs	r2, #6
    2bd4:	f88d 1028 	strb.w	r1, [sp, #40]	; 0x28
    2bd8:	f002 f848 	bl	4c6c <memchr>
    2bdc:	2800      	cmp	r0, #0
    2bde:	f000 8094 	beq.w	2d0a <_vfiprintf_r+0x1da>
    2be2:	4a5b      	ldr	r2, [pc, #364]	; (2d50 <_vfiprintf_r+0x220>)
    2be4:	2a00      	cmp	r2, #0
    2be6:	f040 8087 	bne.w	2cf8 <_vfiprintf_r+0x1c8>
    2bea:	9f03      	ldr	r7, [sp, #12]
    2bec:	1dfb      	adds	r3, r7, #7
    2bee:	f023 0007 	bic.w	r0, r3, #7
    2bf2:	3008      	adds	r0, #8
    2bf4:	9003      	str	r0, [sp, #12]
    2bf6:	9a09      	ldr	r2, [sp, #36]	; 0x24
    2bf8:	eb02 0108 	add.w	r1, r2, r8
    2bfc:	9109      	str	r1, [sp, #36]	; 0x24
    2bfe:	4621      	mov	r1, r4
    2c00:	460f      	mov	r7, r1
    2c02:	f811 2b01 	ldrb.w	r2, [r1], #1
    2c06:	b92a      	cbnz	r2, 2c14 <_vfiprintf_r+0xe4>
    2c08:	ebb7 0a04 	subs.w	r10, r7, r4
    2c0c:	d015      	beq.n	2c3a <_vfiprintf_r+0x10a>
    2c0e:	f04f 0900 	mov.w	r9, #0
    2c12:	e00c      	b.n	2c2e <_vfiprintf_r+0xfe>
    2c14:	2a25      	cmp	r2, #37	; 0x25
    2c16:	d1f3      	bne.n	2c00 <_vfiprintf_r+0xd0>
    2c18:	e7f6      	b.n	2c08 <_vfiprintf_r+0xd8>
    2c1a:	4630      	mov	r0, r6
    2c1c:	f814 1009 	ldrb.w	r1, [r4, r9]
    2c20:	462a      	mov	r2, r5
    2c22:	f7ff ff6e 	bl	2b02 <__sfputc_r>
    2c26:	3001      	adds	r0, #1
    2c28:	d07c      	beq.n	2d24 <_vfiprintf_r+0x1f4>
    2c2a:	f109 0901 	add.w	r9, r9, #1
    2c2e:	45d1      	cmp	r9, r10
    2c30:	dbf3      	blt.n	2c1a <_vfiprintf_r+0xea>
    2c32:	9b09      	ldr	r3, [sp, #36]	; 0x24
    2c34:	eb03 000a 	add.w	r0, r3, r10
    2c38:	9009      	str	r0, [sp, #36]	; 0x24
    2c3a:	7839      	ldrb	r1, [r7, #0]
    2c3c:	2900      	cmp	r1, #0
    2c3e:	d071      	beq.n	2d24 <_vfiprintf_r+0x1f4>
    2c40:	2400      	movs	r4, #0
    2c42:	f04f 32ff 	mov.w	r2, #4294967295
    2c46:	9404      	str	r4, [sp, #16]
    2c48:	9407      	str	r4, [sp, #28]
    2c4a:	9205      	str	r2, [sp, #20]
    2c4c:	9406      	str	r4, [sp, #24]
    2c4e:	f88d 4053 	strb.w	r4, [sp, #83]	; 0x53
    2c52:	941a      	str	r4, [sp, #104]	; 0x68
    2c54:	f107 0901 	add.w	r9, r7, #1
    2c58:	4f3e      	ldr	r7, [pc, #248]	; (2d54 <_vfiprintf_r+0x224>)
    2c5a:	464c      	mov	r4, r9
    2c5c:	4638      	mov	r0, r7
    2c5e:	7821      	ldrb	r1, [r4, #0]
    2c60:	2205      	movs	r2, #5
    2c62:	f002 f803 	bl	4c6c <memchr>
    2c66:	f109 0901 	add.w	r9, r9, #1
    2c6a:	9b04      	ldr	r3, [sp, #16]
    2c6c:	b130      	cbz	r0, 2c7c <_vfiprintf_r+0x14c>
    2c6e:	1bc4      	subs	r4, r0, r7
    2c70:	2701      	movs	r7, #1
    2c72:	fa07 f704 	lsl.w	r7, r7, r4
    2c76:	433b      	orrs	r3, r7
    2c78:	9304      	str	r3, [sp, #16]
    2c7a:	e7ed      	b.n	2c58 <_vfiprintf_r+0x128>
    2c7c:	06d9      	lsls	r1, r3, #27
    2c7e:	d502      	bpl.n	2c86 <_vfiprintf_r+0x156>
    2c80:	2020      	movs	r0, #32
    2c82:	f88d 0053 	strb.w	r0, [sp, #83]	; 0x53
    2c86:	071a      	lsls	r2, r3, #28
    2c88:	d502      	bpl.n	2c90 <_vfiprintf_r+0x160>
    2c8a:	212b      	movs	r1, #43	; 0x2b
    2c8c:	f88d 1053 	strb.w	r1, [sp, #83]	; 0x53
    2c90:	7822      	ldrb	r2, [r4, #0]
    2c92:	2a2a      	cmp	r2, #42	; 0x2a
    2c94:	f43f af7f 	beq.w	2b96 <_vfiprintf_r+0x66>
    2c98:	9b07      	ldr	r3, [sp, #28]
    2c9a:	4627      	mov	r7, r4
    2c9c:	e005      	b.n	2caa <_vfiprintf_r+0x17a>
    2c9e:	4279      	negs	r1, r7
    2ca0:	f043 0302 	orr.w	r3, r3, #2
    2ca4:	9107      	str	r1, [sp, #28]
    2ca6:	9304      	str	r3, [sp, #16]
    2ca8:	e77c      	b.n	2ba4 <_vfiprintf_r+0x74>
    2caa:	463c      	mov	r4, r7
    2cac:	7821      	ldrb	r1, [r4, #0]
    2cae:	3701      	adds	r7, #1
    2cb0:	3930      	subs	r1, #48	; 0x30
    2cb2:	2909      	cmp	r1, #9
    2cb4:	d803      	bhi.n	2cbe <_vfiprintf_r+0x18e>
    2cb6:	240a      	movs	r4, #10
    2cb8:	fb04 1303 	mla	r3, r4, r3, r1
    2cbc:	e7f5      	b.n	2caa <_vfiprintf_r+0x17a>
    2cbe:	9307      	str	r3, [sp, #28]
    2cc0:	e771      	b.n	2ba6 <_vfiprintf_r+0x76>
    2cc2:	7862      	ldrb	r2, [r4, #1]
    2cc4:	2a2a      	cmp	r2, #42	; 0x2a
    2cc6:	d109      	bne.n	2cdc <_vfiprintf_r+0x1ac>
    2cc8:	9803      	ldr	r0, [sp, #12]
    2cca:	3402      	adds	r4, #2
    2ccc:	6803      	ldr	r3, [r0, #0]
    2cce:	1d02      	adds	r2, r0, #4
    2cd0:	2b00      	cmp	r3, #0
    2cd2:	9203      	str	r2, [sp, #12]
    2cd4:	bfb8      	it	lt
    2cd6:	f04f 33ff 	movlt.w	r3, #4294967295
    2cda:	e00b      	b.n	2cf4 <_vfiprintf_r+0x1c4>
    2cdc:	1c67      	adds	r7, r4, #1
    2cde:	2300      	movs	r3, #0
    2ce0:	463c      	mov	r4, r7
    2ce2:	7821      	ldrb	r1, [r4, #0]
    2ce4:	3701      	adds	r7, #1
    2ce6:	3930      	subs	r1, #48	; 0x30
    2ce8:	2909      	cmp	r1, #9
    2cea:	d803      	bhi.n	2cf4 <_vfiprintf_r+0x1c4>
    2cec:	240a      	movs	r4, #10
    2cee:	fb04 1303 	mla	r3, r4, r3, r1
    2cf2:	e7f5      	b.n	2ce0 <_vfiprintf_r+0x1b0>
    2cf4:	9305      	str	r3, [sp, #20]
    2cf6:	e75a      	b.n	2bae <_vfiprintf_r+0x7e>
    2cf8:	a903      	add	r1, sp, #12
    2cfa:	9100      	str	r1, [sp, #0]
    2cfc:	4630      	mov	r0, r6
    2cfe:	a904      	add	r1, sp, #16
    2d00:	462a      	mov	r2, r5
    2d02:	4b15      	ldr	r3, [pc, #84]	; (2d58 <_vfiprintf_r+0x228>)
    2d04:	f000 f8c2 	bl	2e8c <_printf_float>
    2d08:	e007      	b.n	2d1a <_vfiprintf_r+0x1ea>
    2d0a:	a803      	add	r0, sp, #12
    2d0c:	9000      	str	r0, [sp, #0]
    2d0e:	a904      	add	r1, sp, #16
    2d10:	4630      	mov	r0, r6
    2d12:	462a      	mov	r2, r5
    2d14:	4b10      	ldr	r3, [pc, #64]	; (2d58 <_vfiprintf_r+0x228>)
    2d16:	f000 fb7b 	bl	3410 <_printf_i>
    2d1a:	f1b0 3fff 	cmp.w	r0, #4294967295
    2d1e:	4680      	mov	r8, r0
    2d20:	f47f af69 	bne.w	2bf6 <_vfiprintf_r+0xc6>
    2d24:	89ab      	ldrh	r3, [r5, #12]
    2d26:	f003 0040 	and.w	r0, r3, #64	; 0x40
    2d2a:	b202      	sxth	r2, r0
    2d2c:	2a00      	cmp	r2, #0
    2d2e:	f47f af2f 	bne.w	2b90 <_vfiprintf_r+0x60>
    2d32:	9809      	ldr	r0, [sp, #36]	; 0x24
    2d34:	b01c      	add	sp, #112	; 0x70
    2d36:	e8bd 87f0 	ldmia.w	sp!, {r4, r5, r6, r7, r8, r9, r10, pc}
    2d3a:	bf00      	nop
    2d3c:	00007108 	.word	0x00007108
    2d40:	00007128 	.word	0x00007128
    2d44:	00007148 	.word	0x00007148
    2d48:	00006fb6 	.word	0x00006fb6
    2d4c:	00006fba 	.word	0x00006fba
    2d50:	00002e8d 	.word	0x00002e8d
    2d54:	00006fb0 	.word	0x00006fb0
    2d58:	00002b03 	.word	0x00002b03

00002d5c <__cvt>:
    2d5c:	e92d 4fd0 	stmdb	sp!, {r4, r6, r7, r8, r9, r10, r11, lr}
    2d60:	461e      	mov	r6, r3
    2d62:	b088      	sub	sp, #32
    2d64:	ab12      	add	r3, sp, #72	; 0x48
    2d66:	2e00      	cmp	r6, #0
    2d68:	4692      	mov	r10, r2
    2d6a:	9f10      	ldr	r7, [sp, #64]	; 0x40
    2d6c:	e893 0818 	ldmia.w	r3, {r3, r4, r11}
    2d70:	da03      	bge.n	2d7a <__cvt+0x1e>
    2d72:	f106 4600 	add.w	r6, r6, #2147483648	; 0x80000000
    2d76:	212d      	movs	r1, #45	; 0x2d
    2d78:	e000      	b.n	2d7c <__cvt+0x20>
    2d7a:	2100      	movs	r1, #0
    2d7c:	f1bb 0f66 	cmp.w	r11, #102	; 0x66
    2d80:	7019      	strb	r1, [r3, #0]
    2d82:	d00a      	beq.n	2d9a <__cvt+0x3e>
    2d84:	f1bb 0f46 	cmp.w	r11, #70	; 0x46
    2d88:	d007      	beq.n	2d9a <__cvt+0x3e>
    2d8a:	f1bb 0f65 	cmp.w	r11, #101	; 0x65
    2d8e:	d002      	beq.n	2d96 <__cvt+0x3a>
    2d90:	f1bb 0f45 	cmp.w	r11, #69	; 0x45
    2d94:	d103      	bne.n	2d9e <__cvt+0x42>
    2d96:	3701      	adds	r7, #1
    2d98:	e001      	b.n	2d9e <__cvt+0x42>
    2d9a:	2303      	movs	r3, #3
    2d9c:	e000      	b.n	2da0 <__cvt+0x44>
    2d9e:	2302      	movs	r3, #2
    2da0:	e88d 0088 	stmia.w	sp, {r3, r7}
    2da4:	aa07      	add	r2, sp, #28
    2da6:	ab06      	add	r3, sp, #24
    2da8:	9303      	str	r3, [sp, #12]
    2daa:	9204      	str	r2, [sp, #16]
    2dac:	9402      	str	r4, [sp, #8]
    2dae:	4652      	mov	r2, r10
    2db0:	4633      	mov	r3, r6
    2db2:	f000 ffad 	bl	3d10 <_dtoa_r>
    2db6:	f1bb 0f67 	cmp.w	r11, #103	; 0x67
    2dba:	4680      	mov	r8, r0
    2dbc:	d002      	beq.n	2dc4 <__cvt+0x68>
    2dbe:	f1bb 0f47 	cmp.w	r11, #71	; 0x47
    2dc2:	d102      	bne.n	2dca <__cvt+0x6e>
    2dc4:	9811      	ldr	r0, [sp, #68]	; 0x44
    2dc6:	07c3      	lsls	r3, r0, #31
    2dc8:	d528      	bpl.n	2e1c <__cvt+0xc0>
    2dca:	f1bb 0f66 	cmp.w	r11, #102	; 0x66
    2dce:	eb08 0907 	add.w	r9, r8, r7
    2dd2:	d002      	beq.n	2dda <__cvt+0x7e>
    2dd4:	f1bb 0f46 	cmp.w	r11, #70	; 0x46
    2dd8:	d10f      	bne.n	2dfa <__cvt+0x9e>
    2dda:	f898 1000 	ldrb.w	r1, [r8]
    2dde:	2930      	cmp	r1, #48	; 0x30
    2de0:	d109      	bne.n	2df6 <__cvt+0x9a>
    2de2:	4650      	mov	r0, r10
    2de4:	4631      	mov	r1, r6
    2de6:	2200      	movs	r2, #0
    2de8:	2300      	movs	r3, #0
    2dea:	f7ff f9ab 	bl	2144 <__aeabi_dcmpeq>
    2dee:	b910      	cbnz	r0, 2df6 <__cvt+0x9a>
    2df0:	f1c7 0701 	rsb	r7, r7, #1
    2df4:	6027      	str	r7, [r4, #0]
    2df6:	6823      	ldr	r3, [r4, #0]
    2df8:	4499      	add	r9, r3
    2dfa:	4650      	mov	r0, r10
    2dfc:	4631      	mov	r1, r6
    2dfe:	2200      	movs	r2, #0
    2e00:	2300      	movs	r3, #0
    2e02:	f7ff f99f 	bl	2144 <__aeabi_dcmpeq>
    2e06:	b108      	cbz	r0, 2e0c <__cvt+0xb0>
    2e08:	f8cd 901c 	str.w	r9, [sp, #28]
    2e0c:	9807      	ldr	r0, [sp, #28]
    2e0e:	4548      	cmp	r0, r9
    2e10:	d204      	bcs.n	2e1c <__cvt+0xc0>
    2e12:	2230      	movs	r2, #48	; 0x30
    2e14:	f800 2b01 	strb.w	r2, [r0], #1
    2e18:	9007      	str	r0, [sp, #28]
    2e1a:	e7f7      	b.n	2e0c <__cvt+0xb0>
    2e1c:	9a07      	ldr	r2, [sp, #28]
    2e1e:	9b15      	ldr	r3, [sp, #84]	; 0x54
    2e20:	ebc8 0102 	rsb	r1, r8, r2
    2e24:	6019      	str	r1, [r3, #0]
    2e26:	4640      	mov	r0, r8
    2e28:	b008      	add	sp, #32
    2e2a:	e8bd 8fd0 	ldmia.w	sp!, {r4, r6, r7, r8, r9, r10, r11, pc}

00002e2e <__exponent>:
    2e2e:	b573      	push	{r0, r1, r4, r5, r6, lr}
    2e30:	4603      	mov	r3, r0
    2e32:	2900      	cmp	r1, #0
    2e34:	f803 2b02 	strb.w	r2, [r3], #2
    2e38:	da02      	bge.n	2e40 <__exponent+0x12>
    2e3a:	4249      	negs	r1, r1
    2e3c:	222d      	movs	r2, #45	; 0x2d
    2e3e:	e000      	b.n	2e42 <__exponent+0x14>
    2e40:	222b      	movs	r2, #43	; 0x2b
    2e42:	2909      	cmp	r1, #9
    2e44:	7042      	strb	r2, [r0, #1]
    2e46:	461a      	mov	r2, r3
    2e48:	dd19      	ble.n	2e7e <__exponent+0x50>
    2e4a:	f10d 0406 	add.w	r4, sp, #6
    2e4e:	260a      	movs	r6, #10
    2e50:	fb91 f5f6 	sdiv	r5, r1, r6
    2e54:	fb06 1115 	mls	r1, r6, r5, r1
    2e58:	3130      	adds	r1, #48	; 0x30
    2e5a:	2d09      	cmp	r5, #9
    2e5c:	4623      	mov	r3, r4
    2e5e:	f804 1901 	strb.w	r1, [r4], #-1
    2e62:	4629      	mov	r1, r5
    2e64:	dcf3      	bgt.n	2e4e <__exponent+0x20>
    2e66:	3130      	adds	r1, #48	; 0x30
    2e68:	f803 1d01 	strb.w	r1, [r3, #-1]!
    2e6c:	f10d 0107 	add.w	r1, sp, #7
    2e70:	428b      	cmp	r3, r1
    2e72:	d209      	bcs.n	2e88 <__exponent+0x5a>
    2e74:	f813 1b01 	ldrb.w	r1, [r3], #1
    2e78:	f802 1b01 	strb.w	r1, [r2], #1
    2e7c:	e7f6      	b.n	2e6c <__exponent+0x3e>
    2e7e:	2230      	movs	r2, #48	; 0x30
    2e80:	1889      	adds	r1, r1, r2
    2e82:	701a      	strb	r2, [r3, #0]
    2e84:	7059      	strb	r1, [r3, #1]
    2e86:	1c9a      	adds	r2, r3, #2
    2e88:	1a10      	subs	r0, r2, r0
    2e8a:	bd7c      	pop	{r2, r3, r4, r5, r6, pc}

00002e8c <_printf_float>:
    2e8c:	e92d 4ff0 	stmdb	sp!, {r4, r5, r6, r7, r8, r9, r10, r11, lr}
    2e90:	b091      	sub	sp, #68	; 0x44
    2e92:	460c      	mov	r4, r1
    2e94:	4616      	mov	r6, r2
    2e96:	461f      	mov	r7, r3
    2e98:	f8dd 8068 	ldr.w	r8, [sp, #104]	; 0x68
    2e9c:	4605      	mov	r5, r0
    2e9e:	f001 fe7b 	bl	4b98 <_localeconv_r>
    2ea2:	f8d0 a000 	ldr.w	r10, [r0]
    2ea6:	4650      	mov	r0, r10
    2ea8:	f7ff fe0c 	bl	2ac4 <strlen>
    2eac:	900b      	str	r0, [sp, #44]	; 0x2c
    2eae:	f8d8 0000 	ldr.w	r0, [r8]
    2eb2:	2300      	movs	r3, #0
    2eb4:	1dc1      	adds	r1, r0, #7
    2eb6:	930e      	str	r3, [sp, #56]	; 0x38
    2eb8:	f021 0307 	bic.w	r3, r1, #7
    2ebc:	f103 0208 	add.w	r2, r3, #8
    2ec0:	f894 b018 	ldrb.w	r11, [r4, #24]
    2ec4:	f8c8 2000 	str.w	r2, [r8]
    2ec8:	e9d3 0100 	ldrd	r0, r1, [r3]
    2ecc:	e9c4 0112 	strd	r0, r1, [r4, #72]	; 0x48
    2ed0:	e9d4 0112 	ldrd	r0, r1, [r4, #72]	; 0x48
    2ed4:	f002 fb10 	bl	54f8 <__fpclassifyd>
    2ed8:	2801      	cmp	r0, #1
    2eda:	e9d4 0112 	ldrd	r0, r1, [r4, #72]	; 0x48
    2ede:	d117      	bne.n	2f10 <_printf_float+0x84>
    2ee0:	2200      	movs	r2, #0
    2ee2:	2300      	movs	r3, #0
    2ee4:	f7ff f938 	bl	2158 <__aeabi_dcmplt>
    2ee8:	b110      	cbz	r0, 2ef0 <_printf_float+0x64>
    2eea:	222d      	movs	r2, #45	; 0x2d
    2eec:	f884 2043 	strb.w	r2, [r4, #67]	; 0x43
    2ef0:	489a      	ldr	r0, [pc, #616]	; (315c <_printf_float+0x2d0>)
    2ef2:	499b      	ldr	r1, [pc, #620]	; (3160 <_printf_float+0x2d4>)
    2ef4:	f1bb 0f47 	cmp.w	r11, #71	; 0x47
    2ef8:	bf8c      	ite	hi
    2efa:	4688      	movhi	r8, r1
    2efc:	4680      	movls	r8, r0
    2efe:	6820      	ldr	r0, [r4, #0]
    2f00:	2303      	movs	r3, #3
    2f02:	f020 0104 	bic.w	r1, r0, #4
    2f06:	6123      	str	r3, [r4, #16]
    2f08:	6021      	str	r1, [r4, #0]
    2f0a:	f04f 0900 	mov.w	r9, #0
    2f0e:	e086      	b.n	301e <_printf_float+0x192>
    2f10:	f002 faf2 	bl	54f8 <__fpclassifyd>
    2f14:	b910      	cbnz	r0, 2f1c <_printf_float+0x90>
    2f16:	4893      	ldr	r0, [pc, #588]	; (3164 <_printf_float+0x2d8>)
    2f18:	4993      	ldr	r1, [pc, #588]	; (3168 <_printf_float+0x2dc>)
    2f1a:	e7eb      	b.n	2ef4 <_printf_float+0x68>
    2f1c:	6861      	ldr	r1, [r4, #4]
    2f1e:	1c4a      	adds	r2, r1, #1
    2f20:	d101      	bne.n	2f26 <_printf_float+0x9a>
    2f22:	2306      	movs	r3, #6
    2f24:	e007      	b.n	2f36 <_printf_float+0xaa>
    2f26:	f1bb 0f67 	cmp.w	r11, #103	; 0x67
    2f2a:	d002      	beq.n	2f32 <_printf_float+0xa6>
    2f2c:	f1bb 0f47 	cmp.w	r11, #71	; 0x47
    2f30:	d102      	bne.n	2f38 <_printf_float+0xac>
    2f32:	b909      	cbnz	r1, 2f38 <_printf_float+0xac>
    2f34:	2301      	movs	r3, #1
    2f36:	6063      	str	r3, [r4, #4]
    2f38:	6822      	ldr	r2, [r4, #0]
    2f3a:	6860      	ldr	r0, [r4, #4]
    2f3c:	f442 6180 	orr.w	r1, r2, #1024	; 0x400
    2f40:	e88d 0003 	stmia.w	sp, {r0, r1}
    2f44:	e9d4 2312 	ldrd	r2, r3, [r4, #72]	; 0x48
    2f48:	6021      	str	r1, [r4, #0]
    2f4a:	f10d 0033 	add.w	r0, sp, #51	; 0x33
    2f4e:	a90d      	add	r1, sp, #52	; 0x34
    2f50:	9002      	str	r0, [sp, #8]
    2f52:	9103      	str	r1, [sp, #12]
    2f54:	a80e      	add	r0, sp, #56	; 0x38
    2f56:	2100      	movs	r1, #0
    2f58:	9005      	str	r0, [sp, #20]
    2f5a:	f8cd b010 	str.w	r11, [sp, #16]
    2f5e:	9106      	str	r1, [sp, #24]
    2f60:	4628      	mov	r0, r5
    2f62:	f7ff fefb 	bl	2d5c <__cvt>
    2f66:	f1bb 0f67 	cmp.w	r11, #103	; 0x67
    2f6a:	4680      	mov	r8, r0
    2f6c:	d002      	beq.n	2f74 <_printf_float+0xe8>
    2f6e:	f1bb 0f47 	cmp.w	r11, #71	; 0x47
    2f72:	d109      	bne.n	2f88 <_printf_float+0xfc>
    2f74:	9b0d      	ldr	r3, [sp, #52]	; 0x34
    2f76:	1cd8      	adds	r0, r3, #3
    2f78:	db02      	blt.n	2f80 <_printf_float+0xf4>
    2f7a:	6862      	ldr	r2, [r4, #4]
    2f7c:	4293      	cmp	r3, r2
    2f7e:	dd31      	ble.n	2fe4 <_printf_float+0x158>
    2f80:	f1ab 0c02 	sub.w	r12, r11, #2
    2f84:	fa5f fb8c 	uxtb.w	r11, r12
    2f88:	f1bb 0f65 	cmp.w	r11, #101	; 0x65
    2f8c:	980d      	ldr	r0, [sp, #52]	; 0x34
    2f8e:	d812      	bhi.n	2fb6 <_printf_float+0x12a>
    2f90:	1e41      	subs	r1, r0, #1
    2f92:	465a      	mov	r2, r11
    2f94:	f104 0050 	add.w	r0, r4, #80	; 0x50
    2f98:	910d      	str	r1, [sp, #52]	; 0x34
    2f9a:	f7ff ff48 	bl	2e2e <__exponent>
    2f9e:	9a0e      	ldr	r2, [sp, #56]	; 0x38
    2fa0:	4681      	mov	r9, r0
    2fa2:	1883      	adds	r3, r0, r2
    2fa4:	2a01      	cmp	r2, #1
    2fa6:	6123      	str	r3, [r4, #16]
    2fa8:	dc02      	bgt.n	2fb0 <_printf_float+0x124>
    2faa:	6820      	ldr	r0, [r4, #0]
    2fac:	07c1      	lsls	r1, r0, #31
    2fae:	d530      	bpl.n	3012 <_printf_float+0x186>
    2fb0:	1c59      	adds	r1, r3, #1
    2fb2:	6121      	str	r1, [r4, #16]
    2fb4:	e02d      	b.n	3012 <_printf_float+0x186>
    2fb6:	f1bb 0f66 	cmp.w	r11, #102	; 0x66
    2fba:	d115      	bne.n	2fe8 <_printf_float+0x15c>
    2fbc:	2800      	cmp	r0, #0
    2fbe:	6863      	ldr	r3, [r4, #4]
    2fc0:	dd08      	ble.n	2fd4 <_printf_float+0x148>
    2fc2:	6120      	str	r0, [r4, #16]
    2fc4:	b913      	cbnz	r3, 2fcc <_printf_float+0x140>
    2fc6:	6822      	ldr	r2, [r4, #0]
    2fc8:	07d2      	lsls	r2, r2, #31
    2fca:	d51e      	bpl.n	300a <_printf_float+0x17e>
    2fcc:	3301      	adds	r3, #1
    2fce:	18c0      	adds	r0, r0, r3
    2fd0:	6120      	str	r0, [r4, #16]
    2fd2:	e01a      	b.n	300a <_printf_float+0x17e>
    2fd4:	b913      	cbnz	r3, 2fdc <_printf_float+0x150>
    2fd6:	6821      	ldr	r1, [r4, #0]
    2fd8:	07c8      	lsls	r0, r1, #31
    2fda:	d501      	bpl.n	2fe0 <_printf_float+0x154>
    2fdc:	1c9a      	adds	r2, r3, #2
    2fde:	e013      	b.n	3008 <_printf_float+0x17c>
    2fe0:	2201      	movs	r2, #1
    2fe2:	e011      	b.n	3008 <_printf_float+0x17c>
    2fe4:	f04f 0b67 	mov.w	r11, #103	; 0x67
    2fe8:	9b0d      	ldr	r3, [sp, #52]	; 0x34
    2fea:	990e      	ldr	r1, [sp, #56]	; 0x38
    2fec:	428b      	cmp	r3, r1
    2fee:	db05      	blt.n	2ffc <_printf_float+0x170>
    2ff0:	6820      	ldr	r0, [r4, #0]
    2ff2:	6123      	str	r3, [r4, #16]
    2ff4:	07c1      	lsls	r1, r0, #31
    2ff6:	d508      	bpl.n	300a <_printf_float+0x17e>
    2ff8:	1c5a      	adds	r2, r3, #1
    2ffa:	e005      	b.n	3008 <_printf_float+0x17c>
    2ffc:	2b00      	cmp	r3, #0
    2ffe:	bfd4      	ite	le
    3000:	f1c3 0302 	rsble	r3, r3, #2
    3004:	2301      	movgt	r3, #1
    3006:	18ca      	adds	r2, r1, r3
    3008:	6122      	str	r2, [r4, #16]
    300a:	990d      	ldr	r1, [sp, #52]	; 0x34
    300c:	f04f 0900 	mov.w	r9, #0
    3010:	65a1      	str	r1, [r4, #88]	; 0x58
    3012:	f89d 2033 	ldrb.w	r2, [sp, #51]	; 0x33
    3016:	b112      	cbz	r2, 301e <_printf_float+0x192>
    3018:	232d      	movs	r3, #45	; 0x2d
    301a:	f884 3043 	strb.w	r3, [r4, #67]	; 0x43
    301e:	9700      	str	r7, [sp, #0]
    3020:	4628      	mov	r0, r5
    3022:	4621      	mov	r1, r4
    3024:	aa0f      	add	r2, sp, #60	; 0x3c
    3026:	4633      	mov	r3, r6
    3028:	f000 f982 	bl	3330 <_printf_common>
    302c:	3001      	adds	r0, #1
    302e:	d102      	bne.n	3036 <_printf_float+0x1aa>
    3030:	f04f 30ff 	mov.w	r0, #4294967295
    3034:	e179      	b.n	332a <_printf_float+0x49e>
    3036:	6823      	ldr	r3, [r4, #0]
    3038:	f413 6280 	ands.w	r2, r3, #1024	; 0x400
    303c:	d10d      	bne.n	305a <_printf_float+0x1ce>
    303e:	4691      	mov	r9, r2
    3040:	6920      	ldr	r0, [r4, #16]
    3042:	4581      	cmp	r9, r0
    3044:	da22      	bge.n	308c <_printf_float+0x200>
    3046:	4628      	mov	r0, r5
    3048:	f818 1009 	ldrb.w	r1, [r8, r9]
    304c:	4632      	mov	r2, r6
    304e:	47b8      	blx	r7
    3050:	3001      	adds	r0, #1
    3052:	d0ed      	beq.n	3030 <_printf_float+0x1a4>
    3054:	f109 0901 	add.w	r9, r9, #1
    3058:	e7f2      	b.n	3040 <_printf_float+0x1b4>
    305a:	f1bb 0f65 	cmp.w	r11, #101	; 0x65
    305e:	f240 80f1 	bls.w	3244 <_printf_float+0x3b8>
    3062:	e9d4 0112 	ldrd	r0, r1, [r4, #72]	; 0x48
    3066:	2200      	movs	r2, #0
    3068:	2300      	movs	r3, #0
    306a:	f7ff f86b 	bl	2144 <__aeabi_dcmpeq>
    306e:	2800      	cmp	r0, #0
    3070:	d02d      	beq.n	30ce <_printf_float+0x242>
    3072:	2130      	movs	r1, #48	; 0x30
    3074:	4628      	mov	r0, r5
    3076:	4632      	mov	r2, r6
    3078:	47b8      	blx	r7
    307a:	3001      	adds	r0, #1
    307c:	d0d8      	beq.n	3030 <_printf_float+0x1a4>
    307e:	9b0e      	ldr	r3, [sp, #56]	; 0x38
    3080:	9a0d      	ldr	r2, [sp, #52]	; 0x34
    3082:	429a      	cmp	r2, r3
    3084:	db07      	blt.n	3096 <_printf_float+0x20a>
    3086:	6820      	ldr	r0, [r4, #0]
    3088:	07c3      	lsls	r3, r0, #31
    308a:	d404      	bmi.n	3096 <_printf_float+0x20a>
    308c:	6821      	ldr	r1, [r4, #0]
    308e:	078a      	lsls	r2, r1, #30
    3090:	f100 8148 	bmi.w	3324 <_printf_float+0x498>
    3094:	e140      	b.n	3318 <_printf_float+0x48c>
    3096:	990b      	ldr	r1, [sp, #44]	; 0x2c
    3098:	eb0a 0b01 	add.w	r11, r10, r1
    309c:	45da      	cmp	r10, r11
    309e:	d007      	beq.n	30b0 <_printf_float+0x224>
    30a0:	4628      	mov	r0, r5
    30a2:	f81a 1b01 	ldrb.w	r1, [r10], #1
    30a6:	4632      	mov	r2, r6
    30a8:	47b8      	blx	r7
    30aa:	3001      	adds	r0, #1
    30ac:	d1f6      	bne.n	309c <_printf_float+0x210>
    30ae:	e7bf      	b.n	3030 <_printf_float+0x1a4>
    30b0:	f04f 0800 	mov.w	r8, #0
    30b4:	9b0e      	ldr	r3, [sp, #56]	; 0x38
    30b6:	1e5a      	subs	r2, r3, #1
    30b8:	4590      	cmp	r8, r2
    30ba:	dae7      	bge.n	308c <_printf_float+0x200>
    30bc:	4628      	mov	r0, r5
    30be:	7ea1      	ldrb	r1, [r4, #26]
    30c0:	4632      	mov	r2, r6
    30c2:	47b8      	blx	r7
    30c4:	3001      	adds	r0, #1
    30c6:	d0b3      	beq.n	3030 <_printf_float+0x1a4>
    30c8:	f108 0801 	add.w	r8, r8, #1
    30cc:	e7f2      	b.n	30b4 <_printf_float+0x228>
    30ce:	980d      	ldr	r0, [sp, #52]	; 0x34
    30d0:	2800      	cmp	r0, #0
    30d2:	dc38      	bgt.n	3146 <_printf_float+0x2ba>
    30d4:	2130      	movs	r1, #48	; 0x30
    30d6:	4628      	mov	r0, r5
    30d8:	4632      	mov	r2, r6
    30da:	47b8      	blx	r7
    30dc:	3001      	adds	r0, #1
    30de:	d0a7      	beq.n	3030 <_printf_float+0x1a4>
    30e0:	9a0d      	ldr	r2, [sp, #52]	; 0x34
    30e2:	b922      	cbnz	r2, 30ee <_printf_float+0x262>
    30e4:	980e      	ldr	r0, [sp, #56]	; 0x38
    30e6:	b910      	cbnz	r0, 30ee <_printf_float+0x262>
    30e8:	6821      	ldr	r1, [r4, #0]
    30ea:	07c8      	lsls	r0, r1, #31
    30ec:	d5ce      	bpl.n	308c <_printf_float+0x200>
    30ee:	9b0b      	ldr	r3, [sp, #44]	; 0x2c
    30f0:	eb0a 0b03 	add.w	r11, r10, r3
    30f4:	45da      	cmp	r10, r11
    30f6:	d007      	beq.n	3108 <_printf_float+0x27c>
    30f8:	4628      	mov	r0, r5
    30fa:	f81a 1b01 	ldrb.w	r1, [r10], #1
    30fe:	4632      	mov	r2, r6
    3100:	47b8      	blx	r7
    3102:	3001      	adds	r0, #1
    3104:	d1f6      	bne.n	30f4 <_printf_float+0x268>
    3106:	e793      	b.n	3030 <_printf_float+0x1a4>
    3108:	f04f 0900 	mov.w	r9, #0
    310c:	9a0d      	ldr	r2, [sp, #52]	; 0x34
    310e:	4250      	negs	r0, r2
    3110:	4581      	cmp	r9, r0
    3112:	da08      	bge.n	3126 <_printf_float+0x29a>
    3114:	4628      	mov	r0, r5
    3116:	7ea1      	ldrb	r1, [r4, #26]
    3118:	4632      	mov	r2, r6
    311a:	47b8      	blx	r7
    311c:	3001      	adds	r0, #1
    311e:	d087      	beq.n	3030 <_printf_float+0x1a4>
    3120:	f109 0901 	add.w	r9, r9, #1
    3124:	e7f2      	b.n	310c <_printf_float+0x280>
    3126:	f04f 0900 	mov.w	r9, #0
    312a:	990e      	ldr	r1, [sp, #56]	; 0x38
    312c:	4589      	cmp	r9, r1
    312e:	daad      	bge.n	308c <_printf_float+0x200>
    3130:	4628      	mov	r0, r5
    3132:	f818 1009 	ldrb.w	r1, [r8, r9]
    3136:	4632      	mov	r2, r6
    3138:	47b8      	blx	r7
    313a:	3001      	adds	r0, #1
    313c:	f43f af78 	beq.w	3030 <_printf_float+0x1a4>
    3140:	f109 0901 	add.w	r9, r9, #1
    3144:	e7f1      	b.n	312a <_printf_float+0x29e>
    3146:	6da1      	ldr	r1, [r4, #88]	; 0x58
    3148:	9b0e      	ldr	r3, [sp, #56]	; 0x38
    314a:	428b      	cmp	r3, r1
    314c:	bfb4      	ite	lt
    314e:	469c      	movlt	r12, r3
    3150:	468c      	movge	r12, r1
    3152:	f1bc 0f00 	cmp.w	r12, #0
    3156:	dc09      	bgt.n	316c <_printf_float+0x2e0>
    3158:	2300      	movs	r3, #0
    315a:	e029      	b.n	31b0 <_printf_float+0x324>
    315c:	00006fc1 	.word	0x00006fc1
    3160:	00006fc5 	.word	0x00006fc5
    3164:	00006fc9 	.word	0x00006fc9
    3168:	00006fcd 	.word	0x00006fcd
    316c:	46c1      	mov	r9, r8
    316e:	eb0c 0308 	add.w	r3, r12, r8
    3172:	f819 1b01 	ldrb.w	r1, [r9], #1
    3176:	4628      	mov	r0, r5
    3178:	9309      	str	r3, [sp, #36]	; 0x24
    317a:	f8cd c028 	str.w	r12, [sp, #40]	; 0x28
    317e:	4632      	mov	r2, r6
    3180:	47b8      	blx	r7
    3182:	3001      	adds	r0, #1
    3184:	9b09      	ldr	r3, [sp, #36]	; 0x24
    3186:	f8dd c028 	ldr.w	r12, [sp, #40]	; 0x28
    318a:	f43f af51 	beq.w	3030 <_printf_float+0x1a4>
    318e:	4599      	cmp	r9, r3
    3190:	d1ef      	bne.n	3172 <_printf_float+0x2e6>
    3192:	e7e1      	b.n	3158 <_printf_float+0x2cc>
    3194:	7ea1      	ldrb	r1, [r4, #26]
    3196:	f8cd c028 	str.w	r12, [sp, #40]	; 0x28
    319a:	4628      	mov	r0, r5
    319c:	4632      	mov	r2, r6
    319e:	9309      	str	r3, [sp, #36]	; 0x24
    31a0:	47b8      	blx	r7
    31a2:	3001      	adds	r0, #1
    31a4:	9909      	ldr	r1, [sp, #36]	; 0x24
    31a6:	f8dd c028 	ldr.w	r12, [sp, #40]	; 0x28
    31aa:	f43f af41 	beq.w	3030 <_printf_float+0x1a4>
    31ae:	1c4b      	adds	r3, r1, #1
    31b0:	f8d4 9058 	ldr.w	r9, [r4, #88]	; 0x58
    31b4:	ea2c 72ec 	bic.w	r2, r12, r12, asr #31
    31b8:	ebc2 0009 	rsb	r0, r2, r9
    31bc:	4283      	cmp	r3, r0
    31be:	dbe9      	blt.n	3194 <_printf_float+0x308>
    31c0:	990e      	ldr	r1, [sp, #56]	; 0x38
    31c2:	9b0d      	ldr	r3, [sp, #52]	; 0x34
    31c4:	428b      	cmp	r3, r1
    31c6:	db0f      	blt.n	31e8 <_printf_float+0x35c>
    31c8:	6822      	ldr	r2, [r4, #0]
    31ca:	07d1      	lsls	r1, r2, #31
    31cc:	d40c      	bmi.n	31e8 <_printf_float+0x35c>
    31ce:	990e      	ldr	r1, [sp, #56]	; 0x38
    31d0:	9b0d      	ldr	r3, [sp, #52]	; 0x34
    31d2:	44c8      	add	r8, r9
    31d4:	1aca      	subs	r2, r1, r3
    31d6:	ebc9 0901 	rsb	r9, r9, r1
    31da:	4591      	cmp	r9, r2
    31dc:	bfa8      	it	ge
    31de:	4691      	movge	r9, r2
    31e0:	f1b9 0f00 	cmp.w	r9, #0
    31e4:	dc0d      	bgt.n	3202 <_printf_float+0x376>
    31e6:	e018      	b.n	321a <_printf_float+0x38e>
    31e8:	980b      	ldr	r0, [sp, #44]	; 0x2c
    31ea:	eb0a 0b00 	add.w	r11, r10, r0
    31ee:	45da      	cmp	r10, r11
    31f0:	d0ed      	beq.n	31ce <_printf_float+0x342>
    31f2:	4628      	mov	r0, r5
    31f4:	f81a 1b01 	ldrb.w	r1, [r10], #1
    31f8:	4632      	mov	r2, r6
    31fa:	47b8      	blx	r7
    31fc:	3001      	adds	r0, #1
    31fe:	d1f6      	bne.n	31ee <_printf_float+0x362>
    3200:	e716      	b.n	3030 <_printf_float+0x1a4>
    3202:	eb08 0a09 	add.w	r10, r8, r9
    3206:	4628      	mov	r0, r5
    3208:	f818 1b01 	ldrb.w	r1, [r8], #1
    320c:	4632      	mov	r2, r6
    320e:	47b8      	blx	r7
    3210:	3001      	adds	r0, #1
    3212:	f43f af0d 	beq.w	3030 <_printf_float+0x1a4>
    3216:	45d0      	cmp	r8, r10
    3218:	d1f5      	bne.n	3206 <_printf_float+0x37a>
    321a:	f04f 0800 	mov.w	r8, #0
    321e:	e008      	b.n	3232 <_printf_float+0x3a6>
    3220:	4628      	mov	r0, r5
    3222:	7ea1      	ldrb	r1, [r4, #26]
    3224:	4632      	mov	r2, r6
    3226:	47b8      	blx	r7
    3228:	3001      	adds	r0, #1
    322a:	f43f af01 	beq.w	3030 <_printf_float+0x1a4>
    322e:	f108 0801 	add.w	r8, r8, #1
    3232:	980d      	ldr	r0, [sp, #52]	; 0x34
    3234:	990e      	ldr	r1, [sp, #56]	; 0x38
    3236:	ea29 72e9 	bic.w	r2, r9, r9, asr #31
    323a:	1a0b      	subs	r3, r1, r0
    323c:	1a98      	subs	r0, r3, r2
    323e:	4580      	cmp	r8, r0
    3240:	dbee      	blt.n	3220 <_printf_float+0x394>
    3242:	e723      	b.n	308c <_printf_float+0x200>
    3244:	980e      	ldr	r0, [sp, #56]	; 0x38
    3246:	f898 1000 	ldrb.w	r1, [r8]
    324a:	2801      	cmp	r0, #1
    324c:	dc0a      	bgt.n	3264 <_printf_float+0x3d8>
    324e:	07da      	lsls	r2, r3, #31
    3250:	d408      	bmi.n	3264 <_printf_float+0x3d8>
    3252:	4628      	mov	r0, r5
    3254:	4632      	mov	r2, r6
    3256:	47b8      	blx	r7
    3258:	3001      	adds	r0, #1
    325a:	f43f aee9 	beq.w	3030 <_printf_float+0x1a4>
    325e:	f04f 0800 	mov.w	r8, #0
    3262:	e048      	b.n	32f6 <_printf_float+0x46a>
    3264:	4628      	mov	r0, r5
    3266:	4632      	mov	r2, r6
    3268:	47b8      	blx	r7
    326a:	3001      	adds	r0, #1
    326c:	f43f aee0 	beq.w	3030 <_printf_float+0x1a4>
    3270:	990b      	ldr	r1, [sp, #44]	; 0x2c
    3272:	eb0a 0b01 	add.w	r11, r10, r1
    3276:	45da      	cmp	r10, r11
    3278:	d007      	beq.n	328a <_printf_float+0x3fe>
    327a:	4628      	mov	r0, r5
    327c:	f81a 1b01 	ldrb.w	r1, [r10], #1
    3280:	4632      	mov	r2, r6
    3282:	47b8      	blx	r7
    3284:	3001      	adds	r0, #1
    3286:	d1f6      	bne.n	3276 <_printf_float+0x3ea>
    3288:	e6d2      	b.n	3030 <_printf_float+0x1a4>
    328a:	e9d4 0112 	ldrd	r0, r1, [r4, #72]	; 0x48
    328e:	2200      	movs	r2, #0
    3290:	2300      	movs	r3, #0
    3292:	f7fe ff57 	bl	2144 <__aeabi_dcmpeq>
    3296:	b110      	cbz	r0, 329e <_printf_float+0x412>
    3298:	f04f 0800 	mov.w	r8, #0
    329c:	e01a      	b.n	32d4 <_printf_float+0x448>
    329e:	f04f 0a00 	mov.w	r10, #0
    32a2:	980e      	ldr	r0, [sp, #56]	; 0x38
    32a4:	1e41      	subs	r1, r0, #1
    32a6:	458a      	cmp	r10, r1
    32a8:	dad9      	bge.n	325e <_printf_float+0x3d2>
    32aa:	eb08 020a 	add.w	r2, r8, r10
    32ae:	7851      	ldrb	r1, [r2, #1]
    32b0:	4628      	mov	r0, r5
    32b2:	4632      	mov	r2, r6
    32b4:	47b8      	blx	r7
    32b6:	3001      	adds	r0, #1
    32b8:	f43f aeba 	beq.w	3030 <_printf_float+0x1a4>
    32bc:	f10a 0a01 	add.w	r10, r10, #1
    32c0:	e7ef      	b.n	32a2 <_printf_float+0x416>
    32c2:	4628      	mov	r0, r5
    32c4:	7ea1      	ldrb	r1, [r4, #26]
    32c6:	4632      	mov	r2, r6
    32c8:	47b8      	blx	r7
    32ca:	3001      	adds	r0, #1
    32cc:	f43f aeb0 	beq.w	3030 <_printf_float+0x1a4>
    32d0:	f108 0801 	add.w	r8, r8, #1
    32d4:	9b0e      	ldr	r3, [sp, #56]	; 0x38
    32d6:	1e5a      	subs	r2, r3, #1
    32d8:	4590      	cmp	r8, r2
    32da:	dbf2      	blt.n	32c2 <_printf_float+0x436>
    32dc:	e7bf      	b.n	325e <_printf_float+0x3d2>
    32de:	eb04 0308 	add.w	r3, r4, r8
    32e2:	4628      	mov	r0, r5
    32e4:	f893 1050 	ldrb.w	r1, [r3, #80]	; 0x50
    32e8:	4632      	mov	r2, r6
    32ea:	47b8      	blx	r7
    32ec:	3001      	adds	r0, #1
    32ee:	f43f ae9f 	beq.w	3030 <_printf_float+0x1a4>
    32f2:	f108 0801 	add.w	r8, r8, #1
    32f6:	45c8      	cmp	r8, r9
    32f8:	dbf1      	blt.n	32de <_printf_float+0x452>
    32fa:	e6c7      	b.n	308c <_printf_float+0x200>
    32fc:	4628      	mov	r0, r5
    32fe:	7e61      	ldrb	r1, [r4, #25]
    3300:	4632      	mov	r2, r6
    3302:	47b8      	blx	r7
    3304:	3001      	adds	r0, #1
    3306:	f43f ae93 	beq.w	3030 <_printf_float+0x1a4>
    330a:	f108 0801 	add.w	r8, r8, #1
    330e:	68e2      	ldr	r2, [r4, #12]
    3310:	9b0f      	ldr	r3, [sp, #60]	; 0x3c
    3312:	1ad0      	subs	r0, r2, r3
    3314:	4580      	cmp	r8, r0
    3316:	dbf1      	blt.n	32fc <_printf_float+0x470>
    3318:	68e0      	ldr	r0, [r4, #12]
    331a:	990f      	ldr	r1, [sp, #60]	; 0x3c
    331c:	4288      	cmp	r0, r1
    331e:	bfb8      	it	lt
    3320:	4608      	movlt	r0, r1
    3322:	e002      	b.n	332a <_printf_float+0x49e>
    3324:	f04f 0800 	mov.w	r8, #0
    3328:	e7f1      	b.n	330e <_printf_float+0x482>
    332a:	b011      	add	sp, #68	; 0x44
    332c:	e8bd 8ff0 	ldmia.w	sp!, {r4, r5, r6, r7, r8, r9, r10, r11, pc}

00003330 <_printf_common>:
    3330:	e92d 47f0 	stmdb	sp!, {r4, r5, r6, r7, r8, r9, r10, lr}
    3334:	4615      	mov	r5, r2
    3336:	4699      	mov	r9, r3
    3338:	688a      	ldr	r2, [r1, #8]
    333a:	690b      	ldr	r3, [r1, #16]
    333c:	4680      	mov	r8, r0
    333e:	429a      	cmp	r2, r3
    3340:	bfa8      	it	ge
    3342:	4613      	movge	r3, r2
    3344:	602b      	str	r3, [r5, #0]
    3346:	f891 0043 	ldrb.w	r0, [r1, #67]	; 0x43
    334a:	460c      	mov	r4, r1
    334c:	f8dd a020 	ldr.w	r10, [sp, #32]
    3350:	b108      	cbz	r0, 3356 <_printf_common+0x26>
    3352:	1c59      	adds	r1, r3, #1
    3354:	6029      	str	r1, [r5, #0]
    3356:	6826      	ldr	r6, [r4, #0]
    3358:	06b2      	lsls	r2, r6, #26
    335a:	d502      	bpl.n	3362 <_printf_common+0x32>
    335c:	682a      	ldr	r2, [r5, #0]
    335e:	1c93      	adds	r3, r2, #2
    3360:	602b      	str	r3, [r5, #0]
    3362:	6820      	ldr	r0, [r4, #0]
    3364:	f010 0606 	ands.w	r6, r0, #6
    3368:	d018      	beq.n	339c <_printf_common+0x6c>
    336a:	f894 7043 	ldrb.w	r7, [r4, #67]	; 0x43
    336e:	6820      	ldr	r0, [r4, #0]
    3370:	1c3e      	adds	r6, r7, #0
    3372:	bf18      	it	ne
    3374:	2601      	movne	r6, #1
    3376:	0683      	lsls	r3, r0, #26
    3378:	d51a      	bpl.n	33b0 <_printf_common+0x80>
    337a:	19a1      	adds	r1, r4, r6
    337c:	2230      	movs	r2, #48	; 0x30
    337e:	f881 2043 	strb.w	r2, [r1, #67]	; 0x43
    3382:	f894 3045 	ldrb.w	r3, [r4, #69]	; 0x45
    3386:	3602      	adds	r6, #2
    3388:	f881 3044 	strb.w	r3, [r1, #68]	; 0x44
    338c:	e010      	b.n	33b0 <_printf_common+0x80>
    338e:	4640      	mov	r0, r8
    3390:	7e61      	ldrb	r1, [r4, #25]
    3392:	464a      	mov	r2, r9
    3394:	47d0      	blx	r10
    3396:	3001      	adds	r0, #1
    3398:	d006      	beq.n	33a8 <_printf_common+0x78>
    339a:	3601      	adds	r6, #1
    339c:	68e1      	ldr	r1, [r4, #12]
    339e:	682a      	ldr	r2, [r5, #0]
    33a0:	1a8b      	subs	r3, r1, r2
    33a2:	429e      	cmp	r6, r3
    33a4:	dbf3      	blt.n	338e <_printf_common+0x5e>
    33a6:	e7e0      	b.n	336a <_printf_common+0x3a>
    33a8:	f04f 30ff 	mov.w	r0, #4294967295
    33ac:	e8bd 87f0 	ldmia.w	sp!, {r4, r5, r6, r7, r8, r9, r10, pc}
    33b0:	2700      	movs	r7, #0
    33b2:	42b7      	cmp	r7, r6
    33b4:	da09      	bge.n	33ca <_printf_common+0x9a>
    33b6:	19e1      	adds	r1, r4, r7
    33b8:	4640      	mov	r0, r8
    33ba:	f891 1043 	ldrb.w	r1, [r1, #67]	; 0x43
    33be:	464a      	mov	r2, r9
    33c0:	47d0      	blx	r10
    33c2:	3001      	adds	r0, #1
    33c4:	d0f0      	beq.n	33a8 <_printf_common+0x78>
    33c6:	3701      	adds	r7, #1
    33c8:	e7f3      	b.n	33b2 <_printf_common+0x82>
    33ca:	6821      	ldr	r1, [r4, #0]
    33cc:	6828      	ldr	r0, [r5, #0]
    33ce:	68e6      	ldr	r6, [r4, #12]
    33d0:	f001 0206 	and.w	r2, r1, #6
    33d4:	2a04      	cmp	r2, #4
    33d6:	bf08      	it	eq
    33d8:	ebc0 0506 	rsbeq	r5, r0, r6
    33dc:	6923      	ldr	r3, [r4, #16]
    33de:	68a6      	ldr	r6, [r4, #8]
    33e0:	bf0c      	ite	eq
    33e2:	ea25 75e5 	biceq.w	r5, r5, r5, asr #31
    33e6:	2500      	movne	r5, #0
    33e8:	429e      	cmp	r6, r3
    33ea:	bfc4      	itt	gt
    33ec:	ebc3 0306 	rsbgt	r3, r3, r6
    33f0:	18ed      	addgt	r5, r5, r3
    33f2:	2600      	movs	r6, #0
    33f4:	42ae      	cmp	r6, r5
    33f6:	da07      	bge.n	3408 <_printf_common+0xd8>
    33f8:	4640      	mov	r0, r8
    33fa:	7ea1      	ldrb	r1, [r4, #26]
    33fc:	464a      	mov	r2, r9
    33fe:	47d0      	blx	r10
    3400:	3001      	adds	r0, #1
    3402:	d0d1      	beq.n	33a8 <_printf_common+0x78>
    3404:	3601      	adds	r6, #1
    3406:	e7f5      	b.n	33f4 <_printf_common+0xc4>
    3408:	2000      	movs	r0, #0
    340a:	e8bd 87f0 	ldmia.w	sp!, {r4, r5, r6, r7, r8, r9, r10, pc}
	...

00003410 <_printf_i>:
    3410:	e92d 43f0 	stmdb	sp!, {r4, r5, r6, r7, r8, r9, lr}
    3414:	460c      	mov	r4, r1
    3416:	7e25      	ldrb	r5, [r4, #24]
    3418:	b085      	sub	sp, #20
    341a:	2d6e      	cmp	r5, #110	; 0x6e
    341c:	4690      	mov	r8, r2
    341e:	4607      	mov	r7, r0
    3420:	4699      	mov	r9, r3
    3422:	990c      	ldr	r1, [sp, #48]	; 0x30
    3424:	f104 0243 	add.w	r2, r4, #67	; 0x43
    3428:	f000 80aa 	beq.w	3580 <_printf_i+0x170>
    342c:	d812      	bhi.n	3454 <_printf_i+0x44>
    342e:	2d63      	cmp	r5, #99	; 0x63
    3430:	d024      	beq.n	347c <_printf_i+0x6c>
    3432:	d809      	bhi.n	3448 <_printf_i+0x38>
    3434:	2d00      	cmp	r5, #0
    3436:	f000 80bb 	beq.w	35b0 <_printf_i+0x1a0>
    343a:	2d58      	cmp	r5, #88	; 0x58
    343c:	f040 80cb 	bne.w	35d6 <_printf_i+0x1c6>
    3440:	f884 5045 	strb.w	r5, [r4, #69]	; 0x45
    3444:	4d82      	ldr	r5, [pc, #520]	; (3650 <_printf_i+0x240>)
    3446:	e057      	b.n	34f8 <_printf_i+0xe8>
    3448:	2d64      	cmp	r5, #100	; 0x64
    344a:	d020      	beq.n	348e <_printf_i+0x7e>
    344c:	2d69      	cmp	r5, #105	; 0x69
    344e:	f040 80c2 	bne.w	35d6 <_printf_i+0x1c6>
    3452:	e01c      	b.n	348e <_printf_i+0x7e>
    3454:	2d73      	cmp	r5, #115	; 0x73
    3456:	f000 80af 	beq.w	35b8 <_printf_i+0x1a8>
    345a:	d809      	bhi.n	3470 <_printf_i+0x60>
    345c:	2d6f      	cmp	r5, #111	; 0x6f
    345e:	d02f      	beq.n	34c0 <_printf_i+0xb0>
    3460:	2d70      	cmp	r5, #112	; 0x70
    3462:	f040 80b8 	bne.w	35d6 <_printf_i+0x1c6>
    3466:	6825      	ldr	r5, [r4, #0]
    3468:	f045 0620 	orr.w	r6, r5, #32
    346c:	6026      	str	r6, [r4, #0]
    346e:	e03f      	b.n	34f0 <_printf_i+0xe0>
    3470:	2d75      	cmp	r5, #117	; 0x75
    3472:	d025      	beq.n	34c0 <_printf_i+0xb0>
    3474:	2d78      	cmp	r5, #120	; 0x78
    3476:	f040 80ae 	bne.w	35d6 <_printf_i+0x1c6>
    347a:	e039      	b.n	34f0 <_printf_i+0xe0>
    347c:	6808      	ldr	r0, [r1, #0]
    347e:	f104 0642 	add.w	r6, r4, #66	; 0x42
    3482:	1d02      	adds	r2, r0, #4
    3484:	600a      	str	r2, [r1, #0]
    3486:	6801      	ldr	r1, [r0, #0]
    3488:	f884 1042 	strb.w	r1, [r4, #66]	; 0x42
    348c:	e0a7      	b.n	35de <_printf_i+0x1ce>
    348e:	6820      	ldr	r0, [r4, #0]
    3490:	680b      	ldr	r3, [r1, #0]
    3492:	f010 0f80 	tst.w	r0, #128	; 0x80
    3496:	d002      	beq.n	349e <_printf_i+0x8e>
    3498:	1d1e      	adds	r6, r3, #4
    349a:	600e      	str	r6, [r1, #0]
    349c:	e008      	b.n	34b0 <_printf_i+0xa0>
    349e:	f103 0504 	add.w	r5, r3, #4
    34a2:	f010 0f40 	tst.w	r0, #64	; 0x40
    34a6:	600d      	str	r5, [r1, #0]
    34a8:	d002      	beq.n	34b0 <_printf_i+0xa0>
    34aa:	f9b3 1000 	ldrsh.w	r1, [r3]
    34ae:	e000      	b.n	34b2 <_printf_i+0xa2>
    34b0:	6819      	ldr	r1, [r3, #0]
    34b2:	2900      	cmp	r1, #0
    34b4:	da3c      	bge.n	3530 <_printf_i+0x120>
    34b6:	202d      	movs	r0, #45	; 0x2d
    34b8:	4249      	negs	r1, r1
    34ba:	f884 0043 	strb.w	r0, [r4, #67]	; 0x43
    34be:	e037      	b.n	3530 <_printf_i+0x120>
    34c0:	6825      	ldr	r5, [r4, #0]
    34c2:	680e      	ldr	r6, [r1, #0]
    34c4:	f015 0f80 	tst.w	r5, #128	; 0x80
    34c8:	d002      	beq.n	34d0 <_printf_i+0xc0>
    34ca:	1d33      	adds	r3, r6, #4
    34cc:	600b      	str	r3, [r1, #0]
    34ce:	e007      	b.n	34e0 <_printf_i+0xd0>
    34d0:	f106 0004 	add.w	r0, r6, #4
    34d4:	f015 0f40 	tst.w	r5, #64	; 0x40
    34d8:	6008      	str	r0, [r1, #0]
    34da:	d001      	beq.n	34e0 <_printf_i+0xd0>
    34dc:	8831      	ldrh	r1, [r6, #0]
    34de:	e000      	b.n	34e2 <_printf_i+0xd2>
    34e0:	6831      	ldr	r1, [r6, #0]
    34e2:	7e26      	ldrb	r6, [r4, #24]
    34e4:	4d5a      	ldr	r5, [pc, #360]	; (3650 <_printf_i+0x240>)
    34e6:	2e6f      	cmp	r6, #111	; 0x6f
    34e8:	bf14      	ite	ne
    34ea:	230a      	movne	r3, #10
    34ec:	2308      	moveq	r3, #8
    34ee:	e01b      	b.n	3528 <_printf_i+0x118>
    34f0:	2078      	movs	r0, #120	; 0x78
    34f2:	4d58      	ldr	r5, [pc, #352]	; (3654 <_printf_i+0x244>)
    34f4:	f884 0045 	strb.w	r0, [r4, #69]	; 0x45
    34f8:	6820      	ldr	r0, [r4, #0]
    34fa:	680b      	ldr	r3, [r1, #0]
    34fc:	f010 0f80 	tst.w	r0, #128	; 0x80
    3500:	f103 0604 	add.w	r6, r3, #4
    3504:	600e      	str	r6, [r1, #0]
    3506:	d103      	bne.n	3510 <_printf_i+0x100>
    3508:	0641      	lsls	r1, r0, #25
    350a:	d501      	bpl.n	3510 <_printf_i+0x100>
    350c:	8819      	ldrh	r1, [r3, #0]
    350e:	e000      	b.n	3512 <_printf_i+0x102>
    3510:	6819      	ldr	r1, [r3, #0]
    3512:	07c6      	lsls	r6, r0, #31
    3514:	bf44      	itt	mi
    3516:	f040 0020 	orrmi.w	r0, r0, #32
    351a:	6020      	strmi	r0, [r4, #0]
    351c:	b919      	cbnz	r1, 3526 <_printf_i+0x116>
    351e:	6820      	ldr	r0, [r4, #0]
    3520:	f020 0320 	bic.w	r3, r0, #32
    3524:	6023      	str	r3, [r4, #0]
    3526:	2310      	movs	r3, #16
    3528:	2000      	movs	r0, #0
    352a:	f884 0043 	strb.w	r0, [r4, #67]	; 0x43
    352e:	e001      	b.n	3534 <_printf_i+0x124>
    3530:	4d47      	ldr	r5, [pc, #284]	; (3650 <_printf_i+0x240>)
    3532:	230a      	movs	r3, #10
    3534:	6866      	ldr	r6, [r4, #4]
    3536:	2e00      	cmp	r6, #0
    3538:	60a6      	str	r6, [r4, #8]
    353a:	db03      	blt.n	3544 <_printf_i+0x134>
    353c:	6820      	ldr	r0, [r4, #0]
    353e:	f020 0004 	bic.w	r0, r0, #4
    3542:	6020      	str	r0, [r4, #0]
    3544:	b901      	cbnz	r1, 3548 <_printf_i+0x138>
    3546:	b16e      	cbz	r6, 3564 <_printf_i+0x154>
    3548:	f104 0042 	add.w	r0, r4, #66	; 0x42
    354c:	fbb1 fef3 	udiv	lr, r1, r3
    3550:	fb03 111e 	mls	r1, r3, lr, r1
    3554:	5c69      	ldrb	r1, [r5, r1]
    3556:	4606      	mov	r6, r0
    3558:	f800 1901 	strb.w	r1, [r0], #-1
    355c:	4671      	mov	r1, lr
    355e:	2900      	cmp	r1, #0
    3560:	d1f4      	bne.n	354c <_printf_i+0x13c>
    3562:	e000      	b.n	3566 <_printf_i+0x156>
    3564:	4616      	mov	r6, r2
    3566:	1b92      	subs	r2, r2, r6
    3568:	2b08      	cmp	r3, #8
    356a:	6122      	str	r2, [r4, #16]
    356c:	d13c      	bne.n	35e8 <_printf_i+0x1d8>
    356e:	6823      	ldr	r3, [r4, #0]
    3570:	07d8      	lsls	r0, r3, #31
    3572:	d539      	bpl.n	35e8 <_printf_i+0x1d8>
    3574:	6860      	ldr	r0, [r4, #4]
    3576:	4290      	cmp	r0, r2
    3578:	dc36      	bgt.n	35e8 <_printf_i+0x1d8>
    357a:	1c51      	adds	r1, r2, #1
    357c:	6061      	str	r1, [r4, #4]
    357e:	e033      	b.n	35e8 <_printf_i+0x1d8>
    3580:	6826      	ldr	r6, [r4, #0]
    3582:	680b      	ldr	r3, [r1, #0]
    3584:	f016 0f80 	tst.w	r6, #128	; 0x80
    3588:	d005      	beq.n	3596 <_printf_i+0x186>
    358a:	1d1e      	adds	r6, r3, #4
    358c:	600e      	str	r6, [r1, #0]
    358e:	6819      	ldr	r1, [r3, #0]
    3590:	6960      	ldr	r0, [r4, #20]
    3592:	6008      	str	r0, [r1, #0]
    3594:	e00c      	b.n	35b0 <_printf_i+0x1a0>
    3596:	f103 0004 	add.w	r0, r3, #4
    359a:	f016 0f40 	tst.w	r6, #64	; 0x40
    359e:	6008      	str	r0, [r1, #0]
    35a0:	d003      	beq.n	35aa <_printf_i+0x19a>
    35a2:	6818      	ldr	r0, [r3, #0]
    35a4:	6963      	ldr	r3, [r4, #20]
    35a6:	8003      	strh	r3, [r0, #0]
    35a8:	e002      	b.n	35b0 <_printf_i+0x1a0>
    35aa:	6961      	ldr	r1, [r4, #20]
    35ac:	681e      	ldr	r6, [r3, #0]
    35ae:	6031      	str	r1, [r6, #0]
    35b0:	2300      	movs	r3, #0
    35b2:	6123      	str	r3, [r4, #16]
    35b4:	4616      	mov	r6, r2
    35b6:	e017      	b.n	35e8 <_printf_i+0x1d8>
    35b8:	680e      	ldr	r6, [r1, #0]
    35ba:	1d32      	adds	r2, r6, #4
    35bc:	600a      	str	r2, [r1, #0]
    35be:	6836      	ldr	r6, [r6, #0]
    35c0:	4630      	mov	r0, r6
    35c2:	f7ff fa7f 	bl	2ac4 <strlen>
    35c6:	6863      	ldr	r3, [r4, #4]
    35c8:	6120      	str	r0, [r4, #16]
    35ca:	4298      	cmp	r0, r3
    35cc:	bf88      	it	hi
    35ce:	6123      	strhi	r3, [r4, #16]
    35d0:	6920      	ldr	r0, [r4, #16]
    35d2:	6060      	str	r0, [r4, #4]
    35d4:	e005      	b.n	35e2 <_printf_i+0x1d2>
    35d6:	f104 0642 	add.w	r6, r4, #66	; 0x42
    35da:	f884 5042 	strb.w	r5, [r4, #66]	; 0x42
    35de:	2301      	movs	r3, #1
    35e0:	6123      	str	r3, [r4, #16]
    35e2:	2100      	movs	r1, #0
    35e4:	f884 1043 	strb.w	r1, [r4, #67]	; 0x43
    35e8:	f8cd 9000 	str.w	r9, [sp]
    35ec:	4638      	mov	r0, r7
    35ee:	4621      	mov	r1, r4
    35f0:	aa03      	add	r2, sp, #12
    35f2:	4643      	mov	r3, r8
    35f4:	f7ff fe9c 	bl	3330 <_printf_common>
    35f8:	3001      	adds	r0, #1
    35fa:	d102      	bne.n	3602 <_printf_i+0x1f2>
    35fc:	f04f 30ff 	mov.w	r0, #4294967295
    3600:	e022      	b.n	3648 <_printf_i+0x238>
    3602:	2500      	movs	r5, #0
    3604:	6922      	ldr	r2, [r4, #16]
    3606:	4295      	cmp	r5, r2
    3608:	da07      	bge.n	361a <_printf_i+0x20a>
    360a:	4638      	mov	r0, r7
    360c:	5d71      	ldrb	r1, [r6, r5]
    360e:	4642      	mov	r2, r8
    3610:	47c8      	blx	r9
    3612:	3001      	adds	r0, #1
    3614:	d0f2      	beq.n	35fc <_printf_i+0x1ec>
    3616:	3501      	adds	r5, #1
    3618:	e7f4      	b.n	3604 <_printf_i+0x1f4>
    361a:	6821      	ldr	r1, [r4, #0]
    361c:	0789      	lsls	r1, r1, #30
    361e:	d405      	bmi.n	362c <_printf_i+0x21c>
    3620:	68e0      	ldr	r0, [r4, #12]
    3622:	9903      	ldr	r1, [sp, #12]
    3624:	4288      	cmp	r0, r1
    3626:	bfb8      	it	lt
    3628:	4608      	movlt	r0, r1
    362a:	e00d      	b.n	3648 <_printf_i+0x238>
    362c:	2500      	movs	r5, #0
    362e:	68e0      	ldr	r0, [r4, #12]
    3630:	9b03      	ldr	r3, [sp, #12]
    3632:	1ac2      	subs	r2, r0, r3
    3634:	4295      	cmp	r5, r2
    3636:	daf3      	bge.n	3620 <_printf_i+0x210>
    3638:	4638      	mov	r0, r7
    363a:	7e61      	ldrb	r1, [r4, #25]
    363c:	4642      	mov	r2, r8
    363e:	47c8      	blx	r9
    3640:	3001      	adds	r0, #1
    3642:	d0db      	beq.n	35fc <_printf_i+0x1ec>
    3644:	3501      	adds	r5, #1
    3646:	e7f2      	b.n	362e <_printf_i+0x21e>
    3648:	b005      	add	sp, #20
    364a:	e8bd 83f0 	ldmia.w	sp!, {r4, r5, r6, r7, r8, r9, pc}
    364e:	bf00      	nop
    3650:	00006fd1 	.word	0x00006fd1
    3654:	00006fe2 	.word	0x00006fe2

00003658 <_scanf_float>:
    3658:	e92d 4ff0 	stmdb	sp!, {r4, r5, r6, r7, r8, r9, r10, r11, lr}
    365c:	b087      	sub	sp, #28
    365e:	9303      	str	r3, [sp, #12]
    3660:	688b      	ldr	r3, [r1, #8]
    3662:	4616      	mov	r6, r2
    3664:	1e5a      	subs	r2, r3, #1
    3666:	f5b2 7fae 	cmp.w	r2, #348	; 0x15c
    366a:	4607      	mov	r7, r0
    366c:	460c      	mov	r4, r1
    366e:	d907      	bls.n	3680 <_scanf_float+0x28>
    3670:	f46f 70ae 	mvn.w	r0, #348	; 0x15c
    3674:	f240 115d 	movw	r1, #349	; 0x15d
    3678:	eb03 0c00 	add.w	r12, r3, r0
    367c:	60a1      	str	r1, [r4, #8]
    367e:	e001      	b.n	3684 <_scanf_float+0x2c>
    3680:	f04f 0c00 	mov.w	r12, #0
    3684:	6825      	ldr	r5, [r4, #0]
    3686:	46a0      	mov	r8, r4
    3688:	f445 63f0 	orr.w	r3, r5, #1920	; 0x780
    368c:	f848 3b1c 	str.w	r3, [r8], #28
    3690:	2500      	movs	r5, #0
    3692:	46c3      	mov	r11, r8
    3694:	462a      	mov	r2, r5
    3696:	46a9      	mov	r9, r5
    3698:	9505      	str	r5, [sp, #20]
    369a:	46aa      	mov	r10, r5
    369c:	9504      	str	r5, [sp, #16]
    369e:	68a1      	ldr	r1, [r4, #8]
    36a0:	2900      	cmp	r1, #0
    36a2:	f000 80df 	beq.w	3864 <_scanf_float+0x20c>
    36a6:	6830      	ldr	r0, [r6, #0]
    36a8:	7803      	ldrb	r3, [r0, #0]
    36aa:	2b4e      	cmp	r3, #78	; 0x4e
    36ac:	d05c      	beq.n	3768 <_scanf_float+0x110>
    36ae:	d81d      	bhi.n	36ec <_scanf_float+0x94>
    36b0:	2b39      	cmp	r3, #57	; 0x39
    36b2:	d80f      	bhi.n	36d4 <_scanf_float+0x7c>
    36b4:	2b31      	cmp	r3, #49	; 0x31
    36b6:	d247      	bcs.n	3748 <_scanf_float+0xf0>
    36b8:	2b2e      	cmp	r3, #46	; 0x2e
    36ba:	f000 8090 	beq.w	37de <_scanf_float+0x186>
    36be:	d805      	bhi.n	36cc <_scanf_float+0x74>
    36c0:	2b2b      	cmp	r3, #43	; 0x2b
    36c2:	d049      	beq.n	3758 <_scanf_float+0x100>
    36c4:	2b2d      	cmp	r3, #45	; 0x2d
    36c6:	f040 80cd 	bne.w	3864 <_scanf_float+0x20c>
    36ca:	e045      	b.n	3758 <_scanf_float+0x100>
    36cc:	2b30      	cmp	r3, #48	; 0x30
    36ce:	f040 80c9 	bne.w	3864 <_scanf_float+0x20c>
    36d2:	e028      	b.n	3726 <_scanf_float+0xce>
    36d4:	2b45      	cmp	r3, #69	; 0x45
    36d6:	f000 808b 	beq.w	37f0 <_scanf_float+0x198>
    36da:	d803      	bhi.n	36e4 <_scanf_float+0x8c>
    36dc:	2b41      	cmp	r3, #65	; 0x41
    36de:	f040 80c1 	bne.w	3864 <_scanf_float+0x20c>
    36e2:	e056      	b.n	3792 <_scanf_float+0x13a>
    36e4:	2b46      	cmp	r3, #70	; 0x46
    36e6:	d06e      	beq.n	37c6 <_scanf_float+0x16e>
    36e8:	2b49      	cmp	r3, #73	; 0x49
    36ea:	e013      	b.n	3714 <_scanf_float+0xbc>
    36ec:	2b66      	cmp	r3, #102	; 0x66
    36ee:	d06a      	beq.n	37c6 <_scanf_float+0x16e>
    36f0:	d80c      	bhi.n	370c <_scanf_float+0xb4>
    36f2:	2b59      	cmp	r3, #89	; 0x59
    36f4:	d06f      	beq.n	37d6 <_scanf_float+0x17e>
    36f6:	d803      	bhi.n	3700 <_scanf_float+0xa8>
    36f8:	2b54      	cmp	r3, #84	; 0x54
    36fa:	f040 80b3 	bne.w	3864 <_scanf_float+0x20c>
    36fe:	e066      	b.n	37ce <_scanf_float+0x176>
    3700:	2b61      	cmp	r3, #97	; 0x61
    3702:	d046      	beq.n	3792 <_scanf_float+0x13a>
    3704:	2b65      	cmp	r3, #101	; 0x65
    3706:	f040 80ad 	bne.w	3864 <_scanf_float+0x20c>
    370a:	e071      	b.n	37f0 <_scanf_float+0x198>
    370c:	2b6e      	cmp	r3, #110	; 0x6e
    370e:	d02b      	beq.n	3768 <_scanf_float+0x110>
    3710:	d803      	bhi.n	371a <_scanf_float+0xc2>
    3712:	2b69      	cmp	r3, #105	; 0x69
    3714:	f040 80a6 	bne.w	3864 <_scanf_float+0x20c>
    3718:	e03f      	b.n	379a <_scanf_float+0x142>
    371a:	2b74      	cmp	r3, #116	; 0x74
    371c:	d057      	beq.n	37ce <_scanf_float+0x176>
    371e:	2b79      	cmp	r3, #121	; 0x79
    3720:	f040 80a0 	bne.w	3864 <_scanf_float+0x20c>
    3724:	e057      	b.n	37d6 <_scanf_float+0x17e>
    3726:	6820      	ldr	r0, [r4, #0]
    3728:	f410 7f80 	tst.w	r0, #256	; 0x100
    372c:	d00c      	beq.n	3748 <_scanf_float+0xf0>
    372e:	f020 0380 	bic.w	r3, r0, #128	; 0x80
    3732:	6023      	str	r3, [r4, #0]
    3734:	f10a 0a01 	add.w	r10, r10, #1
    3738:	f1bc 0f00 	cmp.w	r12, #0
    373c:	d075      	beq.n	382a <_scanf_float+0x1d2>
    373e:	3101      	adds	r1, #1
    3740:	f10c 3cff 	add.w	r12, r12, #4294967295
    3744:	60a1      	str	r1, [r4, #8]
    3746:	e070      	b.n	382a <_scanf_float+0x1d2>
    3748:	1951      	adds	r1, r2, r5
    374a:	2900      	cmp	r1, #0
    374c:	f040 808a 	bne.w	3864 <_scanf_float+0x20c>
    3750:	6820      	ldr	r0, [r4, #0]
    3752:	f420 70c0 	bic.w	r0, r0, #384	; 0x180
    3756:	e005      	b.n	3764 <_scanf_float+0x10c>
    3758:	6821      	ldr	r1, [r4, #0]
    375a:	0608      	lsls	r0, r1, #24
    375c:	f140 8082 	bpl.w	3864 <_scanf_float+0x20c>
    3760:	f021 0080 	bic.w	r0, r1, #128	; 0x80
    3764:	6020      	str	r0, [r4, #0]
    3766:	e05e      	b.n	3826 <_scanf_float+0x1ce>
    3768:	b96a      	cbnz	r2, 3786 <_scanf_float+0x12e>
    376a:	f1ba 0f00 	cmp.w	r10, #0
    376e:	d10c      	bne.n	378a <_scanf_float+0x132>
    3770:	6821      	ldr	r1, [r4, #0]
    3772:	f401 60e0 	and.w	r0, r1, #1792	; 0x700
    3776:	f5b0 6fe0 	cmp.w	r0, #1792	; 0x700
    377a:	d106      	bne.n	378a <_scanf_float+0x132>
    377c:	f421 62f0 	bic.w	r2, r1, #1920	; 0x780
    3780:	6022      	str	r2, [r4, #0]
    3782:	2201      	movs	r2, #1
    3784:	e04f      	b.n	3826 <_scanf_float+0x1ce>
    3786:	2a02      	cmp	r2, #2
    3788:	d04c      	beq.n	3824 <_scanf_float+0x1cc>
    378a:	2d01      	cmp	r5, #1
    378c:	d018      	beq.n	37c0 <_scanf_float+0x168>
    378e:	2d04      	cmp	r5, #4
    3790:	e015      	b.n	37be <_scanf_float+0x166>
    3792:	2a01      	cmp	r2, #1
    3794:	d166      	bne.n	3864 <_scanf_float+0x20c>
    3796:	2202      	movs	r2, #2
    3798:	e045      	b.n	3826 <_scanf_float+0x1ce>
    379a:	b96d      	cbnz	r5, 37b8 <_scanf_float+0x160>
    379c:	f1ba 0f00 	cmp.w	r10, #0
    37a0:	d163      	bne.n	386a <_scanf_float+0x212>
    37a2:	6821      	ldr	r1, [r4, #0]
    37a4:	f401 60e0 	and.w	r0, r1, #1792	; 0x700
    37a8:	f5b0 6fe0 	cmp.w	r0, #1792	; 0x700
    37ac:	d161      	bne.n	3872 <_scanf_float+0x21a>
    37ae:	f421 65f0 	bic.w	r5, r1, #1920	; 0x780
    37b2:	6025      	str	r5, [r4, #0]
    37b4:	2501      	movs	r5, #1
    37b6:	e036      	b.n	3826 <_scanf_float+0x1ce>
    37b8:	2d03      	cmp	r5, #3
    37ba:	d001      	beq.n	37c0 <_scanf_float+0x168>
    37bc:	2d05      	cmp	r5, #5
    37be:	d151      	bne.n	3864 <_scanf_float+0x20c>
    37c0:	3501      	adds	r5, #1
    37c2:	b2ed      	uxtb	r5, r5
    37c4:	e02f      	b.n	3826 <_scanf_float+0x1ce>
    37c6:	2d02      	cmp	r5, #2
    37c8:	d14c      	bne.n	3864 <_scanf_float+0x20c>
    37ca:	2503      	movs	r5, #3
    37cc:	e02b      	b.n	3826 <_scanf_float+0x1ce>
    37ce:	2d06      	cmp	r5, #6
    37d0:	d148      	bne.n	3864 <_scanf_float+0x20c>
    37d2:	2507      	movs	r5, #7
    37d4:	e027      	b.n	3826 <_scanf_float+0x1ce>
    37d6:	2d07      	cmp	r5, #7
    37d8:	d144      	bne.n	3864 <_scanf_float+0x20c>
    37da:	2508      	movs	r5, #8
    37dc:	e023      	b.n	3826 <_scanf_float+0x1ce>
    37de:	6821      	ldr	r1, [r4, #0]
    37e0:	0588      	lsls	r0, r1, #22
    37e2:	d53f      	bpl.n	3864 <_scanf_float+0x20c>
    37e4:	f421 7020 	bic.w	r0, r1, #640	; 0x280
    37e8:	6020      	str	r0, [r4, #0]
    37ea:	f8cd a010 	str.w	r10, [sp, #16]
    37ee:	e01a      	b.n	3826 <_scanf_float+0x1ce>
    37f0:	6821      	ldr	r1, [r4, #0]
    37f2:	f401 60a0 	and.w	r0, r1, #1280	; 0x500
    37f6:	f5b0 6f80 	cmp.w	r0, #1024	; 0x400
    37fa:	d004      	beq.n	3806 <_scanf_float+0x1ae>
    37fc:	0548      	lsls	r0, r1, #21
    37fe:	d531      	bpl.n	3864 <_scanf_float+0x20c>
    3800:	f1ba 0f00 	cmp.w	r10, #0
    3804:	d035      	beq.n	3872 <_scanf_float+0x21a>
    3806:	0588      	lsls	r0, r1, #22
    3808:	d404      	bmi.n	3814 <_scanf_float+0x1bc>
    380a:	9804      	ldr	r0, [sp, #16]
    380c:	46d9      	mov	r9, r11
    380e:	ebc0 000a 	rsb	r0, r0, r10
    3812:	9005      	str	r0, [sp, #20]
    3814:	f421 61f0 	bic.w	r1, r1, #1920	; 0x780
    3818:	f441 70c0 	orr.w	r0, r1, #384	; 0x180
    381c:	6020      	str	r0, [r4, #0]
    381e:	f04f 0a00 	mov.w	r10, #0
    3822:	e000      	b.n	3826 <_scanf_float+0x1ce>
    3824:	2203      	movs	r2, #3
    3826:	f80b 3b01 	strb.w	r3, [r11], #1
    382a:	68a3      	ldr	r3, [r4, #8]
    382c:	6920      	ldr	r0, [r4, #16]
    382e:	1e59      	subs	r1, r3, #1
    3830:	60a1      	str	r1, [r4, #8]
    3832:	6871      	ldr	r1, [r6, #4]
    3834:	1c43      	adds	r3, r0, #1
    3836:	1e48      	subs	r0, r1, #1
    3838:	2800      	cmp	r0, #0
    383a:	6123      	str	r3, [r4, #16]
    383c:	6070      	str	r0, [r6, #4]
    383e:	dd03      	ble.n	3848 <_scanf_float+0x1f0>
    3840:	6833      	ldr	r3, [r6, #0]
    3842:	1c59      	adds	r1, r3, #1
    3844:	6031      	str	r1, [r6, #0]
    3846:	e72a      	b.n	369e <_scanf_float+0x46>
    3848:	9202      	str	r2, [sp, #8]
    384a:	f8cd c004 	str.w	r12, [sp, #4]
    384e:	f8d4 3180 	ldr.w	r3, [r4, #384]	; 0x180
    3852:	4638      	mov	r0, r7
    3854:	4631      	mov	r1, r6
    3856:	4798      	blx	r3
    3858:	9a02      	ldr	r2, [sp, #8]
    385a:	f8dd c004 	ldr.w	r12, [sp, #4]
    385e:	2800      	cmp	r0, #0
    3860:	f43f af1d 	beq.w	369e <_scanf_float+0x46>
    3864:	f1ba 0f00 	cmp.w	r10, #0
    3868:	d003      	beq.n	3872 <_scanf_float+0x21a>
    386a:	6821      	ldr	r1, [r4, #0]
    386c:	f421 7080 	bic.w	r0, r1, #256	; 0x100
    3870:	6020      	str	r0, [r4, #0]
    3872:	1e53      	subs	r3, r2, #1
    3874:	2b01      	cmp	r3, #1
    3876:	d811      	bhi.n	389c <_scanf_float+0x244>
    3878:	45c3      	cmp	r11, r8
    387a:	465a      	mov	r2, r11
    387c:	d90c      	bls.n	3898 <_scanf_float+0x240>
    387e:	f812 1c01 	ldrb.w	r1, [r2, #-1]
    3882:	f8d4 317c 	ldr.w	r3, [r4, #380]	; 0x17c
    3886:	4638      	mov	r0, r7
    3888:	4632      	mov	r2, r6
    388a:	4798      	blx	r3
    388c:	6921      	ldr	r1, [r4, #16]
    388e:	f10b 3bff 	add.w	r11, r11, #4294967295
    3892:	1e48      	subs	r0, r1, #1
    3894:	6120      	str	r0, [r4, #16]
    3896:	e7ef      	b.n	3878 <_scanf_float+0x220>
    3898:	2001      	movs	r0, #1
    389a:	e0b4      	b.n	3a06 <_scanf_float+0x3ae>
    389c:	1e6a      	subs	r2, r5, #1
    389e:	2a06      	cmp	r2, #6
    38a0:	d82e      	bhi.n	3900 <_scanf_float+0x2a8>
    38a2:	2d02      	cmp	r5, #2
    38a4:	d91c      	bls.n	38e0 <_scanf_float+0x288>
    38a6:	46dc      	mov	r12, r11
    38a8:	ebcb 0105 	rsb	r1, r11, r5
    38ac:	eb01 030c 	add.w	r3, r1, r12
    38b0:	f003 00ff 	and.w	r0, r3, #255	; 0xff
    38b4:	2803      	cmp	r0, #3
    38b6:	d90e      	bls.n	38d6 <_scanf_float+0x27e>
    38b8:	f81c 1d01 	ldrb.w	r1, [r12, #-1]!
    38bc:	f8d4 317c 	ldr.w	r3, [r4, #380]	; 0x17c
    38c0:	f8cd c004 	str.w	r12, [sp, #4]
    38c4:	4638      	mov	r0, r7
    38c6:	4632      	mov	r2, r6
    38c8:	4798      	blx	r3
    38ca:	6921      	ldr	r1, [r4, #16]
    38cc:	f8dd c004 	ldr.w	r12, [sp, #4]
    38d0:	1e48      	subs	r0, r1, #1
    38d2:	6120      	str	r0, [r4, #16]
    38d4:	e7e8      	b.n	38a8 <_scanf_float+0x250>
    38d6:	3d03      	subs	r5, #3
    38d8:	b2ed      	uxtb	r5, r5
    38da:	ebc5 0b0b 	rsb	r11, r5, r11
    38de:	e00f      	b.n	3900 <_scanf_float+0x2a8>
    38e0:	45c3      	cmp	r11, r8
    38e2:	4659      	mov	r1, r11
    38e4:	d9d8      	bls.n	3898 <_scanf_float+0x240>
    38e6:	4632      	mov	r2, r6
    38e8:	f8d4 317c 	ldr.w	r3, [r4, #380]	; 0x17c
    38ec:	4638      	mov	r0, r7
    38ee:	f811 1c01 	ldrb.w	r1, [r1, #-1]
    38f2:	4798      	blx	r3
    38f4:	6920      	ldr	r0, [r4, #16]
    38f6:	f10b 3bff 	add.w	r11, r11, #4294967295
    38fa:	1e42      	subs	r2, r0, #1
    38fc:	6122      	str	r2, [r4, #16]
    38fe:	e7ef      	b.n	38e0 <_scanf_float+0x288>
    3900:	6821      	ldr	r1, [r4, #0]
    3902:	05ca      	lsls	r2, r1, #23
    3904:	d52e      	bpl.n	3964 <_scanf_float+0x30c>
    3906:	054b      	lsls	r3, r1, #21
    3908:	d50f      	bpl.n	392a <_scanf_float+0x2d2>
    390a:	45c3      	cmp	r11, r8
    390c:	4659      	mov	r1, r11
    390e:	d9c3      	bls.n	3898 <_scanf_float+0x240>
    3910:	4632      	mov	r2, r6
    3912:	f8d4 317c 	ldr.w	r3, [r4, #380]	; 0x17c
    3916:	4638      	mov	r0, r7
    3918:	f811 1c01 	ldrb.w	r1, [r1, #-1]
    391c:	4798      	blx	r3
    391e:	6920      	ldr	r0, [r4, #16]
    3920:	f10b 3bff 	add.w	r11, r11, #4294967295
    3924:	1e42      	subs	r2, r0, #1
    3926:	6122      	str	r2, [r4, #16]
    3928:	e7ef      	b.n	390a <_scanf_float+0x2b2>
    392a:	f81b 1c01 	ldrb.w	r1, [r11, #-1]
    392e:	6922      	ldr	r2, [r4, #16]
    3930:	f10b 35ff 	add.w	r5, r11, #4294967295
    3934:	1e53      	subs	r3, r2, #1
    3936:	2965      	cmp	r1, #101	; 0x65
    3938:	6123      	str	r3, [r4, #16]
    393a:	d00d      	beq.n	3958 <_scanf_float+0x300>
    393c:	2945      	cmp	r1, #69	; 0x45
    393e:	d00b      	beq.n	3958 <_scanf_float+0x300>
    3940:	f8d4 517c 	ldr.w	r5, [r4, #380]	; 0x17c
    3944:	4632      	mov	r2, r6
    3946:	4638      	mov	r0, r7
    3948:	47a8      	blx	r5
    394a:	6920      	ldr	r0, [r4, #16]
    394c:	f81b 1c02 	ldrb.w	r1, [r11, #-2]
    3950:	1e42      	subs	r2, r0, #1
    3952:	f1ab 0502 	sub.w	r5, r11, #2
    3956:	6122      	str	r2, [r4, #16]
    3958:	f8d4 317c 	ldr.w	r3, [r4, #380]	; 0x17c
    395c:	4638      	mov	r0, r7
    395e:	4632      	mov	r2, r6
    3960:	4798      	blx	r3
    3962:	46ab      	mov	r11, r5
    3964:	6821      	ldr	r1, [r4, #0]
    3966:	f011 0210 	ands.w	r2, r1, #16
    396a:	d14b      	bne.n	3a04 <_scanf_float+0x3ac>
    396c:	f88b 2000 	strb.w	r2, [r11]
    3970:	6826      	ldr	r6, [r4, #0]
    3972:	f406 65c0 	and.w	r5, r6, #1536	; 0x600
    3976:	f5b5 6f80 	cmp.w	r5, #1024	; 0x400
    397a:	d106      	bne.n	398a <_scanf_float+0x332>
    397c:	9804      	ldr	r0, [sp, #16]
    397e:	ebc0 030a 	rsb	r3, r0, r10
    3982:	425a      	negs	r2, r3
    3984:	b1a3      	cbz	r3, 39b0 <_scanf_float+0x358>
    3986:	46d9      	mov	r9, r11
    3988:	e008      	b.n	399c <_scanf_float+0x344>
    398a:	9e05      	ldr	r6, [sp, #20]
    398c:	b186      	cbz	r6, 39b0 <_scanf_float+0x358>
    398e:	4638      	mov	r0, r7
    3990:	f109 0101 	add.w	r1, r9, #1
    3994:	230a      	movs	r3, #10
    3996:	f002 fba7 	bl	60e8 <_strtol_r>
    399a:	1b82      	subs	r2, r0, r6
    399c:	f204 116f 	addw	r1, r4, #367	; 0x16f
    39a0:	4589      	cmp	r9, r1
    39a2:	bf28      	it	cs
    39a4:	f504 79b7 	addcs.w	r9, r4, #366	; 0x16e
    39a8:	4648      	mov	r0, r9
    39aa:	4918      	ldr	r1, [pc, #96]	; (3a0c <_scanf_float+0x3b4>)
    39ac:	f001 fdda 	bl	5564 <siprintf>
    39b0:	2200      	movs	r2, #0
    39b2:	4638      	mov	r0, r7
    39b4:	4641      	mov	r1, r8
    39b6:	f001 fe0f 	bl	55d8 <_strtod_r>
    39ba:	6822      	ldr	r2, [r4, #0]
    39bc:	9d03      	ldr	r5, [sp, #12]
    39be:	f012 0f02 	tst.w	r2, #2
    39c2:	4606      	mov	r6, r0
    39c4:	460f      	mov	r7, r1
    39c6:	682b      	ldr	r3, [r5, #0]
    39c8:	d002      	beq.n	39d0 <_scanf_float+0x378>
    39ca:	1d18      	adds	r0, r3, #4
    39cc:	6028      	str	r0, [r5, #0]
    39ce:	e006      	b.n	39de <_scanf_float+0x386>
    39d0:	9d03      	ldr	r5, [sp, #12]
    39d2:	f012 0f04 	tst.w	r2, #4
    39d6:	f103 0204 	add.w	r2, r3, #4
    39da:	602a      	str	r2, [r5, #0]
    39dc:	d003      	beq.n	39e6 <_scanf_float+0x38e>
    39de:	6819      	ldr	r1, [r3, #0]
    39e0:	e9c1 6700 	strd	r6, r7, [r1]
    39e4:	e00b      	b.n	39fe <_scanf_float+0x3a6>
    39e6:	681d      	ldr	r5, [r3, #0]
    39e8:	f001 fd86 	bl	54f8 <__fpclassifyd>
    39ec:	b910      	cbnz	r0, 39f4 <_scanf_float+0x39c>
    39ee:	f001 fdb5 	bl	555c <nanf>
    39f2:	e003      	b.n	39fc <_scanf_float+0x3a4>
    39f4:	4630      	mov	r0, r6
    39f6:	4639      	mov	r1, r7
    39f8:	f7fe fbfe 	bl	21f8 <__aeabi_d2f>
    39fc:	6028      	str	r0, [r5, #0]
    39fe:	68e3      	ldr	r3, [r4, #12]
    3a00:	1c5a      	adds	r2, r3, #1
    3a02:	60e2      	str	r2, [r4, #12]
    3a04:	2000      	movs	r0, #0
    3a06:	b007      	add	sp, #28
    3a08:	e8bd 8ff0 	ldmia.w	sp!, {r4, r5, r6, r7, r8, r9, r10, r11, pc}
    3a0c:	00006ff3 	.word	0x00006ff3

00003a10 <__swbuf_r>:
    3a10:	b570      	push	{r4, r5, r6, lr}
    3a12:	460e      	mov	r6, r1
    3a14:	4614      	mov	r4, r2
    3a16:	4605      	mov	r5, r0
    3a18:	b118      	cbz	r0, 3a22 <__swbuf_r+0x12>
    3a1a:	6983      	ldr	r3, [r0, #24]
    3a1c:	b90b      	cbnz	r3, 3a22 <__swbuf_r+0x12>
    3a1e:	f001 f80f 	bl	4a40 <__sinit>
    3a22:	4825      	ldr	r0, [pc, #148]	; (3ab8 <__swbuf_r+0xa8>)
    3a24:	4284      	cmp	r4, r0
    3a26:	d101      	bne.n	3a2c <__swbuf_r+0x1c>
    3a28:	686c      	ldr	r4, [r5, #4]
    3a2a:	e008      	b.n	3a3e <__swbuf_r+0x2e>
    3a2c:	4923      	ldr	r1, [pc, #140]	; (3abc <__swbuf_r+0xac>)
    3a2e:	428c      	cmp	r4, r1
    3a30:	d101      	bne.n	3a36 <__swbuf_r+0x26>
    3a32:	68ac      	ldr	r4, [r5, #8]
    3a34:	e003      	b.n	3a3e <__swbuf_r+0x2e>
    3a36:	4a22      	ldr	r2, [pc, #136]	; (3ac0 <__swbuf_r+0xb0>)
    3a38:	4294      	cmp	r4, r2
    3a3a:	bf08      	it	eq
    3a3c:	68ec      	ldreq	r4, [r5, #12]
    3a3e:	89a0      	ldrh	r0, [r4, #12]
    3a40:	69a3      	ldr	r3, [r4, #24]
    3a42:	f000 0108 	and.w	r1, r0, #8
    3a46:	b20a      	sxth	r2, r1
    3a48:	60a3      	str	r3, [r4, #8]
    3a4a:	b10a      	cbz	r2, 3a50 <__swbuf_r+0x40>
    3a4c:	6923      	ldr	r3, [r4, #16]
    3a4e:	b95b      	cbnz	r3, 3a68 <__swbuf_r+0x58>
    3a50:	4628      	mov	r0, r5
    3a52:	4621      	mov	r1, r4
    3a54:	f000 f848 	bl	3ae8 <__swsetup_r>
    3a58:	b130      	cbz	r0, 3a68 <__swbuf_r+0x58>
    3a5a:	89a6      	ldrh	r6, [r4, #12]
    3a5c:	2009      	movs	r0, #9
    3a5e:	f046 0240 	orr.w	r2, r6, #64	; 0x40
    3a62:	81a2      	strh	r2, [r4, #12]
    3a64:	6028      	str	r0, [r5, #0]
    3a66:	e00b      	b.n	3a80 <__swbuf_r+0x70>
    3a68:	6820      	ldr	r0, [r4, #0]
    3a6a:	6921      	ldr	r1, [r4, #16]
    3a6c:	6962      	ldr	r2, [r4, #20]
    3a6e:	1a40      	subs	r0, r0, r1
    3a70:	4290      	cmp	r0, r2
    3a72:	b2f6      	uxtb	r6, r6
    3a74:	db07      	blt.n	3a86 <__swbuf_r+0x76>
    3a76:	4628      	mov	r0, r5
    3a78:	4621      	mov	r1, r4
    3a7a:	f000 fee9 	bl	4850 <_fflush_r>
    3a7e:	b110      	cbz	r0, 3a86 <__swbuf_r+0x76>
    3a80:	f04f 36ff 	mov.w	r6, #4294967295
    3a84:	e015      	b.n	3ab2 <__swbuf_r+0xa2>
    3a86:	68a3      	ldr	r3, [r4, #8]
    3a88:	6822      	ldr	r2, [r4, #0]
    3a8a:	1e59      	subs	r1, r3, #1
    3a8c:	60a1      	str	r1, [r4, #8]
    3a8e:	f802 6b01 	strb.w	r6, [r2], #1
    3a92:	6963      	ldr	r3, [r4, #20]
    3a94:	3001      	adds	r0, #1
    3a96:	4298      	cmp	r0, r3
    3a98:	6022      	str	r2, [r4, #0]
    3a9a:	d004      	beq.n	3aa6 <__swbuf_r+0x96>
    3a9c:	89a1      	ldrh	r1, [r4, #12]
    3a9e:	07cb      	lsls	r3, r1, #31
    3aa0:	d507      	bpl.n	3ab2 <__swbuf_r+0xa2>
    3aa2:	2e0a      	cmp	r6, #10
    3aa4:	d105      	bne.n	3ab2 <__swbuf_r+0xa2>
    3aa6:	4628      	mov	r0, r5
    3aa8:	4621      	mov	r1, r4
    3aaa:	f000 fed1 	bl	4850 <_fflush_r>
    3aae:	2800      	cmp	r0, #0
    3ab0:	d1e6      	bne.n	3a80 <__swbuf_r+0x70>
    3ab2:	4630      	mov	r0, r6
    3ab4:	bd70      	pop	{r4, r5, r6, pc}
    3ab6:	bf00      	nop
    3ab8:	00007108 	.word	0x00007108
    3abc:	00007128 	.word	0x00007128
    3ac0:	00007148 	.word	0x00007148

00003ac4 <_write_r>:
    3ac4:	b538      	push	{r3, r4, r5, lr}
    3ac6:	4c07      	ldr	r4, [pc, #28]	; (3ae4 <_write_r+0x20>)
    3ac8:	4605      	mov	r5, r0
    3aca:	2000      	movs	r0, #0
    3acc:	6020      	str	r0, [r4, #0]
    3ace:	4608      	mov	r0, r1
    3ad0:	4611      	mov	r1, r2
    3ad2:	461a      	mov	r2, r3
    3ad4:	f7fd f8c0 	bl	c58 <_write>
    3ad8:	1c43      	adds	r3, r0, #1
    3ada:	d102      	bne.n	3ae2 <_write_r+0x1e>
    3adc:	6823      	ldr	r3, [r4, #0]
    3ade:	b103      	cbz	r3, 3ae2 <_write_r+0x1e>
    3ae0:	602b      	str	r3, [r5, #0]
    3ae2:	bd38      	pop	{r3, r4, r5, pc}
    3ae4:	1000068c 	.word	0x1000068c

00003ae8 <__swsetup_r>:
    3ae8:	4a36      	ldr	r2, [pc, #216]	; (3bc4 <__swsetup_r+0xdc>)
    3aea:	b570      	push	{r4, r5, r6, lr}
    3aec:	4605      	mov	r5, r0
    3aee:	6810      	ldr	r0, [r2, #0]
    3af0:	460c      	mov	r4, r1
    3af2:	4616      	mov	r6, r2
    3af4:	b118      	cbz	r0, 3afe <__swsetup_r+0x16>
    3af6:	6981      	ldr	r1, [r0, #24]
    3af8:	b909      	cbnz	r1, 3afe <__swsetup_r+0x16>
    3afa:	f000 ffa1 	bl	4a40 <__sinit>
    3afe:	4b32      	ldr	r3, [pc, #200]	; (3bc8 <__swsetup_r+0xe0>)
    3b00:	429c      	cmp	r4, r3
    3b02:	d102      	bne.n	3b0a <__swsetup_r+0x22>
    3b04:	6832      	ldr	r2, [r6, #0]
    3b06:	6854      	ldr	r4, [r2, #4]
    3b08:	e00c      	b.n	3b24 <__swsetup_r+0x3c>
    3b0a:	4830      	ldr	r0, [pc, #192]	; (3bcc <__swsetup_r+0xe4>)
    3b0c:	4284      	cmp	r4, r0
    3b0e:	d103      	bne.n	3b18 <__swsetup_r+0x30>
    3b10:	4b2c      	ldr	r3, [pc, #176]	; (3bc4 <__swsetup_r+0xdc>)
    3b12:	6818      	ldr	r0, [r3, #0]
    3b14:	6884      	ldr	r4, [r0, #8]
    3b16:	e005      	b.n	3b24 <__swsetup_r+0x3c>
    3b18:	4a2d      	ldr	r2, [pc, #180]	; (3bd0 <__swsetup_r+0xe8>)
    3b1a:	4294      	cmp	r4, r2
    3b1c:	d102      	bne.n	3b24 <__swsetup_r+0x3c>
    3b1e:	4c29      	ldr	r4, [pc, #164]	; (3bc4 <__swsetup_r+0xdc>)
    3b20:	6821      	ldr	r1, [r4, #0]
    3b22:	68cc      	ldr	r4, [r1, #12]
    3b24:	89a1      	ldrh	r1, [r4, #12]
    3b26:	f001 0308 	and.w	r3, r1, #8
    3b2a:	b218      	sxth	r0, r3
    3b2c:	bb08      	cbnz	r0, 3b72 <__swsetup_r+0x8a>
    3b2e:	f001 0210 	and.w	r2, r1, #16
    3b32:	b213      	sxth	r3, r2
    3b34:	b913      	cbnz	r3, 3b3c <__swsetup_r+0x54>
    3b36:	f04f 30ff 	mov.w	r0, #4294967295
    3b3a:	bd70      	pop	{r4, r5, r6, pc}
    3b3c:	f001 0104 	and.w	r1, r1, #4
    3b40:	b208      	sxth	r0, r1
    3b42:	b190      	cbz	r0, 3b6a <__swsetup_r+0x82>
    3b44:	6b61      	ldr	r1, [r4, #52]	; 0x34
    3b46:	b141      	cbz	r1, 3b5a <__swsetup_r+0x72>
    3b48:	f104 0244 	add.w	r2, r4, #68	; 0x44
    3b4c:	4291      	cmp	r1, r2
    3b4e:	d002      	beq.n	3b56 <__swsetup_r+0x6e>
    3b50:	4628      	mov	r0, r5
    3b52:	f000 ffdd 	bl	4b10 <_free_r>
    3b56:	2300      	movs	r3, #0
    3b58:	6363      	str	r3, [r4, #52]	; 0x34
    3b5a:	89a1      	ldrh	r1, [r4, #12]
    3b5c:	6923      	ldr	r3, [r4, #16]
    3b5e:	f021 0024 	bic.w	r0, r1, #36	; 0x24
    3b62:	2200      	movs	r2, #0
    3b64:	81a0      	strh	r0, [r4, #12]
    3b66:	6062      	str	r2, [r4, #4]
    3b68:	6023      	str	r3, [r4, #0]
    3b6a:	89a1      	ldrh	r1, [r4, #12]
    3b6c:	f041 0008 	orr.w	r0, r1, #8
    3b70:	81a0      	strh	r0, [r4, #12]
    3b72:	6922      	ldr	r2, [r4, #16]
    3b74:	b94a      	cbnz	r2, 3b8a <__swsetup_r+0xa2>
    3b76:	89a3      	ldrh	r3, [r4, #12]
    3b78:	f403 7120 	and.w	r1, r3, #640	; 0x280
    3b7c:	f5b1 7f00 	cmp.w	r1, #512	; 0x200
    3b80:	d003      	beq.n	3b8a <__swsetup_r+0xa2>
    3b82:	4628      	mov	r0, r5
    3b84:	4621      	mov	r1, r4
    3b86:	f001 f81d 	bl	4bc4 <__smakebuf_r>
    3b8a:	89a0      	ldrh	r0, [r4, #12]
    3b8c:	f010 0201 	ands.w	r2, r0, #1
    3b90:	d005      	beq.n	3b9e <__swsetup_r+0xb6>
    3b92:	6963      	ldr	r3, [r4, #20]
    3b94:	2200      	movs	r2, #0
    3b96:	4259      	negs	r1, r3
    3b98:	60a2      	str	r2, [r4, #8]
    3b9a:	61a1      	str	r1, [r4, #24]
    3b9c:	e007      	b.n	3bae <__swsetup_r+0xc6>
    3b9e:	f000 0302 	and.w	r3, r0, #2
    3ba2:	b219      	sxth	r1, r3
    3ba4:	b909      	cbnz	r1, 3baa <__swsetup_r+0xc2>
    3ba6:	6960      	ldr	r0, [r4, #20]
    3ba8:	e000      	b.n	3bac <__swsetup_r+0xc4>
    3baa:	4610      	mov	r0, r2
    3bac:	60a0      	str	r0, [r4, #8]
    3bae:	6920      	ldr	r0, [r4, #16]
    3bb0:	b930      	cbnz	r0, 3bc0 <__swsetup_r+0xd8>
    3bb2:	89a2      	ldrh	r2, [r4, #12]
    3bb4:	f002 0380 	and.w	r3, r2, #128	; 0x80
    3bb8:	b218      	sxth	r0, r3
    3bba:	2800      	cmp	r0, #0
    3bbc:	d1bb      	bne.n	3b36 <__swsetup_r+0x4e>
    3bbe:	bd70      	pop	{r4, r5, r6, pc}
    3bc0:	2000      	movs	r0, #0
    3bc2:	bd70      	pop	{r4, r5, r6, pc}
    3bc4:	100004d8 	.word	0x100004d8
    3bc8:	00007108 	.word	0x00007108
    3bcc:	00007128 	.word	0x00007128
    3bd0:	00007148 	.word	0x00007148

00003bd4 <_close_r>:
    3bd4:	b538      	push	{r3, r4, r5, lr}
    3bd6:	4c06      	ldr	r4, [pc, #24]	; (3bf0 <_close_r+0x1c>)
    3bd8:	2300      	movs	r3, #0
    3bda:	4605      	mov	r5, r0
    3bdc:	4608      	mov	r0, r1
    3bde:	6023      	str	r3, [r4, #0]
    3be0:	f7fd f824 	bl	c2c <_close>
    3be4:	1c43      	adds	r3, r0, #1
    3be6:	d102      	bne.n	3bee <_close_r+0x1a>
    3be8:	6821      	ldr	r1, [r4, #0]
    3bea:	b101      	cbz	r1, 3bee <_close_r+0x1a>
    3bec:	6029      	str	r1, [r5, #0]
    3bee:	bd38      	pop	{r3, r4, r5, pc}
    3bf0:	1000068c 	.word	0x1000068c

00003bf4 <quorem>:
    3bf4:	e92d 4ff7 	stmdb	sp!, {r0, r1, r2, r4, r5, r6, r7, r8, r9, r10, r11, lr}
    3bf8:	690b      	ldr	r3, [r1, #16]
    3bfa:	6902      	ldr	r2, [r0, #16]
    3bfc:	4605      	mov	r5, r0
    3bfe:	429a      	cmp	r2, r3
    3c00:	f2c0 8082 	blt.w	3d08 <quorem+0x114>
    3c04:	1cd8      	adds	r0, r3, #3
    3c06:	0086      	lsls	r6, r0, #2
    3c08:	198a      	adds	r2, r1, r6
    3c0a:	6850      	ldr	r0, [r2, #4]
    3c0c:	1e5c      	subs	r4, r3, #1
    3c0e:	19ab      	adds	r3, r5, r6
    3c10:	f102 0904 	add.w	r9, r2, #4
    3c14:	685a      	ldr	r2, [r3, #4]
    3c16:	1c46      	adds	r6, r0, #1
    3c18:	fbb2 f6f6 	udiv	r6, r2, r6
    3c1c:	f101 0814 	add.w	r8, r1, #20
    3c20:	f105 0714 	add.w	r7, r5, #20
    3c24:	2e00      	cmp	r6, #0
    3c26:	d03d      	beq.n	3ca4 <quorem+0xb0>
    3c28:	2000      	movs	r0, #0
    3c2a:	463a      	mov	r2, r7
    3c2c:	f8cd 8004 	str.w	r8, [sp, #4]
    3c30:	4686      	mov	lr, r0
    3c32:	9b01      	ldr	r3, [sp, #4]
    3c34:	f853 cb04 	ldr.w	r12, [r3], #4
    3c38:	fa1f fa8c 	uxth.w	r10, r12
    3c3c:	fb06 0a0a 	mla	r10, r6, r10, r0
    3c40:	ea4f 401c 	mov.w	r0, r12, lsr #16
    3c44:	9301      	str	r3, [sp, #4]
    3c46:	fb06 f300 	mul.w	r3, r6, r0
    3c4a:	eb03 4c1a 	add.w	r12, r3, r10, lsr #16
    3c4e:	6813      	ldr	r3, [r2, #0]
    3c50:	ea4f 401c 	mov.w	r0, r12, lsr #16
    3c54:	fa1f fb83 	uxth.w	r11, r3
    3c58:	44de      	add	lr, r11
    3c5a:	fa1f fc8c 	uxth.w	r12, r12
    3c5e:	fa1f fa8a 	uxth.w	r10, r10
    3c62:	ebca 0a0e 	rsb	r10, r10, lr
    3c66:	ebcc 4313 	rsb	r3, r12, r3, lsr #16
    3c6a:	eb03 4c2a 	add.w	r12, r3, r10, asr #16
    3c6e:	9b01      	ldr	r3, [sp, #4]
    3c70:	fa1f fa8a 	uxth.w	r10, r10
    3c74:	ea4f 4e2c 	mov.w	lr, r12, asr #16
    3c78:	454b      	cmp	r3, r9
    3c7a:	ea4a 4c0c 	orr.w	r12, r10, r12, lsl #16
    3c7e:	f842 cb04 	str.w	r12, [r2], #4
    3c82:	d9d6      	bls.n	3c32 <quorem+0x3e>
    3c84:	1d22      	adds	r2, r4, #4
    3c86:	eb05 0382 	add.w	r3, r5, r2, lsl #2
    3c8a:	6858      	ldr	r0, [r3, #4]
    3c8c:	b950      	cbnz	r0, 3ca4 <quorem+0xb0>
    3c8e:	42bb      	cmp	r3, r7
    3c90:	461a      	mov	r2, r3
    3c92:	d801      	bhi.n	3c98 <quorem+0xa4>
    3c94:	612c      	str	r4, [r5, #16]
    3c96:	e005      	b.n	3ca4 <quorem+0xb0>
    3c98:	6810      	ldr	r0, [r2, #0]
    3c9a:	3b04      	subs	r3, #4
    3c9c:	2800      	cmp	r0, #0
    3c9e:	d1f9      	bne.n	3c94 <quorem+0xa0>
    3ca0:	3c01      	subs	r4, #1
    3ca2:	e7f4      	b.n	3c8e <quorem+0x9a>
    3ca4:	4628      	mov	r0, r5
    3ca6:	f001 fa45 	bl	5134 <__mcmp>
    3caa:	2800      	cmp	r0, #0
    3cac:	db2a      	blt.n	3d04 <quorem+0x110>
    3cae:	3601      	adds	r6, #1
    3cb0:	463b      	mov	r3, r7
    3cb2:	2000      	movs	r0, #0
    3cb4:	f858 eb04 	ldr.w	lr, [r8], #4
    3cb8:	681a      	ldr	r2, [r3, #0]
    3cba:	fa1f f18e 	uxth.w	r1, lr
    3cbe:	fa1f fa82 	uxth.w	r10, r2
    3cc2:	ebc1 010a 	rsb	r1, r1, r10
    3cc6:	ea4f 4c1e 	mov.w	r12, lr, lsr #16
    3cca:	1809      	adds	r1, r1, r0
    3ccc:	ebcc 4012 	rsb	r0, r12, r2, lsr #16
    3cd0:	eb00 4221 	add.w	r2, r0, r1, asr #16
    3cd4:	b289      	uxth	r1, r1
    3cd6:	1410      	asrs	r0, r2, #16
    3cd8:	ea41 4202 	orr.w	r2, r1, r2, lsl #16
    3cdc:	45c8      	cmp	r8, r9
    3cde:	f843 2b04 	str.w	r2, [r3], #4
    3ce2:	d9e7      	bls.n	3cb4 <quorem+0xc0>
    3ce4:	1d23      	adds	r3, r4, #4
    3ce6:	eb05 0383 	add.w	r3, r5, r3, lsl #2
    3cea:	6858      	ldr	r0, [r3, #4]
    3cec:	b950      	cbnz	r0, 3d04 <quorem+0x110>
    3cee:	42bb      	cmp	r3, r7
    3cf0:	4619      	mov	r1, r3
    3cf2:	d801      	bhi.n	3cf8 <quorem+0x104>
    3cf4:	612c      	str	r4, [r5, #16]
    3cf6:	e005      	b.n	3d04 <quorem+0x110>
    3cf8:	680a      	ldr	r2, [r1, #0]
    3cfa:	3b04      	subs	r3, #4
    3cfc:	2a00      	cmp	r2, #0
    3cfe:	d1f9      	bne.n	3cf4 <quorem+0x100>
    3d00:	3c01      	subs	r4, #1
    3d02:	e7f4      	b.n	3cee <quorem+0xfa>
    3d04:	4630      	mov	r0, r6
    3d06:	e000      	b.n	3d0a <quorem+0x116>
    3d08:	2000      	movs	r0, #0
    3d0a:	e8bd 8ffe 	ldmia.w	sp!, {r1, r2, r3, r4, r5, r6, r7, r8, r9, r10, r11, pc}
	...

00003d10 <_dtoa_r>:
    3d10:	e92d 4ff0 	stmdb	sp!, {r4, r5, r6, r7, r8, r9, r10, r11, lr}
    3d14:	6a45      	ldr	r5, [r0, #36]	; 0x24
    3d16:	b099      	sub	sp, #100	; 0x64
    3d18:	4683      	mov	r11, r0
    3d1a:	9c25      	ldr	r4, [sp, #148]	; 0x94
    3d1c:	e9cd 2304 	strd	r2, r3, [sp, #16]
    3d20:	b945      	cbnz	r5, 3d34 <_dtoa_r+0x24>
    3d22:	2010      	movs	r0, #16
    3d24:	f7fe fdea 	bl	28fc <malloc>
    3d28:	f8cb 0024 	str.w	r0, [r11, #36]	; 0x24
    3d2c:	6045      	str	r5, [r0, #4]
    3d2e:	6085      	str	r5, [r0, #8]
    3d30:	6005      	str	r5, [r0, #0]
    3d32:	60c5      	str	r5, [r0, #12]
    3d34:	f8db 3024 	ldr.w	r3, [r11, #36]	; 0x24
    3d38:	6819      	ldr	r1, [r3, #0]
    3d3a:	b161      	cbz	r1, 3d56 <_dtoa_r+0x46>
    3d3c:	6858      	ldr	r0, [r3, #4]
    3d3e:	2201      	movs	r2, #1
    3d40:	fa02 f600 	lsl.w	r6, r2, r0
    3d44:	6048      	str	r0, [r1, #4]
    3d46:	608e      	str	r6, [r1, #8]
    3d48:	4658      	mov	r0, r11
    3d4a:	f000 ffd2 	bl	4cf2 <_Bfree>
    3d4e:	f8db 1024 	ldr.w	r1, [r11, #36]	; 0x24
    3d52:	2700      	movs	r7, #0
    3d54:	600f      	str	r7, [r1, #0]
    3d56:	9b05      	ldr	r3, [sp, #20]
    3d58:	2b00      	cmp	r3, #0
    3d5a:	da05      	bge.n	3d68 <_dtoa_r+0x58>
    3d5c:	2201      	movs	r2, #1
    3d5e:	f023 4600 	bic.w	r6, r3, #2147483648	; 0x80000000
    3d62:	6022      	str	r2, [r4, #0]
    3d64:	9605      	str	r6, [sp, #20]
    3d66:	e001      	b.n	3d6c <_dtoa_r+0x5c>
    3d68:	2000      	movs	r0, #0
    3d6a:	6020      	str	r0, [r4, #0]
    3d6c:	9f05      	ldr	r7, [sp, #20]
    3d6e:	499a      	ldr	r1, [pc, #616]	; (3fd8 <_dtoa_r+0x2c8>)
    3d70:	4b99      	ldr	r3, [pc, #612]	; (3fd8 <_dtoa_r+0x2c8>)
    3d72:	4039      	ands	r1, r7
    3d74:	4299      	cmp	r1, r3
    3d76:	d11c      	bne.n	3db2 <_dtoa_r+0xa2>
    3d78:	9924      	ldr	r1, [sp, #144]	; 0x90
    3d7a:	9b04      	ldr	r3, [sp, #16]
    3d7c:	f242 720f 	movw	r2, #9999	; 0x270f
    3d80:	600a      	str	r2, [r1, #0]
    3d82:	b93b      	cbnz	r3, 3d94 <_dtoa_r+0x84>
    3d84:	4e95      	ldr	r6, [pc, #596]	; (3fdc <_dtoa_r+0x2cc>)
    3d86:	4896      	ldr	r0, [pc, #600]	; (3fe0 <_dtoa_r+0x2d0>)
    3d88:	f3c7 0713 	ubfx	r7, r7, #0, #20
    3d8c:	2f00      	cmp	r7, #0
    3d8e:	bf18      	it	ne
    3d90:	4630      	movne	r0, r6
    3d92:	e000      	b.n	3d96 <_dtoa_r+0x86>
    3d94:	4891      	ldr	r0, [pc, #580]	; (3fdc <_dtoa_r+0x2cc>)
    3d96:	9e26      	ldr	r6, [sp, #152]	; 0x98
    3d98:	2e00      	cmp	r6, #0
    3d9a:	f000 8552 	beq.w	4842 <_dtoa_r+0xb32>
    3d9e:	78c2      	ldrb	r2, [r0, #3]
    3da0:	b112      	cbz	r2, 3da8 <_dtoa_r+0x98>
    3da2:	f100 0108 	add.w	r1, r0, #8
